	.file	"ch08_print_test.cpp"
	.intel_syntax noprefix
	.text
	.section	.text$_ZNSt8__format5_SinkIcE10_M_reserveEy,"x"
	.linkonce discard
	.align 2
	.p2align 4
	.globl	_ZNSt8__format5_SinkIcE10_M_reserveEy
	.def	_ZNSt8__format5_SinkIcE10_M_reserveEy;	.scl	2;	.type	32;	.endef
	.seh_proc	_ZNSt8__format5_SinkIcE10_M_reserveEy
_ZNSt8__format5_SinkIcE10_M_reserveEy:
.LFB4746:
	sub	rsp, 40
	.seh_stackalloc	40
	.seh_endprologue
	mov	r8, QWORD PTR 16[rcx]
	mov	r9, r8
	mov	rax, rcx
	mov	rcx, QWORD PTR 24[rcx]
	sub	rcx, QWORD PTR 8[rax]
	sub	r9, rcx
	cmp	r9, rdx
	jnb	.L3
	cmp	r8, rdx
	jb	.L4
	mov	r8, QWORD PTR [rax]
	mov	rcx, rax
	mov	QWORD PTR 48[rsp], rax
	mov	QWORD PTR 56[rsp], rdx
	call	[QWORD PTR [r8]]
	mov	rax, QWORD PTR 48[rsp]
	mov	rcx, QWORD PTR 16[rax]
	mov	r8, QWORD PTR 24[rax]
	sub	r8, QWORD PTR 8[rax]
	sub	rcx, r8
	cmp	rcx, QWORD PTR 56[rsp]
	jb	.L4
.L3:
	add	rsp, 40
	ret
	.p2align 4,,10
	.p2align 3
.L4:
	xor	eax, eax
	add	rsp, 40
	ret
	.seh_endproc
	.section	.text$_ZNSt8__format5_SinkIcE7_M_bumpEy,"x"
	.linkonce discard
	.align 2
	.p2align 4
	.globl	_ZNSt8__format5_SinkIcE7_M_bumpEy
	.def	_ZNSt8__format5_SinkIcE7_M_bumpEy;	.scl	2;	.type	32;	.endef
	.seh_proc	_ZNSt8__format5_SinkIcE7_M_bumpEy
_ZNSt8__format5_SinkIcE7_M_bumpEy:
.LFB4949:
	.seh_endprologue
	add	QWORD PTR 24[rcx], rdx
	ret
	.seh_endproc
	.section	.text$_ZNSt8__format14_Fixedbuf_sinkIcE11_M_overflowEv,"x"
	.linkonce discard
	.align 2
	.p2align 4
	.globl	_ZNSt8__format14_Fixedbuf_sinkIcE11_M_overflowEv
	.def	_ZNSt8__format14_Fixedbuf_sinkIcE11_M_overflowEv;	.scl	2;	.type	32;	.endef
	.seh_proc	_ZNSt8__format14_Fixedbuf_sinkIcE11_M_overflowEv
_ZNSt8__format14_Fixedbuf_sinkIcE11_M_overflowEv:
.LFB6070:
	.seh_endprologue
	mov	rax, QWORD PTR 8[rcx]
	mov	QWORD PTR 24[rcx], rax
	ret
	.seh_endproc
	.section	.text$_ZNSt12format_errorD1Ev,"x"
	.linkonce discard
	.align 2
	.p2align 4
	.globl	_ZNSt12format_errorD1Ev
	.def	_ZNSt12format_errorD1Ev;	.scl	2;	.type	32;	.endef
	.seh_proc	_ZNSt12format_errorD1Ev
_ZNSt12format_errorD1Ev:
.LFB3559:
	.seh_endprologue
	lea	rax, _ZTVSt12format_error[rip+16]
	mov	QWORD PTR [rcx], rax
	jmp	_ZNSt13runtime_errorD2Ev
	.seh_endproc
	.section	.text$_ZNSt12format_errorD0Ev,"x"
	.linkonce discard
	.align 2
	.p2align 4
	.globl	_ZNSt12format_errorD0Ev
	.def	_ZNSt12format_errorD0Ev;	.scl	2;	.type	32;	.endef
	.seh_proc	_ZNSt12format_errorD0Ev
_ZNSt12format_errorD0Ev:
.LFB3560:
	sub	rsp, 56
	.seh_stackalloc	56
	.seh_endprologue
	lea	rax, _ZTVSt12format_error[rip+16]
	mov	QWORD PTR [rcx], rax
	mov	QWORD PTR 40[rsp], rcx
	call	_ZNSt13runtime_errorD2Ev
	mov	rcx, QWORD PTR 40[rsp]
	mov	edx, 16
	add	rsp, 56
	jmp	_ZdlPvy
	.seh_endproc
	.section	.text$_ZNSt8__format19_Formatting_scannerINS_10_Sink_iterIcEEcE11_M_on_charsEPKc,"x"
	.linkonce discard
	.align 2
	.p2align 4
	.globl	_ZNSt8__format19_Formatting_scannerINS_10_Sink_iterIcEEcE11_M_on_charsEPKc
	.def	_ZNSt8__format19_Formatting_scannerINS_10_Sink_iterIcEEcE11_M_on_charsEPKc;	.scl	2;	.type	32;	.endef
	.seh_proc	_ZNSt8__format19_Formatting_scannerINS_10_Sink_iterIcEEcE11_M_on_charsEPKc
_ZNSt8__format19_Formatting_scannerINS_10_Sink_iterIcEEcE11_M_on_charsEPKc:
.LFB5249:
	push	r12
	.seh_pushreg	r12
	push	rbp
	.seh_pushreg	rbp
	push	rdi
	.seh_pushreg	rdi
	push	rsi
	.seh_pushreg	rsi
	push	rbx
	.seh_pushreg	rbx
	sub	rsp, 32
	.seh_stackalloc	32
	.seh_endprologue
	mov	rbp, QWORD PTR 8[rcx]
	mov	r12, QWORD PTR 56[rcx]
	mov	rsi, QWORD PTR 16[r12]
	sub	rdx, rbp
	mov	rdi, rdx
	jne	.L26
.L12:
	mov	QWORD PTR 16[r12], rsi
	add	rsp, 32
	pop	rbx
	pop	rsi
	pop	rdi
	pop	rbp
	pop	r12
	ret
	.p2align 4,,10
	.p2align 3
.L26:
	mov	rcx, QWORD PTR 24[rsi]
	mov	rbx, QWORD PTR 16[rsi]
	mov	rax, rcx
	sub	rax, QWORD PTR 8[rsi]
	sub	rbx, rax
	cmp	rdx, rbx
	jb	.L13
	.p2align 4
	.p2align 3
.L15:
	test	rbx, rbx
	je	.L14
	mov	r8, rbx
	mov	rdx, rbp
	call	memcpy
.L14:
	mov	rax, QWORD PTR [rsi]
	add	QWORD PTR 24[rsi], rbx
	mov	rcx, rsi
	add	rbp, rbx
	sub	rdi, rbx
	call	[QWORD PTR [rax]]
	mov	rcx, QWORD PTR 24[rsi]
	mov	rbx, QWORD PTR 16[rsi]
	mov	rax, rcx
	sub	rax, QWORD PTR 8[rsi]
	sub	rbx, rax
	cmp	rdi, rbx
	jnb	.L15
	test	rdi, rdi
	je	.L12
.L13:
	mov	r8, rdi
	mov	rdx, rbp
	call	memcpy
	add	QWORD PTR 24[rsi], rdi
	mov	QWORD PTR 16[r12], rsi
	add	rsp, 32
	pop	rbx
	pop	rsi
	pop	rdi
	pop	rbp
	pop	r12
	ret
	.seh_endproc
	.section	.text$_ZSt20__throw_format_errorPKc,"x"
	.linkonce discard
	.globl	_ZSt20__throw_format_errorPKc
	.def	_ZSt20__throw_format_errorPKc;	.scl	2;	.type	32;	.endef
	.seh_proc	_ZSt20__throw_format_errorPKc
_ZSt20__throw_format_errorPKc:
.LFB3556:
	push	rsi
	.seh_pushreg	rsi
	push	rbx
	.seh_pushreg	rbx
	sub	rsp, 40
	.seh_stackalloc	40
	.seh_endprologue
	mov	rsi, rcx
	mov	ecx, 16
	call	__cxa_allocate_exception
	mov	rdx, rsi
	mov	rcx, rax
	mov	rbx, rax
.LEHB0:
	call	_ZNSt13runtime_errorC2EPKc
.LEHE0:
	lea	rax, _ZTVSt12format_error[rip+16]
	lea	r8, _ZNSt12format_errorD1Ev[rip]
	mov	rcx, rbx
	mov	QWORD PTR [rbx], rax
	lea	rdx, _ZTISt12format_error[rip]
.LEHB1:
	call	__cxa_throw
.L29:
	mov	rsi, rax
.L28:
	mov	rcx, rbx
	call	__cxa_free_exception
	mov	rcx, rsi
	call	_Unwind_Resume
	nop
.LEHE1:
	.seh_handler	__gxx_personality_seh0, @unwind, @except
	.seh_handlerdata
.LLSDA3556:
	.byte	0xff
	.byte	0xff
	.byte	0x1
	.uleb128 .LLSDACSE3556-.LLSDACSB3556
.LLSDACSB3556:
	.uleb128 .LEHB0-.LFB3556
	.uleb128 .LEHE0-.LEHB0
	.uleb128 .L29-.LFB3556
	.uleb128 0
	.uleb128 .LEHB1-.LFB3556
	.uleb128 .LEHE1-.LEHB1
	.uleb128 0
	.uleb128 0
.LLSDACSE3556:
	.section	.text$_ZSt20__throw_format_errorPKc,"x"
	.linkonce discard
	.seh_endproc
	.section .rdata,"dr"
	.align 8
.LC0:
	.ascii "format error: conflicting indexing style in format string\0"
	.section	.text$_ZNSt8__format39__conflicting_indexing_in_format_stringEv,"x"
	.linkonce discard
	.globl	_ZNSt8__format39__conflicting_indexing_in_format_stringEv
	.def	_ZNSt8__format39__conflicting_indexing_in_format_stringEv;	.scl	2;	.type	32;	.endef
	.seh_proc	_ZNSt8__format39__conflicting_indexing_in_format_stringEv
_ZNSt8__format39__conflicting_indexing_in_format_stringEv:
.LFB3563:
	sub	rsp, 40
	.seh_stackalloc	40
	.seh_endprologue
	lea	rcx, .LC0[rip]
	call	_ZSt20__throw_format_errorPKc
	nop
	.seh_endproc
	.section .rdata,"dr"
	.align 8
.LC1:
	.ascii "format error: invalid arg-id in format string\0"
	.section	.text$_ZNSt8__format33__invalid_arg_id_in_format_stringEv,"x"
	.linkonce discard
	.globl	_ZNSt8__format33__invalid_arg_id_in_format_stringEv
	.def	_ZNSt8__format33__invalid_arg_id_in_format_stringEv;	.scl	2;	.type	32;	.endef
	.seh_proc	_ZNSt8__format33__invalid_arg_id_in_format_stringEv
_ZNSt8__format33__invalid_arg_id_in_format_stringEv:
.LFB3564:
	sub	rsp, 40
	.seh_stackalloc	40
	.seh_endprologue
	lea	rcx, .LC1[rip]
	call	_ZSt20__throw_format_errorPKc
	nop
	.seh_endproc
	.section .rdata,"dr"
	.align 8
.LC2:
	.ascii "format error: argument used for width or precision must be a non-negative integer\0"
	.section	.text.unlikely,"x"
	.align 2
.LCOLDB3:
	.text
.LHOTB3:
	.align 2
	.p2align 4
	.def	_ZNKSt8__format5_SpecIcE12_M_get_widthISt20basic_format_contextINS_10_Sink_iterIcEEcEEEyRT_.part.0.isra.0;	.scl	3;	.type	32;	.endef
	.seh_proc	_ZNKSt8__format5_SpecIcE12_M_get_widthISt20basic_format_contextINS_10_Sink_iterIcEEcEEEyRT_.part.0.isra.0
_ZNKSt8__format5_SpecIcE12_M_get_widthISt20basic_format_contextINS_10_Sink_iterIcEEcEEEyRT_.part.0.isra.0:
.LFB6106:
	sub	rsp, 104
	.seh_stackalloc	104
	.seh_endprologue
	movzx	eax, cx
	movzx	ecx, BYTE PTR [rdx]
	mov	r8, rcx
	and	r8d, 15
	cmp	rax, r8
	jnb	.L33
	mov	r8, QWORD PTR [rdx]
	lea	rcx, [rax+rax*4]
	sal	rax, 4
	add	rax, QWORD PTR 8[rdx]
	movdqa	xmm1, XMMWORD PTR [rax]
	shr	r8, 4
	shr	r8, cl
	movaps	XMMWORD PTR 32[rsp], xmm1
	mov	rcx, r8
	and	ecx, 31
.L34:
	lea	rdx, .L38[rip]
	mov	BYTE PTR 48[rsp], cl
	movzx	ecx, cl
	movdqa	xmm0, XMMWORD PTR 32[rsp]
	movsxd	rax, DWORD PTR [rdx+rcx*4]
	movaps	XMMWORD PTR 64[rsp], xmm0
	add	rax, rdx
	jmp	rax
	.section .rdata,"dr"
	.align 4
.L38:
	.long	.L35-.L38
	.long	.L37-.L38
	.long	.L37-.L38
	.long	.L42-.L38
	.long	.L41-.L38
	.long	.L40-.L38
	.long	.L39-.L38
	.long	.L37-.L38
	.long	.L37-.L38
	.long	.L37-.L38
	.long	.L37-.L38
	.long	.L37-.L38
	.long	.L37-.L38
	.long	.L37-.L38
	.long	.L37-.L38
	.long	.L37-.L38
	.text
	.p2align 4,,10
	.p2align 3
.L33:
	and	ecx, 15
	jne	.L35
	mov	rcx, QWORD PTR [rdx]
	shr	rcx, 4
	cmp	rax, rcx
	jnb	.L35
	sal	rax, 5
	add	rax, QWORD PTR 8[rdx]
	movdqu	xmm2, XMMWORD PTR [rax]
	movzx	ecx, BYTE PTR 16[rax]
	movaps	XMMWORD PTR 32[rsp], xmm2
	jmp	.L34
	.p2align 4,,10
	.p2align 3
.L40:
	mov	rax, QWORD PTR 64[rsp]
	test	rax, rax
	js	.L43
	add	rsp, 104
	ret
	.p2align 4,,10
	.p2align 3
.L41:
	mov	eax, DWORD PTR 64[rsp]
	add	rsp, 104
	ret
	.p2align 4,,10
	.p2align 3
.L42:
	movsxd	rax, DWORD PTR 64[rsp]
	test	eax, eax
	js	.L43
	add	rsp, 104
	ret
	.p2align 4,,10
	.p2align 3
.L39:
	mov	rax, QWORD PTR 64[rsp]
	add	rsp, 104
	ret
	.seh_endproc
	.section	.text.unlikely,"x"
	.def	_ZNKSt8__format5_SpecIcE12_M_get_widthISt20basic_format_contextINS_10_Sink_iterIcEEcEEEyRT_.part.0.isra.0.cold;	.scl	3;	.type	32;	.endef
	.seh_proc	_ZNKSt8__format5_SpecIcE12_M_get_widthISt20basic_format_contextINS_10_Sink_iterIcEEcEEEyRT_.part.0.isra.0.cold
	.seh_stackalloc	104
	.seh_endprologue
_ZNKSt8__format5_SpecIcE12_M_get_widthISt20basic_format_contextINS_10_Sink_iterIcEEcEEEyRT_.part.0.isra.0.cold:
.L35:
	call	_ZNSt8__format33__invalid_arg_id_in_format_stringEv
.L43:
	lea	rcx, .LC2[rip]
	call	_ZSt20__throw_format_errorPKc
.L37:
	lea	rcx, .LC2[rip]
	call	_ZSt20__throw_format_errorPKc
	nop
	.text
	.section	.text.unlikely,"x"
	.seh_endproc
.LCOLDE3:
	.text
.LHOTE3:
	.section .rdata,"dr"
	.align 8
.LC4:
	.ascii "format error: failed to parse format-spec\0"
	.section	.text$_ZNSt8__format29__failed_to_parse_format_specEv,"x"
	.linkonce discard
	.globl	_ZNSt8__format29__failed_to_parse_format_specEv
	.def	_ZNSt8__format29__failed_to_parse_format_specEv;	.scl	2;	.type	32;	.endef
	.seh_proc	_ZNSt8__format29__failed_to_parse_format_specEv
_ZNSt8__format29__failed_to_parse_format_specEv:
.LFB3565:
	sub	rsp, 40
	.seh_stackalloc	40
	.seh_endprologue
	lea	rcx, .LC4[rip]
	call	_ZSt20__throw_format_errorPKc
	nop
	.seh_endproc
	.section .rdata,"dr"
	.align 8
.LC5:
	.ascii "format error: unmatched '{' in format string\0"
	.align 8
.LC6:
	.ascii "format error: unmatched '}' in format string\0"
	.section	.text$_ZNSt8__format8_ScannerIcE7_M_scanEv,"x"
	.linkonce discard
	.align 2
	.p2align 4
	.globl	_ZNSt8__format8_ScannerIcE7_M_scanEv
	.def	_ZNSt8__format8_ScannerIcE7_M_scanEv;	.scl	2;	.type	32;	.endef
	.seh_proc	_ZNSt8__format8_ScannerIcE7_M_scanEv
_ZNSt8__format8_ScannerIcE7_M_scanEv:
.LFB3979:
	push	r14
	.seh_pushreg	r14
	push	r13
	.seh_pushreg	r13
	push	r12
	.seh_pushreg	r12
	push	rbp
	.seh_pushreg	rbp
	push	rdi
	.seh_pushreg	rdi
	push	rsi
	.seh_pushreg	rsi
	push	rbx
	.seh_pushreg	rbx
	sub	rsp, 32
	.seh_stackalloc	32
	.seh_endprologue
	mov	r14, QWORD PTR 16[rcx]
	mov	rbx, QWORD PTR 8[rcx]
	mov	rbp, r14
	sub	rbp, rbx
	mov	r13, rcx
	cmp	rbp, 2
	je	.L122
	test	rbp, rbp
	jne	.L48
.L46:
	add	rsp, 32
	pop	rbx
	pop	rsi
	pop	rdi
	pop	rbp
	pop	r12
	pop	r13
	pop	r14
	ret
	.p2align 4,,10
	.p2align 3
.L122:
	cmp	BYTE PTR [rbx], 123
	je	.L123
.L48:
	mov	r8, rbp
	mov	edx, 123
	mov	rcx, rbx
	mov	r12, -1
	call	memchr
	mov	r8, rbp
	mov	edx, 125
	mov	rcx, rbx
	mov	rsi, rax
	sub	rsi, rbx
	test	rax, rax
	cmove	rsi, r12
	call	memchr
	mov	rdi, rax
	sub	rdi, rbx
	test	rax, rax
	cmove	rdi, r12
	.p2align 4
	.p2align 3
.L54:
	cmp	rdi, rsi
	je	.L55
	cmp	rsi, rdi
	jb	.L56
.L57:
	lea	r12, 1[rdi]
	cmp	r12, rbp
	je	.L88
	cmp	BYTE PTR 1[rbx+rdi], 125
	jne	.L88
	mov	rbx, QWORD PTR 8[r13]
	mov	rax, QWORD PTR 0[r13]
	mov	rcx, r13
	add	rbx, r12
	mov	rdx, rbx
	add	rbx, 1
	call	[QWORD PTR [rax]]
	mov	r14, QWORD PTR 16[r13]
	lea	rax, -1[rsi]
	mov	QWORD PTR 8[r13], rbx
	sub	rax, r12
	cmp	rsi, -1
	mov	rbp, r14
	cmovne	rsi, rax
	sub	rbp, rbx
	je	.L46
	mov	r8, rbp
	mov	edx, 125
	mov	rcx, rbx
	call	memchr
	mov	rdi, rax
	sub	rdi, rbx
	test	rax, rax
	jne	.L54
	mov	rdi, -1
	cmp	rsi, -1
	je	.L55
	.p2align 4
	.p2align 3
.L56:
	lea	rax, 1[rsi]
	cmp	rax, rbp
	je	.L61
	movzx	r12d, BYTE PTR 1[rbx+rsi]
	cmp	rdi, -1
	je	.L87
	xor	ebp, ebp
	cmp	r12b, 123
	mov	rax, QWORD PTR 0[r13]
	mov	rcx, r13
	sete	bpl
	add	rbp, rsi
	add	rbp, QWORD PTR 8[r13]
	lea	rbx, 1[rbp]
	mov	rdx, rbp
	call	[QWORD PTR [rax]]
	mov	QWORD PTR 8[r13], rbx
	mov	r14, QWORD PTR 16[r13]
	cmp	r12b, 123
	je	.L124
	movzx	eax, BYTE PTR 1[rbp]
	cmp	al, 125
	je	.L125
	cmp	al, 58
	je	.L126
	cmp	al, 48
	je	.L127
	lea	edx, -49[rax]
	cmp	dl, 8
	ja	.L72
	movsx	dx, al
	lea	rcx, 2[rbp]
	movzx	eax, BYTE PTR 2[rbp]
	sub	edx, 48
	cmp	r14, rcx
	je	.L71
	lea	r8d, -48[rax]
	cmp	r8b, 9
	ja	.L71
	mov	rcx, rbx
	xor	edx, edx
	mov	r9d, 16
	jmp	.L81
	.p2align 4,,10
	.p2align 3
.L128:
	lea	edx, [rdx+rdx*4]
	movzx	r8d, r8b
	lea	edx, [r8+rdx*2]
.L76:
	add	rcx, 1
	cmp	r14, rcx
	je	.L82
.L81:
	movzx	eax, BYTE PTR [rcx]
	lea	r8d, -48[rax]
	cmp	r8b, 9
	ja	.L74
	sub	r9d, 4
	jns	.L128
	mov	r10d, 10
	mov	eax, edx
	mul	r10w
	jo	.L72
	movzx	r8d, r8b
	add	r8w, ax
	jc	.L72
	mov	edx, r8d
	jmp	.L76
	.p2align 4,,10
	.p2align 3
.L55:
	mov	rax, QWORD PTR 0[r13]
	mov	rdx, r14
	mov	rcx, r13
	call	[QWORD PTR [rax]]
	mov	rax, QWORD PTR 16[r13]
	mov	QWORD PTR 8[r13], rax
	add	rsp, 32
	pop	rbx
	pop	rsi
	pop	rdi
	pop	rbp
	pop	r12
	pop	r13
	pop	r14
	ret
	.p2align 4,,10
	.p2align 3
.L130:
	cmp	rsi, -1
	je	.L55
	lea	rax, 1[rsi]
	cmp	rbp, rax
	je	.L61
	movzx	r12d, BYTE PTR 1[r12+rax]
	.p2align 4
	.p2align 3
.L87:
	cmp	r12b, 123
	jne	.L61
	add	rax, QWORD PTR 8[r13]
	mov	rcx, r13
	mov	rdi, -1
	lea	rbx, 1[rax]
	mov	rdx, rax
	mov	rax, QWORD PTR 0[r13]
	call	[QWORD PTR [rax]]
	mov	r14, QWORD PTR 16[r13]
	mov	QWORD PTR 8[r13], rbx
	mov	rbp, r14
	sub	rbp, rbx
.L92:
	test	rbp, rbp
	je	.L46
	mov	r8, rbp
	mov	edx, 123
	mov	rcx, rbx
	call	memchr
	mov	rsi, rax
	sub	rsi, rbx
	test	rax, rax
	jne	.L54
	cmp	rdi, -1
	je	.L55
	mov	rsi, -1
	jmp	.L57
	.p2align 4,,10
	.p2align 3
.L124:
	mov	rbp, r14
	sub	rdi, 2
	sub	rbp, rbx
	sub	rdi, rsi
	jmp	.L92
	.p2align 4,,10
	.p2align 3
.L127:
	movzx	eax, BYTE PTR 2[rbp]
	lea	rcx, 2[rbp]
	xor	edx, edx
.L71:
	cmp	al, 125
	je	.L83
	cmp	al, 58
	jne	.L72
.L83:
	movzx	edx, dx
	cmp	DWORD PTR 24[r13], 2
	je	.L49
	xor	eax, eax
	mov	DWORD PTR 24[r13], 1
	cmp	BYTE PTR [rcx], 58
	sete	al
	add	rcx, rax
	mov	QWORD PTR 8[r13], rcx
.L68:
	mov	rax, QWORD PTR 0[r13]
	mov	rcx, r13
	call	[QWORD PTR 8[rax]]
	mov	r12, QWORD PTR 8[r13]
	mov	r14, QWORD PTR 16[r13]
	cmp	r12, r14
	je	.L61
	cmp	BYTE PTR [r12], 125
	jne	.L61
	lea	rbx, 1[r12]
	mov	rbp, r14
	mov	QWORD PTR 8[r13], rbx
	sub	rbp, rbx
	je	.L46
	mov	r8, rbp
	mov	edx, 123
	mov	rcx, rbx
	call	memchr
	test	rax, rax
	je	.L129
	sub	rax, rbx
	mov	r8, rbp
	mov	edx, 125
	mov	rcx, rbx
	mov	rsi, rax
	call	memchr
	mov	rdi, rax
	test	rax, rax
	je	.L130
.L86:
	sub	rdi, rbx
	jmp	.L54
	.p2align 4,,10
	.p2align 3
.L125:
	cmp	DWORD PTR 24[r13], 1
	je	.L49
	mov	rdx, QWORD PTR 32[r13]
	mov	DWORD PTR 24[r13], 2
	lea	rax, 1[rdx]
	mov	QWORD PTR 32[r13], rax
	jmp	.L68
	.p2align 4,,10
	.p2align 3
.L126:
	cmp	DWORD PTR 24[r13], 1
	je	.L49
	mov	rdx, QWORD PTR 32[r13]
	add	rbp, 2
	mov	DWORD PTR 24[r13], 2
	mov	QWORD PTR 8[r13], rbp
	lea	rax, 1[rdx]
	mov	QWORD PTR 32[r13], rax
	jmp	.L68
	.p2align 4,,10
	.p2align 3
.L123:
	cmp	BYTE PTR 1[rbx], 125
	jne	.L48
	mov	rax, QWORD PTR [rcx]
	add	rbx, 1
	mov	QWORD PTR 8[rcx], rbx
	mov	rax, QWORD PTR 8[rax]
	cmp	DWORD PTR 24[rcx], 1
	je	.L49
	mov	rdx, QWORD PTR 32[rcx]
	mov	DWORD PTR 24[rcx], 2
	lea	rcx, 1[rdx]
	mov	QWORD PTR 32[r13], rcx
	mov	rcx, r13
	add	rsp, 32
	pop	rbx
	pop	rsi
	pop	rdi
	pop	rbp
	pop	r12
	pop	r13
	pop	r14
	rex.W jmp	rax
	.p2align 4,,10
	.p2align 3
.L129:
	mov	r8, rbp
	mov	edx, 125
	mov	rcx, rbx
	call	memchr
	mov	rdi, rax
	test	rax, rax
	je	.L55
	mov	rsi, -1
	jmp	.L86
.L74:
	cmp	rbx, rcx
	je	.L72
.L82:
	movzx	eax, BYTE PTR [rcx]
	jmp	.L71
.L72:
	call	_ZNSt8__format33__invalid_arg_id_in_format_stringEv
.L49:
	call	_ZNSt8__format39__conflicting_indexing_in_format_stringEv
.L61:
	lea	rcx, .LC5[rip]
	call	_ZSt20__throw_format_errorPKc
.L88:
	lea	rcx, .LC6[rip]
	call	_ZSt20__throw_format_errorPKc
	nop
	.seh_endproc
	.section	.text$_ZNSt7__cxx1112basic_stringIcSt11char_traitsIcESaIcEE10_M_disposeEv,"x"
	.linkonce discard
	.align 2
	.p2align 4
	.globl	_ZNSt7__cxx1112basic_stringIcSt11char_traitsIcESaIcEE10_M_disposeEv
	.def	_ZNSt7__cxx1112basic_stringIcSt11char_traitsIcESaIcEE10_M_disposeEv;	.scl	2;	.type	32;	.endef
	.seh_proc	_ZNSt7__cxx1112basic_stringIcSt11char_traitsIcESaIcEE10_M_disposeEv
_ZNSt7__cxx1112basic_stringIcSt11char_traitsIcESaIcEE10_M_disposeEv:
.LFB4440:
	.seh_endprologue
	mov	rax, QWORD PTR [rcx]
	lea	rdx, 16[rcx]
	cmp	rax, rdx
	je	.L131
	mov	rdx, QWORD PTR 16[rcx]
	mov	rcx, rax
	add	rdx, 1
	jmp	_ZdlPvy
	.p2align 4,,10
	.p2align 3
.L131:
	ret
	.seh_endproc
	.section .rdata,"dr"
.LC7:
	.ascii "basic_string::_M_replace\0"
.LC8:
	.ascii ": \0"
.LC9:
	.ascii "basic_string::_M_create\0"
	.section	.text$_ZNSt12system_errorC1ESt10error_codePKc,"x"
	.linkonce discard
	.align 2
	.p2align 4
	.globl	_ZNSt12system_errorC1ESt10error_codePKc
	.def	_ZNSt12system_errorC1ESt10error_codePKc;	.scl	2;	.type	32;	.endef
	.seh_proc	_ZNSt12system_errorC1ESt10error_codePKc
_ZNSt12system_errorC1ESt10error_codePKc:
.LFB2552:
	push	r15
	.seh_pushreg	r15
	push	r14
	.seh_pushreg	r14
	push	r13
	.seh_pushreg	r13
	push	r12
	.seh_pushreg	r12
	push	rbp
	.seh_pushreg	rbp
	push	rdi
	.seh_pushreg	rdi
	push	rsi
	.seh_pushreg	rsi
	push	rbx
	.seh_pushreg	rbx
	sub	rsp, 200
	.seh_stackalloc	200
	.seh_endprologue
	mov	r12, QWORD PTR 8[rdx]
	mov	r13, QWORD PTR [rdx]
	mov	rax, QWORD PTR [r12]
	mov	rdx, r12
	mov	rbx, rcx
	lea	rcx, 160[rsp]
	mov	rbp, r8
	mov	r8d, r13d
	mov	QWORD PTR 56[rsp], rcx
.LEHB2:
	call	[QWORD PTR 32[rax]]
.LEHE2:
	mov	rsi, QWORD PTR 168[rsp]
	movabs	rax, -9223372036854775805
	add	rax, rsi
	cmp	rax, 1
	jbe	.L236
	mov	r10, QWORD PTR 160[rsp]
	lea	rdi, 176[rsp]
	lea	r11, 2[rsi]
	cmp	r10, rdi
	je	.L237
	mov	r15, QWORD PTR 176[rsp]
	cmp	r15, r11
	jb	.L138
.L136:
	lea	r9, .LC8[rip]
	cmp	r9, r10
	jnb	.L238
.L139:
	test	rsi, rsi
	jne	.L141
.L142:
	mov	edx, 8250
	mov	WORD PTR [r10], dx
	mov	r14, QWORD PTR 160[rsp]
.L143:
	mov	QWORD PTR 168[rsp], r11
	mov	BYTE PTR 2[r14+rsi], 0
	mov	rax, QWORD PTR 160[rsp]
	lea	rsi, 144[rsp]
	mov	QWORD PTR 128[rsp], rsi
	mov	r15, QWORD PTR 168[rsp]
	cmp	rax, rdi
	je	.L239
	mov	QWORD PTR 128[rsp], rax
	mov	rax, QWORD PTR 176[rsp]
	mov	QWORD PTR 144[rsp], rax
.L155:
	mov	rcx, rbp
	mov	QWORD PTR 136[rsp], r15
	mov	QWORD PTR 160[rsp], rdi
	mov	QWORD PTR 168[rsp], 0
	mov	BYTE PTR 176[rsp], 0
	call	strlen
	mov	r9, rax
	movabs	rax, 9223372036854775806
	mov	rdx, rax
	sub	rdx, r15
	cmp	rdx, r9
	jb	.L240
	mov	r10, QWORD PTR 128[rsp]
	lea	r14, [r9+r15]
	cmp	r10, rsi
	je	.L241
	mov	rdx, QWORD PTR 144[rsp]
	cmp	rdx, r14
	jb	.L164
.L158:
	cmp	rbp, r10
	jnb	.L242
.L165:
	test	r15, r15
	je	.L169
	test	r9, r9
	je	.L170
	lea	rcx, [r10+r9]
	cmp	r15, 1
	je	.L243
	mov	rdx, r10
	mov	r8, r15
	mov	QWORD PTR 72[rsp], r9
	mov	QWORD PTR 64[rsp], r10
	call	memmove
	mov	r10, QWORD PTR 64[rsp]
	mov	r9, QWORD PTR 72[rsp]
.L172:
	cmp	r9, 1
	je	.L244
.L173:
	mov	rcx, r10
	mov	r8, r9
	mov	rdx, rbp
	call	memcpy
	mov	r10, QWORD PTR 128[rsp]
.L170:
	mov	QWORD PTR 136[rsp], r14
	lea	rbp, 112[rsp]
	mov	BYTE PTR [r10+r14], 0
	mov	rax, QWORD PTR 128[rsp]
	mov	QWORD PTR 96[rsp], rbp
	mov	rdx, QWORD PTR 136[rsp]
	cmp	rax, rsi
	je	.L245
	mov	QWORD PTR 96[rsp], rax
	mov	rax, QWORD PTR 144[rsp]
	mov	QWORD PTR 112[rsp], rax
.L189:
	mov	QWORD PTR 104[rsp], rdx
	mov	rcx, rbx
	lea	rdx, 96[rsp]
	mov	QWORD PTR 128[rsp], rsi
	mov	QWORD PTR 136[rsp], 0
	mov	BYTE PTR 144[rsp], 0
.LEHB3:
	call	_ZNSt13runtime_errorC2ERKNSt7__cxx1112basic_stringIcSt11char_traitsIcESaIcEEE
.LEHE3:
	mov	rcx, QWORD PTR 96[rsp]
	cmp	rcx, rbp
	je	.L190
	mov	rax, QWORD PTR 112[rsp]
	lea	rdx, 1[rax]
	call	_ZdlPvy
.L190:
	mov	rcx, QWORD PTR 128[rsp]
	cmp	rcx, rsi
	je	.L191
	mov	rax, QWORD PTR 144[rsp]
	lea	rdx, 1[rax]
	call	_ZdlPvy
.L191:
	mov	rcx, QWORD PTR 160[rsp]
	cmp	rcx, rdi
	je	.L192
	mov	rax, QWORD PTR 176[rsp]
	lea	rdx, 1[rax]
	call	_ZdlPvy
.L192:
	mov	rax, QWORD PTR .refptr._ZTVSt12system_error[rip]
	mov	QWORD PTR 16[rbx], r13
	mov	QWORD PTR 24[rbx], r12
	add	rax, 16
	mov	QWORD PTR [rbx], rax
	add	rsp, 200
	pop	rbx
	pop	rsi
	pop	rdi
	pop	rbp
	pop	r12
	pop	r13
	pop	r14
	pop	r15
	ret
	.p2align 4,,10
	.p2align 3
.L141:
	cmp	rsi, 1
	je	.L246
	lea	rcx, 2[r10]
	mov	rdx, r10
	mov	r8, rsi
	mov	QWORD PTR 72[rsp], r11
	mov	QWORD PTR 64[rsp], r10
	call	memmove
	mov	r11, QWORD PTR 72[rsp]
	mov	r10, QWORD PTR 64[rsp]
	jmp	.L142
	.p2align 4,,10
	.p2align 3
.L238:
	lea	rax, [r10+rsi]
	cmp	rax, r9
	jb	.L139
	mov	QWORD PTR 40[rsp], rsi
	mov	rcx, QWORD PTR 56[rsp]
	xor	r8d, r8d
	mov	rdx, r10
	mov	QWORD PTR 32[rsp], 2
	mov	QWORD PTR 64[rsp], r11
.LEHB4:
	call	_ZNSt7__cxx1112basic_stringIcSt11char_traitsIcESaIcEE15_M_replace_coldEPcyPKcyy
.LEHE4:
	mov	r11, QWORD PTR 64[rsp]
	mov	r14, QWORD PTR 160[rsp]
	jmp	.L143
	.p2align 4,,10
	.p2align 3
.L242:
	lea	rax, [r10+r15]
	cmp	rax, rbp
	jb	.L165
	mov	QWORD PTR 32[rsp], r9
	xor	r8d, r8d
	mov	r9, rbp
	mov	rdx, r10
	mov	QWORD PTR 40[rsp], r15
	lea	rax, 128[rsp]
	mov	rcx, rax
	mov	QWORD PTR 88[rsp], rax
.LEHB5:
	call	_ZNSt7__cxx1112basic_stringIcSt11char_traitsIcESaIcEE15_M_replace_coldEPcyPKcyy
	jmp	.L235
	.p2align 4,,10
	.p2align 3
.L164:
	cmp	rax, r14
	jb	.L159
	add	rdx, rdx
	mov	QWORD PTR 64[rsp], rdx
	cmp	r14, rdx
	jb	.L175
	mov	QWORD PTR 64[rsp], r14
	lea	rcx, 1[r14]
.L176:
	lea	rax, 128[rsp]
	mov	QWORD PTR 80[rsp], r9
	mov	QWORD PTR 72[rsp], r10
	mov	QWORD PTR 88[rsp], rax
	call	_Znwy
.LEHE5:
	mov	r9, QWORD PTR 80[rsp]
	mov	r10, QWORD PTR 72[rsp]
	mov	r11, rax
	test	r9, r9
	je	.L162
.L163:
	cmp	r9, 1
	je	.L247
.L161:
	mov	r8, r9
	mov	rcx, r11
	mov	rdx, rbp
	mov	QWORD PTR 80[rsp], r10
	mov	QWORD PTR 72[rsp], r9
	call	memcpy
	mov	r10, QWORD PTR 80[rsp]
	mov	r9, QWORD PTR 72[rsp]
	mov	r11, rax
	.p2align 4
	.p2align 3
.L162:
	test	r15, r15
	je	.L234
	lea	rcx, [r11+r9]
	cmp	r15, 1
	je	.L248
	mov	rdx, r10
	mov	r8, r15
	mov	QWORD PTR 80[rsp], r11
	mov	QWORD PTR 72[rsp], r10
	call	memcpy
	mov	r10, QWORD PTR 72[rsp]
	mov	r11, QWORD PTR 80[rsp]
	cmp	r10, rsi
	je	.L179
.L178:
	mov	rax, QWORD PTR 144[rsp]
	mov	rcx, r10
	mov	QWORD PTR 72[rsp], r11
	lea	rdx, 1[rax]
	call	_ZdlPvy
	mov	r11, QWORD PTR 72[rsp]
.L179:
	mov	rax, QWORD PTR 64[rsp]
	mov	QWORD PTR 128[rsp], r11
	mov	r10, r11
	mov	QWORD PTR 144[rsp], rax
	jmp	.L170
	.p2align 4,,10
	.p2align 3
.L138:
	add	r15, r15
	cmp	r11, r15
	jb	.L145
	lea	rcx, 3[rsi]
	mov	r15, r11
.L146:
	mov	QWORD PTR 64[rsp], r10
	mov	QWORD PTR 72[rsp], r11
.LEHB6:
	call	_Znwy
.LEHE6:
	mov	r14, rax
	mov	eax, 8250
	mov	rdx, QWORD PTR 64[rsp]
	mov	r8, rsi
	mov	WORD PTR [r14], ax
	lea	rcx, 2[r14]
	call	memcpy
	mov	r10, QWORD PTR 64[rsp]
	mov	r11, QWORD PTR 72[rsp]
	cmp	r10, rdi
	je	.L147
	mov	rax, QWORD PTR 176[rsp]
	mov	rcx, r10
	mov	QWORD PTR 64[rsp], r11
	lea	rdx, 1[rax]
	call	_ZdlPvy
	mov	r11, QWORD PTR 64[rsp]
.L147:
	mov	QWORD PTR 160[rsp], r14
	mov	QWORD PTR 176[rsp], r15
	jmp	.L143
	.p2align 4,,10
	.p2align 3
.L169:
	test	r9, r9
	je	.L170
	jmp	.L172
	.p2align 4,,10
	.p2align 3
.L145:
	movabs	rax, 9223372036854775806
	lea	rcx, 1[r15]
	cmp	rax, r15
	jnb	.L146
	movabs	rcx, 9223372036854775807
	mov	r15, rax
	jmp	.L146
	.p2align 4,,10
	.p2align 3
.L175:
	mov	rcx, QWORD PTR 64[rsp]
	cmp	rax, rcx
	jnb	.L249
	movabs	rcx, 9223372036854775807
	mov	QWORD PTR 64[rsp], rax
	jmp	.L176
	.p2align 4,,10
	.p2align 3
.L248:
	movzx	eax, BYTE PTR [r10]
	mov	BYTE PTR [rcx], al
.L234:
	cmp	r10, rsi
	jne	.L178
	jmp	.L179
	.p2align 4,,10
	.p2align 3
.L237:
	mov	ecx, 31
	mov	r15d, 30
	cmp	r11, 15
	jbe	.L136
	jmp	.L146
	.p2align 4,,10
	.p2align 3
.L239:
	lea	rax, 1[r15]
	mov	r8, rsi
	mov	rdx, rdi
	cmp	eax, 8
	jnb	.L250
.L149:
	xor	ecx, ecx
	test	al, 4
	je	.L152
	mov	ecx, DWORD PTR [rdx]
	mov	DWORD PTR [r8], ecx
	mov	ecx, 4
.L152:
	test	al, 2
	je	.L153
	movzx	r9d, WORD PTR [rdx+rcx]
	mov	WORD PTR [r8+rcx], r9w
	add	rcx, 2
.L153:
	test	al, 1
	je	.L155
	movzx	eax, BYTE PTR [rdx+rcx]
	mov	BYTE PTR [r8+rcx], al
	jmp	.L155
	.p2align 4,,10
	.p2align 3
.L241:
	cmp	r14, 15
	jbe	.L158
	cmp	rax, r14
	jb	.L159
	cmp	r14, 29
	jbe	.L160
	lea	rax, 128[rsp]
	lea	rcx, 1[r14]
	mov	QWORD PTR 72[rsp], r9
	mov	QWORD PTR 64[rsp], r10
	mov	QWORD PTR 88[rsp], rax
.LEHB7:
	call	_Znwy
	mov	r9, QWORD PTR 72[rsp]
	mov	r10, QWORD PTR 64[rsp]
	mov	r11, rax
	mov	QWORD PTR 64[rsp], r14
	test	r9, r9
	je	.L162
	jmp	.L161
	.p2align 4,,10
	.p2align 3
.L245:
	lea	rax, 1[rdx]
	mov	r9, rbp
	mov	rcx, rsi
	cmp	eax, 8
	jnb	.L251
.L183:
	xor	r8d, r8d
	test	al, 4
	je	.L186
	mov	r8d, DWORD PTR [rcx]
	mov	DWORD PTR [r9], r8d
	mov	r8d, 4
.L186:
	test	al, 2
	je	.L187
	movzx	r10d, WORD PTR [rcx+r8]
	mov	WORD PTR [r9+r8], r10w
	add	r8, 2
.L187:
	test	al, 1
	je	.L189
	movzx	eax, BYTE PTR [rcx+r8]
	mov	BYTE PTR [r9+r8], al
	jmp	.L189
	.p2align 4,,10
	.p2align 3
.L246:
	movzx	eax, BYTE PTR [r10]
	mov	BYTE PTR 2[r10], al
	jmp	.L142
	.p2align 4,,10
	.p2align 3
.L243:
	movzx	eax, BYTE PTR [r10]
	mov	BYTE PTR [rcx], al
	cmp	r9, 1
	jne	.L173
.L244:
	movzx	eax, BYTE PTR 0[rbp]
	mov	BYTE PTR [r10], al
.L235:
	mov	r10, QWORD PTR 128[rsp]
	jmp	.L170
	.p2align 4,,10
	.p2align 3
.L250:
	mov	r8d, eax
	xor	edx, edx
	and	r8d, -8
.L150:
	mov	ecx, edx
	add	edx, 8
	mov	r9, QWORD PTR [rdi+rcx]
	mov	QWORD PTR [rsi+rcx], r9
	cmp	edx, r8d
	jb	.L150
	lea	r8, [rsi+rdx]
	add	rdx, rdi
	jmp	.L149
	.p2align 4,,10
	.p2align 3
.L251:
	mov	r9d, eax
	xor	ecx, ecx
	and	r9d, -8
.L184:
	mov	r8d, ecx
	add	ecx, 8
	mov	r10, QWORD PTR [rsi+r8]
	mov	QWORD PTR 0[rbp+r8], r10
	cmp	ecx, r9d
	jb	.L184
	lea	r9, 0[rbp+rcx]
	add	rcx, rsi
	jmp	.L183
	.p2align 4,,10
	.p2align 3
.L249:
	add	rcx, 1
	jmp	.L176
	.p2align 4,,10
	.p2align 3
.L247:
	movzx	eax, BYTE PTR 0[rbp]
	mov	BYTE PTR [r11], al
	jmp	.L162
.L160:
	lea	rax, 128[rsp]
	mov	ecx, 31
	mov	QWORD PTR 80[rsp], r9
	mov	QWORD PTR 72[rsp], r10
	mov	QWORD PTR 88[rsp], rax
	call	_Znwy
.LEHE7:
	mov	r10, QWORD PTR 72[rsp]
	mov	r9, QWORD PTR 80[rsp]
	mov	r11, rax
	mov	QWORD PTR 64[rsp], 30
	jmp	.L163
.L201:
	mov	rbx, rax
	jmp	.L194
.L200:
	mov	rbx, rax
	jmp	.L195
.L193:
	lea	rcx, 96[rsp]
	call	_ZNSt7__cxx1112basic_stringIcSt11char_traitsIcESaIcEE10_M_disposeEv
	lea	rax, 128[rsp]
	mov	QWORD PTR 88[rsp], rax
.L194:
	mov	rcx, QWORD PTR 88[rsp]
	call	_ZNSt7__cxx1112basic_stringIcSt11char_traitsIcESaIcEE10_M_disposeEv
.L195:
	mov	rcx, QWORD PTR 56[rsp]
	call	_ZNSt7__cxx1112basic_stringIcSt11char_traitsIcESaIcEE10_M_disposeEv
	mov	rcx, rbx
.LEHB8:
	call	_Unwind_Resume
.LEHE8:
.L202:
	mov	rbx, rax
	jmp	.L193
.L159:
	lea	rax, 128[rsp]
	lea	rcx, .LC9[rip]
	mov	QWORD PTR 88[rsp], rax
.LEHB9:
	call	_ZSt20__throw_length_errorPKc
.LEHE9:
.L236:
	lea	rcx, .LC7[rip]
.LEHB10:
	call	_ZSt20__throw_length_errorPKc
.LEHE10:
.L240:
	lea	rax, 128[rsp]
	lea	rcx, .LC7[rip]
	mov	QWORD PTR 88[rsp], rax
.LEHB11:
	call	_ZSt20__throw_length_errorPKc
	nop
.LEHE11:
	.seh_handler	__gxx_personality_seh0, @unwind, @except
	.seh_handlerdata
.LLSDA2552:
	.byte	0xff
	.byte	0xff
	.byte	0x1
	.uleb128 .LLSDACSE2552-.LLSDACSB2552
.LLSDACSB2552:
	.uleb128 .LEHB2-.LFB2552
	.uleb128 .LEHE2-.LEHB2
	.uleb128 0
	.uleb128 0
	.uleb128 .LEHB3-.LFB2552
	.uleb128 .LEHE3-.LEHB3
	.uleb128 .L202-.LFB2552
	.uleb128 0
	.uleb128 .LEHB4-.LFB2552
	.uleb128 .LEHE4-.LEHB4
	.uleb128 .L200-.LFB2552
	.uleb128 0
	.uleb128 .LEHB5-.LFB2552
	.uleb128 .LEHE5-.LEHB5
	.uleb128 .L201-.LFB2552
	.uleb128 0
	.uleb128 .LEHB6-.LFB2552
	.uleb128 .LEHE6-.LEHB6
	.uleb128 .L200-.LFB2552
	.uleb128 0
	.uleb128 .LEHB7-.LFB2552
	.uleb128 .LEHE7-.LEHB7
	.uleb128 .L201-.LFB2552
	.uleb128 0
	.uleb128 .LEHB8-.LFB2552
	.uleb128 .LEHE8-.LEHB8
	.uleb128 0
	.uleb128 0
	.uleb128 .LEHB9-.LFB2552
	.uleb128 .LEHE9-.LEHB9
	.uleb128 .L201-.LFB2552
	.uleb128 0
	.uleb128 .LEHB10-.LFB2552
	.uleb128 .LEHE10-.LEHB10
	.uleb128 .L200-.LFB2552
	.uleb128 0
	.uleb128 .LEHB11-.LFB2552
	.uleb128 .LEHE11-.LEHB11
	.uleb128 .L201-.LFB2552
	.uleb128 0
.LLSDACSE2552:
	.section	.text$_ZNSt12system_errorC1ESt10error_codePKc,"x"
	.linkonce discard
	.seh_endproc
	.section .rdata,"dr"
.LC10:
	.ascii "false\0"
.LC11:
	.ascii "true\0"
	.section	.text$_ZNSt16basic_format_argISt20basic_format_contextINSt8__format10_Sink_iterIcEEcEE8_M_visitIZNS1_15__do_vformat_toIS3_cS4_EET_S8_St17basic_string_viewIT0_St11char_traitsISA_EERKSt17basic_format_argsIT1_EPKSt6localeEUlRS8_E_EEDcOS8_NS1_6_Arg_tE,"x"
	.linkonce discard
	.align 2
	.p2align 4
	.globl	_ZNSt16basic_format_argISt20basic_format_contextINSt8__format10_Sink_iterIcEEcEE8_M_visitIZNS1_15__do_vformat_toIS3_cS4_EET_S8_St17basic_string_viewIT0_St11char_traitsISA_EERKSt17basic_format_argsIT1_EPKSt6localeEUlRS8_E_EEDcOS8_NS1_6_Arg_tE
	.def	_ZNSt16basic_format_argISt20basic_format_contextINSt8__format10_Sink_iterIcEEcEE8_M_visitIZNS1_15__do_vformat_toIS3_cS4_EET_S8_St17basic_string_viewIT0_St11char_traitsISA_EERKSt17basic_format_argsIT1_EPKSt6localeEUlRS8_E_EEDcOS8_NS1_6_Arg_tE;	.scl	2;	.type	32;	.endef
	.seh_proc	_ZNSt16basic_format_argISt20basic_format_contextINSt8__format10_Sink_iterIcEEcEE8_M_visitIZNS1_15__do_vformat_toIS3_cS4_EET_S8_St17basic_string_viewIT0_St11char_traitsISA_EERKSt17basic_format_argsIT1_EPKSt6localeEUlRS8_E_EEDcOS8_NS1_6_Arg_tE
_ZNSt16basic_format_argISt20basic_format_contextINSt8__format10_Sink_iterIcEEcEE8_M_visitIZNS1_15__do_vformat_toIS3_cS4_EET_S8_St17basic_string_viewIT0_St11char_traitsISA_EERKSt17basic_format_argsIT1_EPKSt6localeEUlRS8_E_EEDcOS8_NS1_6_Arg_tE:
.LFB4558:
	push	r14
	.seh_pushreg	r14
	push	rdi
	.seh_pushreg	rdi
	push	rsi
	.seh_pushreg	rsi
	push	rbx
	.seh_pushreg	rbx
	sub	rsp, 280
	.seh_stackalloc	280
	.seh_endprologue
	mov	rbx, rdx
	movzx	r8d, r8b
	lea	rdx, .L255[rip]
	mov	rsi, rcx
	movsxd	rax, DWORD PTR [rdx+r8*4]
	add	rax, rdx
	jmp	rax
	.section .rdata,"dr"
	.align 4
.L255:
	.long	.L252-.L255
	.long	.L263-.L255
	.long	.L262-.L255
	.long	.L261-.L255
	.long	.L260-.L255
	.long	.L259-.L255
	.long	.L258-.L255
	.long	.L252-.L255
	.long	.L252-.L255
	.long	.L252-.L255
	.long	.L257-.L255
	.long	.L256-.L255
	.long	.L252-.L255
	.long	.L252-.L255
	.long	.L252-.L255
	.long	.L252-.L255
	.section	.text$_ZNSt16basic_format_argISt20basic_format_contextINSt8__format10_Sink_iterIcEEcEE8_M_visitIZNS1_15__do_vformat_toIS3_cS4_EET_S8_St17basic_string_viewIT0_St11char_traitsISA_EERKSt17basic_format_argsIT1_EPKSt6localeEUlRS8_E_EEDcOS8_NS1_6_Arg_tE,"x"
	.linkonce discard
	.p2align 4,,10
	.p2align 3
.L257:
	mov	r9, QWORD PTR [rcx]
	mov	rcx, r9
	mov	QWORD PTR 40[rsp], r9
	call	strlen
	mov	rdi, rax
	mov	rax, QWORD PTR [rbx]
	mov	rdx, rdi
	mov	rcx, QWORD PTR [rax]
	mov	rax, QWORD PTR [rcx]
	call	[QWORD PTR 8[rax]]
	mov	rsi, rax
	test	rax, rax
	je	.L252
	mov	rcx, QWORD PTR 24[rax]
	mov	rdx, QWORD PTR 40[rsp]
	mov	r8, rdi
.L351:
	call	memcpy
	mov	rax, QWORD PTR [rsi]
	mov	rdx, rdi
	mov	rcx, rsi
	call	[QWORD PTR 16[rax]]
	mov	rax, QWORD PTR 8[rbx]
	mov	BYTE PTR [rax], 1
.L252:
	add	rsp, 280
	pop	rbx
	pop	rsi
	pop	rdi
	pop	r14
	ret
	.p2align 4,,10
	.p2align 3
.L256:
	mov	rax, QWORD PTR [rbx]
	mov	rdi, QWORD PTR [rcx]
	mov	r14, QWORD PTR 8[rcx]
	mov	rcx, QWORD PTR [rax]
	mov	rdx, rdi
	mov	rax, QWORD PTR [rcx]
	call	[QWORD PTR 8[rax]]
	mov	rsi, rax
	test	rax, rax
	je	.L252
	mov	rcx, QWORD PTR 24[rax]
	mov	r8, rdi
	mov	rdx, r14
	jmp	.L351
	.p2align 4,,10
	.p2align 3
.L263:
	lea	rax, .LC10[rip]
	movzx	r8d, BYTE PTR [rcx]
	mov	QWORD PTR 64[rsp], rax
	lea	rax, .LC11[rip]
	mov	QWORD PTR 72[rsp], rax
	mov	rax, QWORD PTR [rbx]
	xor	r8d, 1
	movzx	r8d, r8b
	mov	rcx, QWORD PTR [rax]
	lea	edi, 4[r8]
	movsxd	rdx, edi
	mov	rax, QWORD PTR [rcx]
	mov	r14, rdx
	call	[QWORD PTR 8[rax]]
	test	rax, rax
	je	.L252
	movzx	ecx, BYTE PTR [rsi]
	mov	rdx, QWORD PTR 24[rax]
	mov	rcx, QWORD PTR 64[rsp+rcx*8]
	cmp	edi, 8
	jnb	.L265
	test	dil, 4
	jne	.L353
	test	edi, edi
	je	.L266
	movzx	r9d, BYTE PTR [rcx]
	mov	BYTE PTR [rdx], r9b
	test	dil, 2
	jne	.L354
.L266:
	mov	r8, QWORD PTR [rax]
	mov	rcx, rax
	mov	rdx, r14
	call	[QWORD PTR 16[r8]]
	mov	rax, QWORD PTR 8[rbx]
	mov	BYTE PTR [rax], 1
	jmp	.L252
	.p2align 4,,10
	.p2align 3
.L262:
	mov	rax, QWORD PTR [rbx]
	mov	edx, 1
	mov	rcx, QWORD PTR [rax]
	mov	rax, QWORD PTR [rcx]
	call	[QWORD PTR 8[rax]]
	test	rax, rax
	je	.L252
	mov	rdx, QWORD PTR 24[rax]
	movzx	ecx, BYTE PTR [rsi]
	mov	BYTE PTR [rdx], cl
	mov	r8, QWORD PTR [rax]
	mov	rcx, rax
	mov	edx, 1
	call	[QWORD PTR 16[r8]]
	mov	rax, QWORD PTR 8[rbx]
	mov	BYTE PTR [rax], 1
	jmp	.L252
	.p2align 4,,10
	.p2align 3
.L261:
	mov	edx, DWORD PTR [rcx]
	mov	esi, edx
	mov	eax, edx
	shr	esi, 31
	neg	eax
	cmovns	edx, eax
	mov	r8d, edx
	cmp	edx, 9
	jbe	.L313
	mov	eax, edx
	mov	edi, 1
	mov	ecx, 3518437209
	jmp	.L276
	.p2align 4,,10
	.p2align 3
.L273:
	cmp	eax, 999
	jbe	.L355
	cmp	eax, 9999
	jbe	.L356
	mov	edx, eax
	add	edi, 4
	imul	rdx, rcx
	shr	rdx, 45
	cmp	eax, 99999
	jbe	.L272
	mov	eax, edx
.L276:
	cmp	eax, 99
	ja	.L273
	add	edi, 1
.L272:
	mov	rax, QWORD PTR [rbx]
	lea	r10d, [rsi+rdi]
	mov	DWORD PTR 48[rsp], r8d
	mov	QWORD PTR 40[rsp], r10
	mov	rdx, r10
	mov	rcx, QWORD PTR [rax]
	mov	rax, QWORD PTR [rcx]
	call	[QWORD PTR 8[rax]]
	mov	rcx, rax
	test	rax, rax
	je	.L252
	mov	r11, QWORD PTR 24[rax]
	mov	r8d, DWORD PTR 48[rsp]
	movzx	esi, sil
	movabs	rax, 3688503277381496880
	movabs	rdx, 3976738051646829616
	mov	QWORD PTR 64[rsp], rax
	mov	r10, QWORD PTR 40[rsp]
	movabs	rax, 3544667369688283184
	mov	QWORD PTR 72[rsp], rdx
	movabs	rdx, 3832902143785906737
	mov	QWORD PTR 80[rsp], rax
	movabs	rax, 4121136918051239473
	mov	QWORD PTR 88[rsp], rdx
	movabs	rdx, 3689066235924983858
	mov	QWORD PTR 96[rsp], rax
	movabs	rax, 3977301010190316594
	mov	QWORD PTR 104[rsp], rdx
	movabs	rdx, 3545230328231770162
	mov	QWORD PTR 112[rsp], rax
	movabs	rax, 3833465102329393715
	mov	QWORD PTR 120[rsp], rdx
	movabs	rdx, 4121699876594726451
	mov	QWORD PTR 128[rsp], rax
	movabs	rax, 3689629194468470836
	mov	QWORD PTR 136[rsp], rdx
	movabs	rdx, 3977863968733803572
	mov	QWORD PTR 144[rsp], rax
	movabs	rax, 3545793286775257140
	mov	QWORD PTR 152[rsp], rdx
	movabs	rdx, 3834028060872880693
	mov	QWORD PTR 160[rsp], rax
	movabs	rax, 4122262835138213429
	mov	QWORD PTR 168[rsp], rdx
	movabs	rdx, 3690192153011957814
	mov	QWORD PTR 176[rsp], rax
	movabs	rax, 3978426927277290550
	mov	QWORD PTR 184[rsp], rdx
	movabs	rdx, 3546356245318744118
	mov	QWORD PTR 192[rsp], rax
	movabs	rax, 3834591019416367671
	mov	QWORD PTR 200[rsp], rdx
	movabs	rdx, 4122825793681700407
	mov	QWORD PTR 208[rsp], rax
	movabs	rax, 3690755111555444792
	mov	QWORD PTR 216[rsp], rdx
	movabs	rdx, 3978989885820777528
	mov	QWORD PTR 224[rsp], rax
	movabs	rax, 3546919203862231096
	mov	QWORD PTR 232[rsp], rdx
	movabs	rdx, 3835153977959854649
	mov	QWORD PTR 248[rsp], rdx
	movabs	rdx, 16106987313379638
	mov	BYTE PTR [r11], 45
	add	r11, rsi
	cmp	r8d, 99
	mov	QWORD PTR 240[rsp], rax
	movabs	rax, 4122263930388298034
	mov	QWORD PTR 249[rsp], rax
	mov	QWORD PTR 257[rsp], rdx
	jbe	.L278
	lea	r9d, -1[rdi]
	.p2align 4
	.p2align 3
.L279:
	mov	edx, r8d
	mov	eax, r8d
	imul	rdx, rdx, 1374389535
	shr	rdx, 37
	imul	esi, edx, 100
	sub	eax, esi
	mov	esi, r8d
	mov	r8d, edx
	mov	edx, r9d
	add	eax, eax
	lea	edi, 1[rax]
	movzx	eax, BYTE PTR 64[rsp+rax]
	movzx	edi, BYTE PTR 64[rsp+rdi]
	mov	BYTE PTR [r11+rdx], dil
	lea	edx, -1[r9]
	sub	r9d, 2
	mov	BYTE PTR [r11+rdx], al
	cmp	esi, 9999
	ja	.L279
.L278:
	lea	eax, 48[r8]
	cmp	r8d, 9
	jbe	.L281
	lea	eax, [r8+r8]
	lea	edx, 1[rax]
	movzx	eax, BYTE PTR 64[rsp+rax]
	movzx	edx, BYTE PTR 64[rsp+rdx]
	mov	BYTE PTR 1[r11], dl
.L281:
	mov	BYTE PTR [r11], al
	mov	rax, QWORD PTR [rcx]
	mov	rdx, r10
	call	[QWORD PTR 16[rax]]
	mov	rax, QWORD PTR 8[rbx]
	mov	BYTE PTR [rax], 1
	jmp	.L252
	.p2align 4,,10
	.p2align 3
.L260:
	mov	r8d, DWORD PTR [rcx]
	cmp	r8d, 9
	jbe	.L282
	mov	eax, r8d
	mov	esi, 1
	mov	ecx, 3518437209
	jmp	.L287
	.p2align 4,,10
	.p2align 3
.L283:
	cmp	eax, 999
	jbe	.L357
	cmp	eax, 9999
	jbe	.L358
	mov	edx, eax
	add	esi, 4
	imul	rdx, rcx
	shr	rdx, 45
	cmp	eax, 99999
	jbe	.L284
	mov	eax, edx
.L287:
	cmp	eax, 99
	ja	.L283
	add	esi, 1
.L284:
	mov	rax, QWORD PTR [rbx]
	mov	r11d, esi
	mov	DWORD PTR 48[rsp], r8d
	mov	QWORD PTR 40[rsp], r11
	mov	rdx, r11
	mov	rcx, QWORD PTR [rax]
	mov	rax, QWORD PTR [rcx]
	call	[QWORD PTR 8[rax]]
	mov	rdi, rax
	test	rax, rax
	je	.L252
	movabs	rdx, 3976738051646829616
	mov	rcx, QWORD PTR 24[rax]
	mov	r8d, DWORD PTR 48[rsp]
	movabs	rax, 3688503277381496880
	mov	QWORD PTR 64[rsp], rax
	mov	r11, QWORD PTR 40[rsp]
	movabs	rax, 3544667369688283184
	mov	QWORD PTR 72[rsp], rdx
	cmp	r8d, 99
	movabs	rdx, 3832902143785906737
	mov	QWORD PTR 80[rsp], rax
	movabs	rax, 4121136918051239473
	mov	QWORD PTR 88[rsp], rdx
	movabs	rdx, 3689066235924983858
	mov	QWORD PTR 96[rsp], rax
	movabs	rax, 3977301010190316594
	mov	QWORD PTR 104[rsp], rdx
	movabs	rdx, 3545230328231770162
	mov	QWORD PTR 112[rsp], rax
	movabs	rax, 3833465102329393715
	mov	QWORD PTR 120[rsp], rdx
	movabs	rdx, 4121699876594726451
	mov	QWORD PTR 128[rsp], rax
	movabs	rax, 3689629194468470836
	mov	QWORD PTR 136[rsp], rdx
	movabs	rdx, 3977863968733803572
	mov	QWORD PTR 144[rsp], rax
	movabs	rax, 3545793286775257140
	mov	QWORD PTR 152[rsp], rdx
	movabs	rdx, 3834028060872880693
	mov	QWORD PTR 160[rsp], rax
	movabs	rax, 4122262835138213429
	mov	QWORD PTR 168[rsp], rdx
	movabs	rdx, 3690192153011957814
	mov	QWORD PTR 176[rsp], rax
	movabs	rax, 3978426927277290550
	mov	QWORD PTR 184[rsp], rdx
	movabs	rdx, 3546356245318744118
	mov	QWORD PTR 192[rsp], rax
	movabs	rax, 3834591019416367671
	mov	QWORD PTR 200[rsp], rdx
	movabs	rdx, 4122825793681700407
	mov	QWORD PTR 208[rsp], rax
	movabs	rax, 3690755111555444792
	mov	QWORD PTR 216[rsp], rdx
	movabs	rdx, 3978989885820777528
	mov	QWORD PTR 224[rsp], rax
	movabs	rax, 3546919203862231096
	mov	QWORD PTR 232[rsp], rdx
	movabs	rdx, 3835153977959854649
	mov	QWORD PTR 248[rsp], rdx
	movabs	rdx, 16106987313379638
	mov	QWORD PTR 240[rsp], rax
	movabs	rax, 4122263930388298034
	mov	QWORD PTR 249[rsp], rax
	mov	QWORD PTR 257[rsp], rdx
	jbe	.L288
	lea	r9d, -1[rsi]
	.p2align 4
	.p2align 3
.L289:
	mov	edx, r8d
	mov	eax, r8d
	imul	rdx, rdx, 1374389535
	shr	rdx, 37
	imul	r10d, edx, 100
	sub	eax, r10d
	mov	r10d, r8d
	mov	r8d, edx
	mov	edx, r9d
	add	eax, eax
	lea	esi, 1[rax]
	movzx	eax, BYTE PTR 64[rsp+rax]
	movzx	esi, BYTE PTR 64[rsp+rsi]
	mov	BYTE PTR [rcx+rdx], sil
	lea	edx, -1[r9]
	sub	r9d, 2
	mov	BYTE PTR [rcx+rdx], al
	cmp	r10d, 9999
	ja	.L289
	cmp	r10d, 999
	ja	.L288
.L290:
	add	r8d, 48
.L291:
	mov	BYTE PTR [rcx], r8b
	jmp	.L352
	.p2align 4,,10
	.p2align 3
.L259:
	mov	rax, QWORD PTR [rcx]
	mov	rsi, rax
	mov	r9, rax
	shr	rsi, 63
	neg	r9
	cmovs	r9, rax
	cmp	r9, 9
	jbe	.L316
	mov	rcx, r9
	mov	r8d, 1
	movabs	r10, 3777893186295716171
	jmp	.L296
	.p2align 4,,10
	.p2align 3
.L293:
	cmp	rcx, 999
	jbe	.L359
	cmp	rcx, 9999
	jbe	.L360
	mov	rax, rcx
	add	r8d, 4
	mul	r10
	cmp	rcx, 99999
	jbe	.L292
	mov	rcx, rdx
	shr	rcx, 11
.L296:
	cmp	rcx, 99
	ja	.L293
	add	r8d, 1
.L292:
	mov	rax, QWORD PTR [rbx]
	lea	r11d, [r8+rsi]
	mov	QWORD PTR 48[rsp], r9
	mov	DWORD PTR 60[rsp], r8d
	mov	rdx, r11
	mov	rcx, QWORD PTR [rax]
	mov	QWORD PTR 40[rsp], r11
	mov	rax, QWORD PTR [rcx]
	call	[QWORD PTR 8[rax]]
	mov	rdi, rax
	test	rax, rax
	je	.L252
	mov	rcx, QWORD PTR 24[rax]
	mov	r9, QWORD PTR 48[rsp]
	movabs	rax, 3688503277381496880
	movabs	rdx, 3976738051646829616
	mov	QWORD PTR 64[rsp], rax
	mov	r11, QWORD PTR 40[rsp]
	movabs	rax, 3544667369688283184
	mov	QWORD PTR 72[rsp], rdx
	movabs	rdx, 3832902143785906737
	mov	QWORD PTR 80[rsp], rax
	movabs	rax, 4121136918051239473
	mov	QWORD PTR 88[rsp], rdx
	movabs	rdx, 3689066235924983858
	mov	QWORD PTR 96[rsp], rax
	movabs	rax, 3977301010190316594
	mov	QWORD PTR 104[rsp], rdx
	movabs	rdx, 3545230328231770162
	mov	QWORD PTR 112[rsp], rax
	movabs	rax, 3833465102329393715
	mov	QWORD PTR 120[rsp], rdx
	movabs	rdx, 4121699876594726451
	mov	QWORD PTR 128[rsp], rax
	movabs	rax, 3689629194468470836
	mov	QWORD PTR 136[rsp], rdx
	movabs	rdx, 3977863968733803572
	mov	QWORD PTR 144[rsp], rax
	movabs	rax, 3545793286775257140
	mov	QWORD PTR 152[rsp], rdx
	movabs	rdx, 3834028060872880693
	mov	QWORD PTR 160[rsp], rax
	movabs	rax, 4122262835138213429
	mov	QWORD PTR 168[rsp], rdx
	movabs	rdx, 3690192153011957814
	mov	QWORD PTR 176[rsp], rax
	movabs	rax, 3978426927277290550
	mov	QWORD PTR 184[rsp], rdx
	movabs	rdx, 3546356245318744118
	mov	QWORD PTR 192[rsp], rax
	movabs	rax, 3834591019416367671
	mov	QWORD PTR 200[rsp], rdx
	movabs	rdx, 4122825793681700407
	mov	QWORD PTR 208[rsp], rax
	movabs	rax, 3690755111555444792
	mov	QWORD PTR 216[rsp], rdx
	movabs	rdx, 3978989885820777528
	mov	QWORD PTR 224[rsp], rax
	movabs	rax, 3546919203862231096
	mov	QWORD PTR 232[rsp], rdx
	movabs	rdx, 3835153977959854649
	mov	QWORD PTR 248[rsp], rdx
	movabs	rdx, 16106987313379638
	mov	BYTE PTR [rcx], 45
	add	rcx, rsi
	cmp	r9, 99
	mov	QWORD PTR 240[rsp], rax
	movabs	rax, 4122263930388298034
	mov	QWORD PTR 249[rsp], rax
	mov	QWORD PTR 257[rsp], rdx
	jbe	.L297
	movabs	rsi, 2951479051793528259
	mov	r8d, DWORD PTR 60[rsp]
	sub	r8d, 1
	.p2align 4
	.p2align 3
.L298:
	mov	rdx, r9
	shr	rdx, 2
	mov	rax, rdx
	mul	rsi
	mov	rax, r9
	shr	rdx, 2
	imul	r10, rdx, 100
	sub	rax, r10
	mov	r10, r9
	mov	r9, rdx
	mov	edx, r8d
	movzx	r14d, BYTE PTR 65[rsp+rax*2]
	movzx	eax, BYTE PTR 64[rsp+rax*2]
	mov	BYTE PTR [rcx+rdx], r14b
	lea	edx, -1[r8]
	sub	r8d, 2
	mov	BYTE PTR [rcx+rdx], al
	cmp	r10, 9999
	ja	.L298
.L297:
	lea	eax, 48[r9]
	cmp	r9, 9
	ja	.L361
.L300:
	mov	BYTE PTR [rcx], al
.L352:
	mov	rax, QWORD PTR [rdi]
	mov	rdx, r11
	mov	rcx, rdi
	call	[QWORD PTR 16[rax]]
	mov	rax, QWORD PTR 8[rbx]
	mov	BYTE PTR [rax], 1
	add	rsp, 280
	pop	rbx
	pop	rsi
	pop	rdi
	pop	r14
	ret
	.p2align 4,,10
	.p2align 3
.L258:
	mov	rdi, QWORD PTR [rcx]
	cmp	rdi, 9
	jbe	.L301
	mov	rcx, rdi
	mov	r8d, 1
	movabs	r10, 3777893186295716171
	jmp	.L306
	.p2align 4,,10
	.p2align 3
.L302:
	cmp	rcx, 999
	jbe	.L362
	cmp	rcx, 9999
	jbe	.L363
	mov	rax, rcx
	add	r8d, 4
	mul	r10
	cmp	rcx, 99999
	jbe	.L303
	mov	rcx, rdx
	shr	rcx, 11
.L306:
	cmp	rcx, 99
	ja	.L302
	add	r8d, 1
.L303:
	mov	rax, QWORD PTR [rbx]
	mov	r11d, r8d
	mov	DWORD PTR 48[rsp], r8d
	mov	QWORD PTR 40[rsp], r11
	mov	rdx, r11
	mov	rcx, QWORD PTR [rax]
	mov	rax, QWORD PTR [rcx]
	call	[QWORD PTR 8[rax]]
	mov	rsi, rax
	test	rax, rax
	je	.L252
	mov	rcx, QWORD PTR 24[rax]
	cmp	rdi, 99
	mov	r11, QWORD PTR 40[rsp]
	movabs	rax, 3688503277381496880
	movabs	rdx, 3976738051646829616
	mov	QWORD PTR 64[rsp], rax
	movabs	rax, 3544667369688283184
	mov	QWORD PTR 72[rsp], rdx
	movabs	rdx, 3832902143785906737
	mov	QWORD PTR 80[rsp], rax
	movabs	rax, 4121136918051239473
	mov	QWORD PTR 88[rsp], rdx
	movabs	rdx, 3689066235924983858
	mov	QWORD PTR 96[rsp], rax
	movabs	rax, 3977301010190316594
	mov	QWORD PTR 104[rsp], rdx
	movabs	rdx, 3545230328231770162
	mov	QWORD PTR 112[rsp], rax
	movabs	rax, 3833465102329393715
	mov	QWORD PTR 120[rsp], rdx
	movabs	rdx, 4121699876594726451
	mov	QWORD PTR 128[rsp], rax
	movabs	rax, 3689629194468470836
	mov	QWORD PTR 136[rsp], rdx
	movabs	rdx, 3977863968733803572
	mov	QWORD PTR 144[rsp], rax
	movabs	rax, 3545793286775257140
	mov	QWORD PTR 152[rsp], rdx
	movabs	rdx, 3834028060872880693
	mov	QWORD PTR 160[rsp], rax
	movabs	rax, 4122262835138213429
	mov	QWORD PTR 168[rsp], rdx
	movabs	rdx, 3690192153011957814
	mov	QWORD PTR 176[rsp], rax
	movabs	rax, 3978426927277290550
	mov	QWORD PTR 184[rsp], rdx
	movabs	rdx, 3546356245318744118
	mov	QWORD PTR 192[rsp], rax
	movabs	rax, 3834591019416367671
	mov	QWORD PTR 200[rsp], rdx
	movabs	rdx, 4122825793681700407
	mov	QWORD PTR 208[rsp], rax
	movabs	rax, 3690755111555444792
	mov	QWORD PTR 216[rsp], rdx
	movabs	rdx, 3978989885820777528
	mov	QWORD PTR 224[rsp], rax
	movabs	rax, 3546919203862231096
	mov	QWORD PTR 232[rsp], rdx
	movabs	rdx, 3835153977959854649
	mov	QWORD PTR 248[rsp], rdx
	movabs	rdx, 16106987313379638
	mov	QWORD PTR 240[rsp], rax
	movabs	rax, 4122263930388298034
	mov	QWORD PTR 249[rsp], rax
	mov	QWORD PTR 257[rsp], rdx
	jbe	.L307
	movabs	r9, 2951479051793528259
	mov	r8d, DWORD PTR 48[rsp]
	sub	r8d, 1
	.p2align 4
	.p2align 3
.L308:
	mov	rdx, rdi
	shr	rdx, 2
	mov	rax, rdx
	mul	r9
	mov	rax, rdi
	shr	rdx, 2
	imul	r10, rdx, 100
	sub	rax, r10
	mov	r10, rdi
	mov	rdi, rdx
	mov	edx, r8d
	movzx	r14d, BYTE PTR 65[rsp+rax*2]
	movzx	eax, BYTE PTR 64[rsp+rax*2]
	mov	BYTE PTR [rcx+rdx], r14b
	lea	edx, -1[r8]
	sub	r8d, 2
	mov	BYTE PTR [rcx+rdx], al
	cmp	r10, 9999
	ja	.L308
	cmp	r10, 999
	ja	.L307
.L309:
	lea	r9d, 48[rdi]
.L310:
	mov	BYTE PTR [rcx], r9b
	mov	rax, QWORD PTR [rsi]
	mov	rdx, r11
	mov	rcx, rsi
	call	[QWORD PTR 16[rax]]
	mov	rax, QWORD PTR 8[rbx]
	mov	BYTE PTR [rax], 1
	jmp	.L252
	.p2align 4,,10
	.p2align 3
.L361:
	movzx	eax, BYTE PTR 65[rsp+r9*2]
	mov	BYTE PTR 1[rcx], al
	movzx	eax, BYTE PTR 64[rsp+r9*2]
	jmp	.L300
	.p2align 4,,10
	.p2align 3
.L265:
	mov	r9, QWORD PTR [rcx]
	mov	QWORD PTR [rdx], r9
	mov	r9d, edi
	mov	r10, QWORD PTR -8[rcx+r9]
	mov	QWORD PTR -8[rdx+r9], r10
	lea	r9, 8[rdx]
	and	r9, -8
	sub	rdx, r9
	lea	r8d, [rdi+rdx]
	sub	rcx, rdx
	and	r8d, -8
	cmp	r8d, 8
	jb	.L266
	and	r8d, -8
	xor	edx, edx
.L269:
	mov	r10d, edx
	add	edx, 8
	mov	r11, QWORD PTR [rcx+r10]
	mov	QWORD PTR [r9+r10], r11
	cmp	edx, r8d
	jb	.L269
	jmp	.L266
	.p2align 4,,10
	.p2align 3
.L288:
	add	r8d, r8d
	lea	eax, 1[r8]
	movzx	r8d, BYTE PTR 64[rsp+r8]
	movzx	eax, BYTE PTR 64[rsp+rax]
	mov	BYTE PTR 1[rcx], al
	jmp	.L291
	.p2align 4,,10
	.p2align 3
.L307:
	movzx	eax, BYTE PTR 65[rsp+rdi*2]
	movzx	r9d, BYTE PTR 64[rsp+rdi*2]
	mov	BYTE PTR 1[rcx], al
	jmp	.L310
	.p2align 4,,10
	.p2align 3
.L362:
	add	r8d, 2
	jmp	.L303
	.p2align 4,,10
	.p2align 3
.L355:
	add	edi, 2
	jmp	.L272
	.p2align 4,,10
	.p2align 3
.L359:
	add	r8d, 2
	jmp	.L292
	.p2align 4,,10
	.p2align 3
.L357:
	add	esi, 2
	jmp	.L284
	.p2align 4,,10
	.p2align 3
.L360:
	add	r8d, 3
	jmp	.L292
	.p2align 4,,10
	.p2align 3
.L358:
	add	esi, 3
	jmp	.L284
	.p2align 4,,10
	.p2align 3
.L363:
	add	r8d, 3
	jmp	.L303
	.p2align 4,,10
	.p2align 3
.L356:
	add	edi, 3
	jmp	.L272
.L316:
	mov	r8d, 1
	jmp	.L292
.L282:
	mov	rax, QWORD PTR [rbx]
	mov	DWORD PTR 40[rsp], r8d
	mov	edx, 1
	mov	rcx, QWORD PTR [rax]
	mov	rax, QWORD PTR [rcx]
	call	[QWORD PTR 8[rax]]
	mov	r8d, DWORD PTR 40[rsp]
	test	rax, rax
	mov	rdi, rax
	je	.L252
	mov	rcx, QWORD PTR 24[rdi]
	mov	r11d, 1
	jmp	.L290
.L301:
	mov	rax, QWORD PTR [rbx]
	mov	edx, 1
	mov	rcx, QWORD PTR [rax]
	mov	rax, QWORD PTR [rcx]
	call	[QWORD PTR 8[rax]]
	mov	rsi, rax
	test	rax, rax
	je	.L252
	mov	rcx, QWORD PTR 24[rsi]
	mov	r11d, 1
	jmp	.L309
.L313:
	mov	edi, 1
	jmp	.L272
.L353:
	mov	r9d, DWORD PTR [rcx]
	mov	r8d, edi
	mov	DWORD PTR [rdx], r9d
	mov	ecx, DWORD PTR -4[rcx+r8]
	mov	DWORD PTR -4[rdx+r8], ecx
	jmp	.L266
.L354:
	mov	r8d, edi
	movzx	ecx, WORD PTR -2[rcx+r8]
	mov	WORD PTR -2[rdx+r8], cx
	jmp	.L266
	.seh_endproc
	.section .rdata,"dr"
	.align 8
.LC12:
	.ascii "format error: invalid width or precision in format-spec\0"
	.section	.text$_ZNSt8__format5_SpecIcE27_S_parse_width_or_precisionEPKcS3_RtRbRSt26basic_format_parse_contextIcE,"x"
	.linkonce discard
	.p2align 4
	.globl	_ZNSt8__format5_SpecIcE27_S_parse_width_or_precisionEPKcS3_RtRbRSt26basic_format_parse_contextIcE
	.def	_ZNSt8__format5_SpecIcE27_S_parse_width_or_precisionEPKcS3_RtRbRSt26basic_format_parse_contextIcE;	.scl	2;	.type	32;	.endef
	.seh_proc	_ZNSt8__format5_SpecIcE27_S_parse_width_or_precisionEPKcS3_RtRbRSt26basic_format_parse_contextIcE
_ZNSt8__format5_SpecIcE27_S_parse_width_or_precisionEPKcS3_RtRbRSt26basic_format_parse_contextIcE:
.LFB4639:
	push	rbx
	.seh_pushreg	rbx
	sub	rsp, 32
	.seh_stackalloc	32
	.seh_endprologue
	mov	r11, rdx
	movzx	edx, BYTE PTR [rcx]
	mov	rbx, rcx
	lea	rcx, _ZNSt8__detail31__from_chars_alnum_to_val_tableILb0EE5valueE[rip]
	mov	r10, rbx
	cmp	BYTE PTR [rcx+rdx], 9
	ja	.L365
	xor	eax, eax
	mov	r9d, 16
	jmp	.L374
	.p2align 4,,10
	.p2align 3
.L399:
	lea	eax, [rax+rax*4]
	movzx	ecx, cl
	add	r10, 1
	lea	eax, [rcx+rax*2]
	cmp	r11, r10
	je	.L375
.L374:
	movzx	edx, BYTE PTR [r10]
	lea	ecx, -48[rdx]
	cmp	cl, 9
	ja	.L366
	sub	r9d, 4
	jns	.L399
	mov	edx, 10
	mul	dx
	jo	.L371
	movzx	ecx, cl
	add	cx, ax
	jc	.L371
	add	r10, 1
	mov	eax, ecx
	cmp	r11, r10
	jne	.L374
	.p2align 4
	.p2align 3
.L375:
	mov	WORD PTR [r8], ax
.L364:
	mov	rax, r10
	add	rsp, 32
	pop	rbx
	ret
	.p2align 4,,10
	.p2align 3
.L365:
	cmp	dl, 123
	jne	.L364
	lea	r10, 1[rbx]
	mov	BYTE PTR [r9], 1
	cmp	r10, r11
	je	.L400
	movsx	ax, BYTE PTR 1[rbx]
	cmp	al, 125
	je	.L401
	cmp	al, 48
	je	.L402
	lea	edx, -49[rax]
	cmp	dl, 8
	ja	.L383
	lea	rcx, 2[rbx]
	cmp	r11, rcx
	je	.L383
	movzx	edx, BYTE PTR 2[rbx]
	sub	edx, 48
	cmp	dl, 9
	ja	.L384
	mov	r9, r10
	xor	eax, eax
	mov	ebx, 16
	jmp	.L392
	.p2align 4,,10
	.p2align 3
.L404:
	lea	eax, [rax+rax*4]
	movzx	ecx, cl
	lea	eax, [rcx+rax*2]
.L387:
	add	r9, 1
	cmp	r11, r9
	je	.L403
.L392:
	movzx	edx, BYTE PTR [r9]
	lea	ecx, -48[rdx]
	cmp	cl, 9
	ja	.L385
	sub	ebx, 4
	jns	.L404
	mov	edx, 10
	mul	dx
	jo	.L383
	movzx	ecx, cl
	add	cx, ax
	jc	.L383
	mov	eax, ecx
	jmp	.L387
	.p2align 4,,10
	.p2align 3
.L366:
	cmp	rbx, r10
	jne	.L375
.L371:
	lea	rcx, .LC12[rip]
	call	_ZSt20__throw_format_errorPKc
	.p2align 4,,10
	.p2align 3
.L401:
	mov	rax, QWORD PTR 80[rsp]
	cmp	DWORD PTR 16[rax], 1
	je	.L394
	mov	rax, QWORD PTR 80[rsp]
	mov	rbx, QWORD PTR 80[rsp]
	mov	DWORD PTR 16[rax], 2
	mov	rax, QWORD PTR 24[rax]
	lea	rdx, 1[rax]
	mov	QWORD PTR 24[rbx], rdx
.L380:
	add	r10, 1
	mov	WORD PTR [r8], ax
	mov	rax, r10
	add	rsp, 32
	pop	rbx
	ret
.L402:
	lea	r10, 2[rbx]
	xor	eax, eax
.L382:
	cmp	r11, r10
	je	.L383
.L395:
	cmp	BYTE PTR [r10], 125
	jne	.L383
	mov	rbx, QWORD PTR 80[rsp]
	cmp	DWORD PTR 16[rbx], 2
	je	.L394
	mov	DWORD PTR 16[rbx], 1
	jmp	.L380
.L384:
	sub	eax, 48
	mov	r10, rcx
	jmp	.L395
.L385:
	cmp	r10, r9
	je	.L383
	mov	r10, r9
	jmp	.L382
.L403:
	mov	r10, r11
	jmp	.L382
.L400:
	lea	rcx, .LC5[rip]
	call	_ZSt20__throw_format_errorPKc
.L394:
	call	_ZNSt8__format39__conflicting_indexing_in_format_stringEv
.L383:
	call	_ZNSt8__format33__invalid_arg_id_in_format_stringEv
	nop
	.seh_endproc
	.section	.text$_ZNSt7__cxx1112basic_stringIcSt11char_traitsIcESaIcEE9_M_mutateEyyPKcy,"x"
	.linkonce discard
	.align 2
	.p2align 4
	.globl	_ZNSt7__cxx1112basic_stringIcSt11char_traitsIcESaIcEE9_M_mutateEyyPKcy
	.def	_ZNSt7__cxx1112basic_stringIcSt11char_traitsIcESaIcEE9_M_mutateEyyPKcy;	.scl	2;	.type	32;	.endef
	.seh_proc	_ZNSt7__cxx1112basic_stringIcSt11char_traitsIcESaIcEE9_M_mutateEyyPKcy
_ZNSt7__cxx1112basic_stringIcSt11char_traitsIcESaIcEE9_M_mutateEyyPKcy:
.LFB5018:
	push	r15
	.seh_pushreg	r15
	push	r14
	.seh_pushreg	r14
	push	r13
	.seh_pushreg	r13
	push	r12
	.seh_pushreg	r12
	push	rbp
	.seh_pushreg	rbp
	push	rdi
	.seh_pushreg	rdi
	push	rsi
	.seh_pushreg	rsi
	push	rbx
	.seh_pushreg	rbx
	sub	rsp, 56
	.seh_stackalloc	56
	.seh_endprologue
	mov	rbp, QWORD PTR 8[rcx]
	mov	rdi, QWORD PTR [rcx]
	mov	r12, r9
	lea	r14, 16[rcx]
	mov	rbx, rcx
	mov	rsi, rdx
	mov	r9, QWORD PTR 160[rsp]
	sub	r9, r8
	lea	r15, [r9+rbp]
	cmp	r14, rdi
	je	.L436
	movabs	rdx, 9223372036854775806
	mov	rax, QWORD PTR 16[rcx]
	cmp	rdx, r15
	jb	.L407
	lea	rcx, 1[r15]
	cmp	rax, r15
	jnb	.L413
	add	rax, rax
	cmp	r15, rax
	jnb	.L413
	lea	rcx, 1[rax]
	mov	r15, rax
	cmp	rdx, rax
	jnb	.L413
	movabs	rcx, 9223372036854775807
	mov	r15, rdx
	.p2align 4
	.p2align 3
.L413:
	lea	rax, [rsi+r8]
	mov	QWORD PTR 40[rsp], rax
	sub	rbp, rax
	call	_Znwy
	mov	r13, rax
	test	rsi, rsi
	je	.L414
	cmp	rsi, 1
	je	.L437
	mov	r8, rsi
	mov	rdx, rdi
	mov	rcx, rax
	call	memcpy
.L414:
	test	r12, r12
	je	.L416
	cmp	QWORD PTR 160[rsp], 0
	je	.L416
	lea	rcx, 0[r13+rsi]
	cmp	QWORD PTR 160[rsp], 1
	je	.L438
	mov	r8, QWORD PTR 160[rsp]
	mov	rdx, r12
	call	memcpy
.L416:
	test	rbp, rbp
	jne	.L439
.L418:
	cmp	r14, rdi
	je	.L420
	mov	rax, QWORD PTR 16[rbx]
	mov	rcx, rdi
	lea	rdx, 1[rax]
	call	_ZdlPvy
.L420:
	mov	QWORD PTR [rbx], r13
	mov	QWORD PTR 16[rbx], r15
	add	rsp, 56
	pop	rbx
	pop	rsi
	pop	rdi
	pop	rbp
	pop	r12
	pop	r13
	pop	r14
	pop	r15
	ret
	.p2align 4,,10
	.p2align 3
.L439:
	mov	rdx, QWORD PTR 40[rsp]
	add	rsi, QWORD PTR 160[rsp]
	lea	rcx, 0[r13+rsi]
	add	rdx, rdi
	cmp	rbp, 1
	je	.L440
	mov	r8, rbp
	call	memcpy
	jmp	.L418
	.p2align 4,,10
	.p2align 3
.L436:
	movabs	rax, 9223372036854775806
	cmp	rax, r15
	jb	.L407
	lea	rax, -16[r15]
	lea	rcx, 1[r15]
	cmp	rax, 13
	ja	.L413
	mov	ecx, 31
	mov	r15d, 30
	jmp	.L413
	.p2align 4,,10
	.p2align 3
.L437:
	movzx	eax, BYTE PTR [rdi]
	mov	BYTE PTR 0[r13], al
	jmp	.L414
	.p2align 4,,10
	.p2align 3
.L438:
	movzx	eax, BYTE PTR [r12]
	mov	BYTE PTR [rcx], al
	test	rbp, rbp
	je	.L418
	jmp	.L439
	.p2align 4,,10
	.p2align 3
.L440:
	movzx	eax, BYTE PTR [rdx]
	mov	BYTE PTR [rcx], al
	jmp	.L418
.L407:
	lea	rcx, .LC9[rip]
	call	_ZSt20__throw_length_errorPKc
	nop
	.seh_endproc
	.section .rdata,"dr"
.LC13:
	.ascii "basic_string::append\0"
	.section	.text$_ZNSt8__format9_Seq_sinkINSt7__cxx1112basic_stringIcSt11char_traitsIcESaIcEEEE11_M_overflowEv,"x"
	.linkonce discard
	.align 2
	.p2align 4
	.globl	_ZNSt8__format9_Seq_sinkINSt7__cxx1112basic_stringIcSt11char_traitsIcESaIcEEEE11_M_overflowEv
	.def	_ZNSt8__format9_Seq_sinkINSt7__cxx1112basic_stringIcSt11char_traitsIcESaIcEEEE11_M_overflowEv;	.scl	2;	.type	32;	.endef
	.seh_proc	_ZNSt8__format9_Seq_sinkINSt7__cxx1112basic_stringIcSt11char_traitsIcESaIcEEEE11_M_overflowEv
_ZNSt8__format9_Seq_sinkINSt7__cxx1112basic_stringIcSt11char_traitsIcESaIcEEEE11_M_overflowEv:
.LFB4580:
	sub	rsp, 72
	.seh_stackalloc	72
	.seh_endprologue
	mov	r9, QWORD PTR 8[rcx]
	mov	r8, QWORD PTR 24[rcx]
	mov	r10, rcx
	sub	r8, r9
	je	.L441
	mov	rdx, QWORD PTR 296[rcx]
	movabs	rax, 9223372036854775806
	sub	rax, rdx
	cmp	rax, r8
	jb	.L452
	mov	rcx, QWORD PTR 288[rcx]
	lea	rax, 304[r10]
	cmp	rcx, rax
	je	.L448
	mov	rax, QWORD PTR 304[r10]
.L444:
	lea	r11, [r8+rdx]
	cmp	rax, r11
	jb	.L445
	add	rcx, rdx
	cmp	r8, 1
	je	.L453
	mov	rdx, r9
	mov	QWORD PTR 80[rsp], r10
	mov	QWORD PTR 56[rsp], r11
	call	memcpy
	mov	r11, QWORD PTR 56[rsp]
	mov	r10, QWORD PTR 80[rsp]
	jmp	.L447
	.p2align 4,,10
	.p2align 3
.L445:
	mov	QWORD PTR 32[rsp], r8
	lea	rcx, 288[r10]
	xor	r8d, r8d
	mov	QWORD PTR 56[rsp], r11
	mov	QWORD PTR 80[rsp], r10
	call	_ZNSt7__cxx1112basic_stringIcSt11char_traitsIcESaIcEE9_M_mutateEyyPKcy
	mov	r11, QWORD PTR 56[rsp]
	mov	r10, QWORD PTR 80[rsp]
.L447:
	mov	rax, QWORD PTR 288[r10]
	mov	QWORD PTR 296[r10], r11
	mov	BYTE PTR [rax+r11], 0
	mov	rax, QWORD PTR 8[r10]
	mov	QWORD PTR 24[r10], rax
.L441:
	add	rsp, 72
	ret
	.p2align 4,,10
	.p2align 3
.L453:
	movzx	eax, BYTE PTR [r9]
	mov	BYTE PTR [rcx], al
	jmp	.L447
	.p2align 4,,10
	.p2align 3
.L448:
	mov	eax, 15
	jmp	.L444
.L452:
	lea	rcx, .LC13[rip]
	call	_ZSt20__throw_length_errorPKc
	nop
	.seh_endproc
	.section .rdata,"dr"
.LC14:
	.ascii "basic_string::_M_replace_aux\0"
	.section	.text$_ZNSt8__format9_Seq_sinkINSt7__cxx1112basic_stringIcSt11char_traitsIcESaIcEEEE7_M_bumpEy,"x"
	.linkonce discard
	.align 2
	.p2align 4
	.globl	_ZNSt8__format9_Seq_sinkINSt7__cxx1112basic_stringIcSt11char_traitsIcESaIcEEEE7_M_bumpEy
	.def	_ZNSt8__format9_Seq_sinkINSt7__cxx1112basic_stringIcSt11char_traitsIcESaIcEEEE7_M_bumpEy;	.scl	2;	.type	32;	.endef
	.seh_proc	_ZNSt8__format9_Seq_sinkINSt7__cxx1112basic_stringIcSt11char_traitsIcESaIcEEEE7_M_bumpEy
_ZNSt8__format9_Seq_sinkINSt7__cxx1112basic_stringIcSt11char_traitsIcESaIcEEEE7_M_bumpEy:
.LFB5355:
	push	rbx
	.seh_pushreg	rbx
	sub	rsp, 64
	.seh_stackalloc	64
	.seh_endprologue
	mov	r11, QWORD PTR 24[rcx]
	mov	rax, QWORD PTR 296[rcx]
	sub	r11, QWORD PTR 8[rcx]
	add	r11, rdx
	mov	r10, rcx
	cmp	rax, r11
	jb	.L464
	cmp	r11, rax
	jnb	.L461
.L463:
	mov	rax, QWORD PTR 288[r10]
	mov	QWORD PTR 296[r10], r11
	mov	BYTE PTR [rax+r11], 0
.L461:
	lea	rax, 32[r10]
	mov	QWORD PTR 16[r10], 256
	mov	QWORD PTR 8[r10], rax
	mov	QWORD PTR 24[r10], rax
	add	rsp, 64
	pop	rbx
	ret
	.p2align 4,,10
	.p2align 3
.L464:
	movabs	rdx, 9223372036854775806
	mov	rcx, r11
	sub	rcx, rax
	sub	rdx, rax
	mov	rbx, rcx
	cmp	rdx, rcx
	jb	.L465
	mov	rcx, QWORD PTR 288[r10]
	lea	rdx, 304[r10]
	cmp	rcx, rdx
	je	.L462
	mov	rdx, QWORD PTR 304[r10]
.L457:
	cmp	rdx, r11
	jb	.L466
.L458:
	add	rcx, rax
	cmp	rbx, 1
	je	.L467
	mov	r8, rbx
	xor	edx, edx
	mov	QWORD PTR 80[rsp], r10
	mov	QWORD PTR 48[rsp], r11
	call	memset
	mov	r10, QWORD PTR 80[rsp]
	mov	r11, QWORD PTR 48[rsp]
	jmp	.L463
	.p2align 4,,10
	.p2align 3
.L467:
	mov	BYTE PTR [rcx], 0
	jmp	.L463
	.p2align 4,,10
	.p2align 3
.L466:
	mov	QWORD PTR 32[rsp], rbx
	mov	rdx, rax
	xor	r9d, r9d
	xor	r8d, r8d
	lea	rcx, 288[r10]
	mov	QWORD PTR 56[rsp], r11
	mov	QWORD PTR 80[rsp], r10
	mov	QWORD PTR 48[rsp], rax
	call	_ZNSt7__cxx1112basic_stringIcSt11char_traitsIcESaIcEE9_M_mutateEyyPKcy
	mov	r10, QWORD PTR 80[rsp]
	mov	r11, QWORD PTR 56[rsp]
	mov	rax, QWORD PTR 48[rsp]
	mov	rcx, QWORD PTR 288[r10]
	jmp	.L458
	.p2align 4,,10
	.p2align 3
.L462:
	mov	edx, 15
	jmp	.L457
.L465:
	lea	rcx, .LC14[rip]
	call	_ZSt20__throw_length_errorPKc
	nop
	.seh_endproc
	.section	.text$_ZNSt8__format9_Seq_sinkINSt7__cxx1112basic_stringIcSt11char_traitsIcESaIcEEEE10_M_reserveEy,"x"
	.linkonce discard
	.align 2
	.p2align 4
	.globl	_ZNSt8__format9_Seq_sinkINSt7__cxx1112basic_stringIcSt11char_traitsIcESaIcEEEE10_M_reserveEy
	.def	_ZNSt8__format9_Seq_sinkINSt7__cxx1112basic_stringIcSt11char_traitsIcESaIcEEEE10_M_reserveEy;	.scl	2;	.type	32;	.endef
	.seh_proc	_ZNSt8__format9_Seq_sinkINSt7__cxx1112basic_stringIcSt11char_traitsIcESaIcEEEE10_M_reserveEy
_ZNSt8__format9_Seq_sinkINSt7__cxx1112basic_stringIcSt11char_traitsIcESaIcEEEE10_M_reserveEy:
.LFB5351:
	push	r14
	.seh_pushreg	r14
	push	r13
	.seh_pushreg	r13
	push	r12
	.seh_pushreg	r12
	push	rbp
	.seh_pushreg	rbp
	push	rdi
	.seh_pushreg	rdi
	push	rsi
	.seh_pushreg	rsi
	push	rbx
	.seh_pushreg	rbx
	sub	rsp, 64
	.seh_stackalloc	64
	.seh_endprologue
	mov	r9, QWORD PTR 8[rcx]
	mov	r8, QWORD PTR 24[rcx]
	mov	rbp, QWORD PTR 296[rcx]
	mov	rbx, rcx
	mov	rsi, rdx
	lea	r13, 304[rcx]
	cmp	r8, r9
	jne	.L498
.L469:
	mov	rdi, QWORD PTR 288[rbx]
	add	rsi, rbp
	cmp	rdi, r13
	je	.L499
	mov	rdx, QWORD PTR 304[rbx]
	cmp	rdx, rsi
	jb	.L500
.L476:
	mov	QWORD PTR 296[rbx], rsi
	mov	BYTE PTR [rdi+rsi], 0
	mov	rax, QWORD PTR 288[rbx]
	mov	rdx, QWORD PTR 296[rbx]
	mov	QWORD PTR 8[rbx], rax
	add	rax, rbp
	mov	QWORD PTR 24[rbx], rax
	mov	rax, rbx
	mov	QWORD PTR 16[rbx], rdx
	add	rsp, 64
	pop	rbx
	pop	rsi
	pop	rdi
	pop	rbp
	pop	r12
	pop	r13
	pop	r14
	ret
	.p2align 4,,10
	.p2align 3
.L500:
	movabs	r9, 9223372036854775806
	cmp	r9, rsi
	jb	.L477
	lea	rax, [rdx+rdx]
	mov	r14, rax
	cmp	rsi, rax
	jb	.L481
.L479:
	lea	rcx, 1[rsi]
	mov	r14, rsi
.L482:
	call	_Znwy
	lea	r8, 1[rbp]
	mov	r12, rax
	test	rbp, rbp
	je	.L501
	mov	rdx, rdi
	mov	rcx, rax
	call	memcpy
	cmp	rdi, r13
	je	.L497
.L495:
	mov	rdx, QWORD PTR 304[rbx]
.L489:
	add	rdx, 1
	mov	rcx, rdi
	call	_ZdlPvy
.L497:
	mov	QWORD PTR 288[rbx], r12
	mov	rdi, r12
	mov	QWORD PTR 304[rbx], r14
	jmp	.L476
	.p2align 4,,10
	.p2align 3
.L481:
	lea	rcx, 1[rax]
	cmp	r9, rax
	jnb	.L482
	movabs	rcx, 9223372036854775807
	mov	QWORD PTR 56[rsp], rdx
	call	_Znwy
	test	rbp, rbp
	mov	rdx, QWORD PTR 56[rsp]
	mov	r12, rax
	je	.L490
	lea	r8, 1[rbp]
	mov	rdx, rdi
	mov	rcx, rax
	movabs	r14, 9223372036854775806
	call	memcpy
	jmp	.L495
	.p2align 4,,10
	.p2align 3
.L499:
	cmp	rsi, 15
	jbe	.L476
	movabs	rax, 9223372036854775806
	cmp	rax, rsi
	jb	.L477
	cmp	rsi, 29
	ja	.L479
	mov	ecx, 31
	mov	r14d, 30
	jmp	.L482
	.p2align 4,,10
	.p2align 3
.L501:
	movzx	eax, BYTE PTR [rdi]
	mov	BYTE PTR [r12], al
	cmp	rdi, r13
	jne	.L495
	jmp	.L497
	.p2align 4,,10
	.p2align 3
.L498:
	movabs	rax, 9223372036854775806
	sub	r8, r9
	sub	rax, rbp
	cmp	rax, r8
	jb	.L502
	mov	rcx, QWORD PTR 288[rcx]
	cmp	rcx, r13
	je	.L491
	mov	rax, QWORD PTR 304[rbx]
.L471:
	lea	rdi, 0[rbp+r8]
	cmp	rax, rdi
	jb	.L472
	add	rcx, rbp
	cmp	r8, 1
	je	.L503
	mov	rdx, r9
	call	memcpy
.L474:
	mov	rax, QWORD PTR 288[rbx]
	mov	QWORD PTR 296[rbx], rdi
	mov	BYTE PTR [rax+rdi], 0
	mov	rax, QWORD PTR 8[rbx]
	mov	rbp, QWORD PTR 296[rbx]
	mov	QWORD PTR 24[rbx], rax
	jmp	.L469
	.p2align 4,,10
	.p2align 3
.L490:
	movabs	r14, 9223372036854775806
	movzx	eax, BYTE PTR [rdi]
	mov	BYTE PTR [r12], al
	jmp	.L489
	.p2align 4,,10
	.p2align 3
.L503:
	movzx	eax, BYTE PTR [r9]
	mov	BYTE PTR [rcx], al
	jmp	.L474
	.p2align 4,,10
	.p2align 3
.L472:
	mov	QWORD PTR 32[rsp], r8
	lea	rcx, 288[rbx]
	xor	r8d, r8d
	mov	rdx, rbp
	call	_ZNSt7__cxx1112basic_stringIcSt11char_traitsIcESaIcEE9_M_mutateEyyPKcy
	jmp	.L474
	.p2align 4,,10
	.p2align 3
.L491:
	mov	eax, 15
	jmp	.L471
.L477:
	lea	rcx, .LC9[rip]
	call	_ZSt20__throw_length_errorPKc
.L502:
	lea	rcx, .LC13[rip]
	call	_ZSt20__throw_length_errorPKc
	nop
	.seh_endproc
	.section .rdata,"dr"
.LC16:
	.ascii "std::vprint_unicode\0"
	.section	.text$_ZSt14vprint_unicodeP6_iobufSt17basic_string_viewIcSt11char_traitsIcEESt17basic_format_argsISt20basic_format_contextINSt8__format10_Sink_iterIcEEcEE,"x"
	.linkonce discard
	.p2align 4
	.globl	_ZSt14vprint_unicodeP6_iobufSt17basic_string_viewIcSt11char_traitsIcEESt17basic_format_argsISt20basic_format_contextINSt8__format10_Sink_iterIcEEcEE
	.def	_ZSt14vprint_unicodeP6_iobufSt17basic_string_viewIcSt11char_traitsIcEESt17basic_format_argsISt20basic_format_contextINSt8__format10_Sink_iterIcEEcEE;	.scl	2;	.type	32;	.endef
	.seh_proc	_ZSt14vprint_unicodeP6_iobufSt17basic_string_viewIcSt11char_traitsIcEESt17basic_format_argsISt20basic_format_contextINSt8__format10_Sink_iterIcEEcEE
_ZSt14vprint_unicodeP6_iobufSt17basic_string_viewIcSt11char_traitsIcEESt17basic_format_argsISt20basic_format_contextINSt8__format10_Sink_iterIcEEcEE:
.LFB3924:
	push	r15
	.seh_pushreg	r15
	push	r14
	.seh_pushreg	r14
	push	r13
	.seh_pushreg	r13
	push	r12
	.seh_pushreg	r12
	push	rbp
	.seh_pushreg	rbp
	push	rdi
	.seh_pushreg	rdi
	push	rsi
	.seh_pushreg	rsi
	push	rbx
	.seh_pushreg	rbx
	sub	rsp, 984
	.seh_stackalloc	984
	movaps	XMMWORD PTR 960[rsp], xmm6
	.seh_savexmm	xmm6, 960
	.seh_endprologue
	lea	rax, _ZTVNSt8__format9_Seq_sinkINSt7__cxx1112basic_stringIcSt11char_traitsIcESaIcEEEEE[rip+16]
	movq	xmm6, rax
	mov	rbx, QWORD PTR [rdx]
	mov	rsi, QWORD PTR 8[rdx]
	movdqa	xmm0, xmm6
	mov	r12, QWORD PTR [r8]
	mov	r13, QWORD PTR 8[r8]
	mov	r9, r12
	mov	rdi, r13
	lea	rdx, 352[rsp]
	lea	rax, 320[rsp]
	mov	QWORD PTR 1056[rsp], rcx
	movq	xmm1, rdx
	lea	r14, 624[rsp]
	mov	QWORD PTR 336[rsp], 256
	punpcklqdq	xmm0, xmm1
	mov	QWORD PTR 344[rsp], rdx
	mov	QWORD PTR 608[rsp], r14
	mov	QWORD PTR 616[rsp], 0
	mov	BYTE PTR 624[rsp], 0
	mov	QWORD PTR 208[rsp], rax
	movaps	XMMWORD PTR 320[rsp], xmm0
	cmp	rbx, 2
	je	.L602
	lea	rcx, 256[rsp]
	lea	rbp, 640[rsp]
	mov	QWORD PTR 56[rsp], rcx
.L505:
	movdqa	xmm0, XMMWORD PTR .LC15[rip]
	mov	QWORD PTR 272[rsp], rax
	lea	rax, [rsi+rbx]
	mov	rcx, rbp
	mov	QWORD PTR 656[rsp], rax
	lea	rax, _ZTVNSt8__format19_Formatting_scannerINS_10_Sink_iterIcEEcEE[rip+16]
	movaps	XMMWORD PTR 672[rsp], xmm0
	pxor	xmm0, xmm0
	movhps	xmm0, QWORD PTR 56[rsp]
	mov	QWORD PTR 256[rsp], r9
	mov	QWORD PTR 264[rsp], rdi
	mov	QWORD PTR 280[rsp], 0
	mov	BYTE PTR 288[rsp], 0
	mov	QWORD PTR 648[rsp], rsi
	mov	DWORD PTR 664[rsp], 0
	mov	QWORD PTR 640[rsp], rax
	movaps	XMMWORD PTR 688[rsp], xmm0
.LEHB12:
	call	_ZNSt8__format8_ScannerIcE7_M_scanEv
.LEHE12:
	cmp	BYTE PTR 288[rsp], 0
	jne	.L603
.L509:
	mov	r10, QWORD PTR 328[rsp]
	mov	rdi, QWORD PTR 344[rsp]
	mov	rdx, QWORD PTR 616[rsp]
	sub	rdi, r10
	test	rdx, rdx
	je	.L512
	test	rdi, rdi
	jne	.L604
	mov	r10, QWORD PTR 608[rsp]
	mov	rdi, rdx
.L512:
	mov	rcx, QWORD PTR 1056[rsp]
	mov	QWORD PTR 64[rsp], r10
	lea	r15, 608[rsp]
.LEHB13:
	call	_ZSt15__open_terminalP6_iobuf
.LEHE13:
	mov	r15, rax
	test	rax, rax
	je	.L522
	lea	rax, 672[rsp]
	movdqa	xmm0, xmm6
	lea	rdi, 944[rsp]
	mov	QWORD PTR 656[rsp], 256
	movq	xmm2, rax
	mov	QWORD PTR 664[rsp], rax
	lea	rax, 208[rsp]
	punpcklqdq	xmm0, xmm2
	mov	QWORD PTR 928[rsp], rdi
	mov	QWORD PTR 936[rsp], 0
	mov	BYTE PTR 944[rsp], 0
	mov	QWORD PTR 128[rsp], rbp
	movaps	XMMWORD PTR 640[rsp], xmm0
	cmp	rbx, 2
	je	.L605
.L523:
	movdqa	xmm0, XMMWORD PTR .LC15[rip]
	add	rbx, rsi
	movq	xmm3, rsi
	movq	xmm4, rax
	mov	QWORD PTR 272[rsp], rbx
	lea	rbx, _ZTVNSt8__format19_Formatting_scannerINS_10_Sink_iterIcEEcEE[rip+16]
	mov	rcx, QWORD PTR 56[rsp]
	movaps	XMMWORD PTR 288[rsp], xmm0
	movq	xmm0, rbx
	punpcklqdq	xmm0, xmm3
	mov	QWORD PTR 208[rsp], r12
	movaps	XMMWORD PTR 256[rsp], xmm0
	pxor	xmm0, xmm0
	punpcklqdq	xmm0, xmm4
	mov	QWORD PTR 216[rsp], r13
	mov	QWORD PTR 224[rsp], rbp
	mov	QWORD PTR 232[rsp], 0
	mov	BYTE PTR 240[rsp], 0
	mov	DWORD PTR 280[rsp], 0
	movaps	XMMWORD PTR 304[rsp], xmm0
.LEHB14:
	call	_ZNSt8__format8_ScannerIcE7_M_scanEv
.LEHE14:
	cmp	BYTE PTR 240[rsp], 0
	jne	.L606
.L527:
	mov	rdx, QWORD PTR 936[rsp]
	mov	r9, QWORD PTR 648[rsp]
	mov	r8, QWORD PTR 664[rsp]
	mov	rax, rdx
	cmp	r9, r8
	je	.L607
	movabs	rax, 9223372036854775806
	sub	r8, r9
	sub	rax, rdx
	cmp	rax, r8
	jb	.L608
	mov	rcx, QWORD PTR 928[rsp]
	mov	eax, 15
	lea	rbx, [rdx+r8]
	cmp	rcx, rdi
	cmovne	rax, QWORD PTR 944[rsp]
	cmp	rax, rbx
	jb	.L536
	add	rcx, rdx
	cmp	r8, 1
	je	.L609
	mov	rdx, r9
	call	memcpy
.L538:
	mov	rax, QWORD PTR 928[rsp]
	mov	QWORD PTR 936[rsp], rbx
	mov	BYTE PTR [rax+rbx], 0
	mov	rcx, QWORD PTR 928[rsp]
	lea	rbx, 272[rsp]
	mov	QWORD PTR 256[rsp], rbx
	cmp	rcx, rdi
	je	.L539
	mov	rdx, QWORD PTR 936[rsp]
	jmp	.L560
	.p2align 4,,10
	.p2align 3
.L607:
	mov	rcx, QWORD PTR 928[rsp]
	lea	rbx, 272[rsp]
	mov	QWORD PTR 256[rsp], rbx
	cmp	rcx, rdi
	je	.L559
.L560:
	mov	rax, QWORD PTR 944[rsp]
	mov	QWORD PTR 256[rsp], rcx
	mov	QWORD PTR 272[rsp], rax
	mov	rax, rdx
.L540:
	mov	rcx, QWORD PTR 1056[rsp]
	mov	QWORD PTR 264[rsp], rax
.LEHB15:
	call	fflush
	test	eax, eax
	jne	.L610
	mov	rax, QWORD PTR 256[rsp]
	mov	rdi, QWORD PTR 264[rsp]
	lea	rsi, 96[rsp]
	mov	rdx, r15
	lea	r8, 80[rsp]
	mov	rcx, rsi
	mov	QWORD PTR 80[rsp], rax
	mov	QWORD PTR 88[rsp], rdi
	call	_ZSt19__write_to_terminalPvSt4spanIcLy18446744073709551615EE
.LEHE15:
	mov	rax, QWORD PTR 96[rsp]
	mov	rbp, QWORD PTR 104[rsp]
	mov	edi, eax
	mov	QWORD PTR 72[rsp], rax
	test	edi, edi
	je	.L549
	call	_ZNSt3_V216generic_categoryEv
	cmp	edi, 42
	jne	.L551
	cmp	rax, rbp
	jne	.L551
.L549:
	mov	rcx, QWORD PTR 256[rsp]
	cmp	rcx, rbx
	je	.L555
	mov	rax, QWORD PTR 272[rsp]
	lea	rdx, 1[rax]
	call	_ZdlPvy
.L555:
	mov	rcx, QWORD PTR 608[rsp]
	cmp	rcx, r14
	je	.L504
	mov	rax, QWORD PTR 624[rsp]
	lea	rdx, 1[rax]
	call	_ZdlPvy
	nop
.L504:
	movaps	xmm6, XMMWORD PTR 960[rsp]
	add	rsp, 984
	pop	rbx
	pop	rsi
	pop	rdi
	pop	rbp
	pop	r12
	pop	r13
	pop	r14
	pop	r15
	ret
	.p2align 4,,10
	.p2align 3
.L605:
	cmp	BYTE PTR [rsi], 123
	jne	.L523
	cmp	BYTE PTR 1[rsi], 125
	jne	.L523
	lea	rax, 128[rsp]
	mov	BYTE PTR 127[rsp], 0
	movq	xmm0, rax
	lea	rax, 127[rsp]
	movq	xmm5, rax
	punpcklqdq	xmm0, xmm5
	test	r12b, 15
	je	.L524
	mov	r8, r12
	movdqa	xmm5, XMMWORD PTR 0[r13]
	shr	r8, 4
	mov	eax, r8d
	movaps	XMMWORD PTR 176[rsp], xmm5
	and	r8d, 31
	and	eax, 31
.L525:
	movdqa	xmm5, XMMWORD PTR 176[rsp]
	mov	BYTE PTR 192[rsp], al
	lea	rax, 208[rsp]
	lea	rbp, 928[rsp]
	mov	rcx, QWORD PTR 56[rsp]
	mov	rdx, rax
	mov	QWORD PTR 64[rsp], rax
	movaps	XMMWORD PTR 256[rsp], xmm5
	movdqa	xmm5, XMMWORD PTR 192[rsp]
	movaps	XMMWORD PTR 208[rsp], xmm0
	movaps	XMMWORD PTR 272[rsp], xmm5
.LEHB16:
	call	_ZNSt16basic_format_argISt20basic_format_contextINSt8__format10_Sink_iterIcEEcEE8_M_visitIZNS1_15__do_vformat_toIS3_cS4_EET_S8_St17basic_string_viewIT0_St11char_traitsISA_EERKSt17basic_format_argsIT1_EPKSt6localeEUlRS8_E_EEDcOS8_NS1_6_Arg_tE
.LEHE16:
	cmp	BYTE PTR 127[rsp], 0
	jne	.L527
	mov	rbp, QWORD PTR 128[rsp]
	mov	rax, QWORD PTR 64[rsp]
	jmp	.L523
	.p2align 4,,10
	.p2align 3
.L606:
	lea	rcx, 232[rsp]
	call	_ZNSt6localeD1Ev
	jmp	.L527
	.p2align 4,,10
	.p2align 3
.L602:
	cmp	BYTE PTR [rsi], 123
	je	.L611
.L564:
	lea	rdx, 256[rsp]
	lea	rbp, 640[rsp]
	mov	QWORD PTR 56[rsp], rdx
	jmp	.L505
	.p2align 4,,10
	.p2align 3
.L603:
	lea	rcx, 280[rsp]
	call	_ZNSt6localeD1Ev
	jmp	.L509
	.p2align 4,,10
	.p2align 3
.L522:
	mov	r9, QWORD PTR 1056[rsp]
	mov	rcx, QWORD PTR 64[rsp]
	mov	r8, rdi
	mov	edx, 1
	lea	r15, 608[rsp]
.LEHB17:
	call	fwrite
	cmp	rax, rdi
	je	.L555
	mov	ecx, 5
	call	_ZSt20__throw_system_errori
.LEHE17:
	.p2align 4,,10
	.p2align 3
.L610:
	call	_ZNSt3_V216generic_categoryEv
	mov	rbp, rax
.LEHB18:
	call	[QWORD PTR __imp__errno[rip]]
.LEHE18:
	mov	edi, DWORD PTR [rax]
	lea	rsi, 96[rsp]
.L551:
	mov	ecx, 32
	call	__cxa_allocate_exception
	mov	edx, 4294967295
	mov	QWORD PTR 104[rsp], rbp
	lea	r8, .LC16[rip]
	mov	r12, rax
	mov	rax, QWORD PTR 72[rsp]
	sal	rdx, 32
	mov	rcx, r12
	and	rax, rdx
	mov	rdx, rsi
	or	rax, rdi
	mov	QWORD PTR 96[rsp], rax
.LEHB19:
	call	_ZNSt12system_errorC1ESt10error_codePKc
.LEHE19:
	lea	r8, _ZNSt12system_errorD1Ev[rip]
	lea	rdx, _ZTISt12system_error[rip]
	mov	rcx, r12
.LEHB20:
	call	__cxa_throw
.LEHE20:
	.p2align 4,,10
	.p2align 3
.L604:
	movabs	rax, 9223372036854775806
	sub	rax, rdx
	cmp	rax, rdi
	jb	.L612
	mov	rcx, QWORD PTR 608[rsp]
	mov	eax, 15
	lea	r11, [rdi+rdx]
	cmp	rcx, r14
	cmovne	rax, QWORD PTR 624[rsp]
	cmp	rax, r11
	jb	.L519
	add	rcx, rdx
	cmp	rdi, 1
	je	.L613
	mov	r8, rdi
	mov	rdx, r10
	mov	QWORD PTR 64[rsp], r11
	call	memcpy
	mov	r11, QWORD PTR 64[rsp]
.L521:
	mov	rax, QWORD PTR 608[rsp]
	mov	QWORD PTR 616[rsp], r11
	mov	BYTE PTR [rax+r11], 0
	mov	rax, QWORD PTR 328[rsp]
	mov	r10, QWORD PTR 608[rsp]
	mov	rdi, QWORD PTR 616[rsp]
	mov	QWORD PTR 344[rsp], rax
	jmp	.L512
	.p2align 4,,10
	.p2align 3
.L539:
	mov	rax, QWORD PTR 936[rsp]
.L559:
	lea	rcx, 1[rax]
	mov	r9, rbx
	mov	rdx, rdi
	cmp	ecx, 8
	jnb	.L614
.L541:
	xor	r8d, r8d
	test	cl, 4
	jne	.L615
.L544:
	test	cl, 2
	jne	.L616
.L545:
	and	ecx, 1
	je	.L540
	movzx	edx, BYTE PTR [rdx+r8]
	mov	BYTE PTR [r9+r8], dl
	jmp	.L540
	.p2align 4,,10
	.p2align 3
.L611:
	cmp	BYTE PTR 1[rsi], 125
	jne	.L564
	lea	rax, 208[rsp]
	lea	rdx, 256[rsp]
	mov	BYTE PTR 256[rsp], 0
	mov	QWORD PTR 56[rsp], rdx
	movq	xmm0, rax
	movhps	xmm0, QWORD PTR 56[rsp]
	test	r12b, 15
	je	.L506
	mov	r8, r12
	movdqa	xmm5, XMMWORD PTR 0[r13]
	shr	r8, 4
	mov	eax, r8d
	movaps	XMMWORD PTR 144[rsp], xmm5
	and	r8d, 31
	and	eax, 31
.L507:
	movdqa	xmm5, XMMWORD PTR 144[rsp]
	mov	BYTE PTR 160[rsp], al
	lea	rbp, 640[rsp]
	lea	rdx, 128[rsp]
	mov	rcx, rbp
	mov	QWORD PTR 64[rsp], r9
	lea	r15, 608[rsp]
	movaps	XMMWORD PTR 640[rsp], xmm5
	movdqa	xmm5, XMMWORD PTR 160[rsp]
	movaps	XMMWORD PTR 128[rsp], xmm0
	movaps	XMMWORD PTR 656[rsp], xmm5
.LEHB21:
	call	_ZNSt16basic_format_argISt20basic_format_contextINSt8__format10_Sink_iterIcEEcEE8_M_visitIZNS1_15__do_vformat_toIS3_cS4_EET_S8_St17basic_string_viewIT0_St11char_traitsISA_EERKSt17basic_format_argsIT1_EPKSt6localeEUlRS8_E_EEDcOS8_NS1_6_Arg_tE
.LEHE21:
	cmp	BYTE PTR 256[rsp], 0
	jne	.L509
	mov	rax, QWORD PTR 208[rsp]
	mov	r9, QWORD PTR 64[rsp]
	jmp	.L505
	.p2align 4,,10
	.p2align 3
.L536:
	mov	QWORD PTR 32[rsp], r8
	lea	rbp, 928[rsp]
	xor	r8d, r8d
	mov	rcx, rbp
.LEHB22:
	call	_ZNSt7__cxx1112basic_stringIcSt11char_traitsIcESaIcEE9_M_mutateEyyPKcy
.LEHE22:
	jmp	.L538
	.p2align 4,,10
	.p2align 3
.L614:
	mov	r9d, ecx
	xor	edx, edx
	and	r9d, -8
.L542:
	mov	r8d, edx
	add	edx, 8
	mov	r10, QWORD PTR [rdi+r8]
	mov	QWORD PTR [rbx+r8], r10
	cmp	edx, r9d
	jb	.L542
	lea	r9, [rbx+rdx]
	add	rdx, rdi
	jmp	.L541
	.p2align 4,,10
	.p2align 3
.L616:
	movzx	r10d, WORD PTR [rdx+r8]
	mov	WORD PTR [r9+r8], r10w
	add	r8, 2
	jmp	.L545
	.p2align 4,,10
	.p2align 3
.L615:
	mov	r8d, DWORD PTR [rdx]
	mov	DWORD PTR [r9], r8d
	mov	r8d, 4
	jmp	.L544
	.p2align 4,,10
	.p2align 3
.L609:
	movzx	eax, BYTE PTR [r9]
	mov	BYTE PTR [rcx], al
	jmp	.L538
	.p2align 4,,10
	.p2align 3
.L613:
	movzx	eax, BYTE PTR [r10]
	mov	BYTE PTR [rcx], al
	jmp	.L521
	.p2align 4,,10
	.p2align 3
.L519:
	mov	QWORD PTR 32[rsp], rdi
	lea	r15, 608[rsp]
	mov	r9, r10
	xor	r8d, r8d
	mov	rcx, r15
	mov	QWORD PTR 64[rsp], r11
.LEHB23:
	call	_ZNSt7__cxx1112basic_stringIcSt11char_traitsIcESaIcEE9_M_mutateEyyPKcy
	mov	r11, QWORD PTR 64[rsp]
	jmp	.L521
	.p2align 4,,10
	.p2align 3
.L506:
	mov	rdx, r12
	xor	eax, eax
	xor	r8d, r8d
	shr	rdx, 4
	je	.L507
	movdqu	xmm5, XMMWORD PTR 0[r13]
	movzx	r8d, BYTE PTR 16[r13]
	movaps	XMMWORD PTR 144[rsp], xmm5
	mov	eax, r8d
	jmp	.L507
	.p2align 4,,10
	.p2align 3
.L524:
	mov	rdx, r12
	xor	eax, eax
	xor	r8d, r8d
	shr	rdx, 4
	je	.L525
	movdqu	xmm5, XMMWORD PTR 0[r13]
	movzx	r8d, BYTE PTR 16[r13]
	movaps	XMMWORD PTR 176[rsp], xmm5
	mov	eax, r8d
	jmp	.L525
.L578:
	mov	rbx, rax
	jmp	.L533
.L574:
	mov	rbx, rax
	jmp	.L515
.L575:
	mov	rbx, rax
	jmp	.L558
.L612:
	lea	rcx, .LC13[rip]
	lea	r15, 608[rsp]
	call	_ZSt20__throw_length_errorPKc
.LEHE23:
.L579:
	mov	rbx, rax
	jmp	.L531
.L577:
	mov	rbx, rax
	jmp	.L513
.L531:
	cmp	BYTE PTR 240[rsp], 0
	je	.L532
	lea	rcx, 232[rsp]
	call	_ZNSt6localeD1Ev
.L532:
	lea	rbp, 928[rsp]
.L533:
	movq	QWORD PTR 640[rsp], xmm6
	mov	rcx, rbp
	call	_ZNSt7__cxx1112basic_stringIcSt11char_traitsIcESaIcEE10_M_disposeEv
.L600:
	lea	r15, 608[rsp]
.L515:
	movq	QWORD PTR 320[rsp], xmm6
	mov	rcx, r15
	call	_ZNSt7__cxx1112basic_stringIcSt11char_traitsIcESaIcEE10_M_disposeEv
	mov	rcx, rbx
.LEHB24:
	call	_Unwind_Resume
.LEHE24:
.L513:
	cmp	BYTE PTR 288[rsp], 0
	je	.L600
	lea	rcx, 280[rsp]
	call	_ZNSt6localeD1Ev
	jmp	.L600
.L608:
	lea	rcx, .LC13[rip]
	lea	rbp, 928[rsp]
.LEHB25:
	call	_ZSt20__throw_length_errorPKc
.LEHE25:
.L576:
	mov	rbx, rax
.L557:
	mov	rcx, r12
	call	__cxa_free_exception
.L558:
	mov	rcx, QWORD PTR 56[rsp]
	lea	r15, 608[rsp]
	call	_ZNSt7__cxx1112basic_stringIcSt11char_traitsIcESaIcEE10_M_disposeEv
	jmp	.L515
	.seh_handler	__gxx_personality_seh0, @unwind, @except
	.seh_handlerdata
.LLSDA3924:
	.byte	0xff
	.byte	0xff
	.byte	0x1
	.uleb128 .LLSDACSE3924-.LLSDACSB3924
.LLSDACSB3924:
	.uleb128 .LEHB12-.LFB3924
	.uleb128 .LEHE12-.LEHB12
	.uleb128 .L577-.LFB3924
	.uleb128 0
	.uleb128 .LEHB13-.LFB3924
	.uleb128 .LEHE13-.LEHB13
	.uleb128 .L574-.LFB3924
	.uleb128 0
	.uleb128 .LEHB14-.LFB3924
	.uleb128 .LEHE14-.LEHB14
	.uleb128 .L579-.LFB3924
	.uleb128 0
	.uleb128 .LEHB15-.LFB3924
	.uleb128 .LEHE15-.LEHB15
	.uleb128 .L575-.LFB3924
	.uleb128 0
	.uleb128 .LEHB16-.LFB3924
	.uleb128 .LEHE16-.LEHB16
	.uleb128 .L578-.LFB3924
	.uleb128 0
	.uleb128 .LEHB17-.LFB3924
	.uleb128 .LEHE17-.LEHB17
	.uleb128 .L574-.LFB3924
	.uleb128 0
	.uleb128 .LEHB18-.LFB3924
	.uleb128 .LEHE18-.LEHB18
	.uleb128 .L575-.LFB3924
	.uleb128 0
	.uleb128 .LEHB19-.LFB3924
	.uleb128 .LEHE19-.LEHB19
	.uleb128 .L576-.LFB3924
	.uleb128 0
	.uleb128 .LEHB20-.LFB3924
	.uleb128 .LEHE20-.LEHB20
	.uleb128 .L575-.LFB3924
	.uleb128 0
	.uleb128 .LEHB21-.LFB3924
	.uleb128 .LEHE21-.LEHB21
	.uleb128 .L574-.LFB3924
	.uleb128 0
	.uleb128 .LEHB22-.LFB3924
	.uleb128 .LEHE22-.LEHB22
	.uleb128 .L578-.LFB3924
	.uleb128 0
	.uleb128 .LEHB23-.LFB3924
	.uleb128 .LEHE23-.LEHB23
	.uleb128 .L574-.LFB3924
	.uleb128 0
	.uleb128 .LEHB24-.LFB3924
	.uleb128 .LEHE24-.LEHB24
	.uleb128 0
	.uleb128 0
	.uleb128 .LEHB25-.LFB3924
	.uleb128 .LEHE25-.LEHB25
	.uleb128 .L578-.LFB3924
	.uleb128 0
.LLSDACSE3924:
	.section	.text$_ZSt14vprint_unicodeP6_iobufSt17basic_string_viewIcSt11char_traitsIcEESt17basic_format_argsISt20basic_format_contextINSt8__format10_Sink_iterIcEEcEE,"x"
	.linkonce discard
	.seh_endproc
	.section .rdata,"dr"
.LC17:
	.ascii "result = {}\12\0"
	.section	.text.startup,"x"
	.p2align 4
	.globl	main
	.def	main;	.scl	2;	.type	32;	.endef
	.seh_proc	main
main:
.LFB3957:
	sub	rsp, 88
	.seh_stackalloc	88
	.seh_endprologue
	call	__main
	mov	ecx, 1
	call	[QWORD PTR __imp___acrt_iob_func[rip]]
	lea	rdx, 64[rsp]
	lea	rcx, .LC17[rip]
	mov	DWORD PTR 64[rsp], 42
	mov	QWORD PTR 56[rsp], rcx
	lea	r8, 32[rsp]
	mov	rcx, rax
	mov	QWORD PTR 40[rsp], rdx
	lea	rdx, 48[rsp]
	mov	QWORD PTR 48[rsp], 12
	mov	QWORD PTR 32[rsp], 49
	call	_ZSt14vprint_unicodeP6_iobufSt17basic_string_viewIcSt11char_traitsIcEESt17basic_format_argsISt20basic_format_contextINSt8__format10_Sink_iterIcEEcEE
	xor	eax, eax
	add	rsp, 88
	ret
	.seh_endproc
	.section	.text$_ZNSt9__unicode13_Utf_iteratorIcDiPKcS2_NS_5_ReplEE12_M_read_utf8Ev,"x"
	.linkonce discard
	.align 2
	.p2align 4
	.globl	_ZNSt9__unicode13_Utf_iteratorIcDiPKcS2_NS_5_ReplEE12_M_read_utf8Ev
	.def	_ZNSt9__unicode13_Utf_iteratorIcDiPKcS2_NS_5_ReplEE12_M_read_utf8Ev;	.scl	2;	.type	32;	.endef
	.seh_proc	_ZNSt9__unicode13_Utf_iteratorIcDiPKcS2_NS_5_ReplEE12_M_read_utf8Ev
_ZNSt9__unicode13_Utf_iteratorIcDiPKcS2_NS_5_ReplEE12_M_read_utf8Ev:
.LFB5078:
	.seh_endprologue
	mov	r8, QWORD PTR 16[rcx]
	mov	rax, rcx
	lea	rcx, 1[r8]
	mov	QWORD PTR 16[rax], rcx
	movsx	edx, BYTE PTR [r8]
	test	dl, dl
	js	.L619
	mov	ecx, 1
.L620:
	mov	DWORD PTR [rax], edx
	mov	edx, 256
	mov	BYTE PTR 26[rax], cl
	mov	WORD PTR 24[rax], dx
	mov	QWORD PTR 16[rax], r8
	ret
	.p2align 4,,10
	.p2align 3
.L619:
	cmp	dl, -63
	jbe	.L636
	mov	r9, QWORD PTR 32[rax]
	cmp	rcx, r9
	je	.L636
	cmp	dl, -33
	jbe	.L639
	cmp	dl, -17
	ja	.L622
	cmp	dl, -32
	je	.L630
	cmp	dl, -19
	mov	r10d, -65
	mov	ecx, -97
	mov	r11d, -128
	cmove	r10d, ecx
.L623:
	movzx	ecx, BYTE PTR 1[r8]
	cmp	cl, r11b
	jb	.L636
	cmp	r10b, cl
	jb	.L636
	lea	r10, 2[r8]
	mov	QWORD PTR 16[rax], r10
	cmp	r9, r10
	je	.L625
	movzx	r9d, BYTE PTR 2[r8]
	lea	r10d, -128[r9]
	cmp	r10b, 63
	ja	.L625
	and	edx, 15
	and	ecx, 63
	and	r9d, 63
	sal	edx, 6
	or	ecx, edx
	mov	edx, r9d
	sal	ecx, 6
	or	edx, ecx
	mov	ecx, 3
	jmp	.L620
	.p2align 4,,10
	.p2align 3
.L639:
	movzx	ecx, BYTE PTR 1[r8]
	lea	r9d, -128[rcx]
	cmp	r9b, 63
	ja	.L636
	and	edx, 31
	and	ecx, 63
	sal	edx, 6
	or	edx, ecx
	mov	ecx, 2
	jmp	.L620
	.p2align 4,,10
	.p2align 3
.L636:
	mov	ecx, 1
	mov	edx, 65533
	jmp	.L620
	.p2align 4,,10
	.p2align 3
.L622:
	cmp	dl, -12
	ja	.L636
	cmp	dl, -16
	je	.L634
	cmp	dl, -12
	mov	r10d, -65
	mov	ecx, -113
	mov	r11d, -128
	cmove	r10d, ecx
.L626:
	movzx	ecx, BYTE PTR 1[r8]
	cmp	cl, r11b
	jb	.L636
	cmp	r10b, cl
	jb	.L636
	lea	r10, 2[r8]
	mov	QWORD PTR 16[rax], r10
	cmp	r9, r10
	je	.L625
	movzx	r10d, BYTE PTR 2[r8]
	lea	r11d, -128[r10]
	cmp	r11b, 63
	ja	.L625
	lea	r11, 3[r8]
	mov	QWORD PTR 16[rax], r11
	cmp	r9, r11
	je	.L638
	movzx	r9d, BYTE PTR 3[r8]
	lea	r11d, -128[r9]
	cmp	r11b, 63
	ja	.L638
	and	edx, 7
	and	ecx, 63
	and	r10d, 63
	and	r9d, 63
	sal	edx, 6
	or	ecx, edx
	mov	edx, r9d
	sal	ecx, 6
	or	r10d, ecx
	mov	ecx, 4
	sal	r10d, 6
	or	edx, r10d
	jmp	.L620
.L630:
	mov	r11d, -96
	mov	r10d, -65
	jmp	.L623
.L625:
	mov	ecx, 2
	mov	edx, 65533
	jmp	.L620
.L634:
	mov	r11d, -112
	mov	r10d, -65
	jmp	.L626
.L638:
	mov	ecx, 3
	mov	edx, 65533
	jmp	.L620
	.seh_endproc
	.section .rdata,"dr"
	.align 8
.LC19:
	.ascii "format error: width must be non-zero in format string\0"
	.section	.text$_ZNSt8__format15__formatter_intIcE11_M_do_parseERSt26basic_format_parse_contextIcENS_10_Pres_typeE,"x"
	.linkonce discard
	.align 2
	.p2align 4
	.globl	_ZNSt8__format15__formatter_intIcE11_M_do_parseERSt26basic_format_parse_contextIcENS_10_Pres_typeE
	.def	_ZNSt8__format15__formatter_intIcE11_M_do_parseERSt26basic_format_parse_contextIcENS_10_Pres_typeE;	.scl	2;	.type	32;	.endef
	.seh_proc	_ZNSt8__format15__formatter_intIcE11_M_do_parseERSt26basic_format_parse_contextIcENS_10_Pres_typeE
_ZNSt8__format15__formatter_intIcE11_M_do_parseERSt26basic_format_parse_contextIcENS_10_Pres_typeE:
.LFB4014:
	push	r15
	.seh_pushreg	r15
	push	r14
	.seh_pushreg	r14
	push	rbp
	.seh_pushreg	rbp
	push	rdi
	.seh_pushreg	rdi
	push	rsi
	.seh_pushreg	rsi
	push	rbx
	.seh_pushreg	rbx
	sub	rsp, 184
	.seh_stackalloc	184
	.seh_endprologue
	movdqu	xmm0, XMMWORD PTR [rdx]
	mov	rsi, QWORD PTR 8[rdx]
	movq	rbx, xmm0
	mov	edi, r8d
	mov	r11, rcx
	mov	r10d, r8d
	mov	QWORD PTR 68[rsp], 0
	and	edi, 15
	cmp	rsi, rbx
	je	.L641
	movzx	eax, BYTE PTR [rbx]
	cmp	al, 125
	je	.L641
	cmp	al, 123
	je	.L644
	mov	QWORD PTR 248[rsp], rdx
	punpcklqdq	xmm0, xmm0
	xor	edx, edx
	mov	QWORD PTR 240[rsp], rcx
	lea	rcx, 80[rsp]
	mov	DWORD PTR 256[rsp], r8d
	mov	rbp, rcx
	mov	WORD PTR 104[rsp], dx
	mov	BYTE PTR 63[rsp], al
	mov	BYTE PTR 106[rsp], 0
	mov	QWORD PTR 112[rsp], rsi
	movups	XMMWORD PTR 88[rsp], xmm0
	call	_ZNSt9__unicode13_Utf_iteratorIcDiPKcS2_NS_5_ReplEE12_M_read_utf8Ev
	movzx	eax, BYTE PTR 104[rsp]
	mov	rcx, QWORD PTR 112[rsp]
	movzx	r9d, BYTE PTR 105[rsp]
	movdqa	xmm1, XMMWORD PTR 80[rsp]
	mov	QWORD PTR 160[rsp], rcx
	movzx	ecx, al
	mov	r14d, eax
	mov	r8, QWORD PTR 96[rsp]
	movdqa	xmm2, XMMWORD PTR 96[rsp]
	add	ecx, 1
	movzx	r15d, BYTE PTR 106[rsp]
	movaps	XMMWORD PTR 128[rsp], xmm1
	cmp	ecx, r9d
	mov	r11, QWORD PTR 240[rsp]
	mov	rdx, QWORD PTR 248[rsp]
	mov	r10d, DWORD PTR 256[rsp]
	movzx	eax, BYTE PTR 63[rsp]
	movaps	XMMWORD PTR 144[rsp], xmm2
	je	.L728
.L645:
	movzx	ecx, r14b
	mov	r9d, DWORD PTR 128[rsp+rcx*4]
	cmp	r9d, 55295
	ja	.L729
.L648:
	cmp	rsi, r8
	je	.L652
	movzx	ecx, BYTE PTR [r8]
	cmp	cl, 62
	je	.L691
	cmp	cl, 94
	je	.L692
	mov	r14d, 1
	cmp	cl, 60
	jne	.L652
.L651:
	lea	rbx, 1[r8]
	jmp	.L653
	.p2align 4,,10
	.p2align 3
.L641:
	movzx	eax, BYTE PTR 69[rsp]
	sal	edi, 3
	mov	DWORD PTR 76[rsp], 32
	and	eax, -121
	or	eax, edi
	mov	BYTE PTR 69[rsp], al
.L643:
	mov	rax, QWORD PTR 68[rsp]
	mov	QWORD PTR [r11], rax
	mov	eax, DWORD PTR 76[rsp]
	mov	DWORD PTR 8[r11], eax
	mov	rax, rbx
	add	rsp, 184
	pop	rbx
	pop	rsi
	pop	rdi
	pop	rbp
	pop	r14
	pop	r15
	ret
	.p2align 4,,10
	.p2align 3
.L652:
	cmp	al, 62
	je	.L654
	cmp	al, 94
	je	.L655
	cmp	al, 60
	je	.L656
	.p2align 4
	.p2align 3
.L644:
	xor	r14d, r14d
	mov	r9d, 32
.L657:
	movzx	eax, BYTE PTR [rbx]
	cmp	al, 125
	je	.L659
.L660:
	lea	ecx, -32[rax]
	cmp	cl, 13
	ja	.L693
	movzx	ecx, cl
	lea	r8, CSWTCH.652[rip]
	mov	r8d, DWORD PTR [r8+rcx*4]
	test	r8d, r8d
	jne	.L662
	xor	ecx, ecx
	cmp	al, 35
	je	.L730
.L664:
	mov	BYTE PTR 128[rsp], 0
	xor	r15d, r15d
.L669:
	movzx	eax, cl
	movzx	ecx, r14b
	mov	QWORD PTR 32[rsp], rdx
	mov	rdx, rsi
	sal	eax, 2
	mov	DWORD PTR 76[rsp], r9d
	lea	r9, 128[rsp]
	or	eax, ecx
	movzx	ecx, r8b
	movzx	r8d, r15b
	mov	QWORD PTR 240[rsp], r11
	sal	ecx, 4
	sal	r8d, 6
	mov	DWORD PTR 256[rsp], r10d
	or	eax, ecx
	mov	ecx, r10d
	and	ecx, 15
	or	eax, r8d
	lea	r8, 72[rsp]
	sal	ecx, 11
	or	eax, ecx
	movzx	ecx, WORD PTR 68[rsp]
	and	cx, -31232
	or	eax, ecx
	mov	rcx, rbx
	mov	WORD PTR 68[rsp], ax
	call	_ZNSt8__format5_SpecIcE27_S_parse_width_or_precisionEPKcS3_RtRbRSt26basic_format_parse_contextIcE
	mov	r10d, DWORD PTR 256[rsp]
	mov	r11, QWORD PTR 240[rsp]
	mov	rdx, rax
	xor	eax, eax
	cmp	rbx, rdx
	je	.L672
	movzx	eax, BYTE PTR 128[rsp]
	add	eax, 1
	and	eax, 3
.L672:
	cmp	rsi, rdx
	je	.L673
	movzx	ecx, BYTE PTR [rdx]
	cmp	cl, 125
	je	.L673
	xor	r8d, r8d
	cmp	cl, 76
	je	.L731
.L675:
	sub	ecx, 63
	cmp	cl, 57
	ja	.L689
	lea	r9, .L690[rip]
	movzx	ecx, cl
	movsxd	rcx, DWORD PTR [r9+rcx*4]
	add	rcx, r9
	jmp	rcx
	.section .rdata,"dr"
	.align 4
.L690:
	.long	.L687-.L690
	.long	.L689-.L690
	.long	.L689-.L690
	.long	.L679-.L690
	.long	.L689-.L690
	.long	.L689-.L690
	.long	.L689-.L690
	.long	.L689-.L690
	.long	.L689-.L690
	.long	.L689-.L690
	.long	.L689-.L690
	.long	.L689-.L690
	.long	.L689-.L690
	.long	.L689-.L690
	.long	.L689-.L690
	.long	.L689-.L690
	.long	.L689-.L690
	.long	.L689-.L690
	.long	.L689-.L690
	.long	.L689-.L690
	.long	.L689-.L690
	.long	.L689-.L690
	.long	.L689-.L690
	.long	.L689-.L690
	.long	.L689-.L690
	.long	.L685-.L690
	.long	.L689-.L690
	.long	.L689-.L690
	.long	.L689-.L690
	.long	.L689-.L690
	.long	.L689-.L690
	.long	.L689-.L690
	.long	.L689-.L690
	.long	.L689-.L690
	.long	.L689-.L690
	.long	.L677-.L690
	.long	.L680-.L690
	.long	.L682-.L690
	.long	.L689-.L690
	.long	.L689-.L690
	.long	.L689-.L690
	.long	.L689-.L690
	.long	.L689-.L690
	.long	.L689-.L690
	.long	.L689-.L690
	.long	.L689-.L690
	.long	.L689-.L690
	.long	.L689-.L690
	.long	.L683-.L690
	.long	.L689-.L690
	.long	.L689-.L690
	.long	.L689-.L690
	.long	.L686-.L690
	.long	.L689-.L690
	.long	.L689-.L690
	.long	.L689-.L690
	.long	.L689-.L690
	.long	.L684-.L690
	.section	.text$_ZNSt8__format15__formatter_intIcE11_M_do_parseERSt26basic_format_parse_contextIcENS_10_Pres_typeE,"x"
	.linkonce discard
	.p2align 4,,10
	.p2align 3
.L693:
	xor	r8d, r8d
	xor	ecx, ecx
.L661:
	cmp	al, 48
	jne	.L664
	lea	rax, 1[rbx]
	mov	r15, rax
	cmp	rsi, rax
	jne	.L732
.L670:
	movzx	eax, cl
	movzx	edx, r14b
	movzx	ecx, r8b
	sal	eax, 2
	or	edx, 64
	sal	ecx, 4
	or	eax, edx
	or	eax, ecx
	jmp	.L727
	.p2align 4,,10
	.p2align 3
.L656:
	mov	r14d, 1
.L658:
	add	rbx, 1
	mov	r9d, 32
.L653:
	cmp	rsi, rbx
	jne	.L657
.L659:
	and	r10d, 15
	movzx	eax, r14b
	mov	DWORD PTR 76[rsp], r9d
	sal	r10d, 11
	or	r10d, eax
	movzx	eax, WORD PTR 68[rsp]
	and	ax, -31232
	or	r10d, eax
	mov	WORD PTR 68[rsp], r10w
	jmp	.L643
	.p2align 4,,10
	.p2align 3
.L662:
	mov	ecx, r8d
	lea	rax, 1[rbx]
	and	ecx, 3
	mov	r15, rax
	cmp	rsi, rax
	jne	.L733
.L665:
	and	r8d, 3
	movzx	edx, r14b
	lea	eax, 0[0+r8*4]
	or	eax, edx
.L727:
	movzx	edx, WORD PTR 68[rsp]
	and	r10d, 15
	mov	DWORD PTR 76[rsp], r9d
	mov	rbx, r15
	sal	r10d, 11
	or	eax, r10d
	and	dx, -31232
	or	eax, edx
	mov	WORD PTR 68[rsp], ax
	jmp	.L643
	.p2align 4,,10
	.p2align 3
.L728:
	cmp	rsi, r8
	je	.L647
	movzx	ecx, r15b
	add	rcx, r8
	cmp	rsi, rcx
	je	.L647
	mov	QWORD PTR 96[rsp], rcx
	mov	rcx, rbp
	call	_ZNSt9__unicode13_Utf_iteratorIcDiPKcS2_NS_5_ReplEE12_M_read_utf8Ev
	mov	r8, QWORD PTR 96[rsp]
	mov	r10d, DWORD PTR 256[rsp]
	mov	rdx, QWORD PTR 248[rsp]
	mov	r11, QWORD PTR 240[rsp]
	movzx	eax, BYTE PTR 63[rsp]
	jmp	.L645
.L692:
	mov	r14d, 3
	jmp	.L651
.L673:
	movzx	ecx, WORD PTR 68[rsp]
	and	eax, 3
	mov	rbx, rdx
	sal	eax, 7
	and	cx, -385
	or	eax, ecx
	mov	WORD PTR 68[rsp], ax
	jmp	.L643
.L735:
	mov	rdx, rbx
.L689:
	cmp	BYTE PTR [rdx], 125
	je	.L734
.L681:
	call	_ZNSt8__format29__failed_to_parse_format_specEv
	.p2align 4,,10
	.p2align 3
.L683:
	lea	rbx, 1[rdx]
	mov	edi, 4
.L678:
	cmp	rsi, rbx
	jne	.L735
.L688:
	movzx	eax, al
	movzx	edx, r8b
	sal	edi, 11
	sal	edx, 5
	sal	eax, 7
	or	eax, edx
	movzx	edx, WORD PTR 68[rsp]
	or	eax, edi
	and	ax, 31136
	and	dx, -31137
	or	eax, edx
	mov	WORD PTR 68[rsp], ax
	jmp	.L643
.L684:
	lea	rbx, 1[rdx]
	mov	edi, 5
	jmp	.L678
.L682:
	lea	rbx, 1[rdx]
	mov	edi, 1
	jmp	.L678
.L677:
	lea	rbx, 1[rdx]
	mov	edi, 2
	jmp	.L678
.L685:
	lea	rbx, 1[rdx]
	mov	edi, 6
	jmp	.L678
.L679:
	lea	rbx, 1[rdx]
	mov	edi, 3
	jmp	.L678
.L686:
	test	r10d, r10d
	jne	.L681
	lea	rbx, 1[rdx]
	xor	edi, edi
	jmp	.L678
.L680:
	test	r10d, r10d
	je	.L681
	lea	rbx, 1[rdx]
	mov	edi, 7
	jmp	.L678
.L687:
	cmp	r10d, 7
	jne	.L681
	lea	rbx, 1[rdx]
	mov	edi, 15
	jmp	.L678
	.p2align 4,,10
	.p2align 3
.L655:
	mov	r14d, 3
	jmp	.L658
	.p2align 4,,10
	.p2align 3
.L654:
	mov	r14d, 2
	jmp	.L658
.L730:
	mov	r15, rbx
	xor	ecx, ecx
.L663:
	lea	rbx, 1[r15]
	cmp	rsi, rbx
	jne	.L736
.L667:
	movzx	eax, cl
	movzx	edx, r14b
	and	r10d, 15
	mov	DWORD PTR 76[rsp], r9d
	sal	eax, 2
	or	edx, 16
	sal	r10d, 11
	or	eax, edx
	movzx	edx, WORD PTR 68[rsp]
	or	eax, r10d
	and	dx, -31232
	or	eax, edx
	mov	WORD PTR 68[rsp], ax
	jmp	.L643
.L736:
	movzx	eax, BYTE PTR 1[r15]
	mov	r8d, 1
	cmp	al, 125
	jne	.L661
	jmp	.L667
.L647:
	movzx	ecx, r14b
	mov	ecx, DWORD PTR 128[rsp+rcx*4]
	cmp	ecx, 55295
	jbe	.L652
	sub	ecx, 57344
	cmp	ecx, 1056767
	jbe	.L652
.L649:
	cmp	al, 62
	je	.L654
	cmp	al, 94
	je	.L655
	cmp	al, 60
	je	.L656
	mov	r9d, 32
	xor	r14d, r14d
	jmp	.L660
	.p2align 4,,10
	.p2align 3
.L691:
	mov	r14d, 2
	jmp	.L651
.L732:
	movzx	eax, BYTE PTR 1[rbx]
	cmp	al, 125
	je	.L670
	mov	BYTE PTR 128[rsp], 0
	cmp	al, 48
	je	.L737
	mov	rbx, r15
	mov	r15d, 1
	jmp	.L669
.L731:
	lea	rbx, 1[rdx]
	cmp	rsi, rbx
	jne	.L738
.L676:
	or	BYTE PTR 68[rsp], 32
	movzx	edx, WORD PTR 68[rsp]
	and	eax, 3
	sal	eax, 7
	and	dx, -385
	or	eax, edx
	mov	WORD PTR 68[rsp], ax
	jmp	.L643
.L729:
	lea	ecx, -57344[r9]
	cmp	ecx, 1056767
	ja	.L649
	jmp	.L648
.L738:
	movzx	ecx, BYTE PTR 1[rdx]
	cmp	cl, 125
	je	.L676
	mov	rdx, rbx
	mov	r8d, 1
	jmp	.L675
	.p2align 4,,10
	.p2align 3
.L734:
	mov	rbx, rdx
	jmp	.L688
.L733:
	movzx	eax, BYTE PTR 1[rbx]
	cmp	al, 125
	je	.L665
	cmp	al, 35
	je	.L663
	mov	rbx, r15
	xor	r8d, r8d
	jmp	.L661
.L737:
	lea	rcx, .LC19[rip]
	call	_ZSt20__throw_format_errorPKc
	nop
	.seh_endproc
	.section	.text$_ZNSt9formatterIPKvcE5parseERSt26basic_format_parse_contextIcE,"x"
	.linkonce discard
	.align 2
	.p2align 4
	.globl	_ZNSt9formatterIPKvcE5parseERSt26basic_format_parse_contextIcE
	.def	_ZNSt9formatterIPKvcE5parseERSt26basic_format_parse_contextIcE;	.scl	2;	.type	32;	.endef
	.seh_proc	_ZNSt9formatterIPKvcE5parseERSt26basic_format_parse_contextIcE
_ZNSt9formatterIPKvcE5parseERSt26basic_format_parse_contextIcE:
.LFB5426:
	push	rdi
	.seh_pushreg	rdi
	push	rsi
	.seh_pushreg	rsi
	push	rbx
	.seh_pushreg	rbx
	sub	rsp, 192
	.seh_stackalloc	192
	.seh_endprologue
	movdqu	xmm0, XMMWORD PTR [rdx]
	mov	rbx, QWORD PTR 8[rdx]
	movq	r10, xmm0
	mov	QWORD PTR 84[rsp], 0
	mov	r11, rcx
	cmp	rbx, r10
	je	.L740
	movzx	eax, BYTE PTR [r10]
	cmp	al, 125
	je	.L740
	cmp	al, 123
	je	.L743
	mov	QWORD PTR 232[rsp], rdx
	xor	edx, edx
	mov	QWORD PTR 224[rsp], rcx
	lea	rcx, 96[rsp]
	movq	QWORD PTR 56[rsp], xmm0
	punpcklqdq	xmm0, xmm0
	mov	rdi, rcx
	mov	WORD PTR 120[rsp], dx
	mov	BYTE PTR 71[rsp], al
	mov	BYTE PTR 122[rsp], 0
	mov	QWORD PTR 128[rsp], rbx
	movups	XMMWORD PTR 104[rsp], xmm0
	call	_ZNSt9__unicode13_Utf_iteratorIcDiPKcS2_NS_5_ReplEE12_M_read_utf8Ev
	movzx	r8d, BYTE PTR 120[rsp]
	mov	r9, QWORD PTR 112[rsp]
	mov	rcx, QWORD PTR 128[rsp]
	movdqa	xmm1, XMMWORD PTR 96[rsp]
	movdqa	xmm2, XMMWORD PTR 112[rsp]
	movzx	esi, BYTE PTR 122[rsp]
	mov	QWORD PTR 176[rsp], rcx
	movzx	ecx, r8b
	mov	r10, QWORD PTR 56[rsp]
	lea	eax, 1[rcx]
	movzx	ecx, BYTE PTR 121[rsp]
	mov	r11, QWORD PTR 224[rsp]
	movaps	XMMWORD PTR 144[rsp], xmm1
	mov	rdx, QWORD PTR 232[rsp]
	movaps	XMMWORD PTR 160[rsp], xmm2
	cmp	eax, ecx
	movzx	eax, BYTE PTR 71[rsp]
	je	.L800
.L744:
	mov	r8d, DWORD PTR 144[rsp+r8*4]
	cmp	r8d, 55295
	ja	.L801
.L747:
	cmp	rbx, r9
	je	.L751
	movzx	ecx, BYTE PTR [r9]
	cmp	cl, 62
	je	.L770
	cmp	cl, 94
	je	.L771
	cmp	cl, 60
	jne	.L751
	mov	ecx, 1
.L750:
	lea	r10, 1[r9]
	jmp	.L752
	.p2align 4,,10
	.p2align 3
.L740:
	mov	DWORD PTR 92[rsp], 32
.L742:
	mov	rax, QWORD PTR 84[rsp]
	mov	QWORD PTR [r11], rax
	mov	eax, DWORD PTR 92[rsp]
	mov	DWORD PTR 8[r11], eax
	mov	rax, r10
	add	rsp, 192
	pop	rbx
	pop	rsi
	pop	rdi
	ret
	.p2align 4,,10
	.p2align 3
.L751:
	cmp	al, 62
	je	.L753
	cmp	al, 94
	je	.L754
	cmp	al, 60
	je	.L755
	.p2align 4
	.p2align 3
.L743:
	mov	r8d, 32
	xor	ecx, ecx
.L756:
	movzx	eax, BYTE PTR [r10]
	cmp	al, 125
	je	.L758
.L759:
	cmp	al, 48
	je	.L760
	mov	BYTE PTR 144[rsp], 0
	xor	eax, eax
.L761:
	sal	eax, 6
	mov	QWORD PTR 32[rsp], rdx
	lea	r9, 144[rsp]
	mov	rdx, rbx
	or	eax, ecx
	movzx	ecx, WORD PTR 84[rsp]
	mov	DWORD PTR 92[rsp], r8d
	lea	r8, 88[rsp]
	mov	QWORD PTR 224[rsp], r11
	and	cx, -31172
	mov	QWORD PTR 56[rsp], r10
	or	eax, ecx
	mov	rcx, r10
	mov	WORD PTR 84[rsp], ax
	call	_ZNSt8__format5_SpecIcE27_S_parse_width_or_precisionEPKcS3_RtRbRSt26basic_format_parse_contextIcE
	xor	edx, edx
	cmp	QWORD PTR 56[rsp], rax
	mov	r11, QWORD PTR 224[rsp]
	je	.L764
	movzx	edx, BYTE PTR 144[rsp]
	add	edx, 1
	and	edx, 3
.L764:
	cmp	rbx, rax
	je	.L774
	movzx	r8d, BYTE PTR [rax]
	lea	r9, 1[rax]
	xor	ecx, ecx
	cmp	r8b, 112
	je	.L767
	xor	ecx, ecx
	cmp	r8b, 80
	jne	.L768
	lea	r9, 1[rax]
	mov	ecx, 1
.L767:
	cmp	rbx, r9
	je	.L776
	movzx	r8d, BYTE PTR 1[rax]
	mov	rax, r9
.L768:
	cmp	r8b, 125
	je	.L765
	call	_ZNSt8__format29__failed_to_parse_format_specEv
	.p2align 4,,10
	.p2align 3
.L755:
	mov	ecx, 1
.L757:
	add	r10, 1
	mov	r8d, 32
.L752:
	cmp	rbx, r10
	jne	.L756
.L758:
	movzx	eax, WORD PTR 84[rsp]
	and	ecx, 3
	mov	DWORD PTR 92[rsp], r8d
	and	ax, -31172
	or	eax, ecx
	mov	WORD PTR 84[rsp], ax
	jmp	.L742
	.p2align 4,,10
	.p2align 3
.L760:
	lea	r9, 1[r10]
	cmp	rbx, r9
	jne	.L802
.L762:
	movzx	eax, WORD PTR 84[rsp]
	or	ecx, 64
	mov	DWORD PTR 92[rsp], r8d
	mov	r10, r9
	and	ax, -31172
	or	eax, ecx
	mov	WORD PTR 84[rsp], ax
	jmp	.L742
	.p2align 4,,10
	.p2align 3
.L802:
	movzx	eax, BYTE PTR 1[r10]
	cmp	al, 125
	je	.L762
	cmp	al, 48
	mov	BYTE PTR 144[rsp], 0
	mov	r10, r9
	mov	eax, 1
	jne	.L761
	lea	rcx, .LC19[rip]
	call	_ZSt20__throw_format_errorPKc
	.p2align 4,,10
	.p2align 3
.L800:
	cmp	rbx, r9
	je	.L746
	movzx	ecx, sil
	add	rcx, r9
	cmp	rbx, rcx
	je	.L746
	mov	QWORD PTR 112[rsp], rcx
	mov	rcx, rdi
	mov	QWORD PTR 72[rsp], r10
	mov	BYTE PTR 71[rsp], r8b
	mov	BYTE PTR 56[rsp], al
	call	_ZNSt9__unicode13_Utf_iteratorIcDiPKcS2_NS_5_ReplEE12_M_read_utf8Ev
	mov	r9, QWORD PTR 112[rsp]
	mov	r10, QWORD PTR 72[rsp]
	mov	rdx, QWORD PTR 232[rsp]
	mov	r11, QWORD PTR 224[rsp]
	movzx	r8d, BYTE PTR 71[rsp]
	movzx	eax, BYTE PTR 56[rsp]
	jmp	.L744
.L771:
	mov	ecx, 3
	jmp	.L750
	.p2align 4,,10
	.p2align 3
.L754:
	mov	ecx, 3
	jmp	.L757
	.p2align 4,,10
	.p2align 3
.L753:
	mov	ecx, 2
	jmp	.L757
.L774:
	xor	ecx, ecx
.L765:
	movzx	edx, dl
	sal	ecx, 11
	mov	r10, rax
	sal	edx, 7
	or	edx, ecx
	movzx	ecx, WORD PTR 84[rsp]
	and	dx, 31104
	and	cx, -31105
	or	edx, ecx
	mov	WORD PTR 84[rsp], dx
	jmp	.L742
.L746:
	mov	ecx, DWORD PTR 144[rsp+r8*4]
	cmp	ecx, 55295
	jbe	.L751
	sub	ecx, 57344
	cmp	ecx, 1056767
	jbe	.L751
.L748:
	cmp	al, 62
	je	.L753
	cmp	al, 94
	je	.L754
	cmp	al, 60
	je	.L755
	xor	ecx, ecx
	mov	r8d, 32
	jmp	.L759
	.p2align 4,,10
	.p2align 3
.L770:
	mov	ecx, 2
	jmp	.L750
.L801:
	lea	ecx, -57344[r8]
	cmp	ecx, 1056767
	ja	.L748
	jmp	.L747
.L776:
	mov	rax, rbx
	jmp	.L765
	.seh_endproc
	.section .rdata,"dr"
	.align 8
.LC20:
	.ascii "format error: missing precision after '.' in format string\0"
	.section	.text$_ZNSt8__format14__formatter_fpIcE5parseERSt26basic_format_parse_contextIcE,"x"
	.linkonce discard
	.align 2
	.p2align 4
	.globl	_ZNSt8__format14__formatter_fpIcE5parseERSt26basic_format_parse_contextIcE
	.def	_ZNSt8__format14__formatter_fpIcE5parseERSt26basic_format_parse_contextIcE;	.scl	2;	.type	32;	.endef
	.seh_proc	_ZNSt8__format14__formatter_fpIcE5parseERSt26basic_format_parse_contextIcE
_ZNSt8__format14__formatter_fpIcE5parseERSt26basic_format_parse_contextIcE:
.LFB5573:
	push	r15
	.seh_pushreg	r15
	push	r14
	.seh_pushreg	r14
	push	r13
	.seh_pushreg	r13
	push	r12
	.seh_pushreg	r12
	push	rbp
	.seh_pushreg	rbp
	push	rdi
	.seh_pushreg	rdi
	push	rsi
	.seh_pushreg	rsi
	push	rbx
	.seh_pushreg	rbx
	sub	rsp, 216
	.seh_stackalloc	216
	.seh_endprologue
	mov	QWORD PTR 100[rsp], 0
	mov	r11, rdx
	mov	rdx, QWORD PTR 8[rdx]
	mov	rbx, rcx
	movdqu	xmm0, XMMWORD PTR [r11]
	movq	r10, xmm0
	cmp	rdx, r10
	je	.L804
	movzx	eax, BYTE PTR [r10]
	cmp	al, 125
	je	.L804
	cmp	al, 123
	je	.L807
	xor	ecx, ecx
	movq	QWORD PTR 64[rsp], xmm0
	punpcklqdq	xmm0, xmm0
	mov	WORD PTR 136[rsp], cx
	lea	rcx, 112[rsp]
	mov	QWORD PTR 296[rsp], r11
	mov	rsi, rcx
	mov	QWORD PTR 144[rsp], rdx
	mov	QWORD PTR 56[rsp], rdx
	mov	BYTE PTR 78[rsp], al
	mov	BYTE PTR 138[rsp], 0
	movups	XMMWORD PTR 120[rsp], xmm0
	call	_ZNSt9__unicode13_Utf_iteratorIcDiPKcS2_NS_5_ReplEE12_M_read_utf8Ev
	movdqa	xmm1, XMMWORD PTR 112[rsp]
	mov	rcx, QWORD PTR 144[rsp]
	movzx	r8d, BYTE PTR 136[rsp]
	mov	r9, QWORD PTR 128[rsp]
	mov	QWORD PTR 192[rsp], rcx
	movzx	edi, BYTE PTR 138[rsp]
	movzx	ecx, r8b
	mov	rdx, QWORD PTR 56[rsp]
	movdqa	xmm2, XMMWORD PTR 128[rsp]
	movaps	XMMWORD PTR 160[rsp], xmm1
	lea	eax, 1[rcx]
	movzx	ecx, BYTE PTR 137[rsp]
	mov	r10, QWORD PTR 64[rsp]
	mov	r11, QWORD PTR 296[rsp]
	movaps	XMMWORD PTR 176[rsp], xmm2
	cmp	eax, ecx
	movzx	eax, BYTE PTR 78[rsp]
	je	.L909
.L808:
	mov	ecx, DWORD PTR 160[rsp+r8*4]
	mov	esi, ecx
	cmp	ecx, 55295
	ja	.L910
.L811:
	cmp	rdx, r9
	je	.L815
	movzx	ecx, BYTE PTR [r9]
	cmp	cl, 62
	je	.L860
	cmp	cl, 94
	je	.L861
	mov	edi, 1
	cmp	cl, 60
	jne	.L815
.L814:
	lea	r10, 1[r9]
	jmp	.L816
	.p2align 4,,10
	.p2align 3
.L804:
	mov	DWORD PTR 108[rsp], 32
.L806:
	mov	rax, QWORD PTR 100[rsp]
	mov	QWORD PTR [rbx], rax
	mov	eax, DWORD PTR 108[rsp]
	mov	DWORD PTR 8[rbx], eax
	mov	rax, r10
	add	rsp, 216
	pop	rbx
	pop	rsi
	pop	rdi
	pop	rbp
	pop	r12
	pop	r13
	pop	r14
	pop	r15
	ret
	.p2align 4,,10
	.p2align 3
.L815:
	cmp	al, 62
	je	.L817
	cmp	al, 94
	je	.L818
	cmp	al, 60
	je	.L819
	.p2align 4
	.p2align 3
.L807:
	mov	esi, 32
	xor	edi, edi
.L820:
	movzx	eax, BYTE PTR [r10]
	cmp	al, 125
	je	.L822
.L823:
	lea	ecx, -32[rax]
	cmp	cl, 13
	ja	.L862
	movzx	ecx, cl
	lea	r8, CSWTCH.652[rip]
	mov	ecx, DWORD PTR [r8+rcx*4]
	test	ecx, ecx
	jne	.L825
	cmp	al, 35
	je	.L863
	xor	r15d, r15d
	xor	r14d, r14d
.L827:
	mov	BYTE PTR 160[rsp], 0
	xor	r12d, r12d
.L833:
	movzx	eax, r14b
	movzx	ecx, dil
	mov	QWORD PTR 32[rsp], r11
	xor	ebp, ebp
	mov	WORD PTR 64[rsp], ax
	sal	eax, 2
	lea	r8, 104[rsp]
	lea	r9, 160[rsp]
	or	eax, ecx
	mov	WORD PTR 56[rsp], cx
	movzx	ecx, r15b
	mov	r13d, ecx
	sal	ecx, 4
	mov	QWORD PTR 296[rsp], r11
	or	eax, ecx
	movzx	ecx, r12b
	mov	QWORD PTR 88[rsp], rdx
	mov	WORD PTR 78[rsp], cx
	sal	ecx, 6
	or	eax, ecx
	movzx	ecx, WORD PTR 100[rsp]
	mov	DWORD PTR 108[rsp], esi
	mov	QWORD PTR 80[rsp], r10
	and	cx, -32768
	or	eax, ecx
	mov	rcx, r10
	mov	WORD PTR 100[rsp], ax
	call	_ZNSt8__format5_SpecIcE27_S_parse_width_or_precisionEPKcS3_RtRbRSt26basic_format_parse_contextIcE
	cmp	rax, QWORD PTR 80[rsp]
	mov	rdx, QWORD PTR 88[rsp]
	mov	r11, QWORD PTR 296[rsp]
	je	.L836
	movzx	ecx, BYTE PTR 160[rsp]
	add	ecx, 1
	and	ecx, 3
	mov	ebp, ecx
.L836:
	cmp	rdx, rax
	je	.L837
	movzx	r8d, BYTE PTR [rax]
	cmp	r8b, 125
	je	.L837
	cmp	r8b, 46
	je	.L882
	cmp	r8b, 76
	je	.L883
	xor	r9d, r9d
	xor	ecx, ecx
.L855:
	sub	r8d, 65
	cmp	r8b, 38
	ja	.L881
	lea	r10, .L857[rip]
	movzx	r8d, r8b
	movsxd	r8, DWORD PTR [r10+r8*4]
	add	r8, r10
	jmp	r8
	.section .rdata,"dr"
	.align 4
.L857:
	.long	.L853-.L857
	.long	.L881-.L857
	.long	.L881-.L857
	.long	.L881-.L857
	.long	.L852-.L857
	.long	.L851-.L857
	.long	.L850-.L857
	.long	.L881-.L857
	.long	.L881-.L857
	.long	.L881-.L857
	.long	.L881-.L857
	.long	.L881-.L857
	.long	.L881-.L857
	.long	.L881-.L857
	.long	.L881-.L857
	.long	.L881-.L857
	.long	.L881-.L857
	.long	.L881-.L857
	.long	.L881-.L857
	.long	.L881-.L857
	.long	.L881-.L857
	.long	.L881-.L857
	.long	.L881-.L857
	.long	.L881-.L857
	.long	.L881-.L857
	.long	.L881-.L857
	.long	.L881-.L857
	.long	.L881-.L857
	.long	.L881-.L857
	.long	.L881-.L857
	.long	.L881-.L857
	.long	.L881-.L857
	.long	.L849-.L857
	.long	.L881-.L857
	.long	.L881-.L857
	.long	.L881-.L857
	.long	.L848-.L857
	.long	.L847-.L857
	.long	.L845-.L857
	.section	.text$_ZNSt8__format14__formatter_fpIcE5parseERSt26basic_format_parse_contextIcE,"x"
	.linkonce discard
	.p2align 4,,10
	.p2align 3
.L862:
	xor	r14d, r14d
	xor	r15d, r15d
.L824:
	cmp	al, 48
	je	.L831
	xor	r12d, r12d
	xor	ebp, ebp
	cmp	al, 46
	jne	.L827
.L832:
	lea	rcx, 1[r10]
	mov	BYTE PTR 160[rsp], 0
	cmp	rdx, rcx
	je	.L840
	movzx	eax, r14b
	movzx	r9d, dil
	movzx	r8d, r15b
	mov	DWORD PTR 108[rsp], esi
	mov	WORD PTR 64[rsp], ax
	sal	eax, 2
	sal	r8d, 4
	movzx	r13d, r15b
	mov	WORD PTR 56[rsp], r9w
	or	eax, r9d
	movzx	r9d, r12b
	or	eax, r8d
	mov	r8d, r9d
	mov	QWORD PTR 32[rsp], r11
	sal	r8d, 6
	mov	WORD PTR 78[rsp], r9w
	lea	r9, 160[rsp]
	or	eax, r8d
	movzx	r8d, bpl
	mov	QWORD PTR 80[rsp], rdx
	sal	r8d, 7
	mov	QWORD PTR 88[rsp], rcx
	or	eax, r8d
	movzx	r8d, WORD PTR 100[rsp]
	and	r8w, -32768
	or	eax, r8d
	lea	r8, 106[rsp]
	mov	WORD PTR 100[rsp], ax
	call	_ZNSt8__format5_SpecIcE27_S_parse_width_or_precisionEPKcS3_RtRbRSt26basic_format_parse_contextIcE
	mov	r10, rax
	cmp	QWORD PTR 88[rsp], rax
	je	.L840
	movzx	eax, BYTE PTR 160[rsp]
	mov	rdx, QWORD PTR 80[rsp]
	lea	ecx, 1[rax]
	and	ecx, 3
	cmp	rdx, r10
	je	.L841
	movzx	eax, BYTE PTR [r10]
	cmp	al, 125
	je	.L841
	cmp	al, 76
	je	.L870
	sub	eax, 65
	cmp	al, 38
	ja	.L871
	lea	r8, .L846[rip]
	movzx	eax, al
	movsxd	rax, DWORD PTR [r8+rax*4]
	add	rax, r8
	jmp	rax
	.section .rdata,"dr"
	.align 4
.L846:
	.long	.L872-.L846
	.long	.L871-.L846
	.long	.L871-.L846
	.long	.L871-.L846
	.long	.L873-.L846
	.long	.L874-.L846
	.long	.L875-.L846
	.long	.L871-.L846
	.long	.L871-.L846
	.long	.L871-.L846
	.long	.L871-.L846
	.long	.L871-.L846
	.long	.L871-.L846
	.long	.L871-.L846
	.long	.L871-.L846
	.long	.L871-.L846
	.long	.L871-.L846
	.long	.L871-.L846
	.long	.L871-.L846
	.long	.L871-.L846
	.long	.L871-.L846
	.long	.L871-.L846
	.long	.L871-.L846
	.long	.L871-.L846
	.long	.L871-.L846
	.long	.L871-.L846
	.long	.L871-.L846
	.long	.L871-.L846
	.long	.L871-.L846
	.long	.L871-.L846
	.long	.L871-.L846
	.long	.L871-.L846
	.long	.L876-.L846
	.long	.L871-.L846
	.long	.L871-.L846
	.long	.L871-.L846
	.long	.L877-.L846
	.long	.L878-.L846
	.long	.L879-.L846
	.section	.text$_ZNSt8__format14__formatter_fpIcE5parseERSt26basic_format_parse_contextIcE,"x"
	.linkonce discard
	.p2align 4,,10
	.p2align 3
.L819:
	mov	edi, 1
.L821:
	add	r10, 1
	mov	esi, 32
.L816:
	cmp	rdx, r10
	jne	.L820
.L822:
	movzx	eax, WORD PTR 100[rsp]
	mov	edx, edi
	mov	DWORD PTR 108[rsp], esi
	and	edx, 3
	and	ax, -32768
	or	eax, edx
	mov	WORD PTR 100[rsp], ax
	jmp	.L806
	.p2align 4,,10
	.p2align 3
.L825:
	mov	eax, ecx
	lea	r8, 1[r10]
	and	eax, 3
	mov	r14d, eax
	cmp	rdx, r8
	jne	.L911
.L828:
	and	ecx, 3
	movzx	edx, dil
	mov	DWORD PTR 108[rsp], esi
	mov	r10, r8
	lea	eax, 0[0+rcx*4]
	or	eax, edx
	movzx	edx, WORD PTR 100[rsp]
	and	dx, -32768
	or	eax, edx
	mov	WORD PTR 100[rsp], ax
	jmp	.L806
	.p2align 4,,10
	.p2align 3
.L909:
	cmp	rdx, r9
	je	.L810
	movzx	ecx, dil
	add	rcx, r9
	cmp	rdx, rcx
	je	.L810
	mov	QWORD PTR 128[rsp], rcx
	mov	rcx, rsi
	mov	QWORD PTR 80[rsp], r10
	mov	BYTE PTR 64[rsp], r8b
	call	_ZNSt9__unicode13_Utf_iteratorIcDiPKcS2_NS_5_ReplEE12_M_read_utf8Ev
	mov	r10, QWORD PTR 80[rsp]
	movzx	eax, BYTE PTR 78[rsp]
	mov	r9, QWORD PTR 128[rsp]
	mov	r11, QWORD PTR 296[rsp]
	movzx	r8d, BYTE PTR 64[rsp]
	mov	rdx, QWORD PTR 56[rsp]
	jmp	.L808
.L861:
	mov	edi, 3
	jmp	.L814
.L881:
	xor	r8d, r8d
.L856:
	mov	r10, rax
	cmp	rdx, rax
	je	.L858
.L844:
	cmp	BYTE PTR [r10], 125
	je	.L912
	call	_ZNSt8__format29__failed_to_parse_format_specEv
	.p2align 4,,10
	.p2align 3
.L871:
	xor	r9d, r9d
	xor	r8d, r8d
	jmp	.L844
.L879:
	mov	rax, r10
	xor	r9d, r9d
.L845:
	add	rax, 1
	mov	r8d, 7
	jmp	.L856
.L878:
	mov	rax, r10
	xor	r9d, r9d
.L847:
	add	rax, 1
	mov	r8d, 5
	jmp	.L856
.L877:
	mov	rax, r10
	xor	r9d, r9d
.L848:
	add	rax, 1
	mov	r8d, 3
	jmp	.L856
.L876:
	mov	rax, r10
	xor	r9d, r9d
.L849:
	add	rax, 1
	mov	r8d, 1
	jmp	.L856
.L875:
	mov	rax, r10
	xor	r9d, r9d
.L850:
	add	rax, 1
	mov	r8d, 8
	jmp	.L856
.L874:
	mov	rax, r10
	xor	r9d, r9d
.L851:
	add	rax, 1
	mov	r8d, 6
	jmp	.L856
.L873:
	mov	rax, r10
	xor	r9d, r9d
.L852:
	add	rax, 1
	mov	r8d, 4
	jmp	.L856
.L872:
	mov	rax, r10
	xor	r9d, r9d
.L853:
	add	rax, 1
	mov	r8d, 2
	jmp	.L856
	.p2align 4,,10
	.p2align 3
.L831:
	lea	rcx, 1[r10]
	cmp	rdx, rcx
	jne	.L913
.L834:
	movzx	eax, r14b
	movzx	edx, dil
	mov	DWORD PTR 108[rsp], esi
	mov	r10, rcx
	or	edx, 64
	sal	eax, 2
	or	eax, edx
	movzx	edx, r15b
	sal	edx, 4
	or	eax, edx
	movzx	edx, WORD PTR 100[rsp]
	and	dx, -32768
	or	eax, edx
	mov	WORD PTR 100[rsp], ax
	jmp	.L806
	.p2align 4,,10
	.p2align 3
.L818:
	mov	edi, 3
	jmp	.L821
	.p2align 4,,10
	.p2align 3
.L817:
	mov	edi, 2
	jmp	.L821
.L863:
	mov	r8, r10
	xor	r14d, r14d
.L826:
	lea	r10, 1[r8]
	cmp	rdx, r10
	jne	.L914
.L830:
	movzx	eax, r14b
	movzx	edx, dil
	sal	eax, 2
	or	edx, 16
	or	eax, edx
.L908:
	movzx	edx, WORD PTR 100[rsp]
	mov	DWORD PTR 108[rsp], esi
	and	dx, -32768
	or	eax, edx
	mov	WORD PTR 100[rsp], ax
	jmp	.L806
.L914:
	movzx	eax, BYTE PTR 1[r8]
	mov	r15d, 1
	cmp	al, 125
	jne	.L824
	jmp	.L830
.L810:
	mov	ecx, DWORD PTR 160[rsp+r8*4]
	cmp	ecx, 55295
	jbe	.L815
	sub	ecx, 57344
	cmp	ecx, 1056767
	jbe	.L815
.L812:
	cmp	al, 62
	je	.L817
	cmp	al, 94
	je	.L818
	cmp	al, 60
	je	.L819
	mov	esi, 32
	xor	edi, edi
	jmp	.L823
	.p2align 4,,10
	.p2align 3
.L841:
	movzx	eax, WORD PTR 100[rsp]
	sal	ecx, 9
	and	cx, 32288
	and	ax, -32289
	or	eax, ecx
	mov	WORD PTR 100[rsp], ax
	jmp	.L806
.L913:
	movzx	eax, BYTE PTR 1[r10]
	cmp	al, 125
	je	.L834
	cmp	al, 46
	je	.L867
	mov	BYTE PTR 160[rsp], 0
	cmp	al, 48
	je	.L915
	mov	r10, rcx
	mov	r12d, 1
	jmp	.L833
.L860:
	mov	edi, 2
	jmp	.L814
.L837:
	movzx	edx, WORD PTR 100[rsp]
	mov	ecx, ebp
	mov	r10, rax
	and	ecx, 3
	sal	ecx, 7
	and	dx, -385
	or	edx, ecx
	mov	WORD PTR 100[rsp], dx
	jmp	.L806
.L910:
	sub	ecx, 57344
	cmp	ecx, 1056767
	ja	.L812
	jmp	.L811
.L883:
	xor	ecx, ecx
.L843:
	lea	r10, 1[rax]
	cmp	rdx, r10
	jne	.L916
.L854:
	movzx	eax, WORD PTR 64[rsp]
	movzx	edx, WORD PTR 56[rsp]
	sal	ecx, 9
	or	edx, 32
	sal	eax, 2
	or	eax, edx
	mov	edx, r13d
	sal	edx, 4
	or	eax, edx
	movzx	edx, WORD PTR 78[rsp]
	sal	edx, 6
	or	eax, edx
	movzx	edx, bpl
	sal	edx, 7
	or	eax, edx
	or	eax, ecx
	and	ax, 32767
	jmp	.L908
.L867:
	mov	r10, rcx
	mov	r12d, 1
	xor	ebp, ebp
	jmp	.L832
.L912:
	mov	rax, r10
.L858:
	movzx	edx, WORD PTR 64[rsp]
	mov	r10d, r13d
	sal	r9d, 5
	mov	DWORD PTR 108[rsp], esi
	sal	r10d, 4
	sal	ecx, 9
	sal	edx, 2
	or	dx, WORD PTR 56[rsp]
	sal	r8d, 11
	or	edx, r10d
	mov	r10, rax
	or	edx, r9d
	movzx	r9d, WORD PTR 78[rsp]
	sal	r9d, 6
	or	edx, r9d
	movzx	r9d, bpl
	sal	r9d, 7
	or	edx, r9d
	or	edx, ecx
	movzx	ecx, WORD PTR 100[rsp]
	or	edx, r8d
	and	dx, 32767
	and	cx, -32768
	or	edx, ecx
	mov	WORD PTR 100[rsp], dx
	jmp	.L806
.L916:
	movzx	r8d, BYTE PTR 1[rax]
	cmp	r8b, 125
	je	.L854
	mov	rax, r10
	mov	r9d, 1
	jmp	.L855
	.p2align 4,,10
	.p2align 3
.L870:
	mov	rax, r10
	jmp	.L843
.L882:
	mov	r10, rax
	jmp	.L832
.L911:
	movzx	eax, BYTE PTR 1[r10]
	cmp	al, 125
	je	.L828
	cmp	al, 35
	je	.L826
	mov	r10, r8
	xor	r15d, r15d
	jmp	.L824
.L915:
	lea	rcx, .LC19[rip]
	call	_ZSt20__throw_format_errorPKc
.L840:
	lea	rcx, .LC20[rip]
	call	_ZSt20__throw_format_errorPKc
	nop
	.seh_endproc
	.section	.text$_ZNSt8__format15__formatter_strIcE5parseERSt26basic_format_parse_contextIcE,"x"
	.linkonce discard
	.align 2
	.p2align 4
	.globl	_ZNSt8__format15__formatter_strIcE5parseERSt26basic_format_parse_contextIcE
	.def	_ZNSt8__format15__formatter_strIcE5parseERSt26basic_format_parse_contextIcE;	.scl	2;	.type	32;	.endef
	.seh_proc	_ZNSt8__format15__formatter_strIcE5parseERSt26basic_format_parse_contextIcE
_ZNSt8__format15__formatter_strIcE5parseERSt26basic_format_parse_contextIcE:
.LFB5588:
	push	rdi
	.seh_pushreg	rdi
	push	rsi
	.seh_pushreg	rsi
	push	rbx
	.seh_pushreg	rbx
	sub	rsp, 192
	.seh_stackalloc	192
	.seh_endprologue
	movdqu	xmm0, XMMWORD PTR [rdx]
	movq	r10, xmm0
	mov	QWORD PTR 84[rsp], 0
	mov	r11, rdx
	mov	rdx, QWORD PTR 8[rdx]
	mov	rbx, rcx
	cmp	rdx, r10
	je	.L918
	movzx	eax, BYTE PTR [r10]
	cmp	al, 125
	je	.L918
	cmp	al, 123
	je	.L921
	xor	ecx, ecx
	movq	QWORD PTR 56[rsp], xmm0
	punpcklqdq	xmm0, xmm0
	mov	WORD PTR 120[rsp], cx
	lea	rcx, 96[rsp]
	mov	QWORD PTR 232[rsp], r11
	mov	QWORD PTR 128[rsp], rdx
	mov	QWORD PTR 48[rsp], rdx
	mov	BYTE PTR 64[rsp], al
	mov	BYTE PTR 122[rsp], 0
	movups	XMMWORD PTR 104[rsp], xmm0
	call	_ZNSt9__unicode13_Utf_iteratorIcDiPKcS2_NS_5_ReplEE12_M_read_utf8Ev
	movzx	r8d, BYTE PTR 120[rsp]
	mov	r9, QWORD PTR 112[rsp]
	mov	rcx, QWORD PTR 128[rsp]
	movdqa	xmm1, XMMWORD PTR 96[rsp]
	movdqa	xmm2, XMMWORD PTR 112[rsp]
	movzx	esi, BYTE PTR 122[rsp]
	mov	QWORD PTR 176[rsp], rcx
	movzx	ecx, r8b
	mov	rdx, QWORD PTR 48[rsp]
	lea	eax, 1[rcx]
	movzx	ecx, BYTE PTR 121[rsp]
	mov	r10, QWORD PTR 56[rsp]
	movaps	XMMWORD PTR 144[rsp], xmm1
	mov	r11, QWORD PTR 232[rsp]
	movaps	XMMWORD PTR 160[rsp], xmm2
	cmp	eax, ecx
	movzx	eax, BYTE PTR 64[rsp]
	je	.L983
.L922:
	mov	r8d, DWORD PTR 144[rsp+r8*4]
	cmp	r8d, 55295
	ja	.L984
.L925:
	cmp	rdx, r9
	je	.L929
	movzx	ecx, BYTE PTR [r9]
	cmp	cl, 62
	je	.L953
	cmp	cl, 94
	je	.L954
	cmp	cl, 60
	jne	.L929
	mov	ecx, 1
.L928:
	lea	r10, 1[r9]
	jmp	.L930
	.p2align 4,,10
	.p2align 3
.L918:
	mov	DWORD PTR 92[rsp], 32
.L920:
	mov	rax, QWORD PTR 84[rsp]
	mov	QWORD PTR [rbx], rax
	mov	eax, DWORD PTR 92[rsp]
	mov	DWORD PTR 8[rbx], eax
	mov	rax, r10
	add	rsp, 192
	pop	rbx
	pop	rsi
	pop	rdi
	ret
	.p2align 4,,10
	.p2align 3
.L929:
	cmp	al, 62
	je	.L931
	cmp	al, 94
	je	.L932
	cmp	al, 60
	je	.L933
	.p2align 4
	.p2align 3
.L921:
	mov	r8d, 32
	xor	ecx, ecx
.L934:
	movzx	eax, BYTE PTR [r10]
	cmp	al, 125
	je	.L936
.L937:
	mov	BYTE PTR 144[rsp], 0
	cmp	al, 48
	je	.L985
	movzx	eax, WORD PTR 84[rsp]
	mov	QWORD PTR 32[rsp], r11
	and	ecx, 3
	xor	esi, esi
	lea	r9, 144[rsp]
	mov	DWORD PTR 92[rsp], r8d
	lea	r8, 88[rsp]
	and	ax, -32644
	mov	QWORD PTR 232[rsp], r11
	or	eax, ecx
	mov	rcx, r10
	mov	QWORD PTR 64[rsp], r9
	mov	QWORD PTR 56[rsp], rdx
	mov	WORD PTR 84[rsp], ax
	mov	QWORD PTR 48[rsp], r10
	call	_ZNSt8__format5_SpecIcE27_S_parse_width_or_precisionEPKcS3_RtRbRSt26basic_format_parse_contextIcE
	cmp	rax, QWORD PTR 48[rsp]
	mov	rdx, QWORD PTR 56[rsp]
	mov	r9, QWORD PTR 64[rsp]
	mov	r11, QWORD PTR 232[rsp]
	je	.L939
	movzx	ecx, BYTE PTR 144[rsp]
	add	ecx, 1
	and	ecx, 3
	mov	esi, ecx
.L939:
	cmp	rdx, rax
	je	.L940
	movzx	ecx, BYTE PTR [rax]
	cmp	cl, 125
	je	.L940
	cmp	cl, 46
	je	.L942
	cmp	cl, 115
	je	.L986
	cmp	cl, 63
	jne	.L950
	xor	ecx, ecx
.L949:
	lea	r10, 1[rax]
	mov	r8d, 15
.L951:
	cmp	rdx, r10
	je	.L952
	cmp	BYTE PTR 1[rax], 125
	jne	.L950
.L952:
	sal	ecx, 9
	movzx	eax, sil
	movzx	edx, WORD PTR 84[rsp]
	sal	r8d, 11
	sal	eax, 7
	or	eax, ecx
	and	dx, -32641
	or	eax, r8d
	and	ax, 32640
	or	eax, edx
	mov	WORD PTR 84[rsp], ax
	jmp	.L920
	.p2align 4,,10
	.p2align 3
.L940:
	movzx	edx, WORD PTR 84[rsp]
	mov	ecx, esi
	mov	r10, rax
	and	ecx, 3
	sal	ecx, 7
	and	dx, -385
	or	edx, ecx
	mov	WORD PTR 84[rsp], dx
	jmp	.L920
	.p2align 4,,10
	.p2align 3
.L933:
	mov	ecx, 1
.L935:
	add	r10, 1
	mov	r8d, 32
.L930:
	cmp	rdx, r10
	jne	.L934
.L936:
	movzx	eax, WORD PTR 84[rsp]
	and	ecx, 3
	mov	DWORD PTR 92[rsp], r8d
	and	ax, -32644
	or	eax, ecx
	mov	WORD PTR 84[rsp], ax
	jmp	.L920
	.p2align 4,,10
	.p2align 3
.L942:
	lea	rcx, 1[rax]
	mov	BYTE PTR 144[rsp], 0
	cmp	rdx, rcx
	je	.L946
	movzx	eax, WORD PTR 84[rsp]
	mov	r8d, esi
	mov	QWORD PTR 32[rsp], r11
	and	r8d, 3
	mov	QWORD PTR 56[rsp], rdx
	sal	r8d, 7
	and	ax, -385
	mov	QWORD PTR 48[rsp], rcx
	or	eax, r8d
	lea	r8, 90[rsp]
	mov	WORD PTR 84[rsp], ax
	call	_ZNSt8__format5_SpecIcE27_S_parse_width_or_precisionEPKcS3_RtRbRSt26basic_format_parse_contextIcE
	mov	r10, rax
	cmp	QWORD PTR 48[rsp], rax
	je	.L946
	movzx	eax, BYTE PTR 144[rsp]
	mov	rdx, QWORD PTR 56[rsp]
	lea	ecx, 1[rax]
	and	ecx, 3
	cmp	rdx, r10
	je	.L947
	movzx	eax, BYTE PTR [r10]
	cmp	al, 125
	je	.L947
	cmp	al, 115
	je	.L957
	cmp	al, 63
	je	.L987
.L950:
	call	_ZNSt8__format29__failed_to_parse_format_specEv
	.p2align 4,,10
	.p2align 3
.L983:
	cmp	rdx, r9
	je	.L924
	movzx	ecx, sil
	add	rcx, r9
	cmp	rdx, rcx
	je	.L924
	mov	QWORD PTR 112[rsp], rcx
	lea	rcx, 96[rsp]
	mov	QWORD PTR 72[rsp], r10
	mov	BYTE PTR 56[rsp], r8b
	call	_ZNSt9__unicode13_Utf_iteratorIcDiPKcS2_NS_5_ReplEE12_M_read_utf8Ev
	mov	r9, QWORD PTR 112[rsp]
	mov	r10, QWORD PTR 72[rsp]
	mov	r11, QWORD PTR 232[rsp]
	movzx	eax, BYTE PTR 64[rsp]
	movzx	r8d, BYTE PTR 56[rsp]
	mov	rdx, QWORD PTR 48[rsp]
	jmp	.L922
.L954:
	mov	ecx, 3
	jmp	.L928
.L947:
	movzx	edx, BYTE PTR 85[rsp]
	and	ecx, 3
	lea	eax, [rcx+rcx]
	and	edx, -7
	or	eax, edx
	mov	BYTE PTR 85[rsp], al
	jmp	.L920
	.p2align 4,,10
	.p2align 3
.L932:
	mov	ecx, 3
	jmp	.L935
	.p2align 4,,10
	.p2align 3
.L931:
	mov	ecx, 2
	jmp	.L935
.L924:
	mov	ecx, DWORD PTR 144[rsp+r8*4]
	cmp	ecx, 55295
	jbe	.L929
	sub	ecx, 57344
	cmp	ecx, 1056767
	jbe	.L929
.L926:
	cmp	al, 62
	je	.L931
	cmp	al, 94
	je	.L932
	cmp	al, 60
	je	.L933
	mov	r8d, 32
	xor	ecx, ecx
	jmp	.L937
	.p2align 4,,10
	.p2align 3
.L986:
	xor	ecx, ecx
.L943:
	lea	r10, 1[rax]
	xor	r8d, r8d
	jmp	.L951
.L953:
	mov	ecx, 2
	jmp	.L928
.L984:
	lea	ecx, -57344[r8]
	cmp	ecx, 1056767
	ja	.L926
	jmp	.L925
.L957:
	mov	rax, r10
	jmp	.L943
.L987:
	mov	rax, r10
	jmp	.L949
.L985:
	lea	rcx, .LC19[rip]
	call	_ZSt20__throw_format_errorPKc
.L946:
	lea	rcx, .LC20[rip]
	call	_ZSt20__throw_format_errorPKc
	nop
	.seh_endproc
	.section	.text$_ZNSt8__format14__write_paddedINS_10_Sink_iterIcEEcEET_S3_St17basic_string_viewIT0_St11char_traitsIS5_EENS_6_AlignEyDi,"x"
	.linkonce discard
	.p2align 4
	.globl	_ZNSt8__format14__write_paddedINS_10_Sink_iterIcEEcEET_S3_St17basic_string_viewIT0_St11char_traitsIS5_EENS_6_AlignEyDi
	.def	_ZNSt8__format14__write_paddedINS_10_Sink_iterIcEEcEET_S3_St17basic_string_viewIT0_St11char_traitsIS5_EENS_6_AlignEyDi;	.scl	2;	.type	32;	.endef
	.seh_proc	_ZNSt8__format14__write_paddedINS_10_Sink_iterIcEEcEET_S3_St17basic_string_viewIT0_St11char_traitsIS5_EENS_6_AlignEyDi
_ZNSt8__format14__write_paddedINS_10_Sink_iterIcEEcEET_S3_St17basic_string_viewIT0_St11char_traitsIS5_EENS_6_AlignEyDi:
.LFB5595:
	push	r15
	.seh_pushreg	r15
	push	r14
	.seh_pushreg	r14
	push	r13
	.seh_pushreg	r13
	push	r12
	.seh_pushreg	r12
	push	rbp
	.seh_pushreg	rbp
	push	rdi
	.seh_pushreg	rdi
	push	rsi
	.seh_pushreg	rsi
	push	rbx
	.seh_pushreg	rbx
	sub	rsp, 232
	.seh_stackalloc	232
	.seh_endprologue
	mov	rax, QWORD PTR 8[rdx]
	mov	r12, QWORD PTR [rdx]
	mov	rbx, rcx
	mov	QWORD PTR 48[rsp], rax
	mov	rdi, r9
	mov	ecx, DWORD PTR 336[rsp]
	mov	BYTE PTR 112[rsp], 0
	cmp	r8d, 3
	je	.L1274
	cmp	r8d, 2
	je	.L1120
	cmp	ecx, 126
	ja	.L1121
	cmp	r9, 31
	jbe	.L992
	movd	xmm0, ecx
	mov	QWORD PTR 40[rsp], r9
	mov	rbp, r12
	mov	edi, 32
	punpcklbw	xmm0, xmm0
	punpcklwd	xmm0, xmm0
	pshufd	xmm0, xmm0, 0
	movaps	XMMWORD PTR 112[rsp], xmm0
	movaps	XMMWORD PTR 128[rsp], xmm0
	test	r12, r12
	jne	.L993
.L994:
	mov	rax, QWORD PTR 40[rsp]
	cmp	rdi, rax
	jnb	.L1138
	test	rdi, rdi
	je	.L1167
	lea	rsi, 112[rsp]
	mov	r14, rax
.L1114:
	mov	rcx, QWORD PTR 24[rbx]
	mov	rbp, QWORD PTR 16[rbx]
	mov	r12, rdi
	mov	r13, rsi
	mov	rax, rcx
	sub	rax, QWORD PTR 8[rbx]
	sub	rbp, rax
	cmp	rdi, rbp
	jb	.L1110
	.p2align 4
	.p2align 3
.L1112:
	test	rbp, rbp
	je	.L1111
	mov	r8, rbp
	mov	rdx, r13
	call	memcpy
.L1111:
	mov	rax, QWORD PTR [rbx]
	add	QWORD PTR 24[rbx], rbp
	mov	rcx, rbx
	add	r13, rbp
	sub	r12, rbp
.LEHB26:
	call	[QWORD PTR [rax]]
	mov	rcx, QWORD PTR 24[rbx]
	mov	rbp, QWORD PTR 16[rbx]
	mov	rax, rcx
	sub	rax, QWORD PTR 8[rbx]
	sub	rbp, rax
	cmp	r12, rbp
	jnb	.L1112
	test	r12, r12
	jne	.L1110
.L1113:
	sub	r14, rdi
	cmp	rdi, r14
	jb	.L1114
	mov	QWORD PTR 40[rsp], r14
	test	r14, r14
	jne	.L1275
.L1174:
	mov	rax, rbx
	add	rsp, 232
	pop	rbx
	pop	rsi
	pop	rdi
	pop	rbp
	pop	r12
	pop	r13
	pop	r14
	pop	r15
	ret
	.p2align 4,,10
	.p2align 3
.L1120:
	mov	QWORD PTR 40[rsp], 0
	mov	rbp, r9
.L990:
	cmp	ecx, 126
	ja	.L991
	cmp	rdi, 31
	ja	.L1133
	test	rdi, rdi
	jne	.L1082
	test	rbp, rbp
	je	.L1276
.L1157:
.L1092:
	jmp	.L1092
	.p2align 4,,10
	.p2align 3
.L1133:
	mov	edi, 32
.L1082:
	lea	rsi, 112[rsp]
	mov	edx, edi
	mov	rax, rsi
	cmp	edi, 8
	jnb	.L1277
.L1085:
	and	edx, 7
	je	.L1089
	xor	r8d, r8d
.L1088:
	mov	r9d, r8d
	add	r8d, 1
	mov	BYTE PTR [rax+r9], cl
	cmp	r8d, edx
	jb	.L1088
.L1089:
	test	rbp, rbp
	je	.L1098
	cmp	rdi, rbp
	jnb	.L1091
	test	rdi, rdi
	je	.L1157
.L1097:
	mov	rcx, QWORD PTR 24[rbx]
	mov	r13, QWORD PTR 16[rbx]
	mov	r14, rdi
	mov	r15, rsi
	mov	rax, rcx
	sub	rax, QWORD PTR 8[rbx]
	sub	r13, rax
	cmp	rdi, r13
	jb	.L1093
	.p2align 4
	.p2align 3
.L1095:
	test	r13, r13
	je	.L1094
	mov	r8, r13
	mov	rdx, r15
	call	memcpy
.L1094:
	mov	rax, QWORD PTR [rbx]
	add	QWORD PTR 24[rbx], r13
	mov	rcx, rbx
	add	r15, r13
	sub	r14, r13
	call	[QWORD PTR [rax]]
	mov	rcx, QWORD PTR 24[rbx]
	mov	r13, QWORD PTR 16[rbx]
	mov	rax, rcx
	sub	rax, QWORD PTR 8[rbx]
	sub	r13, rax
	cmp	r14, r13
	jnb	.L1095
	test	r14, r14
	jne	.L1093
.L1096:
	sub	rbp, rdi
	cmp	rdi, rbp
	jb	.L1097
	test	rbp, rbp
	jne	.L1091
.L1098:
	mov	rbp, r12
	test	r12, r12
	jne	.L993
.L1103:
	cmp	QWORD PTR 40[rsp], 0
	jne	.L994
	jmp	.L1174
	.p2align 4,,10
	.p2align 3
.L1274:
	mov	rbp, r9
	and	edi, 1
	shr	rbp
	add	rdi, rbp
	mov	QWORD PTR 40[rsp], rdi
	jmp	.L990
	.p2align 4,,10
	.p2align 3
.L992:
	test	r9, r9
	je	.L995
	lea	rsi, 112[rsp]
	mov	edx, ecx
	mov	r8, r9
	mov	rbp, r12
	mov	rcx, rsi
	call	memset
	test	r12, r12
	jne	.L1278
.L996:
	mov	rcx, QWORD PTR 24[rbx]
	mov	rbp, QWORD PTR 16[rbx]
	mov	QWORD PTR 40[rsp], rdi
	mov	rax, rcx
	sub	rax, QWORD PTR 8[rbx]
	sub	rbp, rax
	cmp	rdi, rbp
	jb	.L1116
.L1115:
	mov	rdi, QWORD PTR 40[rsp]
.L1118:
	test	rbp, rbp
	je	.L1117
	mov	r8, rbp
	mov	rdx, rsi
	call	memcpy
.L1117:
	mov	rax, QWORD PTR [rbx]
	add	QWORD PTR 24[rbx], rbp
	mov	rcx, rbx
	add	rsi, rbp
	sub	rdi, rbp
	call	[QWORD PTR [rax]]
	mov	rcx, QWORD PTR 24[rbx]
	mov	rbp, QWORD PTR 16[rbx]
	mov	rax, rcx
	sub	rax, QWORD PTR 8[rbx]
	sub	rbp, rax
	cmp	rdi, rbp
	jnb	.L1118
	mov	QWORD PTR 40[rsp], rdi
	test	rdi, rdi
	je	.L1174
.L1116:
	mov	rdi, QWORD PTR 40[rsp]
	mov	rdx, rsi
	mov	r8, rdi
	call	memcpy
	add	QWORD PTR 24[rbx], rdi
	jmp	.L1174
	.p2align 4,,10
	.p2align 3
.L1093:
	mov	r8, r14
	mov	rdx, r15
	call	memcpy
	add	QWORD PTR 24[rbx], r14
	jmp	.L1096
	.p2align 4,,10
	.p2align 3
.L1110:
	mov	r8, r12
	mov	rdx, r13
	call	memcpy
	add	QWORD PTR 24[rbx], r12
	jmp	.L1113
.L1278:
	mov	QWORD PTR 40[rsp], rdi
	.p2align 4
	.p2align 3
.L993:
	mov	rcx, QWORD PTR 24[rbx]
	mov	rsi, QWORD PTR 16[rbx]
	mov	r13, QWORD PTR 48[rsp]
	mov	rax, rcx
	sub	rax, QWORD PTR 8[rbx]
	sub	rsi, rax
	cmp	r12, rsi
	jb	.L1105
	.p2align 4
	.p2align 3
.L1107:
	test	rsi, rsi
	je	.L1106
	mov	r8, rsi
	mov	rdx, r13
	call	memcpy
.L1106:
	mov	rax, QWORD PTR [rbx]
	add	QWORD PTR 24[rbx], rsi
	mov	rcx, rbx
	add	r13, rsi
	sub	rbp, rsi
	call	[QWORD PTR [rax]]
	mov	rcx, QWORD PTR 24[rbx]
	mov	rsi, QWORD PTR 16[rbx]
	mov	rax, rcx
	sub	rax, QWORD PTR 8[rbx]
	sub	rsi, rax
	cmp	rbp, rsi
	jnb	.L1107
	test	rbp, rbp
	je	.L1103
.L1105:
	mov	r8, rbp
	mov	rdx, r13
	call	memcpy
	add	QWORD PTR 24[rbx], rbp
	jmp	.L1103
	.p2align 4,,10
	.p2align 3
.L1091:
	mov	rcx, QWORD PTR 24[rbx]
	mov	r13, QWORD PTR 16[rbx]
	mov	rax, rcx
	sub	rax, QWORD PTR 8[rbx]
	sub	r13, rax
	cmp	rbp, r13
	jb	.L1100
.L1102:
	test	r13, r13
	je	.L1101
	mov	r8, r13
	mov	rdx, rsi
	call	memcpy
.L1101:
	mov	rax, QWORD PTR [rbx]
	add	QWORD PTR 24[rbx], r13
	mov	rcx, rbx
	add	rsi, r13
	sub	rbp, r13
	call	[QWORD PTR [rax]]
.LEHE26:
	mov	rcx, QWORD PTR 24[rbx]
	mov	r13, QWORD PTR 16[rbx]
	mov	rax, rcx
	sub	rax, QWORD PTR 8[rbx]
	sub	r13, rax
	cmp	rbp, r13
	jnb	.L1102
	test	rbp, rbp
	je	.L1098
.L1100:
	mov	r8, rbp
	mov	rdx, rsi
	call	memcpy
	add	QWORD PTR 24[rbx], rbp
	jmp	.L1098
	.p2align 4,,10
	.p2align 3
.L1277:
	movabs	rax, 72340172838076673
	movzx	r8d, cl
	mov	r10d, edi
	imul	r8, rax
	and	r10d, -8
	xor	eax, eax
.L1086:
	mov	r9d, eax
	add	eax, 8
	mov	QWORD PTR [rsi+r9], r8
	cmp	eax, r10d
	jb	.L1086
	add	rax, rsi
	jmp	.L1085
	.p2align 4,,10
	.p2align 3
.L1275:
	mov	rcx, QWORD PTR 24[rbx]
	mov	rbp, QWORD PTR 16[rbx]
	mov	rax, rcx
	sub	rax, QWORD PTR 8[rbx]
	sub	rbp, rax
	cmp	r14, rbp
	jnb	.L1115
	jmp	.L1116
.L1121:
	mov	QWORD PTR 40[rsp], r9
	xor	ebp, ebp
.L991:
	lea	r8, 108[rsp]
	mov	DWORD PTR 108[rsp], ecx
	movq	xmm0, r8
	punpcklqdq	xmm0, xmm0
	cmp	ecx, 55295
	ja	.L1000
	bsr	eax, ecx
	mov	edx, eax
	xor	edx, 31
	cmp	eax, 6
	jne	.L1279
	mov	r10d, ecx
	mov	r9d, 1
	xor	eax, eax
	xor	r11d, r11d
	xor	edx, edx
.L1005:
	movzx	eax, al
	movzx	r11d, r11b
	movzx	edx, dl
	xor	r13d, r13d
	sal	eax, 8
	lea	rdi, 160[rsp]
	lea	rcx, 144[rsp]
	mov	QWORD PTR 152[rsp], 0
	or	eax, r11d
	lea	rsi, 112[rsp]
	mov	QWORD PTR 88[rsp], rcx
	sal	eax, 8
	mov	QWORD PTR 64[rsp], rdi
	or	eax, edx
	movzx	edx, r10b
	mov	QWORD PTR 144[rsp], rdi
	sal	eax, 8
	mov	BYTE PTR 200[rsp], 0
	or	eax, edx
	mov	BYTE PTR 201[rsp], r9b
	xor	edx, edx
	mov	DWORD PTR 176[rsp], eax
	mov	BYTE PTR 202[rsp], 1
	mov	QWORD PTR 208[rsp], rsi
	movups	XMMWORD PTR 184[rsp], xmm0
	jmp	.L1006
	.p2align 4,,10
	.p2align 3
.L1012:
	jge	.L1013
.L1015:
	mov	r14, QWORD PTR 192[rsp]
	add	r13d, 1
	mov	r8, r14
.L1027:
	cmp	rdx, 15
	je	.L1022
	movzx	eax, r13b
	add	rcx, 1
	movzx	r10d, BYTE PTR 176[rsp+rax]
.L1006:
	lea	eax, 1[r13]
	mov	BYTE PTR 16[rcx], r10b
	movzx	r10d, r9b
	add	rdx, 1
	movzx	eax, al
	cmp	eax, r10d
	jne	.L1012
.L1026:
	cmp	r8, rsi
	je	.L1013
	lea	r14, 4[r8]
	mov	QWORD PTR 192[rsp], r14
	cmp	r14, rsi
	je	.L1007
	mov	eax, DWORD PTR 4[r8]
	cmp	eax, 55295
	ja	.L1280
	test	eax, eax
	je	.L1127
	bsr	r8d, eax
	xor	r8d, 31
	cmp	r8d, 24
	jle	.L1020
.L1019:
	xor	r10d, r10d
	mov	BYTE PTR 176[rsp], al
	mov	BYTE PTR 177[rsp], 0
	mov	WORD PTR 178[rsp], r10w
	cmp	rdx, 15
	je	.L1281
	add	rcx, 1
	add	rdx, 1
	mov	r8, r14
	xor	r13d, r13d
	mov	r9d, 1
	mov	BYTE PTR 16[rcx], al
	jmp	.L1026
	.p2align 4,,10
	.p2align 3
.L1013:
	mov	r14, QWORD PTR 192[rsp]
	mov	r8, r14
	cmp	r14, rsi
	jne	.L1027
	test	r13b, r13b
	jne	.L1027
.L1007:
	mov	QWORD PTR 152[rsp], rdx
	mov	BYTE PTR 160[rsp+rdx], 0
	mov	r14, QWORD PTR 152[rsp]
	jmp	.L1053
.L995:
	mov	rbp, r12
	test	r12, r12
	je	.L1174
	mov	rcx, QWORD PTR 24[rbx]
	mov	rsi, QWORD PTR 16[rbx]
	mov	QWORD PTR 40[rsp], 0
	mov	r13, QWORD PTR 48[rsp]
	mov	rax, rcx
	sub	rax, QWORD PTR 8[rbx]
	sub	rsi, rax
	cmp	r12, rsi
	jnb	.L1107
	mov	r8, r12
	mov	rdx, r13
	call	memcpy
	add	QWORD PTR 24[rbx], r12
	jmp	.L1174
.L1281:
	mov	r14, QWORD PTR 192[rsp]
	xor	r13d, r13d
	mov	r9d, 1
.L1022:
	mov	BYTE PTR 200[rsp], r13b
	mov	BYTE PTR 201[rsp], r9b
	cmp	r14, rsi
	je	.L1282
.L1143:
	mov	r9d, 15
	mov	r15d, 15
	mov	r8d, 15
	jmp	.L1011
	.p2align 4,,10
	.p2align 3
.L1285:
	mov	r10, QWORD PTR 144[rsp]
.L1052:
	movzx	eax, r13b
	movzx	edx, BYTE PTR 201[rsp]
	movzx	eax, BYTE PTR 176[rsp+rax]
	mov	BYTE PTR [r10+r8], al
	movzx	eax, r13b
	add	eax, 1
	cmp	eax, edx
	je	.L1283
	mov	r14, QWORD PTR 192[rsp]
	jge	.L1284
	add	r13d, 1
	add	r9, 1
	mov	BYTE PTR 200[rsp], r13b
.L1050:
	mov	r8, rdi
.L1011:
	lea	rdi, 1[r8]
	cmp	r15, r9
	jne	.L1285
	movabs	rax, 9223372036854775806
	cmp	rax, rdi
	jb	.L1286
	cmp	r9, rdi
	jb	.L1029
	mov	ecx, 1
	mov	QWORD PTR 72[rsp], r8
	mov	QWORD PTR 56[rsp], r9
.LEHB27:
	call	_Znwy
	mov	r9, QWORD PTR 56[rsp]
	mov	r8, QWORD PTR 72[rsp]
	mov	r10, rax
	xor	r15d, r15d
	mov	rcx, QWORD PTR 144[rsp]
.L1030:
	mov	rdx, rcx
	mov	rcx, r10
	mov	QWORD PTR 72[rsp], r9
	mov	QWORD PTR 56[rsp], r8
	call	memcpy
	mov	r9, QWORD PTR 72[rsp]
	mov	r8, QWORD PTR 56[rsp]
	mov	rcx, QWORD PTR 144[rsp]
	mov	r10, rax
.L1034:
	cmp	rcx, QWORD PTR 64[rsp]
	je	.L1035
	mov	rax, QWORD PTR 160[rsp]
	mov	QWORD PTR 80[rsp], r10
	mov	QWORD PTR 72[rsp], r8
	lea	rdx, 1[rax]
	mov	QWORD PTR 56[rsp], r9
	call	_ZdlPvy
	mov	r10, QWORD PTR 80[rsp]
	mov	r8, QWORD PTR 72[rsp]
	mov	r9, QWORD PTR 56[rsp]
.L1035:
	mov	QWORD PTR 144[rsp], r10
	mov	QWORD PTR 160[rsp], r15
	jmp	.L1052
	.p2align 4,,10
	.p2align 3
.L1283:
	cmp	r14, rsi
	je	.L1287
	lea	rdx, 4[r14]
	mov	QWORD PTR 192[rsp], rdx
	cmp	rdx, rsi
	je	.L1039
	mov	eax, DWORD PTR 4[r14]
	cmp	eax, 55295
	ja	.L1288
	mov	BYTE PTR 200[rsp], 0
	test	eax, eax
	je	.L1130
	bsr	ecx, eax
	xor	ecx, 31
	cmp	ecx, 24
	jle	.L1048
.L1047:
	xor	ecx, ecx
	mov	BYTE PTR 177[rsp], 0
	mov	WORD PTR 178[rsp], cx
	mov	BYTE PTR 176[rsp], al
	mov	eax, 1
.L1049:
	mov	BYTE PTR 201[rsp], al
	add	r9, 1
	mov	r14, rdx
	xor	r13d, r13d
	jmp	.L1050
	.p2align 4,,10
	.p2align 3
.L1284:
	movzx	r13d, BYTE PTR 200[rsp]
.L1270:
	cmp	r14, rsi
	sete	al
	test	r13b, r13b
	sete	dl
	and	eax, edx
	test	al, al
	jne	.L1039
	add	r9, 1
	jmp	.L1050
.L1029:
	add	r15, r15
	cmp	rdi, r15
	jb	.L1031
	lea	rcx, 2[r8]
	mov	r15, rdi
.L1032:
	mov	QWORD PTR 72[rsp], r8
	mov	QWORD PTR 56[rsp], r9
	call	_Znwy
.LEHE27:
	mov	r9, QWORD PTR 56[rsp]
	mov	rcx, QWORD PTR 144[rsp]
	mov	r10, rax
	mov	r8, QWORD PTR 72[rsp]
	cmp	r9, 1
	jne	.L1033
	movzx	eax, BYTE PTR [rcx]
	mov	BYTE PTR [r10], al
	mov	rcx, QWORD PTR 144[rsp]
	jmp	.L1034
.L1287:
	movzx	r13d, BYTE PTR 200[rsp]
	mov	r14, QWORD PTR 192[rsp]
	jmp	.L1270
.L1039:
	mov	rax, QWORD PTR 144[rsp]
	mov	QWORD PTR 152[rsp], rdi
	mov	BYTE PTR [rax+rdi], 0
	mov	r14, QWORD PTR 152[rsp]
.L1053:
	mov	rax, QWORD PTR 144[rsp]
	lea	r13, -1[rbp]
	mov	QWORD PTR 56[rsp], rax
	test	rbp, rbp
	je	.L1064
	test	r14, r14
	jne	.L1271
.L1253:
	sub	r13, 1
	jnb	.L1253
.L1064:
	test	r12, r12
	jne	.L1289
.L1057:
	mov	rax, QWORD PTR 40[rsp]
	lea	rbp, -1[rax]
	test	rax, rax
	je	.L1079
	test	r14, r14
	jne	.L1272
.L1254:
	sub	rbp, 1
	jnb	.L1254
.L1079:
	mov	rcx, QWORD PTR 144[rsp]
	cmp	rcx, QWORD PTR 64[rsp]
	je	.L1174
	mov	rax, QWORD PTR 160[rsp]
	lea	rdx, 1[rax]
	call	_ZdlPvy
	jmp	.L1174
.L1060:
	mov	r8, rsi
	mov	rdx, rbp
	call	memcpy
	add	QWORD PTR 24[rbx], rsi
	sub	r13, 1
	jb	.L1064
.L1271:
	mov	rcx, QWORD PTR 24[rbx]
	mov	rax, QWORD PTR 16[rbx]
.L1058:
	mov	rdx, rcx
	sub	rdx, QWORD PTR 8[rbx]
	mov	rbp, QWORD PTR 56[rsp]
	mov	rsi, r14
	sub	rax, rdx
	mov	r15, rax
	cmp	r14, rax
	jb	.L1060
	.p2align 4
	.p2align 3
.L1062:
	test	r15, r15
	je	.L1061
	mov	r8, r15
	mov	rdx, rbp
	call	memcpy
.L1061:
	mov	rax, QWORD PTR [rbx]
	add	QWORD PTR 24[rbx], r15
	add	rbp, r15
	sub	rsi, r15
	mov	rcx, rbx
.LEHB28:
	call	[QWORD PTR [rax]]
	mov	rcx, QWORD PTR 24[rbx]
	mov	rax, QWORD PTR 16[rbx]
	mov	rdx, rcx
	mov	r15, rax
	sub	rdx, QWORD PTR 8[rbx]
	sub	r15, rdx
	cmp	rsi, r15
	jnb	.L1062
	test	rsi, rsi
	jne	.L1060
	sub	r13, 1
	jnb	.L1058
	jmp	.L1064
.L1132:
	mov	rdi, QWORD PTR 56[rsp]
	mov	rsi, r14
.L1074:
	mov	r8, rsi
	mov	rdx, rdi
	call	memcpy
	add	QWORD PTR 24[rbx], rsi
	sub	rbp, 1
	jb	.L1079
.L1272:
	mov	rcx, QWORD PTR 24[rbx]
	mov	rax, QWORD PTR 16[rbx]
.L1072:
	mov	rdx, rcx
	sub	rdx, QWORD PTR 8[rbx]
	sub	rax, rdx
	mov	r12, rax
	cmp	r14, rax
	jb	.L1132
	mov	rdi, QWORD PTR 56[rsp]
	mov	rsi, r14
	.p2align 4
	.p2align 3
.L1076:
	test	r12, r12
	je	.L1075
	mov	r8, r12
	mov	rdx, rdi
	call	memcpy
.L1075:
	mov	rax, QWORD PTR [rbx]
	add	QWORD PTR 24[rbx], r12
	add	rdi, r12
	sub	rsi, r12
	mov	rcx, rbx
	call	[QWORD PTR [rax]]
	mov	rcx, QWORD PTR 24[rbx]
	mov	rax, QWORD PTR 16[rbx]
	mov	rdx, rcx
	mov	r12, rax
	sub	rdx, QWORD PTR 8[rbx]
	sub	r12, rdx
	cmp	rsi, r12
	jnb	.L1076
	test	rsi, rsi
	jne	.L1074
	sub	rbp, 1
	jnb	.L1072
	jmp	.L1079
.L1031:
	movabs	rax, 9223372036854775806
	cmp	rax, r15
	jnb	.L1290
	movabs	r15, 9223372036854775806
	movabs	rcx, 9223372036854775807
	jmp	.L1032
.L1282:
	test	r13b, r13b
	jne	.L1143
	mov	edx, 15
	jmp	.L1007
	.p2align 4,,10
	.p2align 3
.L1290:
	lea	rcx, -1[rdi+rdi]
	jmp	.L1032
.L1130:
	xor	eax, eax
	jmp	.L1047
.L1276:
	test	r12, r12
	jne	.L1134
	cmp	QWORD PTR 40[rsp], 0
	je	.L1174
.L1167:
.L1109:
	jmp	.L1109
	.p2align 4,,10
	.p2align 3
.L1280:
	lea	r8d, -57344[rax]
	cmp	r8d, 1056767
	ja	.L1126
	bsr	r8d, eax
	cmp	r8d, 15
	je	.L1017
	mov	r10d, eax
	mov	r8d, eax
	mov	r9d, eax
	and	eax, 63
	shr	r10d, 6
	sal	eax, 8
	mov	edi, DWORD PTR .LC21[rip]
	shr	r9d, 12
	and	r10d, 63
	shr	r8d, 18
	or	eax, r10d
	and	r9d, 63
	movzx	r8d, r8b
	sal	eax, 8
	or	eax, r9d
	sal	eax, 8
	or	eax, r8d
	or	eax, edi
	mov	DWORD PTR 176[rsp], eax
	cmp	rdx, 15
	je	.L1128
	movzx	eax, BYTE PTR 176[rsp]
	add	rcx, 1
	add	rdx, 1
	mov	r9d, 4
	mov	BYTE PTR 16[rcx], al
.L1025:
	xor	r13d, r13d
	jmp	.L1015
	.p2align 4,,10
	.p2align 3
.L1033:
	test	r9, r9
	je	.L1034
	jmp	.L1030
.L1289:
	mov	rcx, QWORD PTR 24[rbx]
	mov	rbp, QWORD PTR 16[rbx]
	mov	rsi, QWORD PTR 48[rsp]
	mov	rax, rcx
	sub	rax, QWORD PTR 8[rbx]
	sub	rbp, rax
	cmp	r12, rbp
	jb	.L1066
	.p2align 4
	.p2align 3
.L1068:
	test	rbp, rbp
	je	.L1067
	mov	r8, rbp
	mov	rdx, rsi
	call	memcpy
.L1067:
	mov	rax, QWORD PTR [rbx]
	add	QWORD PTR 24[rbx], rbp
	add	rsi, rbp
	sub	r12, rbp
	mov	rcx, rbx
	call	[QWORD PTR [rax]]
.LEHE28:
	mov	rcx, QWORD PTR 24[rbx]
	mov	rax, QWORD PTR 16[rbx]
	mov	rdx, rcx
	sub	rdx, QWORD PTR 8[rbx]
	sub	rax, rdx
	mov	rbp, rax
	cmp	r12, rax
	jnb	.L1068
	test	r12, r12
	je	.L1057
.L1066:
	mov	r8, r12
	mov	rdx, rsi
	call	memcpy
	add	QWORD PTR 24[rbx], r12
	jmp	.L1057
.L1127:
	xor	eax, eax
	jmp	.L1019
.L1000:
	lea	eax, -57344[rcx]
	cmp	eax, 1056767
	ja	.L1124
	bsr	eax, ecx
	cmp	eax, 15
	je	.L1003
	mov	r11d, ecx
	mov	edx, ecx
	mov	eax, ecx
	mov	r10d, ecx
	shr	r11d, 6
	shr	edx, 12
	and	eax, 63
	mov	r9d, 4
	and	r11d, 63
	shr	r10d, 18
	and	edx, 63
	or	eax, -128
	or	r11d, -128
	or	r10d, -16
	or	edx, -128
	jmp	.L1005
.L1288:
	lea	ecx, -57344[rax]
	mov	BYTE PTR 200[rsp], 0
	cmp	ecx, 1056767
	ja	.L1291
	bsr	ecx, eax
	cmp	ecx, 15
	je	.L1044
	mov	r8d, eax
	mov	r10d, eax
	mov	ecx, eax
	and	eax, 63
	shr	r8d, 6
	sal	eax, 8
	shr	ecx, 12
	and	r8d, 63
	shr	r10d, 18
	or	eax, r8d
	and	ecx, 63
	movzx	r10d, r10b
	sal	eax, 8
	or	eax, ecx
	mov	ecx, DWORD PTR .LC21[rip]
	sal	eax, 8
	or	eax, r10d
	or	eax, ecx
	mov	DWORD PTR 176[rsp], eax
	mov	eax, 4
	jmp	.L1049
.L1291:
	mov	eax, 65533
.L1044:
	mov	ecx, eax
	mov	BYTE PTR 179[rsp], 0
	shr	ecx, 12
	or	ecx, -32
	mov	BYTE PTR 176[rsp], cl
	mov	ecx, eax
	and	eax, 63
	shr	ecx, 6
	or	eax, -128
	and	ecx, 63
	mov	BYTE PTR 178[rsp], al
	mov	eax, 3
	or	ecx, -128
	mov	BYTE PTR 177[rsp], cl
	jmp	.L1049
.L1138:
	mov	rdi, QWORD PTR 40[rsp]
	lea	rsi, 112[rsp]
	jmp	.L996
.L1124:
	mov	ecx, 65533
.L1003:
	mov	edx, ecx
	mov	r10d, ecx
	mov	r11d, ecx
	mov	r9d, 3
	shr	edx, 6
	shr	r10d, 12
	and	r11d, 63
	xor	eax, eax
	and	edx, 63
	or	r10d, -32
	or	r11d, -128
	or	edx, -128
	jmp	.L1005
.L1134:
	mov	rbp, r12
	jmp	.L993
.L1126:
	mov	eax, 65533
.L1017:
	mov	r8d, eax
	mov	r9d, eax
	and	eax, 63
	mov	BYTE PTR 179[rsp], 0
	shr	r8d, 6
	shr	r9d, 12
	or	eax, -128
	and	r8d, 63
	or	r9d, -32
	mov	BYTE PTR 178[rsp], al
	or	r8d, -128
	mov	BYTE PTR 176[rsp], r9b
	mov	BYTE PTR 177[rsp], r8b
	cmp	rdx, 15
	je	.L1292
	add	rcx, 1
	mov	BYTE PTR 16[rcx], r9b
	add	rdx, 1
	mov	r9d, 3
	jmp	.L1025
.L1128:
	xor	r13d, r13d
	mov	r9d, 4
	jmp	.L1022
.L1292:
	mov	r14, QWORD PTR 192[rsp]
	xor	r13d, r13d
	mov	r9d, 3
	jmp	.L1022
.L1020:
	cmp	r8d, 20
	jle	.L1017
	mov	r8d, eax
	and	eax, 63
	xor	r9d, r9d
	mov	WORD PTR 178[rsp], r9w
	shr	r8d, 6
	or	eax, -128
	or	r8d, -64
	mov	BYTE PTR 177[rsp], al
	mov	BYTE PTR 176[rsp], r8b
	cmp	rdx, 15
	je	.L1293
	add	rcx, 1
	add	rdx, 1
	mov	r9d, 2
	mov	BYTE PTR 16[rcx], r8b
	jmp	.L1025
.L1279:
	cmp	edx, 20
	jle	.L1003
	mov	edx, ecx
	shr	ecx, 6
	mov	r9d, 2
	xor	eax, eax
	and	edx, 63
	mov	r10d, ecx
	xor	r11d, r11d
	or	edx, -128
	or	r10d, -64
	jmp	.L1005
.L1048:
	cmp	ecx, 20
	jle	.L1044
	mov	ecx, eax
	and	eax, 63
	or	eax, -128
	shr	ecx, 6
	mov	BYTE PTR 177[rsp], al
	or	ecx, -64
	xor	eax, eax
	mov	WORD PTR 178[rsp], ax
	mov	eax, 2
	mov	BYTE PTR 176[rsp], cl
	jmp	.L1049
.L1293:
	xor	r13d, r13d
	mov	r9d, 2
	jmp	.L1022
.L1141:
.L1273:
	mov	rbx, rax
	jmp	.L1119
.L1142:
	jmp	.L1273
.L1286:
	lea	rcx, .LC9[rip]
.LEHB29:
	call	_ZSt20__throw_length_errorPKc
.LEHE29:
.L1119:
	mov	rcx, QWORD PTR 88[rsp]
	call	_ZNSt7__cxx1112basic_stringIcSt11char_traitsIcESaIcEE10_M_disposeEv
	mov	rcx, rbx
.LEHB30:
	call	_Unwind_Resume
	nop
.LEHE30:
	.seh_handler	__gxx_personality_seh0, @unwind, @except
	.seh_handlerdata
.LLSDA5595:
	.byte	0xff
	.byte	0xff
	.byte	0x1
	.uleb128 .LLSDACSE5595-.LLSDACSB5595
.LLSDACSB5595:
	.uleb128 .LEHB26-.LFB5595
	.uleb128 .LEHE26-.LEHB26
	.uleb128 0
	.uleb128 0
	.uleb128 .LEHB27-.LFB5595
	.uleb128 .LEHE27-.LEHB27
	.uleb128 .L1142-.LFB5595
	.uleb128 0
	.uleb128 .LEHB28-.LFB5595
	.uleb128 .LEHE28-.LEHB28
	.uleb128 .L1141-.LFB5595
	.uleb128 0
	.uleb128 .LEHB29-.LFB5595
	.uleb128 .LEHE29-.LEHB29
	.uleb128 .L1142-.LFB5595
	.uleb128 0
	.uleb128 .LEHB30-.LFB5595
	.uleb128 .LEHE30-.LEHB30
	.uleb128 0
	.uleb128 0
.LLSDACSE5595:
	.section	.text$_ZNSt8__format14__write_paddedINS_10_Sink_iterIcEEcEET_S3_St17basic_string_viewIT0_St11char_traitsIS5_EENS_6_AlignEyDi,"x"
	.linkonce discard
	.seh_endproc
	.section	.text$_ZNSt8__format22__write_padded_as_specIcNS_10_Sink_iterIcEEEET0_St17basic_string_viewINSt13type_identityIT_E4typeESt11char_traitsIS8_EEyRSt20basic_format_contextIS3_S6_ERKNS_5_SpecIS6_EENS_6_AlignE,"x"
	.linkonce discard
	.p2align 4
	.globl	_ZNSt8__format22__write_padded_as_specIcNS_10_Sink_iterIcEEEET0_St17basic_string_viewINSt13type_identityIT_E4typeESt11char_traitsIS8_EEyRSt20basic_format_contextIS3_S6_ERKNS_5_SpecIS6_EENS_6_AlignE
	.def	_ZNSt8__format22__write_padded_as_specIcNS_10_Sink_iterIcEEEET0_St17basic_string_viewINSt13type_identityIT_E4typeESt11char_traitsIS8_EEyRSt20basic_format_contextIS3_S6_ERKNS_5_SpecIS6_EENS_6_AlignE;	.scl	2;	.type	32;	.endef
	.seh_proc	_ZNSt8__format22__write_padded_as_specIcNS_10_Sink_iterIcEEEET0_St17basic_string_viewINSt13type_identityIT_E4typeESt11char_traitsIS8_EEyRSt20basic_format_contextIS3_S6_ERKNS_5_SpecIS6_EENS_6_AlignE
_ZNSt8__format22__write_padded_as_specIcNS_10_Sink_iterIcEEEET0_St17basic_string_viewINSt13type_identityIT_E4typeESt11char_traitsIS8_EEyRSt20basic_format_contextIS3_S6_ERKNS_5_SpecIS6_EENS_6_AlignE:
.LFB5610:
	push	rdi
	.seh_pushreg	rdi
	push	rsi
	.seh_pushreg	rsi
	push	rbx
	.seh_pushreg	rbx
	sub	rsp, 144
	.seh_stackalloc	144
	.seh_endprologue
	mov	rsi, QWORD PTR [rcx]
	mov	rdi, QWORD PTR 8[rcx]
	mov	r11, rdx
	movzx	edx, WORD PTR [r9]
	mov	r10, r8
	mov	rax, r9
	mov	r8d, DWORD PTR 208[rsp]
	and	dx, 384
	cmp	dx, 128
	je	.L1329
	cmp	dx, 256
	je	.L1297
.L1312:
	mov	rbx, QWORD PTR 16[r10]
	test	rsi, rsi
	jne	.L1330
.L1299:
	mov	rax, rbx
	add	rsp, 144
	pop	rbx
	pop	rsi
	pop	rdi
	ret
	.p2align 4,,10
	.p2align 3
.L1329:
	movzx	r9d, WORD PTR 4[r9]
.L1296:
	cmp	r11, r9
	jnb	.L1312
	movzx	edx, BYTE PTR [rax]
	mov	eax, DWORD PTR 8[rax]
	mov	QWORD PTR 64[rsp], rsi
	mov	QWORD PTR 72[rsp], rdi
	mov	ecx, edx
	mov	DWORD PTR 32[rsp], eax
	and	ecx, 3
	and	edx, 3
	lea	rdx, 64[rsp]
	cmovne	r8d, ecx
	mov	rcx, QWORD PTR 16[r10]
	sub	r9, r11
	call	_ZNSt8__format14__write_paddedINS_10_Sink_iterIcEEcEET_S3_St17basic_string_viewIT0_St11char_traitsIS5_EENS_6_AlignEyDi
	add	rsp, 144
	pop	rbx
	pop	rsi
	pop	rdi
	ret
	.p2align 4,,10
	.p2align 3
.L1330:
	mov	rcx, QWORD PTR 24[rbx]
	mov	r8, QWORD PTR 16[rbx]
	mov	rax, rcx
	sub	rax, QWORD PTR 8[rbx]
	sub	r8, rax
	cmp	rsi, r8
	jb	.L1314
	.p2align 4
	.p2align 3
.L1316:
	test	r8, r8
	je	.L1315
	mov	rdx, rdi
	mov	QWORD PTR 56[rsp], r8
	call	memcpy
	mov	r8, QWORD PTR 56[rsp]
.L1315:
	mov	rax, QWORD PTR [rbx]
	add	QWORD PTR 24[rbx], r8
	add	rdi, r8
	sub	rsi, r8
	mov	rcx, rbx
	call	[QWORD PTR [rax]]
	mov	rcx, QWORD PTR 24[rbx]
	mov	r8, QWORD PTR 16[rbx]
	mov	rax, rcx
	sub	rax, QWORD PTR 8[rbx]
	sub	r8, rax
	cmp	rsi, r8
	jnb	.L1316
	test	rsi, rsi
	je	.L1299
.L1314:
	mov	r8, rsi
	mov	rdx, rdi
	call	memcpy
	add	QWORD PTR 24[rbx], rsi
	jmp	.L1299
	.p2align 4,,10
	.p2align 3
.L1297:
	movzx	edx, BYTE PTR [r10]
	movzx	r9d, WORD PTR 4[r9]
	mov	rcx, rdx
	and	ecx, 15
	cmp	r9, rcx
	jnb	.L1300
	mov	rdx, QWORD PTR [r10]
	lea	rcx, [r9+r9*4]
	sal	r9, 4
	add	r9, QWORD PTR 8[r10]
	movdqa	xmm2, XMMWORD PTR [r9]
	shr	rdx, 4
	shr	rdx, cl
	movaps	XMMWORD PTR 80[rsp], xmm2
	and	edx, 31
.L1301:
	mov	BYTE PTR 96[rsp], dl
	lea	rcx, .L1305[rip]
	movzx	edx, dl
	movdqa	xmm0, XMMWORD PTR 80[rsp]
	movsxd	rdx, DWORD PTR [rcx+rdx*4]
	movdqa	xmm1, XMMWORD PTR 96[rsp]
	movaps	XMMWORD PTR 112[rsp], xmm0
	add	rdx, rcx
	movaps	XMMWORD PTR 128[rsp], xmm1
	jmp	rdx
	.section .rdata,"dr"
	.align 4
.L1305:
	.long	.L1302-.L1305
	.long	.L1310-.L1305
	.long	.L1310-.L1305
	.long	.L1309-.L1305
	.long	.L1308-.L1305
	.long	.L1307-.L1305
	.long	.L1306-.L1305
	.long	.L1310-.L1305
	.long	.L1310-.L1305
	.long	.L1310-.L1305
	.long	.L1310-.L1305
	.long	.L1310-.L1305
	.long	.L1310-.L1305
	.long	.L1310-.L1305
	.long	.L1310-.L1305
	.long	.L1310-.L1305
	.section	.text$_ZNSt8__format22__write_padded_as_specIcNS_10_Sink_iterIcEEEET0_St17basic_string_viewINSt13type_identityIT_E4typeESt11char_traitsIS8_EEyRSt20basic_format_contextIS3_S6_ERKNS_5_SpecIS6_EENS_6_AlignE,"x"
	.linkonce discard
	.p2align 4,,10
	.p2align 3
.L1300:
	and	edx, 15
	jne	.L1302
	mov	rdx, QWORD PTR [r10]
	shr	rdx, 4
	cmp	r9, rdx
	jb	.L1331
.L1302:
	call	_ZNSt8__format33__invalid_arg_id_in_format_stringEv
	.p2align 4,,10
	.p2align 3
.L1306:
	mov	r9, QWORD PTR 112[rsp]
	jmp	.L1296
.L1307:
	mov	r9, QWORD PTR 112[rsp]
	test	r9, r9
	jns	.L1296
.L1310:
	lea	rcx, .LC2[rip]
	call	_ZSt20__throw_format_errorPKc
	.p2align 4,,10
	.p2align 3
.L1308:
	mov	r9d, DWORD PTR 112[rsp]
	jmp	.L1296
.L1309:
	movsxd	r9, DWORD PTR 112[rsp]
	test	r9d, r9d
	jns	.L1296
	jmp	.L1310
	.p2align 4,,10
	.p2align 3
.L1331:
	sal	r9, 5
	add	r9, QWORD PTR 8[r10]
	movdqu	xmm3, XMMWORD PTR [r9]
	movzx	edx, BYTE PTR 16[r9]
	movaps	XMMWORD PTR 80[rsp], xmm3
	jmp	.L1301
	.seh_endproc
	.section	.text$_ZNKSt9formatterIPKvcE6formatINSt8__format10_Sink_iterIcEEEENSt20basic_format_contextIT_cE8iteratorES1_RS9_,"x"
	.linkonce discard
	.align 2
	.p2align 4
	.globl	_ZNKSt9formatterIPKvcE6formatINSt8__format10_Sink_iterIcEEEENSt20basic_format_contextIT_cE8iteratorES1_RS9_
	.def	_ZNKSt9formatterIPKvcE6formatINSt8__format10_Sink_iterIcEEEENSt20basic_format_contextIT_cE8iteratorES1_RS9_;	.scl	2;	.type	32;	.endef
	.seh_proc	_ZNKSt9formatterIPKvcE6formatINSt8__format10_Sink_iterIcEEEENSt20basic_format_contextIT_cE8iteratorES1_RS9_
_ZNKSt9formatterIPKvcE6formatINSt8__format10_Sink_iterIcEEEENSt20basic_format_contextIT_cE8iteratorES1_RS9_:
.LFB5429:
	push	r14
	.seh_pushreg	r14
	push	r12
	.seh_pushreg	r12
	push	rbp
	.seh_pushreg	rbp
	push	rdi
	.seh_pushreg	rdi
	push	rsi
	.seh_pushreg	rsi
	push	rbx
	.seh_pushreg	rbx
	sub	rsp, 120
	.seh_stackalloc	120
	.seh_endprologue
	mov	rdi, rcx
	mov	rsi, r8
	test	rdx, rdx
	jne	.L1333
	movzx	eax, BYTE PTR 1[rcx]
	mov	edx, 30768
	mov	BYTE PTR 82[rsp], 48
	mov	ebp, 3
	mov	WORD PTR 80[rsp], dx
	and	eax, 120
	cmp	al, 8
	je	.L1384
.L1335:
	test	BYTE PTR [rdi], 64
	je	.L1385
	movzx	eax, WORD PTR [rdi]
	and	ax, 384
	cmp	ax, 128
	je	.L1386
	cmp	ax, 256
	je	.L1346
.L1349:
	mov	rbx, QWORD PTR 16[rsi]
	test	rbp, rbp
	jne	.L1387
.L1348:
	mov	rax, rbx
	add	rsp, 120
	pop	rbx
	pop	rsi
	pop	rdi
	pop	rbp
	pop	r12
	pop	r14
	ret
	.p2align 4,,10
	.p2align 3
.L1385:
	lea	rax, 80[rsp]
	lea	rcx, 48[rsp]
	mov	r9, rdi
	mov	r8, rsi
	mov	DWORD PTR 32[rsp], 2
	mov	rdx, rbp
	mov	QWORD PTR 48[rsp], rbp
	mov	QWORD PTR 56[rsp], rax
	call	_ZNSt8__format22__write_padded_as_specIcNS_10_Sink_iterIcEEEET0_St17basic_string_viewINSt13type_identityIT_E4typeESt11char_traitsIS8_EEyRSt20basic_format_contextIS3_S6_ERKNS_5_SpecIS6_EENS_6_AlignE
	add	rsp, 120
	pop	rbx
	pop	rsi
	pop	rdi
	pop	rbp
	pop	r12
	pop	r14
	ret
	.p2align 4,,10
	.p2align 3
.L1333:
	movabs	rcx, 7378413942531504440
	mov	rax, rdx
	bsr	rdx, rdx
	lea	r12d, 4[rdx]
	mov	QWORD PTR 72[rsp], rcx
	movabs	rdx, 3978425819141910832
	mov	QWORD PTR 64[rsp], rdx
	shr	r12d, 2
	cmp	rax, 255
	jbe	.L1336
	lea	edx, -1[r12]
	.p2align 6
	.p2align 4
	.p2align 3
.L1337:
	mov	r8, rax
	mov	ecx, edx
	lea	r10d, -1[rdx]
	sub	edx, 2
	and	r8d, 15
	movzx	r8d, BYTE PTR 64[rsp+r8]
	mov	BYTE PTR 82[rsp+rcx], r8b
	mov	rcx, rax
	shr	rax, 8
	shr	rcx, 4
	and	ecx, 15
	movzx	ecx, BYTE PTR 64[rsp+rcx]
	mov	BYTE PTR 82[rsp+r10], cl
	cmp	rax, 255
	ja	.L1337
.L1336:
	cmp	rax, 15
	jbe	.L1338
	mov	rdx, rax
	shr	rax, 4
	and	edx, 15
	movzx	edx, BYTE PTR 64[rsp+rdx]
	mov	BYTE PTR 83[rsp], dl
	movzx	eax, BYTE PTR 64[rsp+rax]
.L1339:
	mov	BYTE PTR 82[rsp], al
	mov	eax, 30768
	lea	ebp, 2[r12]
	mov	WORD PTR 80[rsp], ax
	movzx	eax, BYTE PTR 1[rdi]
	movsxd	rbp, ebp
	and	eax, 120
	cmp	al, 8
	jne	.L1335
	lea	rbx, 82[rsp]
	add	r12, rbx
.L1334:
	mov	BYTE PTR 81[rsp], 88
	.p2align 4
	.p2align 3
.L1343:
	movsx	ecx, BYTE PTR [rbx]
	add	rbx, 1
	call	toupper
	mov	BYTE PTR -1[rbx], al
	cmp	r12, rbx
	jne	.L1343
	jmp	.L1335
	.p2align 4,,10
	.p2align 3
.L1338:
	movzx	eax, BYTE PTR 64[rsp+rax]
	jmp	.L1339
	.p2align 4,,10
	.p2align 3
.L1384:
	lea	r12, 83[rsp]
	mov	ebp, 3
	lea	rbx, 82[rsp]
	jmp	.L1334
	.p2align 4,,10
	.p2align 3
.L1386:
	movzx	eax, WORD PTR 4[rdi]
	mov	r14, rax
.L1345:
	cmp	rbp, r14
	jnb	.L1349
	mov	rsi, QWORD PTR 16[rsi]
	test	rbp, rbp
	jne	.L1388
.L1355:
	lea	rdx, 82[rsp]
	mov	r9, r14
	lea	rax, -2[rbp]
	mov	rcx, rsi
	mov	QWORD PTR 56[rsp], rdx
	sub	r9, rbp
	lea	rdx, 48[rsp]
	mov	r8d, 2
	mov	DWORD PTR 32[rsp], 48
	mov	QWORD PTR 48[rsp], rax
	call	_ZNSt8__format14__write_paddedINS_10_Sink_iterIcEEcEET_S3_St17basic_string_viewIT0_St11char_traitsIS5_EENS_6_AlignEyDi
	add	rsp, 120
	pop	rbx
	pop	rsi
	pop	rdi
	pop	rbp
	pop	r12
	pop	r14
	ret
	.p2align 4,,10
	.p2align 3
.L1387:
	mov	rcx, QWORD PTR 24[rbx]
	mov	rsi, QWORD PTR 16[rbx]
	lea	rdi, 80[rsp]
	mov	rax, rcx
	sub	rax, QWORD PTR 8[rbx]
	sub	rsi, rax
	cmp	rbp, rsi
	jb	.L1351
	.p2align 4
	.p2align 3
.L1353:
	test	rsi, rsi
	je	.L1352
	mov	r8, rsi
	mov	rdx, rdi
	call	memcpy
.L1352:
	mov	rax, QWORD PTR [rbx]
	add	QWORD PTR 24[rbx], rsi
	mov	rcx, rbx
	add	rdi, rsi
	sub	rbp, rsi
	call	[QWORD PTR [rax]]
	mov	rcx, QWORD PTR 24[rbx]
	mov	rsi, QWORD PTR 16[rbx]
	mov	rax, rcx
	sub	rax, QWORD PTR 8[rbx]
	sub	rsi, rax
	cmp	rbp, rsi
	jnb	.L1353
	test	rbp, rbp
	je	.L1348
.L1351:
	mov	r8, rbp
	mov	rdx, rdi
	call	memcpy
	add	QWORD PTR 24[rbx], rbp
	jmp	.L1348
	.p2align 4,,10
	.p2align 3
.L1388:
	mov	edi, 2
	mov	rcx, QWORD PTR 24[rsi]
	mov	rbx, QWORD PTR 16[rsi]
	lea	r12, 80[rsp]
	cmp	rbp, rdi
	cmovbe	rdi, rbp
	mov	rax, rcx
	sub	rax, QWORD PTR 8[rsi]
	sub	rbx, rax
	cmp	rdi, rbx
	jb	.L1356
	.p2align 4
	.p2align 3
.L1358:
	test	rbx, rbx
	je	.L1357
	mov	r8, rbx
	mov	rdx, r12
	call	memcpy
.L1357:
	mov	rax, QWORD PTR [rsi]
	add	QWORD PTR 24[rsi], rbx
	mov	rcx, rsi
	add	r12, rbx
	sub	rdi, rbx
	call	[QWORD PTR [rax]]
	mov	rcx, QWORD PTR 24[rsi]
	mov	rbx, QWORD PTR 16[rsi]
	mov	rax, rcx
	sub	rax, QWORD PTR 8[rsi]
	sub	rbx, rax
	cmp	rdi, rbx
	jnb	.L1358
	test	rdi, rdi
	je	.L1355
.L1356:
	mov	r8, rdi
	mov	rdx, r12
	call	memcpy
	add	QWORD PTR 24[rsi], rdi
	jmp	.L1355
	.p2align 4,,10
	.p2align 3
.L1346:
	movzx	ecx, WORD PTR 4[rdi]
	mov	rdx, rsi
	call	_ZNKSt8__format5_SpecIcE12_M_get_widthISt20basic_format_contextINS_10_Sink_iterIcEEcEEEyRT_.part.0.isra.0
	mov	r14, rax
	jmp	.L1345
	.seh_endproc
	.section	.text$_ZNKSt8__format5_SpecIcE16_M_get_precisionISt20basic_format_contextINS_10_Sink_iterIcEEcEEEyRT_,"x"
	.linkonce discard
	.align 2
	.p2align 4
	.globl	_ZNKSt8__format5_SpecIcE16_M_get_precisionISt20basic_format_contextINS_10_Sink_iterIcEEcEEEyRT_
	.def	_ZNKSt8__format5_SpecIcE16_M_get_precisionISt20basic_format_contextINS_10_Sink_iterIcEEcEEEyRT_;	.scl	2;	.type	32;	.endef
	.seh_proc	_ZNKSt8__format5_SpecIcE16_M_get_precisionISt20basic_format_contextINS_10_Sink_iterIcEEcEEEyRT_
_ZNKSt8__format5_SpecIcE16_M_get_precisionISt20basic_format_contextINS_10_Sink_iterIcEEcEEEyRT_:
.LFB5731:
	sub	rsp, 104
	.seh_stackalloc	104
	.seh_endprologue
	movzx	r8d, BYTE PTR 1[rcx]
	and	r8d, 6
	cmp	r8b, 2
	je	.L1405
	mov	rax, -1
	cmp	r8b, 4
	je	.L1406
.L1389:
	add	rsp, 104
	ret
	.p2align 4,,10
	.p2align 3
.L1406:
	movzx	eax, BYTE PTR [rdx]
	movzx	r8d, WORD PTR 6[rcx]
	mov	rcx, rax
	and	ecx, 15
	cmp	r8, rcx
	jnb	.L1392
	mov	rax, QWORD PTR [rdx]
	lea	rcx, [r8+r8*4]
	sal	r8, 4
	add	r8, QWORD PTR 8[rdx]
	movdqa	xmm1, XMMWORD PTR [r8]
	shr	rax, 4
	shr	rax, cl
	movaps	XMMWORD PTR 32[rsp], xmm1
	and	eax, 31
.L1393:
	lea	rdx, .L1397[rip]
	mov	BYTE PTR 48[rsp], al
	movzx	eax, al
	movdqa	xmm0, XMMWORD PTR 32[rsp]
	movsxd	rax, DWORD PTR [rdx+rax*4]
	movaps	XMMWORD PTR 64[rsp], xmm0
	add	rax, rdx
	jmp	rax
	.section .rdata,"dr"
	.align 4
.L1397:
	.long	.L1394-.L1397
	.long	.L1402-.L1397
	.long	.L1402-.L1397
	.long	.L1401-.L1397
	.long	.L1400-.L1397
	.long	.L1399-.L1397
	.long	.L1398-.L1397
	.long	.L1402-.L1397
	.long	.L1402-.L1397
	.long	.L1402-.L1397
	.long	.L1402-.L1397
	.long	.L1402-.L1397
	.long	.L1402-.L1397
	.long	.L1402-.L1397
	.long	.L1402-.L1397
	.long	.L1402-.L1397
	.section	.text$_ZNKSt8__format5_SpecIcE16_M_get_precisionISt20basic_format_contextINS_10_Sink_iterIcEEcEEEyRT_,"x"
	.linkonce discard
	.p2align 4,,10
	.p2align 3
.L1405:
	movzx	eax, WORD PTR 6[rcx]
	add	rsp, 104
	ret
	.p2align 4,,10
	.p2align 3
.L1392:
	test	al, 15
	je	.L1407
.L1394:
	call	_ZNSt8__format33__invalid_arg_id_in_format_stringEv
	.p2align 4,,10
	.p2align 3
.L1399:
	mov	rax, QWORD PTR 64[rsp]
	test	rax, rax
	jns	.L1389
.L1402:
	lea	rcx, .LC2[rip]
	call	_ZSt20__throw_format_errorPKc
	.p2align 4,,10
	.p2align 3
.L1400:
	mov	eax, DWORD PTR 64[rsp]
	jmp	.L1389
	.p2align 4,,10
	.p2align 3
.L1401:
	movsxd	rax, DWORD PTR 64[rsp]
	test	eax, eax
	jns	.L1389
	jmp	.L1402
	.p2align 4,,10
	.p2align 3
.L1398:
	mov	rax, QWORD PTR 64[rsp]
	jmp	.L1389
	.p2align 4,,10
	.p2align 3
.L1407:
	mov	rax, QWORD PTR [rdx]
	shr	rax, 4
	cmp	r8, rax
	jnb	.L1394
	sal	r8, 5
	add	r8, QWORD PTR 8[rdx]
	movdqu	xmm2, XMMWORD PTR [r8]
	movzx	eax, BYTE PTR 16[r8]
	movaps	XMMWORD PTR 32[rsp], xmm2
	jmp	.L1393
	.seh_endproc
	.section	.text$_ZSt14__add_groupingIcEPT_S1_S0_PKcyPKS0_S5_,"x"
	.linkonce discard
	.p2align 4
	.globl	_ZSt14__add_groupingIcEPT_S1_S0_PKcyPKS0_S5_
	.def	_ZSt14__add_groupingIcEPT_S1_S0_PKcyPKS0_S5_;	.scl	2;	.type	32;	.endef
	.seh_proc	_ZSt14__add_groupingIcEPT_S1_S0_PKcyPKS0_S5_
_ZSt14__add_groupingIcEPT_S1_S0_PKcyPKS0_S5_:
.LFB5892:
	push	r13
	.seh_pushreg	r13
	push	r12
	.seh_pushreg	r12
	push	rbp
	.seh_pushreg	rbp
	push	rdi
	.seh_pushreg	rdi
	push	rsi
	.seh_pushreg	rsi
	push	rbx
	.seh_pushreg	rbx
	.seh_endprologue
	movsx	r10, BYTE PTR [r8]
	mov	rax, r10
	mov	r12, rcx
	mov	rcx, QWORD PTR 96[rsp]
	mov	rsi, r9
	mov	r9, QWORD PTR 88[rsp]
	mov	ebx, edx
	mov	rdx, rcx
	sub	rdx, r9
	cmp	rdx, r10
	jle	.L1409
	sub	eax, 1
	cmp	al, 125
	ja	.L1409
	sub	rsi, 1
	xor	r13d, r13d
	xor	r11d, r11d
	jmp	.L1412
	.p2align 4,,10
	.p2align 3
.L1451:
	add	r11, 1
	lea	rbp, [r8+r11]
	movzx	eax, BYTE PTR 0[rbp]
	lea	edx, -1[rax]
	cmp	dl, 125
	ja	.L1414
.L1452:
	mov	rdx, rcx
	movsx	r10, al
	sub	rdx, r9
	cmp	rdx, r10
	jle	.L1414
.L1412:
	sub	rcx, r10
	cmp	r11, rsi
	jb	.L1451
	lea	rbp, [r8+r11]
	add	r13, 1
	movzx	eax, BYTE PTR 0[rbp]
	lea	edx, -1[rax]
	cmp	dl, 125
	jbe	.L1452
.L1414:
	lea	rdi, -1[r13]
	lea	rsi, -1[r11]
	cmp	r9, rcx
	je	.L1453
.L1415:
	mov	r10, rcx
	xor	eax, eax
	sub	r10, r9
	.p2align 5
	.p2align 4
	.p2align 3
.L1418:
	movzx	edx, BYTE PTR [r9+rax]
	mov	BYTE PTR [r12+rax], dl
	add	rax, 1
	cmp	rax, r10
	jne	.L1418
	mov	rdx, r12
	sub	rdx, r9
	add	rdx, rcx
.L1417:
	test	r13, r13
	je	.L1419
	.p2align 4
	.p2align 3
.L1422:
	mov	BYTE PTR [rdx], bl
	movzx	r10d, BYTE PTR 0[rbp]
	lea	r12, 1[rdx]
	test	r10b, r10b
	jle	.L1428
	xor	eax, eax
	.p2align 5
	.p2align 4
	.p2align 3
.L1421:
	movzx	r9d, BYTE PTR [rcx+rax]
	mov	BYTE PTR 1[rdx+rax], r9b
	add	rax, 1
	cmp	rax, r10
	jne	.L1421
	lea	rdx, [r12+rax]
	add	rcx, rax
.L1420:
	sub	rdi, 1
	jnb	.L1422
.L1419:
	test	r11, r11
	je	.L1408
	.p2align 4
	.p2align 3
.L1425:
	mov	BYTE PTR [rdx], bl
	movzx	r10d, BYTE PTR [r8+rsi]
	lea	rdi, 1[rdx]
	test	r10b, r10b
	jle	.L1429
	lea	r11d, -1[r10]
	xor	eax, eax
	movzx	r11d, r11b
	.p2align 5
	.p2align 4
	.p2align 3
.L1424:
	movzx	r9d, BYTE PTR [rcx+rax]
	mov	BYTE PTR 1[rdx+rax], r9b
	add	rax, 1
	cmp	r10, rax
	jne	.L1424
	lea	rdx, 1[rdi+r11]
	lea	rcx, 1[rcx+r11]
.L1423:
	sub	rsi, 1
	jnb	.L1425
.L1408:
	mov	rax, rdx
	pop	rbx
	pop	rsi
	pop	rdi
	pop	rbp
	pop	r12
	pop	r13
	ret
	.p2align 4,,10
	.p2align 3
.L1429:
	mov	rdx, rdi
	jmp	.L1423
	.p2align 4,,10
	.p2align 3
.L1428:
	mov	rdx, r12
	jmp	.L1420
.L1409:
	mov	rdx, r12
	cmp	rcx, r9
	je	.L1408
	mov	rbp, r8
	mov	rsi, -1
	xor	r13d, r13d
	xor	r11d, r11d
	mov	rdi, -1
	jmp	.L1415
.L1453:
	mov	rdx, r12
	jmp	.L1417
	.seh_endproc
	.section	.text$_ZNKSt8__format15__formatter_intIcE13_M_format_intINS_10_Sink_iterIcEEEENSt20basic_format_contextIT_cE8iteratorESt17basic_string_viewIcSt11char_traitsIcEEyRS7_,"x"
	.linkonce discard
	.align 2
	.p2align 4
	.globl	_ZNKSt8__format15__formatter_intIcE13_M_format_intINS_10_Sink_iterIcEEEENSt20basic_format_contextIT_cE8iteratorESt17basic_string_viewIcSt11char_traitsIcEEyRS7_
	.def	_ZNKSt8__format15__formatter_intIcE13_M_format_intINS_10_Sink_iterIcEEEENSt20basic_format_contextIT_cE8iteratorESt17basic_string_viewIcSt11char_traitsIcEEyRS7_;	.scl	2;	.type	32;	.endef
	.seh_proc	_ZNKSt8__format15__formatter_intIcE13_M_format_intINS_10_Sink_iterIcEEEENSt20basic_format_contextIT_cE8iteratorESt17basic_string_viewIcSt11char_traitsIcEEyRS7_
_ZNKSt8__format15__formatter_intIcE13_M_format_intINS_10_Sink_iterIcEEEENSt20basic_format_contextIT_cE8iteratorESt17basic_string_viewIcSt11char_traitsIcEEyRS7_:
.LFB5723:
	push	rbp
	.seh_pushreg	rbp
	push	r15
	.seh_pushreg	r15
	push	r14
	.seh_pushreg	r14
	push	r13
	.seh_pushreg	r13
	push	r12
	.seh_pushreg	r12
	push	rdi
	.seh_pushreg	rdi
	push	rsi
	.seh_pushreg	rsi
	push	rbx
	.seh_pushreg	rbx
	sub	rsp, 184
	.seh_stackalloc	184
	lea	rbp, 176[rsp]
	.seh_setframe	rbp, 176
	.seh_endprologue
	movzx	eax, WORD PTR [rcx]
	mov	r14, QWORD PTR [rdx]
	mov	r12, QWORD PTR 8[rdx]
	and	ax, 384
	mov	QWORD PTR 96[rbp], r8
	mov	r15, rcx
	mov	rsi, r9
	cmp	ax, 128
	je	.L1541
	cmp	ax, 256
	je	.L1457
	mov	rbx, r14
	mov	rdi, r12
	test	BYTE PTR [rcx], 32
	jne	.L1542
.L1459:
	mov	rsi, QWORD PTR 16[rsi]
	test	rbx, rbx
	jne	.L1543
.L1487:
	mov	rax, rsi
.L1539:
	lea	rsp, 8[rbp]
	pop	rbx
	pop	rsi
	pop	rdi
	pop	r12
	pop	r13
	pop	r14
	pop	r15
	pop	rbp
	ret
	.p2align 4,,10
	.p2align 3
.L1541:
	movzx	r13d, WORD PTR 4[rcx]
.L1456:
	mov	rbx, r14
	mov	rdi, r12
	test	BYTE PTR [r15], 32
	jne	.L1458
.L1472:
	cmp	rbx, r13
	jnb	.L1459
	movzx	eax, BYTE PTR [r15]
	mov	r9, r13
	mov	rsi, QWORD PTR 16[rsi]
	sub	r9, rbx
	mov	r8d, eax
	and	r8d, 3
	je	.L1492
	mov	eax, DWORD PTR 8[r15]
.L1493:
	mov	QWORD PTR -80[rbp], rbx
	lea	rdx, -80[rbp]
	mov	rcx, rsi
	mov	QWORD PTR -72[rbp], rdi
	mov	DWORD PTR 32[rsp], eax
.LEHB31:
	call	_ZNSt8__format14__write_paddedINS_10_Sink_iterIcEEcEET_S3_St17basic_string_viewIT0_St11char_traitsIS5_EENS_6_AlignEyDi
.LEHE31:
	jmp	.L1539
	.p2align 4,,10
	.p2align 3
.L1492:
	mov	r8d, 2
	test	al, 64
	je	.L1503
	mov	eax, 48
	cmp	QWORD PTR 96[rbp], 0
	je	.L1493
	cmp	QWORD PTR 96[rbp], rbx
	mov	r15, rbx
	cmovbe	r15, QWORD PTR 96[rbp]
	test	r15, r15
	jne	.L1544
.L1494:
	add	rdi, QWORD PTR 96[rbp]
	sub	rbx, QWORD PTR 96[rbp]
	mov	r8d, 2
	mov	eax, 48
	jmp	.L1493
	.p2align 4,,10
	.p2align 3
.L1542:
	xor	r13d, r13d
.L1458:
	lea	rdx, 24[rsi]
	cmp	BYTE PTR 32[rsi], 0
	je	.L1545
.L1473:
	lea	rax, -64[rbp]
	mov	rcx, rax
	mov	QWORD PTR -88[rbp], rax
	call	_ZNSt6localeC1ERKS_
	lea	rax, -32[rbp]
	mov	rdx, QWORD PTR -88[rbp]
	mov	rcx, rax
	mov	QWORD PTR -96[rbp], rax
.LEHB32:
	call	_ZNKSt6locale4nameB5cxx11Ev
	mov	rcx, QWORD PTR -32[rbp]
	lea	rax, -16[rbp]
	cmp	QWORD PTR -24[rbp], 1
	je	.L1546
.L1475:
	mov	QWORD PTR -104[rbp], rax
	cmp	rcx, rax
	je	.L1478
	mov	rax, QWORD PTR -16[rbp]
	lea	rdx, 1[rax]
	call	_ZdlPvy
.L1478:
	mov	rcx, QWORD PTR .refptr._ZNSt7__cxx118numpunctIcE2idE[rip]
	call	_ZNKSt6locale2id5_M_idEv
	mov	rdx, rax
	mov	rax, QWORD PTR -64[rbp]
	mov	rax, QWORD PTR 8[rax]
	mov	r9, QWORD PTR [rax+rdx*8]
	test	r9, r9
	je	.L1481
	mov	rax, QWORD PTR [r9]
	mov	rcx, QWORD PTR -96[rbp]
	mov	QWORD PTR -112[rbp], r9
	mov	rdx, r9
	call	[QWORD PTR 32[rax]]
.LEHE32:
	mov	r11, QWORD PTR -24[rbp]
	mov	r9, QWORD PTR -112[rbp]
	test	r11, r11
	je	.L1483
	mov	rdi, QWORD PTR 96[rbp]
	mov	rax, r14
	sub	rax, QWORD PTR 96[rbp]
	lea	rax, 15[rdi+rax*2]
	and	rax, -16
	call	___chkstk_ms
	sub	rsp, rax
	lea	rdi, 48[rsp]
	mov	QWORD PTR -112[rbp], rdi
	cmp	QWORD PTR 96[rbp], 0
	je	.L1484
	mov	r8, QWORD PTR 96[rbp]
	mov	rdx, r12
	mov	rcx, rdi
	mov	QWORD PTR -128[rbp], r9
	mov	QWORD PTR -120[rbp], r11
	call	memcpy
	mov	r9, QWORD PTR -128[rbp]
	mov	r11, QWORD PTR -120[rbp]
.L1484:
	mov	rbx, QWORD PTR 96[rbp]
	mov	rax, QWORD PTR [r9]
	mov	QWORD PTR -120[rbp], r11
	mov	rcx, r9
	add	rbx, r12
	add	r12, r14
	mov	r14, QWORD PTR -32[rbp]
.LEHB33:
	call	[QWORD PTR 24[rax]]
.LEHE33:
	mov	rcx, QWORD PTR 96[rbp]
	mov	QWORD PTR 32[rsp], rbx
	movsx	edx, al
	mov	r8, r14
	mov	QWORD PTR 40[rsp], r12
	mov	r9, QWORD PTR -120[rbp]
	add	rcx, rdi
	call	_ZSt14__add_groupingIcEPT_S1_S0_PKcyPKS0_S5_
	mov	rcx, QWORD PTR -32[rbp]
	sub	rax, rdi
	mov	rbx, rax
	cmp	rcx, QWORD PTR -104[rbp]
	je	.L1480
.L1500:
	mov	rax, QWORD PTR -16[rbp]
	lea	rdx, 1[rax]
	call	_ZdlPvy
	mov	rdi, QWORD PTR -112[rbp]
.L1480:
	mov	rcx, QWORD PTR -88[rbp]
	call	_ZNSt6localeD1Ev
	jmp	.L1472
	.p2align 4,,10
	.p2align 3
.L1503:
	mov	eax, 32
	jmp	.L1493
	.p2align 4,,10
	.p2align 3
.L1457:
	movzx	eax, BYTE PTR [r9]
	movzx	edx, WORD PTR 4[rcx]
	mov	rcx, rax
	and	ecx, 15
	cmp	rdx, rcx
	jnb	.L1460
	mov	rax, QWORD PTR [r9]
	lea	rcx, [rdx+rdx*4]
	sal	rdx, 4
	add	rdx, QWORD PTR 8[r9]
	movdqa	xmm2, XMMWORD PTR [rdx]
	shr	rax, 4
	shr	rax, cl
	movaps	XMMWORD PTR -64[rbp], xmm2
	and	eax, 31
.L1461:
	mov	BYTE PTR -48[rbp], al
	lea	rdx, .L1465[rip]
	movzx	eax, al
	movdqa	xmm0, XMMWORD PTR -64[rbp]
	movsxd	rax, DWORD PTR [rdx+rax*4]
	movdqa	xmm1, XMMWORD PTR -48[rbp]
	movaps	XMMWORD PTR -32[rbp], xmm0
	add	rax, rdx
	movaps	XMMWORD PTR -16[rbp], xmm1
	jmp	rax
	.section .rdata,"dr"
	.align 4
.L1465:
	.long	.L1462-.L1465
	.long	.L1470-.L1465
	.long	.L1470-.L1465
	.long	.L1469-.L1465
	.long	.L1468-.L1465
	.long	.L1467-.L1465
	.long	.L1466-.L1465
	.long	.L1470-.L1465
	.long	.L1470-.L1465
	.long	.L1470-.L1465
	.long	.L1470-.L1465
	.long	.L1470-.L1465
	.long	.L1470-.L1465
	.long	.L1470-.L1465
	.long	.L1470-.L1465
	.long	.L1470-.L1465
	.section	.text$_ZNKSt8__format15__formatter_intIcE13_M_format_intINS_10_Sink_iterIcEEEENSt20basic_format_contextIT_cE8iteratorESt17basic_string_viewIcSt11char_traitsIcEEyRS7_,"x"
	.linkonce discard
	.p2align 4,,10
	.p2align 3
.L1546:
	cmp	BYTE PTR [rcx], 67
	jne	.L1475
	cmp	rcx, rax
	je	.L1480
	mov	rax, QWORD PTR -16[rbp]
	lea	rdx, 1[rax]
	call	_ZdlPvy
	jmp	.L1480
	.p2align 4,,10
	.p2align 3
.L1543:
	mov	rcx, QWORD PTR 24[rsi]
	mov	r12, QWORD PTR 16[rsi]
	mov	rax, rcx
	sub	rax, QWORD PTR 8[rsi]
	sub	r12, rax
	cmp	rbx, r12
	jb	.L1488
	.p2align 4
	.p2align 3
.L1490:
	test	r12, r12
	je	.L1489
	mov	r8, r12
	mov	rdx, rdi
	call	memcpy
.L1489:
	mov	rax, QWORD PTR [rsi]
	add	QWORD PTR 24[rsi], r12
	mov	rcx, rsi
	add	rdi, r12
	sub	rbx, r12
.LEHB34:
	call	[QWORD PTR [rax]]
	mov	rcx, QWORD PTR 24[rsi]
	mov	r12, QWORD PTR 16[rsi]
	mov	rax, rcx
	sub	rax, QWORD PTR 8[rsi]
	sub	r12, rax
	cmp	rbx, r12
	jnb	.L1490
	test	rbx, rbx
	je	.L1487
.L1488:
	mov	r8, rbx
	mov	rdx, rdi
	call	memcpy
	add	QWORD PTR 24[rsi], rbx
	jmp	.L1487
	.p2align 4,,10
	.p2align 3
.L1545:
	mov	rcx, rdx
	mov	QWORD PTR -88[rbp], rdx
	call	_ZNSt6localeC1Ev
	mov	BYTE PTR 32[rsi], 1
	mov	rdx, QWORD PTR -88[rbp]
	jmp	.L1473
	.p2align 4,,10
	.p2align 3
.L1460:
	test	al, 15
	jne	.L1462
	mov	rax, QWORD PTR [r9]
	shr	rax, 4
	cmp	rdx, rax
	jb	.L1547
.L1462:
	call	_ZNSt8__format33__invalid_arg_id_in_format_stringEv
	.p2align 4,,10
	.p2align 3
.L1483:
	mov	rcx, QWORD PTR -32[rbp]
	cmp	rcx, QWORD PTR -104[rbp]
	je	.L1480
	mov	QWORD PTR -112[rbp], r12
	jmp	.L1500
	.p2align 4,,10
	.p2align 3
.L1544:
	mov	rcx, QWORD PTR 24[rsi]
	mov	r13, QWORD PTR 16[rsi]
	mov	r14, rdi
	mov	rax, rcx
	sub	rax, QWORD PTR 8[rsi]
	sub	r13, rax
	cmp	r15, r13
	jb	.L1495
	mov	r12, r9
	.p2align 4
	.p2align 3
.L1497:
	test	r13, r13
	je	.L1496
	mov	r8, r13
	mov	rdx, r14
	call	memcpy
.L1496:
	mov	rax, QWORD PTR [rsi]
	add	QWORD PTR 24[rsi], r13
	mov	rcx, rsi
	add	r14, r13
	sub	r15, r13
	call	[QWORD PTR [rax]]
	mov	rcx, QWORD PTR 24[rsi]
	mov	r13, QWORD PTR 16[rsi]
	mov	rax, rcx
	sub	rax, QWORD PTR 8[rsi]
	sub	r13, rax
	cmp	r15, r13
	jnb	.L1497
	mov	r9, r12
	test	r15, r15
	je	.L1494
.L1495:
	mov	r8, r15
	mov	rdx, r14
	mov	QWORD PTR -88[rbp], r9
	call	memcpy
	add	QWORD PTR 24[rsi], r15
	mov	r9, QWORD PTR -88[rbp]
	jmp	.L1494
.L1467:
	mov	r13, QWORD PTR -32[rbp]
	test	r13, r13
	jns	.L1456
.L1470:
	lea	rcx, .LC2[rip]
	call	_ZSt20__throw_format_errorPKc
.LEHE34:
	.p2align 4,,10
	.p2align 3
.L1468:
	mov	r13d, DWORD PTR -32[rbp]
	jmp	.L1456
.L1469:
	movsxd	r13, DWORD PTR -32[rbp]
	test	r13d, r13d
	jns	.L1456
	jmp	.L1470
	.p2align 4,,10
	.p2align 3
.L1466:
	mov	r13, QWORD PTR -32[rbp]
	jmp	.L1456
	.p2align 4,,10
	.p2align 3
.L1547:
	sal	rdx, 5
	add	rdx, QWORD PTR 8[r9]
	movdqu	xmm3, XMMWORD PTR [rdx]
	movaps	XMMWORD PTR -64[rbp], xmm3
	movzx	eax, BYTE PTR 16[rdx]
	mov	BYTE PTR -48[rbp], al
	movzx	eax, BYTE PTR 16[rdx]
	jmp	.L1461
.L1507:
	mov	rbx, rax
	jmp	.L1498
.L1506:
	mov	rbx, rax
	jmp	.L1499
.L1481:
.LEHB35:
	call	_ZSt16__throw_bad_castv
.LEHE35:
.L1498:
	mov	rcx, QWORD PTR -96[rbp]
	call	_ZNSt7__cxx1112basic_stringIcSt11char_traitsIcESaIcEE10_M_disposeEv
.L1499:
	mov	rcx, QWORD PTR -88[rbp]
	call	_ZNSt6localeD1Ev
	mov	rcx, rbx
.LEHB36:
	call	_Unwind_Resume
	nop
.LEHE36:
	.seh_handler	__gxx_personality_seh0, @unwind, @except
	.seh_handlerdata
.LLSDA5723:
	.byte	0xff
	.byte	0xff
	.byte	0x1
	.uleb128 .LLSDACSE5723-.LLSDACSB5723
.LLSDACSB5723:
	.uleb128 .LEHB31-.LFB5723
	.uleb128 .LEHE31-.LEHB31
	.uleb128 0
	.uleb128 0
	.uleb128 .LEHB32-.LFB5723
	.uleb128 .LEHE32-.LEHB32
	.uleb128 .L1506-.LFB5723
	.uleb128 0
	.uleb128 .LEHB33-.LFB5723
	.uleb128 .LEHE33-.LEHB33
	.uleb128 .L1507-.LFB5723
	.uleb128 0
	.uleb128 .LEHB34-.LFB5723
	.uleb128 .LEHE34-.LEHB34
	.uleb128 0
	.uleb128 0
	.uleb128 .LEHB35-.LFB5723
	.uleb128 .LEHE35-.LEHB35
	.uleb128 .L1506-.LFB5723
	.uleb128 0
	.uleb128 .LEHB36-.LFB5723
	.uleb128 .LEHE36-.LEHB36
	.uleb128 0
	.uleb128 0
.LLSDACSE5723:
	.section	.text$_ZNKSt8__format15__formatter_intIcE13_M_format_intINS_10_Sink_iterIcEEEENSt20basic_format_contextIT_cE8iteratorESt17basic_string_viewIcSt11char_traitsIcEEyRS7_,"x"
	.linkonce discard
	.seh_endproc
	.section .rdata,"dr"
.LC23:
	.ascii "0b\0"
.LC24:
	.ascii "0B\0"
.LC25:
	.ascii "0X\0"
.LC26:
	.ascii "0x\0"
.LC27:
	.ascii "0\0"
	.align 8
.LC28:
	.ascii "format error: integer not representable as character\0"
	.section	.text$_ZNKSt8__format15__formatter_intIcE6formatIhNS_10_Sink_iterIcEEEENSt20basic_format_contextIT0_cE8iteratorET_RS7_,"x"
	.linkonce discard
	.align 2
	.p2align 4
	.globl	_ZNKSt8__format15__formatter_intIcE6formatIhNS_10_Sink_iterIcEEEENSt20basic_format_contextIT0_cE8iteratorET_RS7_
	.def	_ZNKSt8__format15__formatter_intIcE6formatIhNS_10_Sink_iterIcEEEENSt20basic_format_contextIT0_cE8iteratorET_RS7_;	.scl	2;	.type	32;	.endef
	.seh_proc	_ZNKSt8__format15__formatter_intIcE6formatIhNS_10_Sink_iterIcEEEENSt20basic_format_contextIT0_cE8iteratorET_RS7_
_ZNKSt8__format15__formatter_intIcE6formatIhNS_10_Sink_iterIcEEEENSt20basic_format_contextIT0_cE8iteratorET_RS7_:
.LFB5565:
	push	r12
	.seh_pushreg	r12
	push	rdi
	.seh_pushreg	rdi
	push	rsi
	.seh_pushreg	rsi
	push	rbx
	.seh_pushreg	rbx
	sub	rsp, 312
	.seh_stackalloc	312
	.seh_endprologue
	movzx	eax, BYTE PTR 1[rcx]
	mov	r10, rcx
	mov	ecx, eax
	mov	r11d, edx
	and	ecx, 120
	cmp	cl, 56
	je	.L1605
	shr	al, 3
	and	eax, 15
	cmp	al, 4
	je	.L1552
	ja	.L1553
	cmp	al, 1
	jbe	.L1554
	lea	rbx, .LC23[rip]
	cmp	cl, 16
	lea	rax, .LC24[rip]
	cmove	rax, rbx
	mov	rsi, rax
	test	dl, dl
	jne	.L1606
	mov	eax, 48
	lea	r9, 88[rsp]
	lea	rbx, 87[rsp]
.L1559:
	mov	BYTE PTR 87[rsp], al
	movzx	eax, BYTE PTR [r10]
	test	al, 16
	je	.L1604
.L1593:
	mov	rdx, -2
	mov	ecx, 2
.L1563:
	add	rdx, rbx
	mov	edi, ecx
	test	ecx, ecx
	je	.L1564
	xor	ecx, ecx
.L1582:
	mov	r11d, ecx
	add	ecx, 1
	movzx	r12d, BYTE PTR [rsi+r11]
	mov	BYTE PTR [rdx+r11], r12b
	cmp	ecx, edi
	jb	.L1582
	jmp	.L1564
	.p2align 4,,10
	.p2align 3
.L1605:
	test	dl, dl
	js	.L1550
	mov	DWORD PTR 32[rsp], 1
	lea	rax, 96[rsp]
	lea	rcx, 64[rsp]
	mov	r9, r10
	mov	BYTE PTR 96[rsp], dl
	mov	edx, 1
	mov	QWORD PTR 64[rsp], 1
	mov	QWORD PTR 72[rsp], rax
	call	_ZNSt8__format22__write_padded_as_specIcNS_10_Sink_iterIcEEEET0_St17basic_string_viewINSt13type_identityIT_E4typeESt11char_traitsIS8_EEyRSt20basic_format_contextIS3_S6_ERKNS_5_SpecIS6_EENS_6_AlignE
	add	rsp, 312
	pop	rbx
	pop	rsi
	pop	rdi
	pop	r12
	ret
	.p2align 4,,10
	.p2align 3
.L1554:
	test	dl, dl
	je	.L1570
	movzx	eax, dl
	cmp	dl, 9
	jbe	.L1589
	movabs	rcx, 3688503277381496880
	movabs	rbx, 3976738051646829616
	mov	QWORD PTR 96[rsp], rcx
	movabs	rcx, 3544667369688283184
	mov	QWORD PTR 104[rsp], rbx
	movabs	rbx, 3832902143785906737
	mov	QWORD PTR 112[rsp], rcx
	movabs	rcx, 4121136918051239473
	mov	QWORD PTR 120[rsp], rbx
	movabs	rbx, 3689066235924983858
	mov	QWORD PTR 128[rsp], rcx
	movabs	rcx, 3977301010190316594
	mov	QWORD PTR 136[rsp], rbx
	movabs	rbx, 3545230328231770162
	mov	QWORD PTR 144[rsp], rcx
	movabs	rcx, 3833465102329393715
	mov	QWORD PTR 152[rsp], rbx
	movabs	rbx, 4121699876594726451
	mov	QWORD PTR 160[rsp], rcx
	movabs	rcx, 3689629194468470836
	mov	QWORD PTR 168[rsp], rbx
	movabs	rbx, 3977863968733803572
	mov	QWORD PTR 176[rsp], rcx
	movabs	rcx, 3545793286775257140
	mov	QWORD PTR 184[rsp], rbx
	movabs	rbx, 3834028060872880693
	mov	QWORD PTR 192[rsp], rcx
	movabs	rcx, 4122262835138213429
	mov	QWORD PTR 200[rsp], rbx
	movabs	rbx, 3690192153011957814
	mov	QWORD PTR 208[rsp], rcx
	movabs	rcx, 3978426927277290550
	mov	QWORD PTR 216[rsp], rbx
	movabs	rbx, 3546356245318744118
	mov	QWORD PTR 224[rsp], rcx
	movabs	rcx, 3834591019416367671
	mov	QWORD PTR 232[rsp], rbx
	movabs	rbx, 4122825793681700407
	mov	QWORD PTR 240[rsp], rcx
	movabs	rcx, 3690755111555444792
	mov	QWORD PTR 248[rsp], rbx
	movabs	rbx, 3978989885820777528
	mov	QWORD PTR 256[rsp], rcx
	movabs	rcx, 3546919203862231096
	mov	QWORD PTR 264[rsp], rbx
	movabs	rbx, 3835153977959854649
	mov	QWORD PTR 280[rsp], rbx
	movabs	rbx, 16106987313379638
	mov	QWORD PTR 272[rsp], rcx
	movabs	rcx, 4122263930388298034
	mov	QWORD PTR 281[rsp], rcx
	mov	QWORD PTR 289[rsp], rbx
	cmp	eax, 99
	jbe	.L1607
	mov	r11d, eax
	imul	r11, r11, 1374389535
	shr	r11, 37
	imul	edx, r11d, 100
	sub	eax, edx
	lea	eax, 1[rax+rax]
	movzx	eax, WORD PTR 95[rsp+rax]
	mov	WORD PTR 88[rsp], ax
	mov	eax, 3
.L1567:
	add	r11d, 48
.L1569:
	mov	BYTE PTR 87[rsp], r11b
	lea	rbx, 87[rsp]
	lea	r9, [rbx+rax]
.L1603:
	movzx	eax, BYTE PTR [r10]
	mov	rdx, rbx
.L1564:
	shr	al, 2
	and	eax, 3
	cmp	eax, 1
	je	.L1608
	cmp	eax, 3
	je	.L1595
.L1585:
	sub	rbx, rdx
	mov	rax, r9
	mov	QWORD PTR 72[rsp], rdx
	mov	r9, r8
	sub	rax, rdx
	mov	r8, rbx
	lea	rdx, 64[rsp]
	mov	rcx, r10
	mov	QWORD PTR 64[rsp], rax
	call	_ZNKSt8__format15__formatter_intIcE13_M_format_intINS_10_Sink_iterIcEEEENSt20basic_format_contextIT_cE8iteratorESt17basic_string_viewIcSt11char_traitsIcEEyRS7_
	add	rsp, 312
	pop	rbx
	pop	rsi
	pop	rdi
	pop	r12
	ret
	.p2align 4,,10
	.p2align 3
.L1552:
	test	dl, dl
	je	.L1570
	movzx	ecx, dl
	bsr	eax, ecx
	lea	r9d, 3[rax]
	mov	eax, 2863311531
	imul	r9, rax
	shr	r9, 33
	cmp	ecx, 63
	jbe	.L1609
	mov	eax, ecx
	and	edx, 7
	shr	ecx, 6
	shr	eax, 3
	add	edx, 48
	and	eax, 7
	mov	BYTE PTR 89[rsp], dl
	add	eax, 48
	mov	BYTE PTR 88[rsp], al
.L1573:
	add	ecx, 48
.L1574:
	lea	rbx, 87[rsp]
	mov	BYTE PTR 87[rsp], cl
	lea	rsi, .LC27[rip]
	mov	ecx, 1
	add	r9, rbx
.L1575:
	movzx	eax, BYTE PTR [r10]
	mov	rdx, rbx
	test	al, 16
	je	.L1564
	mov	rdx, rcx
	neg	rdx
	jmp	.L1563
	.p2align 4,,10
	.p2align 3
.L1608:
	mov	eax, 43
.L1586:
	mov	BYTE PTR -1[rdx], al
	sub	rdx, 1
	jmp	.L1585
	.p2align 4,,10
	.p2align 3
.L1570:
	mov	BYTE PTR 87[rsp], 48
	lea	r9, 88[rsp]
	lea	rbx, 87[rsp]
	jmp	.L1603
	.p2align 4,,10
	.p2align 3
.L1553:
	cmp	cl, 40
	je	.L1610
	test	dl, dl
	jne	.L1591
	mov	BYTE PTR 87[rsp], 48
	cmp	cl, 48
	je	.L1592
	lea	rsi, .LC25[rip]
	lea	r9, 88[rsp]
	lea	rbx, 87[rsp]
	jmp	.L1577
	.p2align 4,,10
	.p2align 3
.L1595:
	mov	eax, 32
	jmp	.L1586
	.p2align 4,,10
	.p2align 3
.L1591:
	lea	rsi, .LC25[rip]
.L1576:
	movabs	r11, 3978425819141910832
	movzx	ebx, dl
	movabs	r12, 7378413942531504440
	bsr	eax, ebx
	mov	QWORD PTR 96[rsp], r11
	add	eax, 4
	mov	QWORD PTR 104[rsp], r12
	shr	eax, 2
	cmp	ebx, 15
	ja	.L1611
	movzx	edx, BYTE PTR 96[rsp+rbx]
.L1580:
	lea	rbx, 87[rsp]
	mov	BYTE PTR 87[rsp], dl
	lea	r9, [rbx+rax]
	cmp	cl, 48
	je	.L1578
.L1577:
	movzx	eax, BYTE PTR [r10]
	test	al, 16
	jne	.L1593
.L1604:
	mov	rdx, rbx
	jmp	.L1564
	.p2align 4,,10
	.p2align 3
.L1606:
	movzx	edx, dl
	mov	eax, 32
	bsr	r9d, edx
	xor	r9d, 31
	sub	eax, r9d
	cdqe
	cmp	edx, 1
	je	.L1562
	mov	ebx, 31
	mov	r11d, 30
	sub	ebx, r9d
	sub	r11d, r9d
	lea	rcx, 84[rsp+rbx]
	lea	rbx, 83[rsp+rbx]
	sub	rbx, r11
	.p2align 5
	.p2align 4
	.p2align 3
.L1561:
	mov	r9d, edx
	sub	rcx, 1
	shr	edx
	and	r9d, 1
	add	r9d, 48
	mov	BYTE PTR 4[rcx], r9b
	cmp	rcx, rbx
	jne	.L1561
.L1562:
	lea	rbx, 87[rsp]
	lea	r9, [rbx+rax]
	mov	eax, 49
	jmp	.L1559
	.p2align 4,,10
	.p2align 3
.L1610:
	test	dl, dl
	jne	.L1590
	mov	BYTE PTR 87[rsp], 48
	lea	r9, 88[rsp]
	lea	rbx, 87[rsp]
	lea	rsi, .LC26[rip]
	jmp	.L1577
	.p2align 4,,10
	.p2align 3
.L1611:
	and	edx, 15
	shr	ebx, 4
	movzx	edx, BYTE PTR 96[rsp+rdx]
	mov	BYTE PTR 88[rsp], dl
	movzx	edx, BYTE PTR 96[rsp+rbx]
	jmp	.L1580
	.p2align 4,,10
	.p2align 3
.L1590:
	lea	rsi, .LC26[rip]
	jmp	.L1576
	.p2align 4,,10
	.p2align 3
.L1592:
	lea	r9, 88[rsp]
	lea	rsi, .LC25[rip]
	lea	rbx, 87[rsp]
.L1578:
	mov	rdx, rbx
	.p2align 4
	.p2align 3
.L1581:
	movsx	ecx, BYTE PTR [rdx]
	mov	QWORD PTR 368[rsp], r8
	mov	QWORD PTR 352[rsp], r10
	mov	QWORD PTR 56[rsp], r9
	mov	QWORD PTR 48[rsp], rdx
	call	toupper
	mov	rdx, QWORD PTR 48[rsp]
	mov	r9, QWORD PTR 56[rsp]
	mov	r10, QWORD PTR 352[rsp]
	mov	r8, QWORD PTR 368[rsp]
	mov	BYTE PTR [rdx], al
	add	rdx, 1
	cmp	rdx, r9
	jne	.L1581
	mov	ecx, 2
	jmp	.L1575
.L1607:
	add	eax, eax
	lea	edx, 1[rax]
	movzx	r11d, BYTE PTR 96[rsp+rax]
	mov	eax, 2
	movzx	edx, BYTE PTR 96[rsp+rdx]
	mov	BYTE PTR 88[rsp], dl
	jmp	.L1569
.L1589:
	mov	eax, 1
	jmp	.L1567
.L1609:
	cmp	ecx, 7
	jbe	.L1573
	and	edx, 7
	shr	ecx, 3
	add	edx, 48
	add	ecx, 48
	mov	BYTE PTR 88[rsp], dl
	jmp	.L1574
.L1550:
	lea	rcx, .LC28[rip]
	call	_ZSt20__throw_format_errorPKc
	nop
	.seh_endproc
	.section	.text$_ZNKSt8__format15__formatter_intIcE6formatINS_10_Sink_iterIcEEEENSt20basic_format_contextIT_cE8iteratorEbRS7_,"x"
	.linkonce discard
	.align 2
	.p2align 4
	.globl	_ZNKSt8__format15__formatter_intIcE6formatINS_10_Sink_iterIcEEEENSt20basic_format_contextIT_cE8iteratorEbRS7_
	.def	_ZNKSt8__format15__formatter_intIcE6formatINS_10_Sink_iterIcEEEENSt20basic_format_contextIT_cE8iteratorEbRS7_;	.scl	2;	.type	32;	.endef
	.seh_proc	_ZNKSt8__format15__formatter_intIcE6formatINS_10_Sink_iterIcEEEENSt20basic_format_contextIT_cE8iteratorEbRS7_
_ZNKSt8__format15__formatter_intIcE6formatINS_10_Sink_iterIcEEEENSt20basic_format_contextIT_cE8iteratorEbRS7_:
.LFB5548:
	push	rdi
	.seh_pushreg	rdi
	push	rsi
	.seh_pushreg	rsi
	push	rbx
	.seh_pushreg	rbx
	sub	rsp, 160
	.seh_stackalloc	160
	.seh_endprologue
	movzx	eax, BYTE PTR 1[rcx]
	and	eax, 120
	mov	r10, rcx
	mov	r9d, edx
	mov	r11, r8
	cmp	al, 56
	je	.L1682
	test	al, al
	jne	.L1683
	lea	rbx, 112[rsp]
	mov	BYTE PTR 112[rsp], 0
	mov	QWORD PTR 96[rsp], rbx
	mov	QWORD PTR 104[rsp], 0
	test	BYTE PTR [rcx], 32
	jne	.L1684
	test	dl, dl
	jne	.L1650
	mov	eax, 5
	lea	rdx, .LC10[rip]
.L1637:
	lea	rcx, 96[rsp]
	mov	rsi, rcx
	cmp	rdx, rbx
	je	.L1685
	mov	r8d, eax
	xor	ecx, ecx
	test	al, 4
	jne	.L1686
	and	r8d, 1
	jne	.L1687
.L1642:
	mov	rdx, rbx
.L1639:
	mov	QWORD PTR 104[rsp], rax
	mov	BYTE PTR [rdx+rax], 0
.L1681:
	mov	rdx, QWORD PTR 104[rsp]
	mov	rax, QWORD PTR 96[rsp]
	mov	r9, r10
	mov	r8, r11
	mov	DWORD PTR 32[rsp], 1
	lea	rcx, 80[rsp]
	lea	rsi, 96[rsp]
	mov	QWORD PTR 80[rsp], rdx
	mov	QWORD PTR 88[rsp], rax
.LEHB37:
	call	_ZNSt8__format22__write_padded_as_specIcNS_10_Sink_iterIcEEEET0_St17basic_string_viewINSt13type_identityIT_E4typeESt11char_traitsIS8_EEyRSt20basic_format_contextIS3_S6_ERKNS_5_SpecIS6_EENS_6_AlignE
.LEHE37:
	mov	rcx, QWORD PTR 96[rsp]
	cmp	rcx, rbx
	je	.L1659
	mov	QWORD PTR 48[rsp], rax
	mov	rax, QWORD PTR 112[rsp]
	lea	rdx, 1[rax]
	call	_ZdlPvy
	mov	rax, QWORD PTR 48[rsp]
.L1659:
	add	rsp, 160
	pop	rbx
	pop	rsi
	pop	rdi
	ret
	.p2align 4,,10
	.p2align 3
.L1683:
	movzx	edx, dl
	add	rsp, 160
	pop	rbx
	pop	rsi
	pop	rdi
.LEHB38:
	jmp	_ZNKSt8__format15__formatter_intIcE6formatIhNS_10_Sink_iterIcEEEENSt20basic_format_contextIT0_cE8iteratorET_RS7_
	.p2align 4,,10
	.p2align 3
.L1650:
	mov	eax, 4
	lea	rdx, .LC11[rip]
	jmp	.L1637
	.p2align 4,,10
	.p2align 3
.L1682:
	mov	DWORD PTR 32[rsp], 1
	lea	rax, 128[rsp]
	lea	rcx, 80[rsp]
	mov	r9, r10
	mov	BYTE PTR 128[rsp], dl
	mov	edx, 1
	mov	QWORD PTR 80[rsp], 1
	mov	QWORD PTR 88[rsp], rax
	call	_ZNSt8__format22__write_padded_as_specIcNS_10_Sink_iterIcEEEET0_St17basic_string_viewINSt13type_identityIT_E4typeESt11char_traitsIS8_EEyRSt20basic_format_contextIS3_S6_ERKNS_5_SpecIS6_EENS_6_AlignE
.LEHE38:
	add	rsp, 160
	pop	rbx
	pop	rsi
	pop	rdi
	ret
	.p2align 4,,10
	.p2align 3
.L1687:
	movzx	edx, BYTE PTR [rdx+rcx]
	mov	BYTE PTR 112[rsp+rcx], dl
	jmp	.L1642
	.p2align 4,,10
	.p2align 3
.L1686:
	mov	ecx, DWORD PTR [rdx]
	and	r8d, 1
	mov	DWORD PTR 112[rsp], ecx
	mov	ecx, 4
	je	.L1642
	jmp	.L1687
	.p2align 4,,10
	.p2align 3
.L1684:
	lea	rdx, 24[r8]
	cmp	BYTE PTR 32[r8], 0
	je	.L1688
.L1617:
	lea	rcx, 128[rsp]
	mov	QWORD PTR 72[rsp], r11
	lea	rdi, 128[rsp]
	mov	DWORD PTR 64[rsp], r9d
	mov	QWORD PTR 56[rsp], r10
	call	_ZNSt6localeC1ERKS_
	mov	rcx, QWORD PTR .refptr._ZNSt7__cxx118numpunctIcE2idE[rip]
	call	_ZNKSt6locale2id5_M_idEv
	mov	rdx, rax
	mov	rax, QWORD PTR 128[rsp]
	mov	rax, QWORD PTR 8[rax]
	mov	rdx, QWORD PTR [rax+rdx*8]
	test	rdx, rdx
	je	.L1618
	lea	rcx, 128[rsp]
	mov	QWORD PTR 48[rsp], rdx
	call	_ZNSt6localeD1Ev
	mov	rdx, QWORD PTR 48[rsp]
	cmp	BYTE PTR 64[rsp], 0
	mov	r10, QWORD PTR 56[rsp]
	mov	r11, QWORD PTR 72[rsp]
	mov	rax, QWORD PTR [rdx]
	jne	.L1619
	mov	QWORD PTR 56[rsp], r11
	lea	rsi, 96[rsp]
	mov	rcx, rdi
	mov	QWORD PTR 48[rsp], r10
.LEHB39:
	call	[QWORD PTR 48[rax]]
	mov	r11, QWORD PTR 56[rsp]
	mov	r10, QWORD PTR 48[rsp]
.L1621:
	mov	rax, QWORD PTR 96[rsp]
	mov	r9, rax
	cmp	rax, rbx
	je	.L1689
	mov	r8, QWORD PTR 128[rsp]
	lea	rdx, 144[rsp]
	mov	rcx, QWORD PTR 136[rsp]
	cmp	r8, rdx
	je	.L1647
	mov	r9, QWORD PTR 112[rsp]
	movq	xmm0, rcx
	mov	QWORD PTR 96[rsp], r8
	movhps	xmm0, QWORD PTR 144[rsp]
	movups	XMMWORD PTR 104[rsp], xmm0
	test	rax, rax
	je	.L1634
	mov	QWORD PTR 128[rsp], rax
	mov	QWORD PTR 144[rsp], r9
.L1633:
	mov	BYTE PTR [rax], 0
	mov	rcx, QWORD PTR 128[rsp]
	cmp	rcx, rdx
	je	.L1681
	mov	rax, QWORD PTR 144[rsp]
	mov	QWORD PTR 56[rsp], r11
	mov	QWORD PTR 48[rsp], r10
	lea	rdx, 1[rax]
	call	_ZdlPvy
	mov	r11, QWORD PTR 56[rsp]
	mov	r10, QWORD PTR 48[rsp]
	jmp	.L1681
	.p2align 4,,10
	.p2align 3
.L1619:
	mov	QWORD PTR 56[rsp], r11
	lea	rsi, 96[rsp]
	mov	rcx, rdi
	mov	QWORD PTR 48[rsp], r10
	call	[QWORD PTR 40[rax]]
.LEHE39:
	mov	r10, QWORD PTR 48[rsp]
	mov	r11, QWORD PTR 56[rsp]
	jmp	.L1621
	.p2align 4,,10
	.p2align 3
.L1688:
	mov	QWORD PTR 56[rsp], rcx
	mov	rcx, rdx
	mov	DWORD PTR 64[rsp], r9d
	mov	QWORD PTR 48[rsp], rdx
	mov	QWORD PTR 72[rsp], r8
	call	_ZNSt6localeC1Ev
	mov	r11, QWORD PTR 72[rsp]
	mov	r9d, DWORD PTR 64[rsp]
	mov	r10, QWORD PTR 56[rsp]
	mov	rdx, QWORD PTR 48[rsp]
	mov	BYTE PTR 32[r11], 1
	jmp	.L1617
.L1689:
	mov	rax, QWORD PTR 128[rsp]
	lea	rdx, 144[rsp]
	mov	rcx, QWORD PTR 136[rsp]
	cmp	rax, rdx
	je	.L1647
	movq	xmm0, QWORD PTR 136[rsp]
	mov	QWORD PTR 96[rsp], rax
	movhps	xmm0, QWORD PTR 144[rsp]
	movups	XMMWORD PTR 104[rsp], xmm0
.L1634:
	mov	QWORD PTR 128[rsp], rdx
	lea	rdx, 144[rsp]
	mov	rax, rdx
	jmp	.L1633
.L1647:
	test	rcx, rcx
	je	.L1624
	cmp	rcx, 1
	je	.L1690
	mov	eax, ecx
	cmp	ecx, 8
	jnb	.L1627
	test	cl, 4
	jne	.L1691
	test	ecx, ecx
	je	.L1624
	movzx	ecx, BYTE PTR 144[rsp]
	mov	BYTE PTR [r9], cl
	test	al, 2
	jne	.L1676
.L1680:
	mov	r9, QWORD PTR 96[rsp]
	mov	rcx, QWORD PTR 136[rsp]
.L1624:
	mov	QWORD PTR 104[rsp], rcx
	mov	BYTE PTR [r9+rcx], 0
	mov	rax, QWORD PTR 128[rsp]
	jmp	.L1633
.L1627:
	mov	rax, QWORD PTR 144[rsp]
	mov	rsi, rdx
	mov	QWORD PTR [r9], rax
	mov	eax, ecx
	mov	r8, QWORD PTR -8[rdx+rax]
	mov	QWORD PTR -8[r9+rax], r8
	lea	r8, 8[r9]
	mov	rax, r9
	and	r8, -8
	sub	rax, r8
	sub	rsi, rax
	add	eax, ecx
	and	eax, -8
	mov	rdi, rsi
	cmp	eax, 8
	jb	.L1680
	and	eax, -8
	xor	ecx, ecx
.L1631:
	mov	r9d, ecx
	add	ecx, 8
	mov	rsi, QWORD PTR [rdi+r9]
	mov	QWORD PTR [r8+r9], rsi
	cmp	ecx, eax
	jb	.L1631
	jmp	.L1680
.L1690:
	movzx	eax, BYTE PTR 144[rsp]
	mov	BYTE PTR [r9], al
	mov	r9, QWORD PTR 96[rsp]
	mov	rcx, QWORD PTR 136[rsp]
	jmp	.L1624
.L1691:
	mov	ecx, DWORD PTR 144[rsp]
	mov	DWORD PTR [r9], ecx
	mov	ecx, DWORD PTR -4[rdx+rax]
	mov	DWORD PTR -4[r9+rax], ecx
	mov	r9, QWORD PTR 96[rsp]
	mov	rcx, QWORD PTR 136[rsp]
	jmp	.L1624
.L1676:
	movzx	ecx, WORD PTR -2[rdx+rax]
	mov	WORD PTR -2[r9+rax], cx
	mov	r9, QWORD PTR 96[rsp]
	mov	rcx, QWORD PTR 136[rsp]
	jmp	.L1624
.L1618:
.LEHB40:
	call	_ZSt16__throw_bad_castv
.LEHE40:
.L1652:
	mov	rbx, rax
	jmp	.L1645
.L1685:
	xor	edx, edx
	mov	QWORD PTR 32[rsp], rax
	mov	r9, rbx
	xor	r8d, r8d
	mov	QWORD PTR 40[rsp], rdx
	mov	rdx, rbx
	mov	QWORD PTR 64[rsp], r11
	mov	QWORD PTR 56[rsp], r10
	mov	QWORD PTR 48[rsp], rax
.LEHB41:
	call	_ZNSt7__cxx1112basic_stringIcSt11char_traitsIcESaIcEE15_M_replace_coldEPcyPKcyy
.LEHE41:
	mov	r11, QWORD PTR 64[rsp]
	mov	r10, QWORD PTR 56[rsp]
	mov	rax, QWORD PTR 48[rsp]
	mov	rdx, QWORD PTR 96[rsp]
	jmp	.L1639
.L1651:
	mov	rbx, rax
.L1644:
	mov	rcx, rdi
	lea	rsi, 96[rsp]
	call	_ZNSt6localeD1Ev
.L1645:
	mov	rcx, rsi
	call	_ZNSt7__cxx1112basic_stringIcSt11char_traitsIcESaIcEE10_M_disposeEv
	mov	rcx, rbx
.LEHB42:
	call	_Unwind_Resume
	nop
.LEHE42:
	.seh_handler	__gxx_personality_seh0, @unwind, @except
	.seh_handlerdata
.LLSDA5548:
	.byte	0xff
	.byte	0xff
	.byte	0x1
	.uleb128 .LLSDACSE5548-.LLSDACSB5548
.LLSDACSB5548:
	.uleb128 .LEHB37-.LFB5548
	.uleb128 .LEHE37-.LEHB37
	.uleb128 .L1652-.LFB5548
	.uleb128 0
	.uleb128 .LEHB38-.LFB5548
	.uleb128 .LEHE38-.LEHB38
	.uleb128 0
	.uleb128 0
	.uleb128 .LEHB39-.LFB5548
	.uleb128 .LEHE39-.LEHB39
	.uleb128 .L1652-.LFB5548
	.uleb128 0
	.uleb128 .LEHB40-.LFB5548
	.uleb128 .LEHE40-.LEHB40
	.uleb128 .L1651-.LFB5548
	.uleb128 0
	.uleb128 .LEHB41-.LFB5548
	.uleb128 .LEHE41-.LEHB41
	.uleb128 .L1652-.LFB5548
	.uleb128 0
	.uleb128 .LEHB42-.LFB5548
	.uleb128 .LEHE42-.LEHB42
	.uleb128 0
	.uleb128 0
.LLSDACSE5548:
	.section	.text$_ZNKSt8__format15__formatter_intIcE6formatINS_10_Sink_iterIcEEEENSt20basic_format_contextIT_cE8iteratorEbRS7_,"x"
	.linkonce discard
	.seh_endproc
	.section	.text$_ZNKSt8__format15__formatter_intIcE6formatIiNS_10_Sink_iterIcEEEENSt20basic_format_contextIT0_cE8iteratorET_RS7_,"x"
	.linkonce discard
	.align 2
	.p2align 4
	.globl	_ZNKSt8__format15__formatter_intIcE6formatIiNS_10_Sink_iterIcEEEENSt20basic_format_contextIT0_cE8iteratorET_RS7_
	.def	_ZNKSt8__format15__formatter_intIcE6formatIiNS_10_Sink_iterIcEEEENSt20basic_format_contextIT0_cE8iteratorET_RS7_;	.scl	2;	.type	32;	.endef
	.seh_proc	_ZNKSt8__format15__formatter_intIcE6formatIiNS_10_Sink_iterIcEEEENSt20basic_format_contextIT0_cE8iteratorET_RS7_
_ZNKSt8__format15__formatter_intIcE6formatIiNS_10_Sink_iterIcEEEENSt20basic_format_contextIT0_cE8iteratorET_RS7_:
.LFB5566:
	push	r14
	.seh_pushreg	r14
	push	rdi
	.seh_pushreg	rdi
	push	rsi
	.seh_pushreg	rsi
	push	rbx
	.seh_pushreg	rbx
	sub	rsp, 328
	.seh_stackalloc	328
	.seh_endprologue
	mov	r10, rcx
	movzx	ecx, BYTE PTR 1[rcx]
	mov	eax, edx
	mov	ebx, ecx
	and	ebx, 120
	cmp	bl, 56
	je	.L1773
	shr	cl, 3
	and	ecx, 15
	test	edx, edx
	js	.L1774
	cmp	cl, 4
	je	.L1702
	ja	.L1703
	cmp	cl, 1
	jbe	.L1704
	lea	rdi, .LC23[rip]
	cmp	bl, 16
	lea	rcx, .LC24[rip]
	cmove	rcx, rdi
	mov	r14, rcx
	test	edx, edx
	jne	.L1700
	mov	eax, 48
	lea	rsi, 68[rsp]
	lea	rdi, 67[rsp]
.L1709:
	mov	BYTE PTR 67[rsp], al
	test	BYTE PTR [r10], 16
	je	.L1771
.L1756:
	mov	rax, -2
	mov	ecx, 2
.L1713:
	add	rax, rdi
	mov	r9d, ecx
	test	ecx, ecx
	je	.L1714
	xor	ecx, ecx
.L1738:
	mov	ebx, ecx
	add	ecx, 1
	movzx	r11d, BYTE PTR [r14+rbx]
	mov	BYTE PTR [rax+rbx], r11b
	cmp	ecx, r9d
	jb	.L1738
	.p2align 4
	.p2align 3
.L1714:
	lea	rbx, -1[rax]
	test	edx, edx
	js	.L1770
.L1780:
	movzx	ecx, BYTE PTR [r10]
.L1740:
	mov	edx, ecx
	shr	dl, 2
	and	edx, 3
	cmp	edx, 1
	je	.L1775
	cmp	edx, 3
	je	.L1776
.L1741:
	sub	rdi, rax
	sub	rsi, rax
	mov	r9, r8
	mov	rcx, r10
	lea	rdx, 48[rsp]
	mov	r8, rdi
	mov	QWORD PTR 48[rsp], rsi
	mov	QWORD PTR 56[rsp], rax
	call	_ZNKSt8__format15__formatter_intIcE13_M_format_intINS_10_Sink_iterIcEEEENSt20basic_format_contextIT_cE8iteratorESt17basic_string_viewIcSt11char_traitsIcEEyRS7_
	add	rsp, 328
	pop	rbx
	pop	rsi
	pop	rdi
	pop	r14
	ret
	.p2align 4,,10
	.p2align 3
.L1774:
	mov	eax, edx
	neg	eax
	cmp	cl, 4
	je	.L1697
	ja	.L1698
	cmp	cl, 1
	jbe	.L1699
	lea	rdi, .LC24[rip]
	cmp	bl, 16
	lea	rcx, .LC23[rip]
	cmovne	rcx, rdi
	mov	r14, rcx
.L1700:
	bsr	ebx, eax
	mov	r9d, 32
	xor	ebx, 31
	sub	r9d, ebx
	movsxd	r9, r9d
	cmp	eax, 1
	je	.L1777
	mov	esi, 31
	lea	rdi, 67[rsp]
	mov	r11d, 30
	sub	esi, ebx
	sub	r11d, ebx
	lea	rcx, [rdi+rsi]
	lea	rsi, 66[rsp+rsi]
	sub	rsi, r11
	.p2align 5
	.p2align 4
	.p2align 3
.L1711:
	mov	ebx, eax
	sub	rcx, 1
	shr	eax
	and	ebx, 1
	add	ebx, 48
	mov	BYTE PTR 1[rcx], bl
	cmp	rcx, rsi
	jne	.L1711
.L1712:
	lea	rsi, [rdi+r9]
	mov	eax, 49
	jmp	.L1709
	.p2align 4,,10
	.p2align 3
.L1773:
	lea	eax, 128[rdx]
	cmp	eax, 255
	ja	.L1694
	mov	DWORD PTR 32[rsp], 1
	lea	rax, 112[rsp]
	lea	rcx, 48[rsp]
	mov	r9, r10
	mov	BYTE PTR 112[rsp], dl
	mov	edx, 1
	mov	QWORD PTR 48[rsp], 1
	mov	QWORD PTR 56[rsp], rax
	call	_ZNSt8__format22__write_padded_as_specIcNS_10_Sink_iterIcEEEET0_St17basic_string_viewINSt13type_identityIT_E4typeESt11char_traitsIS8_EEyRSt20basic_format_contextIS3_S6_ERKNS_5_SpecIS6_EENS_6_AlignE
	add	rsp, 328
	pop	rbx
	pop	rsi
	pop	rdi
	pop	r14
	ret
	.p2align 4,,10
	.p2align 3
.L1703:
	cmp	bl, 40
	je	.L1778
	test	edx, edx
	jne	.L1754
	mov	BYTE PTR 67[rsp], 48
	cmp	bl, 48
	je	.L1755
	lea	r14, .LC25[rip]
	lea	rsi, 68[rsp]
	lea	rdi, 67[rsp]
	jmp	.L1732
	.p2align 4,,10
	.p2align 3
.L1698:
	lea	rdi, .LC26[rip]
	cmp	bl, 40
	lea	rcx, .LC25[rip]
	cmove	rcx, rdi
	mov	r14, rcx
.L1701:
	movabs	rsi, 3978425819141910832
	bsr	ecx, eax
	movabs	rdi, 7378413942531504440
	add	ecx, 4
	mov	QWORD PTR 112[rsp], rsi
	shr	ecx, 2
	mov	QWORD PTR 120[rsp], rdi
	mov	r9d, ecx
	cmp	eax, 255
	jbe	.L1733
	sub	ecx, 1
	.p2align 6
	.p2align 4
	.p2align 3
.L1734:
	mov	esi, eax
	mov	r11d, ecx
	and	esi, 15
	movzx	esi, BYTE PTR 112[rsp+rsi]
	mov	BYTE PTR 67[rsp+r11], sil
	mov	r11d, eax
	lea	esi, -1[rcx]
	shr	eax, 8
	shr	r11d, 4
	sub	ecx, 2
	and	r11d, 15
	movzx	r11d, BYTE PTR 112[rsp+r11]
	mov	BYTE PTR 67[rsp+rsi], r11b
	cmp	eax, 255
	ja	.L1734
.L1733:
	cmp	eax, 15
	ja	.L1779
	movzx	eax, BYTE PTR 112[rsp+rax]
.L1736:
	lea	rdi, 67[rsp]
	mov	BYTE PTR 67[rsp], al
	lea	rsi, [rdi+r9]
	cmp	bl, 48
	je	.L1731
.L1732:
	test	BYTE PTR [r10], 16
	jne	.L1756
	.p2align 4
	.p2align 3
.L1771:
	mov	rax, rdi
	lea	rbx, -1[rax]
	test	edx, edx
	jns	.L1780
.L1770:
	mov	BYTE PTR -1[rax], 45
.L1743:
	mov	rax, rbx
	jmp	.L1741
	.p2align 4,,10
	.p2align 3
.L1775:
	mov	BYTE PTR -1[rax], 43
	jmp	.L1743
	.p2align 4,,10
	.p2align 3
.L1704:
	test	edx, edx
	jne	.L1699
.L1772:
	mov	BYTE PTR 67[rsp], 48
	movzx	ecx, BYTE PTR [r10]
.L1715:
	lea	rdi, 67[rsp]
	lea	rsi, 68[rsp]
	mov	rax, rdi
	lea	rbx, 66[rsp]
	jmp	.L1740
	.p2align 4,,10
	.p2align 3
.L1702:
	test	edx, edx
	je	.L1772
	.p2align 4
	.p2align 3
.L1697:
	bsr	ecx, eax
	lea	r11d, 3[rcx]
	mov	ecx, 2863311531
	imul	r11, rcx
	shr	r11, 33
	mov	r9d, r11d
	cmp	eax, 63
	jbe	.L1726
	sub	r11d, 1
	.p2align 6
	.p2align 4
	.p2align 3
.L1727:
	mov	ecx, eax
	mov	ebx, r11d
	and	ecx, 7
	add	ecx, 48
	mov	BYTE PTR 67[rsp+rbx], cl
	mov	ecx, eax
	lea	ebx, -1[r11]
	shr	eax, 6
	shr	ecx, 3
	sub	r11d, 2
	and	ecx, 7
	add	ecx, 48
	mov	BYTE PTR 67[rsp+rbx], cl
	cmp	eax, 63
	ja	.L1727
.L1726:
	lea	ecx, 48[rax]
	cmp	eax, 7
	ja	.L1781
.L1729:
	lea	rdi, 67[rsp]
	mov	BYTE PTR 67[rsp], cl
	lea	r14, .LC27[rip]
	mov	ecx, 1
	lea	rsi, [rdi+r9]
.L1730:
	mov	rax, rdi
	test	BYTE PTR [r10], 16
	je	.L1714
	mov	rax, rcx
	neg	rax
	jmp	.L1713
	.p2align 4,,10
	.p2align 3
.L1776:
	mov	BYTE PTR -1[rax], 32
	jmp	.L1743
	.p2align 4,,10
	.p2align 3
.L1699:
	cmp	eax, 9
	jbe	.L1749
	mov	ecx, eax
	mov	r11d, 1
	mov	ebx, 3518437209
	jmp	.L1721
	.p2align 4,,10
	.p2align 3
.L1717:
	cmp	ecx, 999
	jbe	.L1782
	cmp	ecx, 9999
	jbe	.L1783
	mov	r9d, ecx
	add	r11d, 4
	imul	r9, rbx
	shr	r9, 45
	cmp	ecx, 99999
	jbe	.L1718
	mov	ecx, r9d
.L1721:
	cmp	ecx, 99
	ja	.L1717
	add	r11d, 1
.L1718:
	mov	ebx, r11d
	cmp	r11d, 32
	ja	.L1751
	movabs	rsi, 3688503277381496880
	movabs	rdi, 3976738051646829616
	mov	QWORD PTR 112[rsp], rsi
	movabs	rsi, 3544667369688283184
	mov	QWORD PTR 120[rsp], rdi
	movabs	rdi, 3832902143785906737
	mov	QWORD PTR 128[rsp], rsi
	movabs	rsi, 4121136918051239473
	mov	QWORD PTR 136[rsp], rdi
	movabs	rdi, 3689066235924983858
	mov	QWORD PTR 144[rsp], rsi
	movabs	rsi, 3977301010190316594
	mov	QWORD PTR 152[rsp], rdi
	movabs	rdi, 3545230328231770162
	mov	QWORD PTR 160[rsp], rsi
	movabs	rsi, 3833465102329393715
	mov	QWORD PTR 168[rsp], rdi
	movabs	rdi, 4121699876594726451
	mov	QWORD PTR 176[rsp], rsi
	movabs	rsi, 3689629194468470836
	mov	QWORD PTR 184[rsp], rdi
	movabs	rdi, 3977863968733803572
	mov	QWORD PTR 192[rsp], rsi
	movabs	rsi, 3545793286775257140
	mov	QWORD PTR 200[rsp], rdi
	movabs	rdi, 3834028060872880693
	mov	QWORD PTR 208[rsp], rsi
	movabs	rsi, 4122262835138213429
	mov	QWORD PTR 216[rsp], rdi
	movabs	rdi, 3690192153011957814
	mov	QWORD PTR 224[rsp], rsi
	movabs	rsi, 3978426927277290550
	mov	QWORD PTR 232[rsp], rdi
	movabs	rdi, 3546356245318744118
	mov	QWORD PTR 240[rsp], rsi
	movabs	rsi, 3834591019416367671
	mov	QWORD PTR 248[rsp], rdi
	movabs	rdi, 4122825793681700407
	mov	QWORD PTR 256[rsp], rsi
	movabs	rsi, 3690755111555444792
	mov	QWORD PTR 264[rsp], rdi
	movabs	rdi, 3978989885820777528
	mov	QWORD PTR 272[rsp], rsi
	movabs	rsi, 3546919203862231096
	mov	QWORD PTR 280[rsp], rdi
	movabs	rdi, 3835153977959854649
	mov	QWORD PTR 296[rsp], rdi
	movabs	rdi, 16106987313379638
	mov	QWORD PTR 288[rsp], rsi
	movabs	rsi, 4122263930388298034
	mov	QWORD PTR 297[rsp], rsi
	mov	QWORD PTR 305[rsp], rdi
	cmp	eax, 99
	jbe	.L1723
	lea	ecx, -1[r11]
	.p2align 4
	.p2align 3
.L1724:
	mov	r9d, eax
	mov	r11d, eax
	imul	r9, r9, 1374389535
	shr	r9, 37
	imul	esi, r9d, 100
	sub	r11d, esi
	mov	esi, eax
	mov	eax, r9d
	mov	r9d, ecx
	add	r11d, r11d
	lea	edi, 1[r11]
	movzx	r11d, BYTE PTR 112[rsp+r11]
	movzx	edi, BYTE PTR 112[rsp+rdi]
	mov	BYTE PTR 67[rsp+r9], dil
	lea	r9d, -1[rcx]
	sub	ecx, 2
	mov	BYTE PTR 67[rsp+r9], r11b
	cmp	esi, 9999
	ja	.L1724
	cmp	esi, 999
	ja	.L1723
.L1716:
	add	eax, 48
.L1725:
	lea	rdi, 67[rsp]
	mov	BYTE PTR 67[rsp], al
	lea	rsi, [rdi+rbx]
	jmp	.L1771
	.p2align 4,,10
	.p2align 3
.L1781:
	mov	ecx, eax
	shr	eax, 3
	and	ecx, 7
	add	ecx, 48
	mov	BYTE PTR 68[rsp], cl
	lea	ecx, 48[rax]
	jmp	.L1729
	.p2align 4,,10
	.p2align 3
.L1779:
	mov	ecx, eax
	shr	eax, 4
	and	ecx, 15
	movzx	ecx, BYTE PTR 112[rsp+rcx]
	mov	BYTE PTR 68[rsp], cl
	movzx	eax, BYTE PTR 112[rsp+rax]
	jmp	.L1736
	.p2align 4,,10
	.p2align 3
.L1723:
	add	eax, eax
	lea	ecx, 1[rax]
	movzx	eax, BYTE PTR 112[rsp+rax]
	movzx	ecx, BYTE PTR 112[rsp+rcx]
	mov	BYTE PTR 68[rsp], cl
	jmp	.L1725
	.p2align 4,,10
	.p2align 3
.L1755:
	lea	rsi, 68[rsp]
	lea	r14, .LC25[rip]
	lea	rdi, 67[rsp]
.L1731:
	mov	rbx, rdi
	.p2align 4
	.p2align 3
.L1737:
	movsx	ecx, BYTE PTR [rbx]
	mov	QWORD PTR 384[rsp], r8
	add	rbx, 1
	mov	DWORD PTR 376[rsp], edx
	mov	QWORD PTR 368[rsp], r10
	call	toupper
	mov	r10, QWORD PTR 368[rsp]
	mov	edx, DWORD PTR 376[rsp]
	mov	BYTE PTR -1[rbx], al
	cmp	rbx, rsi
	mov	r8, QWORD PTR 384[rsp]
	jne	.L1737
	mov	ecx, 2
	jmp	.L1730
	.p2align 4,,10
	.p2align 3
.L1778:
	test	edx, edx
	jne	.L1752
	movzx	ecx, BYTE PTR [r10]
	mov	BYTE PTR 67[rsp], 48
	test	cl, 16
	je	.L1715
	lea	rsi, 68[rsp]
	mov	ecx, 2
	lea	rdi, 67[rsp]
	mov	rax, -2
	lea	r14, .LC26[rip]
	jmp	.L1713
	.p2align 4,,10
	.p2align 3
.L1782:
	add	r11d, 2
	jmp	.L1718
	.p2align 4,,10
	.p2align 3
.L1783:
	add	r11d, 3
	jmp	.L1718
.L1754:
	lea	r14, .LC25[rip]
	jmp	.L1701
.L1777:
	lea	rdi, 67[rsp]
	jmp	.L1712
.L1751:
	lea	rsi, 99[rsp]
	lea	rdi, 67[rsp]
	jmp	.L1771
.L1752:
	lea	r14, .LC26[rip]
	jmp	.L1701
.L1749:
	mov	ebx, 1
	jmp	.L1716
.L1694:
	lea	rcx, .LC28[rip]
	call	_ZSt20__throw_format_errorPKc
	nop
	.seh_endproc
	.section	.text$_ZNKSt8__format15__formatter_intIcE6formatIjNS_10_Sink_iterIcEEEENSt20basic_format_contextIT0_cE8iteratorET_RS7_,"x"
	.linkonce discard
	.align 2
	.p2align 4
	.globl	_ZNKSt8__format15__formatter_intIcE6formatIjNS_10_Sink_iterIcEEEENSt20basic_format_contextIT0_cE8iteratorET_RS7_
	.def	_ZNKSt8__format15__formatter_intIcE6formatIjNS_10_Sink_iterIcEEEENSt20basic_format_contextIT0_cE8iteratorET_RS7_;	.scl	2;	.type	32;	.endef
	.seh_proc	_ZNKSt8__format15__formatter_intIcE6formatIjNS_10_Sink_iterIcEEEENSt20basic_format_contextIT0_cE8iteratorET_RS7_
_ZNKSt8__format15__formatter_intIcE6formatIjNS_10_Sink_iterIcEEEENSt20basic_format_contextIT0_cE8iteratorET_RS7_:
.LFB5568:
	push	r12
	.seh_pushreg	r12
	push	rdi
	.seh_pushreg	rdi
	push	rsi
	.seh_pushreg	rsi
	push	rbx
	.seh_pushreg	rbx
	sub	rsp, 344
	.seh_stackalloc	344
	.seh_endprologue
	mov	eax, edx
	movzx	edx, BYTE PTR 1[rcx]
	mov	r10, rcx
	mov	esi, edx
	and	esi, 120
	cmp	sil, 56
	je	.L1854
	shr	dl, 3
	and	edx, 15
	cmp	dl, 4
	je	.L1788
	ja	.L1789
	cmp	dl, 1
	jbe	.L1790
	lea	rbx, .LC23[rip]
	cmp	sil, 16
	lea	rdx, .LC24[rip]
	cmove	rdx, rbx
	mov	rdi, rdx
	test	eax, eax
	jne	.L1855
	mov	eax, 48
	lea	rdx, 84[rsp]
	lea	rbx, 83[rsp]
.L1795:
	mov	BYTE PTR 83[rsp], al
	movzx	eax, BYTE PTR [r10]
	test	al, 16
	je	.L1853
.L1840:
	mov	rcx, -2
	mov	r9d, 2
.L1799:
	add	rcx, rbx
	mov	r11d, r9d
	test	r9d, r9d
	je	.L1800
	xor	r9d, r9d
.L1827:
	mov	esi, r9d
	add	r9d, 1
	movzx	r12d, BYTE PTR [rdi+rsi]
	mov	BYTE PTR [rcx+rsi], r12b
	cmp	r9d, r11d
	jb	.L1827
	jmp	.L1800
	.p2align 4,,10
	.p2align 3
.L1854:
	cmp	eax, 127
	ja	.L1786
	mov	DWORD PTR 32[rsp], 1
	lea	rcx, 64[rsp]
	mov	r9, r10
	mov	edx, 1
	mov	BYTE PTR 128[rsp], al
	lea	rax, 128[rsp]
	mov	QWORD PTR 64[rsp], 1
	mov	QWORD PTR 72[rsp], rax
	call	_ZNSt8__format22__write_padded_as_specIcNS_10_Sink_iterIcEEEET0_St17basic_string_viewINSt13type_identityIT_E4typeESt11char_traitsIS8_EEyRSt20basic_format_contextIS3_S6_ERKNS_5_SpecIS6_EENS_6_AlignE
	add	rsp, 344
	pop	rbx
	pop	rsi
	pop	rdi
	pop	r12
	ret
	.p2align 4,,10
	.p2align 3
.L1790:
	test	eax, eax
	jne	.L1801
	mov	BYTE PTR 83[rsp], 48
	lea	rdx, 84[rsp]
	lea	rbx, 83[rsp]
.L1802:
	movzx	eax, BYTE PTR [r10]
	mov	rcx, rbx
.L1800:
	shr	al, 2
	and	eax, 3
	cmp	eax, 1
	je	.L1856
	cmp	eax, 3
	je	.L1842
.L1830:
	sub	rdx, rcx
	sub	rbx, rcx
	mov	QWORD PTR 72[rsp], rcx
	mov	r9, r8
	mov	QWORD PTR 64[rsp], rdx
	mov	r8, rbx
	lea	rdx, 64[rsp]
	mov	rcx, r10
	call	_ZNKSt8__format15__formatter_intIcE13_M_format_intINS_10_Sink_iterIcEEEENSt20basic_format_contextIT_cE8iteratorESt17basic_string_viewIcSt11char_traitsIcEEyRS7_
	add	rsp, 344
	pop	rbx
	pop	rsi
	pop	rdi
	pop	r12
	ret
	.p2align 4,,10
	.p2align 3
.L1788:
	test	eax, eax
	je	.L1812
	bsr	edx, eax
	lea	ecx, 3[rdx]
	mov	edx, 2863311531
	imul	rcx, rdx
	shr	rcx, 33
	mov	esi, ecx
	sub	ecx, 1
	cmp	eax, 63
	jbe	.L1814
	.p2align 6
	.p2align 4
	.p2align 3
.L1815:
	mov	r9d, eax
	mov	edx, eax
	mov	r11d, ecx
	shr	eax, 6
	and	r9d, 7
	shr	edx, 3
	add	r9d, 48
	and	edx, 7
	mov	BYTE PTR 83[rsp+r11], r9b
	add	edx, 48
	lea	r9d, -1[rcx]
	sub	ecx, 2
	mov	BYTE PTR 83[rsp+r9], dl
	cmp	eax, 63
	ja	.L1815
.L1814:
	lea	ecx, 48[rax]
	cmp	eax, 7
	ja	.L1857
.L1817:
	mov	BYTE PTR 83[rsp], cl
	lea	rbx, 83[rsp]
	lea	rdi, .LC27[rip]
	mov	r9d, 1
	lea	rdx, [rbx+rsi]
.L1818:
	movzx	eax, BYTE PTR [r10]
	mov	rcx, rbx
	test	al, 16
	je	.L1800
	mov	rcx, r9
	neg	rcx
	jmp	.L1799
	.p2align 4,,10
	.p2align 3
.L1856:
	mov	eax, 43
.L1831:
	mov	BYTE PTR -1[rcx], al
	sub	rcx, 1
	jmp	.L1830
	.p2align 4,,10
	.p2align 3
.L1789:
	cmp	sil, 40
	je	.L1858
	test	eax, eax
	jne	.L1838
	mov	BYTE PTR 83[rsp], 48
	cmp	sil, 48
	je	.L1839
	lea	rdi, .LC25[rip]
	lea	rdx, 84[rsp]
	lea	rbx, 83[rsp]
	jmp	.L1820
	.p2align 4,,10
	.p2align 3
.L1842:
	mov	eax, 32
	jmp	.L1831
	.p2align 4,,10
	.p2align 3
.L1838:
	lea	rdi, .LC25[rip]
.L1819:
	movabs	r11, 3978425819141910832
	bsr	edx, eax
	movabs	r12, 7378413942531504440
	lea	ecx, 4[rdx]
	mov	QWORD PTR 128[rsp], r11
	shr	ecx, 2
	mov	QWORD PTR 136[rsp], r12
	mov	edx, ecx
	cmp	eax, 255
	jbe	.L1822
	sub	ecx, 1
	.p2align 6
	.p2align 4
	.p2align 3
.L1823:
	mov	ebx, eax
	mov	r9d, ecx
	and	ebx, 15
	movzx	ebx, BYTE PTR 128[rsp+rbx]
	mov	BYTE PTR 83[rsp+r9], bl
	mov	r9d, eax
	lea	ebx, -1[rcx]
	shr	eax, 8
	shr	r9d, 4
	sub	ecx, 2
	and	r9d, 15
	movzx	r9d, BYTE PTR 128[rsp+r9]
	mov	BYTE PTR 83[rsp+rbx], r9b
	cmp	eax, 255
	ja	.L1823
.L1822:
	cmp	eax, 15
	ja	.L1859
	movzx	eax, BYTE PTR 128[rsp+rax]
.L1825:
	lea	rbx, 83[rsp]
	mov	BYTE PTR 83[rsp], al
	add	rdx, rbx
	cmp	sil, 48
	je	.L1821
.L1820:
	movzx	eax, BYTE PTR [r10]
	test	al, 16
	jne	.L1840
.L1853:
	mov	rcx, rbx
	jmp	.L1800
	.p2align 4,,10
	.p2align 3
.L1812:
	lea	rbx, 83[rsp]
	mov	BYTE PTR 83[rsp], 48
	movzx	eax, BYTE PTR [r10]
	lea	rdx, 84[rsp]
	mov	rcx, rbx
	jmp	.L1800
	.p2align 4,,10
	.p2align 3
.L1801:
	cmp	eax, 9
	jbe	.L1834
	mov	edx, eax
	mov	r9d, 1
	mov	r11d, 3518437209
	jmp	.L1808
	.p2align 4,,10
	.p2align 3
.L1804:
	cmp	edx, 999
	jbe	.L1860
	cmp	edx, 9999
	jbe	.L1861
	mov	ecx, edx
	add	r9d, 4
	imul	rcx, r11
	shr	rcx, 45
	cmp	edx, 99999
	jbe	.L1805
	mov	edx, ecx
.L1808:
	cmp	edx, 99
	ja	.L1804
	add	r9d, 1
.L1805:
	mov	r11d, r9d
	cmp	r9d, 32
	ja	.L1836
	movabs	rbx, 3688503277381496880
	movabs	rsi, 3976738051646829616
	mov	QWORD PTR 128[rsp], rbx
	movabs	rbx, 3544667369688283184
	mov	QWORD PTR 136[rsp], rsi
	movabs	rsi, 3832902143785906737
	mov	QWORD PTR 144[rsp], rbx
	movabs	rbx, 4121136918051239473
	mov	QWORD PTR 152[rsp], rsi
	movabs	rsi, 3689066235924983858
	mov	QWORD PTR 160[rsp], rbx
	movabs	rbx, 3977301010190316594
	mov	QWORD PTR 168[rsp], rsi
	movabs	rsi, 3545230328231770162
	mov	QWORD PTR 176[rsp], rbx
	movabs	rbx, 3833465102329393715
	mov	QWORD PTR 184[rsp], rsi
	movabs	rsi, 4121699876594726451
	mov	QWORD PTR 192[rsp], rbx
	movabs	rbx, 3689629194468470836
	mov	QWORD PTR 200[rsp], rsi
	movabs	rsi, 3977863968733803572
	mov	QWORD PTR 208[rsp], rbx
	movabs	rbx, 3545793286775257140
	mov	QWORD PTR 216[rsp], rsi
	movabs	rsi, 3834028060872880693
	mov	QWORD PTR 224[rsp], rbx
	movabs	rbx, 4122262835138213429
	mov	QWORD PTR 232[rsp], rsi
	movabs	rsi, 3690192153011957814
	mov	QWORD PTR 240[rsp], rbx
	movabs	rbx, 3978426927277290550
	mov	QWORD PTR 248[rsp], rsi
	movabs	rsi, 3546356245318744118
	mov	QWORD PTR 256[rsp], rbx
	movabs	rbx, 3834591019416367671
	mov	QWORD PTR 264[rsp], rsi
	movabs	rsi, 4122825793681700407
	mov	QWORD PTR 272[rsp], rbx
	movabs	rbx, 3690755111555444792
	mov	QWORD PTR 280[rsp], rsi
	movabs	rsi, 3978989885820777528
	mov	QWORD PTR 288[rsp], rbx
	movabs	rbx, 3546919203862231096
	mov	QWORD PTR 296[rsp], rsi
	movabs	rsi, 3835153977959854649
	mov	QWORD PTR 312[rsp], rsi
	movabs	rsi, 16106987313379638
	mov	QWORD PTR 304[rsp], rbx
	movabs	rbx, 4122263930388298034
	mov	QWORD PTR 313[rsp], rbx
	mov	QWORD PTR 321[rsp], rsi
	cmp	eax, 99
	jbe	.L1809
	lea	edx, -1[r9]
	.p2align 4
	.p2align 3
.L1810:
	mov	r9d, eax
	mov	ecx, eax
	imul	r9, r9, 1374389535
	shr	r9, 37
	imul	ebx, r9d, 100
	sub	ecx, ebx
	mov	ebx, eax
	mov	eax, r9d
	mov	r9d, edx
	add	ecx, ecx
	lea	esi, 1[rcx]
	movzx	ecx, BYTE PTR 128[rsp+rcx]
	movzx	esi, BYTE PTR 128[rsp+rsi]
	mov	BYTE PTR 83[rsp+r9], sil
	lea	r9d, -1[rdx]
	sub	edx, 2
	mov	BYTE PTR 83[rsp+r9], cl
	cmp	ebx, 9999
	ja	.L1810
	cmp	ebx, 999
	ja	.L1809
.L1803:
	add	eax, 48
.L1811:
	lea	rbx, 83[rsp]
	mov	BYTE PTR 83[rsp], al
	lea	rdx, [rbx+r11]
	jmp	.L1802
	.p2align 4,,10
	.p2align 3
.L1855:
	bsr	r9d, eax
	mov	edx, 32
	xor	r9d, 31
	sub	edx, r9d
	movsxd	rdx, edx
	cmp	eax, 1
	je	.L1862
	mov	esi, 31
	lea	rbx, 83[rsp]
	mov	r11d, 30
	sub	esi, r9d
	sub	r11d, r9d
	lea	rcx, [rbx+rsi]
	lea	rsi, 82[rsp+rsi]
	sub	rsi, r11
	.p2align 5
	.p2align 4
	.p2align 3
.L1797:
	mov	r9d, eax
	sub	rcx, 1
	shr	eax
	and	r9d, 1
	add	r9d, 48
	mov	BYTE PTR 1[rcx], r9b
	cmp	rsi, rcx
	jne	.L1797
.L1798:
	add	rdx, rbx
	mov	eax, 49
	jmp	.L1795
	.p2align 4,,10
	.p2align 3
.L1858:
	test	eax, eax
	jne	.L1837
	mov	BYTE PTR 83[rsp], 48
	lea	rdx, 84[rsp]
	lea	rbx, 83[rsp]
	lea	rdi, .LC26[rip]
	jmp	.L1820
	.p2align 4,,10
	.p2align 3
.L1859:
	mov	ecx, eax
	shr	eax, 4
	and	ecx, 15
	movzx	ecx, BYTE PTR 128[rsp+rcx]
	mov	BYTE PTR 84[rsp], cl
	movzx	eax, BYTE PTR 128[rsp+rax]
	jmp	.L1825
	.p2align 4,,10
	.p2align 3
.L1857:
	mov	edx, eax
	shr	eax, 3
	and	edx, 7
	lea	ecx, 48[rax]
	add	edx, 48
	mov	BYTE PTR 84[rsp], dl
	jmp	.L1817
	.p2align 4,,10
	.p2align 3
.L1809:
	add	eax, eax
	lea	edx, 1[rax]
	movzx	eax, BYTE PTR 128[rsp+rax]
	movzx	edx, BYTE PTR 128[rsp+rdx]
	mov	BYTE PTR 84[rsp], dl
	jmp	.L1811
	.p2align 4,,10
	.p2align 3
.L1837:
	lea	rdi, .LC26[rip]
	jmp	.L1819
	.p2align 4,,10
	.p2align 3
.L1839:
	lea	rdx, 84[rsp]
	lea	rdi, .LC25[rip]
	lea	rbx, 83[rsp]
.L1821:
	mov	rsi, rbx
	.p2align 4
	.p2align 3
.L1826:
	movsx	ecx, BYTE PTR [rsi]
	mov	QWORD PTR 56[rsp], rdx
	add	rsi, 1
	mov	QWORD PTR 400[rsp], r8
	mov	QWORD PTR 384[rsp], r10
	call	toupper
	mov	rdx, QWORD PTR 56[rsp]
	mov	r10, QWORD PTR 384[rsp]
	mov	BYTE PTR -1[rsi], al
	mov	r8, QWORD PTR 400[rsp]
	cmp	rsi, rdx
	jne	.L1826
	mov	r9d, 2
	jmp	.L1818
	.p2align 4,,10
	.p2align 3
.L1860:
	add	r9d, 2
	jmp	.L1805
	.p2align 4,,10
	.p2align 3
.L1861:
	add	r9d, 3
	jmp	.L1805
.L1862:
	lea	rbx, 83[rsp]
	jmp	.L1798
.L1836:
	lea	rdx, 115[rsp]
	lea	rbx, 83[rsp]
	jmp	.L1802
.L1834:
	mov	r11d, 1
	jmp	.L1803
.L1786:
	lea	rcx, .LC28[rip]
	call	_ZSt20__throw_format_errorPKc
	nop
	.seh_endproc
	.section	.text$_ZNKSt8__format15__formatter_intIcE6formatIxNS_10_Sink_iterIcEEEENSt20basic_format_contextIT0_cE8iteratorET_RS7_,"x"
	.linkonce discard
	.align 2
	.p2align 4
	.globl	_ZNKSt8__format15__formatter_intIcE6formatIxNS_10_Sink_iterIcEEEENSt20basic_format_contextIT0_cE8iteratorET_RS7_
	.def	_ZNKSt8__format15__formatter_intIcE6formatIxNS_10_Sink_iterIcEEEENSt20basic_format_contextIT0_cE8iteratorET_RS7_;	.scl	2;	.type	32;	.endef
	.seh_proc	_ZNKSt8__format15__formatter_intIcE6formatIxNS_10_Sink_iterIcEEEENSt20basic_format_contextIT0_cE8iteratorET_RS7_
_ZNKSt8__format15__formatter_intIcE6formatIxNS_10_Sink_iterIcEEEENSt20basic_format_contextIT0_cE8iteratorET_RS7_:
.LFB5570:
	push	r15
	.seh_pushreg	r15
	push	r14
	.seh_pushreg	r14
	push	rdi
	.seh_pushreg	rdi
	push	rsi
	.seh_pushreg	rsi
	push	rbx
	.seh_pushreg	rbx
	sub	rsp, 368
	.seh_stackalloc	368
	.seh_endprologue
	movzx	eax, BYTE PTR 1[rcx]
	mov	edi, eax
	and	edi, 120
	mov	rbx, rcx
	mov	r11, rdx
	mov	r10, rdx
	cmp	dil, 56
	je	.L1944
	shr	al, 3
	and	eax, 15
	test	rdx, rdx
	js	.L1945
	cmp	al, 4
	je	.L1873
	ja	.L1874
	cmp	al, 1
	jbe	.L1875
	lea	r9, .LC23[rip]
	cmp	dil, 16
	lea	rax, .LC24[rip]
	cmovne	r9, rax
	test	rdx, rdx
	jne	.L1871
	lea	rdx, 84[rsp]
	lea	rsi, 83[rsp]
	mov	eax, 48
.L1880:
	mov	BYTE PTR 83[rsp], al
	test	BYTE PTR [rbx], 16
	je	.L1942
.L1927:
	mov	rax, -2
	mov	ecx, 2
.L1884:
	add	rax, rsi
	mov	edi, ecx
	test	ecx, ecx
	je	.L1885
	xor	ecx, ecx
.L1909:
	mov	r10d, ecx
	add	ecx, 1
	movzx	r15d, BYTE PTR [r9+r10]
	mov	BYTE PTR [rax+r10], r15b
	cmp	ecx, edi
	jb	.L1909
	.p2align 4
	.p2align 3
.L1885:
	lea	r9, -1[rax]
	test	r11, r11
	js	.L1941
.L1951:
	movzx	ecx, BYTE PTR [rbx]
.L1911:
	shr	cl, 2
	and	ecx, 3
	cmp	ecx, 1
	je	.L1946
	cmp	ecx, 3
	je	.L1947
.L1912:
	sub	rdx, rax
	sub	rsi, rax
	mov	r9, r8
	mov	rcx, rbx
	mov	QWORD PTR 64[rsp], rdx
	mov	r8, rsi
	lea	rdx, 64[rsp]
	mov	QWORD PTR 72[rsp], rax
	call	_ZNKSt8__format15__formatter_intIcE13_M_format_intINS_10_Sink_iterIcEEEENSt20basic_format_contextIT_cE8iteratorESt17basic_string_viewIcSt11char_traitsIcEEyRS7_
	add	rsp, 368
	pop	rbx
	pop	rsi
	pop	rdi
	pop	r14
	pop	r15
	ret
	.p2align 4,,10
	.p2align 3
.L1945:
	neg	r10
	cmp	al, 4
	je	.L1868
	ja	.L1869
	cmp	al, 1
	jbe	.L1870
	lea	r9, .LC24[rip]
	cmp	dil, 16
	lea	rax, .LC23[rip]
	cmove	r9, rax
.L1871:
	bsr	rcx, r10
	mov	edx, 64
	xor	rcx, 63
	sub	edx, ecx
	movsxd	rdx, edx
	cmp	r10, 1
	je	.L1948
	mov	edi, 63
	lea	rsi, 83[rsp]
	mov	r15d, 62
	sub	edi, ecx
	sub	r15d, ecx
	lea	rax, [rsi+rdi]
	lea	rdi, 82[rsp+rdi]
	sub	rdi, r15
	.p2align 5
	.p2align 4
	.p2align 3
.L1882:
	mov	ecx, r10d
	sub	rax, 1
	shr	r10
	and	ecx, 1
	add	ecx, 48
	mov	BYTE PTR 1[rax], cl
	cmp	rax, rdi
	jne	.L1882
.L1883:
	add	rdx, rsi
	mov	eax, 49
	jmp	.L1880
	.p2align 4,,10
	.p2align 3
.L1944:
	lea	rax, 128[rdx]
	cmp	rax, 255
	ja	.L1865
	mov	DWORD PTR 32[rsp], 1
	lea	rax, 160[rsp]
	lea	rcx, 64[rsp]
	mov	r9, rbx
	mov	BYTE PTR 160[rsp], dl
	mov	edx, 1
	mov	QWORD PTR 64[rsp], 1
	mov	QWORD PTR 72[rsp], rax
	call	_ZNSt8__format22__write_padded_as_specIcNS_10_Sink_iterIcEEEET0_St17basic_string_viewINSt13type_identityIT_E4typeESt11char_traitsIS8_EEyRSt20basic_format_contextIS3_S6_ERKNS_5_SpecIS6_EENS_6_AlignE
	add	rsp, 368
	pop	rbx
	pop	rsi
	pop	rdi
	pop	r14
	pop	r15
	ret
	.p2align 4,,10
	.p2align 3
.L1874:
	cmp	dil, 40
	je	.L1949
	test	rdx, rdx
	jne	.L1925
	mov	BYTE PTR 83[rsp], 48
	cmp	dil, 48
	je	.L1926
	lea	r9, .LC25[rip]
	lea	rdx, 84[rsp]
	lea	rsi, 83[rsp]
	jmp	.L1903
	.p2align 4,,10
	.p2align 3
.L1869:
	lea	r9, .LC26[rip]
	cmp	dil, 40
	lea	rax, .LC25[rip]
	cmovne	r9, rax
.L1872:
	movabs	r14, 3978425819141910832
	bsr	rax, r10
	movabs	r15, 7378413942531504440
	add	eax, 4
	mov	QWORD PTR 160[rsp], r14
	shr	eax, 2
	mov	QWORD PTR 168[rsp], r15
	mov	edx, eax
	cmp	r10, 255
	jbe	.L1904
	sub	eax, 1
	.p2align 6
	.p2align 4
	.p2align 3
.L1905:
	mov	rsi, r10
	mov	ecx, eax
	and	esi, 15
	movzx	esi, BYTE PTR 160[rsp+rsi]
	mov	BYTE PTR 83[rsp+rcx], sil
	mov	rcx, r10
	lea	esi, -1[rax]
	shr	r10, 8
	shr	rcx, 4
	sub	eax, 2
	and	ecx, 15
	movzx	ecx, BYTE PTR 160[rsp+rcx]
	mov	BYTE PTR 83[rsp+rsi], cl
	cmp	r10, 255
	ja	.L1905
.L1904:
	cmp	r10, 15
	ja	.L1950
	movzx	eax, BYTE PTR 160[rsp+r10]
.L1907:
	lea	rsi, 83[rsp]
	mov	BYTE PTR 83[rsp], al
	add	rdx, rsi
	cmp	dil, 48
	je	.L1902
.L1903:
	test	BYTE PTR [rbx], 16
	jne	.L1927
	.p2align 4
	.p2align 3
.L1942:
	mov	rax, rsi
	lea	r9, -1[rax]
	test	r11, r11
	jns	.L1951
.L1941:
	mov	BYTE PTR -1[rax], 45
.L1914:
	mov	rax, r9
	jmp	.L1912
	.p2align 4,,10
	.p2align 3
.L1946:
	mov	BYTE PTR -1[rax], 43
	jmp	.L1914
	.p2align 4,,10
	.p2align 3
.L1875:
	test	rdx, rdx
	jne	.L1870
.L1943:
	mov	BYTE PTR 83[rsp], 48
	movzx	ecx, BYTE PTR [rbx]
.L1886:
	lea	rsi, 83[rsp]
	lea	rdx, 84[rsp]
	mov	rax, rsi
	lea	r9, 82[rsp]
	jmp	.L1911
	.p2align 4,,10
	.p2align 3
.L1873:
	test	rdx, rdx
	je	.L1943
	.p2align 4
	.p2align 3
.L1868:
	bsr	rax, r10
	lea	ecx, 3[rax]
	mov	eax, 2863311531
	imul	rcx, rax
	shr	rcx, 33
	mov	edx, ecx
	cmp	r10, 63
	jbe	.L1897
	sub	ecx, 1
	.p2align 6
	.p2align 4
	.p2align 3
.L1898:
	mov	rax, r10
	mov	r9d, ecx
	and	eax, 7
	add	eax, 48
	mov	BYTE PTR 83[rsp+r9], al
	mov	rax, r10
	lea	r9d, -1[rcx]
	shr	r10, 6
	shr	rax, 3
	sub	ecx, 2
	and	eax, 7
	add	eax, 48
	mov	BYTE PTR 83[rsp+r9], al
	cmp	r10, 63
	ja	.L1898
.L1897:
	lea	eax, 48[r10]
	cmp	r10, 7
	ja	.L1952
.L1900:
	mov	BYTE PTR 83[rsp], al
	lea	rsi, 83[rsp]
	mov	ecx, 1
	lea	r9, .LC27[rip]
	add	rdx, rsi
.L1901:
	mov	rax, rsi
	test	BYTE PTR [rbx], 16
	je	.L1885
	mov	rax, rcx
	neg	rax
	jmp	.L1884
	.p2align 4,,10
	.p2align 3
.L1947:
	mov	BYTE PTR -1[rax], 32
	jmp	.L1914
	.p2align 4,,10
	.p2align 3
.L1870:
	cmp	r10, 9
	jbe	.L1920
	mov	rcx, r10
	mov	r9d, 1
	movabs	rsi, 3777893186295716171
	jmp	.L1892
	.p2align 4,,10
	.p2align 3
.L1888:
	cmp	rcx, 999
	jbe	.L1953
	cmp	rcx, 9999
	jbe	.L1954
	mov	rax, rcx
	add	r9d, 4
	mul	rsi
	cmp	rcx, 99999
	jbe	.L1889
	shr	rdx, 11
	mov	rcx, rdx
.L1892:
	cmp	rcx, 99
	ja	.L1888
	add	r9d, 1
.L1889:
	mov	edi, r9d
	cmp	r9d, 64
	ja	.L1922
	movabs	rax, 3688503277381496880
	movabs	rdx, 3976738051646829616
	mov	QWORD PTR 160[rsp], rax
	movabs	rax, 3544667369688283184
	mov	QWORD PTR 168[rsp], rdx
	movabs	rdx, 3832902143785906737
	mov	QWORD PTR 176[rsp], rax
	movabs	rax, 4121136918051239473
	mov	QWORD PTR 184[rsp], rdx
	movabs	rdx, 3689066235924983858
	mov	QWORD PTR 192[rsp], rax
	movabs	rax, 3977301010190316594
	mov	QWORD PTR 200[rsp], rdx
	movabs	rdx, 3545230328231770162
	mov	QWORD PTR 208[rsp], rax
	movabs	rax, 3833465102329393715
	mov	QWORD PTR 216[rsp], rdx
	movabs	rdx, 4121699876594726451
	mov	QWORD PTR 224[rsp], rax
	movabs	rax, 3689629194468470836
	mov	QWORD PTR 232[rsp], rdx
	movabs	rdx, 3977863968733803572
	mov	QWORD PTR 240[rsp], rax
	movabs	rax, 3545793286775257140
	mov	QWORD PTR 248[rsp], rdx
	movabs	rdx, 3834028060872880693
	mov	QWORD PTR 256[rsp], rax
	movabs	rax, 4122262835138213429
	mov	QWORD PTR 264[rsp], rdx
	movabs	rdx, 3690192153011957814
	mov	QWORD PTR 272[rsp], rax
	movabs	rax, 3978426927277290550
	mov	QWORD PTR 280[rsp], rdx
	movabs	rdx, 3546356245318744118
	mov	QWORD PTR 288[rsp], rax
	movabs	rax, 3834591019416367671
	mov	QWORD PTR 296[rsp], rdx
	movabs	rdx, 4122825793681700407
	mov	QWORD PTR 304[rsp], rax
	movabs	rax, 3690755111555444792
	mov	QWORD PTR 312[rsp], rdx
	movabs	rdx, 3978989885820777528
	mov	QWORD PTR 320[rsp], rax
	movabs	rax, 3546919203862231096
	mov	QWORD PTR 328[rsp], rdx
	movabs	rdx, 3835153977959854649
	mov	QWORD PTR 344[rsp], rdx
	movabs	rdx, 16106987313379638
	mov	QWORD PTR 336[rsp], rax
	movabs	rax, 4122263930388298034
	mov	QWORD PTR 345[rsp], rax
	mov	QWORD PTR 353[rsp], rdx
	cmp	r10, 99
	jbe	.L1894
	movabs	rsi, 2951479051793528259
	lea	ecx, -1[r9]
	.p2align 4
	.p2align 3
.L1895:
	mov	rdx, r10
	shr	rdx, 2
	mov	rax, rdx
	mul	rsi
	mov	rax, r10
	shr	rdx, 2
	imul	r9, rdx, 100
	sub	rax, r9
	mov	r9, r10
	mov	r10, rdx
	mov	edx, ecx
	movzx	r14d, BYTE PTR 161[rsp+rax*2]
	movzx	eax, BYTE PTR 160[rsp+rax*2]
	mov	BYTE PTR 83[rsp+rdx], r14b
	lea	edx, -1[rcx]
	sub	ecx, 2
	mov	BYTE PTR 83[rsp+rdx], al
	cmp	r9, 9999
	ja	.L1895
	cmp	r9, 999
	ja	.L1894
.L1887:
	add	r10d, 48
.L1896:
	lea	rsi, 83[rsp]
	mov	BYTE PTR 83[rsp], r10b
	lea	rdx, [rsi+rdi]
	jmp	.L1942
	.p2align 4,,10
	.p2align 3
.L1952:
	mov	rax, r10
	and	eax, 7
	add	eax, 48
	mov	BYTE PTR 84[rsp], al
	mov	rax, r10
	shr	rax, 3
	add	eax, 48
	jmp	.L1900
	.p2align 4,,10
	.p2align 3
.L1950:
	mov	rax, r10
	shr	r10, 4
	and	eax, 15
	movzx	eax, BYTE PTR 160[rsp+rax]
	mov	BYTE PTR 84[rsp], al
	movzx	eax, BYTE PTR 160[rsp+r10]
	jmp	.L1907
	.p2align 4,,10
	.p2align 3
.L1894:
	movzx	eax, BYTE PTR 161[rsp+r10*2]
	movzx	r10d, BYTE PTR 160[rsp+r10*2]
	mov	BYTE PTR 84[rsp], al
	jmp	.L1896
	.p2align 4,,10
	.p2align 3
.L1926:
	lea	rdx, 84[rsp]
	lea	r9, .LC25[rip]
	lea	rsi, 83[rsp]
.L1902:
	mov	rdi, rsi
	.p2align 4
	.p2align 3
.L1908:
	movsx	ecx, BYTE PTR [rdi]
	mov	QWORD PTR 56[rsp], rdx
	add	rdi, 1
	mov	QWORD PTR 432[rsp], r8
	mov	QWORD PTR 424[rsp], r11
	mov	QWORD PTR 48[rsp], r9
	call	toupper
	mov	rdx, QWORD PTR 56[rsp]
	mov	r9, QWORD PTR 48[rsp]
	mov	BYTE PTR -1[rdi], al
	mov	r11, QWORD PTR 424[rsp]
	cmp	rdx, rdi
	mov	r8, QWORD PTR 432[rsp]
	jne	.L1908
	mov	ecx, 2
	jmp	.L1901
	.p2align 4,,10
	.p2align 3
.L1949:
	test	rdx, rdx
	jne	.L1923
	movzx	ecx, BYTE PTR [rcx]
	mov	BYTE PTR 83[rsp], 48
	test	cl, 16
	je	.L1886
	lea	rdx, 84[rsp]
	mov	ecx, 2
	lea	rsi, 83[rsp]
	mov	rax, -2
	lea	r9, .LC26[rip]
	jmp	.L1884
	.p2align 4,,10
	.p2align 3
.L1953:
	add	r9d, 2
	jmp	.L1889
	.p2align 4,,10
	.p2align 3
.L1954:
	add	r9d, 3
	jmp	.L1889
.L1925:
	lea	r9, .LC25[rip]
	jmp	.L1872
.L1948:
	lea	rsi, 83[rsp]
	jmp	.L1883
.L1922:
	lea	rdx, 147[rsp]
	lea	rsi, 83[rsp]
	jmp	.L1942
.L1923:
	lea	r9, .LC26[rip]
	jmp	.L1872
.L1920:
	mov	edi, 1
	jmp	.L1887
.L1865:
	lea	rcx, .LC28[rip]
	call	_ZSt20__throw_format_errorPKc
	nop
	.seh_endproc
	.section	.text$_ZNKSt8__format15__formatter_intIcE6formatIyNS_10_Sink_iterIcEEEENSt20basic_format_contextIT0_cE8iteratorET_RS7_,"x"
	.linkonce discard
	.align 2
	.p2align 4
	.globl	_ZNKSt8__format15__formatter_intIcE6formatIyNS_10_Sink_iterIcEEEENSt20basic_format_contextIT0_cE8iteratorET_RS7_
	.def	_ZNKSt8__format15__formatter_intIcE6formatIyNS_10_Sink_iterIcEEEENSt20basic_format_contextIT0_cE8iteratorET_RS7_;	.scl	2;	.type	32;	.endef
	.seh_proc	_ZNKSt8__format15__formatter_intIcE6formatIyNS_10_Sink_iterIcEEEENSt20basic_format_contextIT0_cE8iteratorET_RS7_
_ZNKSt8__format15__formatter_intIcE6formatIyNS_10_Sink_iterIcEEEENSt20basic_format_contextIT0_cE8iteratorET_RS7_:
.LFB5572:
	push	r14
	.seh_pushreg	r14
	push	rdi
	.seh_pushreg	rdi
	push	rsi
	.seh_pushreg	rsi
	push	rbx
	.seh_pushreg	rbx
	sub	rsp, 376
	.seh_stackalloc	376
	.seh_endprologue
	movzx	eax, BYTE PTR 1[rcx]
	mov	esi, eax
	and	esi, 120
	mov	r11, rcx
	mov	r10, rdx
	cmp	sil, 56
	je	.L2025
	shr	al, 3
	and	eax, 15
	cmp	al, 4
	je	.L1959
	ja	.L1960
	cmp	al, 1
	jbe	.L1961
	lea	rdi, .LC23[rip]
	cmp	sil, 16
	lea	rax, .LC24[rip]
	cmove	rax, rdi
	mov	r14, rax
	test	rdx, rdx
	jne	.L2026
	mov	eax, 48
	lea	rdx, 84[rsp]
	lea	rbx, 83[rsp]
.L1966:
	mov	BYTE PTR 83[rsp], al
	movzx	eax, BYTE PTR [r11]
	test	al, 16
	je	.L2024
.L2011:
	mov	rcx, -2
	mov	r10d, 2
.L1970:
	add	rcx, rbx
	mov	r9d, r10d
	test	r10d, r10d
	je	.L1971
	xor	r10d, r10d
.L1998:
	mov	esi, r10d
	add	r10d, 1
	movzx	edi, BYTE PTR [r14+rsi]
	mov	BYTE PTR [rcx+rsi], dil
	cmp	r10d, r9d
	jb	.L1998
	jmp	.L1971
	.p2align 4,,10
	.p2align 3
.L2025:
	cmp	rdx, 127
	ja	.L1957
	mov	DWORD PTR 32[rsp], 1
	lea	rax, 160[rsp]
	lea	rcx, 64[rsp]
	mov	r9, r11
	mov	BYTE PTR 160[rsp], dl
	mov	edx, 1
	mov	QWORD PTR 64[rsp], 1
	mov	QWORD PTR 72[rsp], rax
	call	_ZNSt8__format22__write_padded_as_specIcNS_10_Sink_iterIcEEEET0_St17basic_string_viewINSt13type_identityIT_E4typeESt11char_traitsIS8_EEyRSt20basic_format_contextIS3_S6_ERKNS_5_SpecIS6_EENS_6_AlignE
	add	rsp, 376
	pop	rbx
	pop	rsi
	pop	rdi
	pop	r14
	ret
	.p2align 4,,10
	.p2align 3
.L1961:
	test	rdx, rdx
	jne	.L1972
	mov	BYTE PTR 83[rsp], 48
	lea	rdx, 84[rsp]
	lea	rbx, 83[rsp]
.L1973:
	movzx	eax, BYTE PTR [r11]
	mov	rcx, rbx
.L1971:
	shr	al, 2
	and	eax, 3
	cmp	eax, 1
	je	.L2027
	cmp	eax, 3
	je	.L2013
.L2001:
	sub	rdx, rcx
	sub	rbx, rcx
	mov	QWORD PTR 72[rsp], rcx
	mov	r9, r8
	mov	QWORD PTR 64[rsp], rdx
	mov	r8, rbx
	lea	rdx, 64[rsp]
	mov	rcx, r11
	call	_ZNKSt8__format15__formatter_intIcE13_M_format_intINS_10_Sink_iterIcEEEENSt20basic_format_contextIT_cE8iteratorESt17basic_string_viewIcSt11char_traitsIcEEyRS7_
	add	rsp, 376
	pop	rbx
	pop	rsi
	pop	rdi
	pop	r14
	ret
	.p2align 4,,10
	.p2align 3
.L1959:
	test	rdx, rdx
	je	.L1983
	bsr	rax, rdx
	lea	ecx, 3[rax]
	mov	eax, 2863311531
	imul	rcx, rax
	shr	rcx, 33
	mov	edx, ecx
	sub	ecx, 1
	cmp	r10, 63
	jbe	.L1985
	.p2align 6
	.p2align 4
	.p2align 3
.L1986:
	mov	rax, r10
	mov	r9d, ecx
	and	eax, 7
	add	eax, 48
	mov	BYTE PTR 83[rsp+r9], al
	mov	rax, r10
	lea	r9d, -1[rcx]
	shr	r10, 6
	shr	rax, 3
	sub	ecx, 2
	and	eax, 7
	add	eax, 48
	mov	BYTE PTR 83[rsp+r9], al
	cmp	r10, 63
	ja	.L1986
.L1985:
	lea	eax, 48[r10]
	cmp	r10, 7
	ja	.L2028
.L1988:
	mov	BYTE PTR 83[rsp], al
	lea	rbx, 83[rsp]
	lea	r14, .LC27[rip]
	mov	r10d, 1
	add	rdx, rbx
.L1989:
	movzx	eax, BYTE PTR [r11]
	mov	rcx, rbx
	test	al, 16
	je	.L1971
	mov	rcx, r10
	neg	rcx
	jmp	.L1970
	.p2align 4,,10
	.p2align 3
.L2027:
	mov	eax, 43
.L2002:
	mov	BYTE PTR -1[rcx], al
	sub	rcx, 1
	jmp	.L2001
	.p2align 4,,10
	.p2align 3
.L1960:
	cmp	sil, 40
	je	.L2029
	test	rdx, rdx
	jne	.L2009
	mov	BYTE PTR 83[rsp], 48
	cmp	sil, 48
	je	.L2010
	lea	r14, .LC25[rip]
	lea	rdx, 84[rsp]
	lea	rbx, 83[rsp]
	jmp	.L1991
	.p2align 4,,10
	.p2align 3
.L2013:
	mov	eax, 32
	jmp	.L2002
	.p2align 4,,10
	.p2align 3
.L2009:
	lea	r14, .LC25[rip]
.L1990:
	movabs	rcx, 3978425819141910832
	bsr	rax, r10
	movabs	rbx, 7378413942531504440
	add	eax, 4
	mov	QWORD PTR 160[rsp], rcx
	shr	eax, 2
	mov	QWORD PTR 168[rsp], rbx
	mov	edx, eax
	cmp	r10, 255
	jbe	.L1993
	sub	eax, 1
	.p2align 6
	.p2align 4
	.p2align 3
.L1994:
	mov	rbx, r10
	mov	ecx, eax
	and	ebx, 15
	movzx	ebx, BYTE PTR 160[rsp+rbx]
	mov	BYTE PTR 83[rsp+rcx], bl
	mov	rcx, r10
	lea	ebx, -1[rax]
	shr	r10, 8
	shr	rcx, 4
	sub	eax, 2
	and	ecx, 15
	movzx	ecx, BYTE PTR 160[rsp+rcx]
	mov	BYTE PTR 83[rsp+rbx], cl
	cmp	r10, 255
	ja	.L1994
.L1993:
	cmp	r10, 15
	ja	.L2030
	movzx	eax, BYTE PTR 160[rsp+r10]
.L1996:
	lea	rbx, 83[rsp]
	mov	BYTE PTR 83[rsp], al
	add	rdx, rbx
	cmp	sil, 48
	je	.L1992
.L1991:
	movzx	eax, BYTE PTR [r11]
	test	al, 16
	jne	.L2011
.L2024:
	mov	rcx, rbx
	jmp	.L1971
	.p2align 4,,10
	.p2align 3
.L1983:
	lea	rbx, 83[rsp]
	mov	BYTE PTR 83[rsp], 48
	movzx	eax, BYTE PTR [r11]
	lea	rdx, 84[rsp]
	mov	rcx, rbx
	jmp	.L1971
	.p2align 4,,10
	.p2align 3
.L1972:
	cmp	rdx, 9
	jbe	.L2005
	mov	rcx, rdx
	mov	r9d, 1
	movabs	rbx, 3777893186295716171
	jmp	.L1979
	.p2align 4,,10
	.p2align 3
.L1975:
	cmp	rcx, 999
	jbe	.L2031
	cmp	rcx, 9999
	jbe	.L2032
	mov	rax, rcx
	add	r9d, 4
	mul	rbx
	cmp	rcx, 99999
	jbe	.L1976
	shr	rdx, 11
	mov	rcx, rdx
.L1979:
	cmp	rcx, 99
	ja	.L1975
	add	r9d, 1
.L1976:
	mov	esi, r9d
	cmp	r9d, 64
	ja	.L2007
	movabs	rax, 3688503277381496880
	movabs	rdx, 3976738051646829616
	mov	QWORD PTR 160[rsp], rax
	movabs	rax, 3544667369688283184
	mov	QWORD PTR 168[rsp], rdx
	movabs	rdx, 3832902143785906737
	mov	QWORD PTR 176[rsp], rax
	movabs	rax, 4121136918051239473
	mov	QWORD PTR 184[rsp], rdx
	movabs	rdx, 3689066235924983858
	mov	QWORD PTR 192[rsp], rax
	movabs	rax, 3977301010190316594
	mov	QWORD PTR 200[rsp], rdx
	movabs	rdx, 3545230328231770162
	mov	QWORD PTR 208[rsp], rax
	movabs	rax, 3833465102329393715
	mov	QWORD PTR 216[rsp], rdx
	movabs	rdx, 4121699876594726451
	mov	QWORD PTR 224[rsp], rax
	movabs	rax, 3689629194468470836
	mov	QWORD PTR 232[rsp], rdx
	movabs	rdx, 3977863968733803572
	mov	QWORD PTR 240[rsp], rax
	movabs	rax, 3545793286775257140
	mov	QWORD PTR 248[rsp], rdx
	movabs	rdx, 3834028060872880693
	mov	QWORD PTR 256[rsp], rax
	movabs	rax, 4122262835138213429
	mov	QWORD PTR 264[rsp], rdx
	movabs	rdx, 3690192153011957814
	mov	QWORD PTR 272[rsp], rax
	movabs	rax, 3978426927277290550
	mov	QWORD PTR 280[rsp], rdx
	movabs	rdx, 3546356245318744118
	mov	QWORD PTR 288[rsp], rax
	movabs	rax, 3834591019416367671
	mov	QWORD PTR 296[rsp], rdx
	movabs	rdx, 4122825793681700407
	mov	QWORD PTR 304[rsp], rax
	movabs	rax, 3690755111555444792
	mov	QWORD PTR 312[rsp], rdx
	movabs	rdx, 3978989885820777528
	mov	QWORD PTR 320[rsp], rax
	movabs	rax, 3546919203862231096
	mov	QWORD PTR 328[rsp], rdx
	movabs	rdx, 3835153977959854649
	mov	QWORD PTR 344[rsp], rdx
	movabs	rdx, 16106987313379638
	mov	QWORD PTR 336[rsp], rax
	movabs	rax, 4122263930388298034
	mov	QWORD PTR 345[rsp], rax
	mov	QWORD PTR 353[rsp], rdx
	cmp	r10, 99
	jbe	.L1980
	movabs	rbx, 2951479051793528259
	lea	ecx, -1[r9]
	.p2align 4
	.p2align 3
.L1981:
	mov	rdx, r10
	shr	rdx, 2
	mov	rax, rdx
	mul	rbx
	mov	rax, r10
	shr	rdx, 2
	imul	r9, rdx, 100
	sub	rax, r9
	mov	r9, r10
	mov	r10, rdx
	mov	edx, ecx
	movzx	edi, BYTE PTR 161[rsp+rax*2]
	movzx	eax, BYTE PTR 160[rsp+rax*2]
	mov	BYTE PTR 83[rsp+rdx], dil
	lea	edx, -1[rcx]
	sub	ecx, 2
	mov	BYTE PTR 83[rsp+rdx], al
	cmp	r9, 9999
	ja	.L1981
	cmp	r9, 999
	ja	.L1980
.L1974:
	add	r10d, 48
.L1982:
	lea	rbx, 83[rsp]
	mov	BYTE PTR 83[rsp], r10b
	lea	rdx, [rbx+rsi]
	jmp	.L1973
	.p2align 4,,10
	.p2align 3
.L2026:
	bsr	rcx, rdx
	mov	edx, 64
	xor	rcx, 63
	sub	edx, ecx
	movsxd	rdx, edx
	cmp	r10, 1
	je	.L2033
	mov	esi, 63
	lea	rbx, 83[rsp]
	mov	r9d, 62
	sub	esi, ecx
	sub	r9d, ecx
	lea	rax, [rbx+rsi]
	lea	rsi, 82[rsp+rsi]
	sub	rsi, r9
	.p2align 5
	.p2align 4
	.p2align 3
.L1968:
	mov	ecx, r10d
	sub	rax, 1
	shr	r10
	and	ecx, 1
	add	ecx, 48
	mov	BYTE PTR 1[rax], cl
	cmp	rsi, rax
	jne	.L1968
.L1969:
	add	rdx, rbx
	mov	eax, 49
	jmp	.L1966
	.p2align 4,,10
	.p2align 3
.L2029:
	test	rdx, rdx
	jne	.L2008
	mov	BYTE PTR 83[rsp], 48
	lea	rdx, 84[rsp]
	lea	rbx, 83[rsp]
	lea	r14, .LC26[rip]
	jmp	.L1991
	.p2align 4,,10
	.p2align 3
.L2030:
	mov	rax, r10
	shr	r10, 4
	and	eax, 15
	movzx	eax, BYTE PTR 160[rsp+rax]
	mov	BYTE PTR 84[rsp], al
	movzx	eax, BYTE PTR 160[rsp+r10]
	jmp	.L1996
	.p2align 4,,10
	.p2align 3
.L2028:
	mov	rax, r10
	and	eax, 7
	add	eax, 48
	mov	BYTE PTR 84[rsp], al
	mov	rax, r10
	shr	rax, 3
	add	eax, 48
	jmp	.L1988
	.p2align 4,,10
	.p2align 3
.L1980:
	movzx	eax, BYTE PTR 161[rsp+r10*2]
	movzx	r10d, BYTE PTR 160[rsp+r10*2]
	mov	BYTE PTR 84[rsp], al
	jmp	.L1982
	.p2align 4,,10
	.p2align 3
.L2008:
	lea	r14, .LC26[rip]
	jmp	.L1990
	.p2align 4,,10
	.p2align 3
.L2010:
	lea	rdx, 84[rsp]
	lea	r14, .LC25[rip]
	lea	rbx, 83[rsp]
.L1992:
	mov	rsi, rbx
	.p2align 4
	.p2align 3
.L1997:
	movsx	ecx, BYTE PTR [rsi]
	mov	QWORD PTR 56[rsp], rdx
	add	rsi, 1
	mov	QWORD PTR 432[rsp], r8
	mov	QWORD PTR 416[rsp], r11
	call	toupper
	mov	rdx, QWORD PTR 56[rsp]
	mov	r11, QWORD PTR 416[rsp]
	mov	BYTE PTR -1[rsi], al
	mov	r8, QWORD PTR 432[rsp]
	cmp	rsi, rdx
	jne	.L1997
	mov	r10d, 2
	jmp	.L1989
	.p2align 4,,10
	.p2align 3
.L2031:
	add	r9d, 2
	jmp	.L1976
	.p2align 4,,10
	.p2align 3
.L2032:
	add	r9d, 3
	jmp	.L1976
.L2033:
	lea	rbx, 83[rsp]
	jmp	.L1969
.L2007:
	lea	rdx, 147[rsp]
	lea	rbx, 83[rsp]
	jmp	.L1973
.L2005:
	mov	esi, 1
	jmp	.L1974
.L1957:
	lea	rcx, .LC28[rip]
	call	_ZSt20__throw_format_errorPKc
	nop
	.seh_endproc
	.section	.text$_ZNKSt8__format15__formatter_intIcE6formatInNS_10_Sink_iterIcEEEENSt20basic_format_contextIT0_cE8iteratorET_RS7_,"x"
	.linkonce discard
	.align 2
	.p2align 4
	.globl	_ZNKSt8__format15__formatter_intIcE6formatInNS_10_Sink_iterIcEEEENSt20basic_format_contextIT0_cE8iteratorET_RS7_
	.def	_ZNKSt8__format15__formatter_intIcE6formatInNS_10_Sink_iterIcEEEENSt20basic_format_contextIT0_cE8iteratorET_RS7_;	.scl	2;	.type	32;	.endef
	.seh_proc	_ZNKSt8__format15__formatter_intIcE6formatInNS_10_Sink_iterIcEEEENSt20basic_format_contextIT0_cE8iteratorET_RS7_
_ZNKSt8__format15__formatter_intIcE6formatInNS_10_Sink_iterIcEEEENSt20basic_format_contextIT0_cE8iteratorET_RS7_:
.LFB5612:
	push	r15
	.seh_pushreg	r15
	push	r14
	.seh_pushreg	r14
	push	r13
	.seh_pushreg	r13
	push	r12
	.seh_pushreg	r12
	push	rbp
	.seh_pushreg	rbp
	push	rdi
	.seh_pushreg	rdi
	push	rsi
	.seh_pushreg	rsi
	push	rbx
	.seh_pushreg	rbx
	sub	rsp, 520
	.seh_stackalloc	520
	.seh_endprologue
	movzx	eax, BYTE PTR 1[rcx]
	mov	r14, QWORD PTR [rdx]
	mov	r15, QWORD PTR 8[rdx]
	mov	r9d, eax
	and	r9d, 120
	mov	QWORD PTR 592[rsp], rcx
	mov	rbp, r8
	cmp	r9b, 56
	je	.L2125
	shr	al, 3
	mov	r10, r14
	mov	r11, r15
	and	eax, 15
	test	r15, r15
	js	.L2126
	cmp	al, 4
	je	.L2044
	ja	.L2045
	cmp	al, 1
	jbe	.L2046
	cmp	r9b, 16
	lea	rax, .LC24[rip]
	lea	r13, .LC23[rip]
	cmovne	r13, rax
	mov	rax, r14
	or	rax, r15
	jne	.L2042
	mov	eax, 48
	lea	rsi, 164[rsp]
	lea	rdi, 163[rsp]
.L2051:
	mov	BYTE PTR 163[rsp], al
	mov	rax, QWORD PTR 592[rsp]
	test	BYTE PTR [rax], 16
	je	.L2123
.L2104:
	mov	rdx, -2
	mov	eax, 2
.L2056:
	add	rdx, rdi
	mov	r9d, eax
	test	eax, eax
	je	.L2057
	xor	eax, eax
.L2085:
	mov	ecx, eax
	add	eax, 1
	movzx	r8d, BYTE PTR 0[r13+rcx]
	mov	BYTE PTR [rdx+rcx], r8b
	cmp	eax, r9d
	jb	.L2085
	.p2align 4
	.p2align 3
.L2057:
	lea	rcx, -1[rdx]
	test	r15, r15
	js	.L2121
.L2132:
	mov	rax, QWORD PTR 592[rsp]
	movzx	eax, BYTE PTR [rax]
.L2087:
	shr	al, 2
	and	eax, 3
	cmp	eax, 1
	je	.L2127
	cmp	eax, 3
	je	.L2128
.L2088:
	sub	rdi, rdx
	mov	rax, rsi
	mov	r9, rbp
	mov	rcx, QWORD PTR 592[rsp]
	sub	rax, rdx
	mov	QWORD PTR 152[rsp], rdx
	mov	r8, rdi
	lea	rdx, 144[rsp]
	mov	QWORD PTR 144[rsp], rax
	call	_ZNKSt8__format15__formatter_intIcE13_M_format_intINS_10_Sink_iterIcEEEENSt20basic_format_contextIT_cE8iteratorESt17basic_string_viewIcSt11char_traitsIcEEyRS7_
	jmp	.L2037
	.p2align 4,,10
	.p2align 3
.L2126:
	neg	r10
	adc	r11, 0
	neg	r11
	cmp	al, 4
	je	.L2039
	ja	.L2040
	cmp	al, 1
	jbe	.L2041
	lea	r13, .LC24[rip]
	cmp	r9b, 16
	lea	rax, .LC23[rip]
	cmove	r13, rax
.L2042:
	test	r11, r11
	jne	.L2129
	bsr	rax, r10
	xor	rax, 63
	lea	edx, 64[rax]
	cmp	eax, 63
	je	.L2095
.L2122:
	mov	ecx, 127
	mov	eax, 128
	lea	rdi, 163[rsp]
	sub	ecx, edx
	sub	eax, edx
	mov	r9d, ecx
	sub	ecx, 1
	cdqe
	lea	rdx, [rdi+r9]
	lea	r9, 162[rsp+r9]
	sub	r9, rcx
	.p2align 5
	.p2align 4
	.p2align 3
.L2055:
	mov	ecx, r10d
	sub	rdx, 1
	shrd	r10, r11, 1
	and	ecx, 1
	shr	r11
	add	ecx, 48
	mov	BYTE PTR 1[rdx], cl
	cmp	rdx, r9
	jne	.L2055
.L2054:
	lea	rsi, [rdi+rax]
	mov	eax, 49
	jmp	.L2051
	.p2align 4,,10
	.p2align 3
.L2125:
	mov	eax, 127
	cmp	rax, r14
	mov	eax, 0
	sbb	rax, r15
	jl	.L2036
	mov	DWORD PTR 32[rsp], 1
	mov	r9, QWORD PTR 592[rsp]
	lea	rax, 304[rsp]
	lea	rcx, 144[rsp]
	mov	edx, 1
	mov	BYTE PTR 304[rsp], r14b
	mov	QWORD PTR 144[rsp], 1
	mov	QWORD PTR 152[rsp], rax
	call	_ZNSt8__format22__write_padded_as_specIcNS_10_Sink_iterIcEEEET0_St17basic_string_viewINSt13type_identityIT_E4typeESt11char_traitsIS8_EEyRSt20basic_format_contextIS3_S6_ERKNS_5_SpecIS6_EENS_6_AlignE
.L2037:
	add	rsp, 520
	pop	rbx
	pop	rsi
	pop	rdi
	pop	rbp
	pop	r12
	pop	r13
	pop	r14
	pop	r15
	ret
	.p2align 4,,10
	.p2align 3
.L2045:
	cmp	r9b, 40
	je	.L2130
	mov	rax, r14
	or	rax, r15
	jne	.L2102
	mov	BYTE PTR 163[rsp], 48
	cmp	r9b, 48
	je	.L2103
	lea	r13, .LC25[rip]
	lea	rsi, 164[rsp]
	lea	rdi, 163[rsp]
	jmp	.L2077
	.p2align 4,,10
	.p2align 3
.L2040:
	lea	r13, .LC26[rip]
	cmp	r9b, 40
	lea	rax, .LC25[rip]
	cmovne	r13, rax
.L2043:
	test	r11, r11
	jne	.L2131
	bsr	rax, r10
	mov	ecx, 255
	movabs	rbx, 3978425819141910832
	movabs	rsi, 7378413942531504440
	lea	edx, 4[rax]
	mov	QWORD PTR 304[rsp], rbx
	shr	edx, 2
	cmp	rcx, r10
	mov	QWORD PTR 312[rsp], rsi
	lea	rcx, 304[rsp]
	mov	r8d, edx
	jnb	.L2080
	sub	edx, 1
.L2079:
	lea	rcx, 304[rsp]
	mov	eax, 255
	xor	r12d, r12d
	.p2align 4
	.p2align 3
.L2081:
	mov	rsi, r10
	mov	ebx, edx
	and	esi, 15
	movzx	esi, BYTE PTR [rcx+rsi]
	mov	BYTE PTR 163[rsp+rbx], sil
	mov	rsi, r10
	lea	ebx, -1[rdx]
	shrd	r10, r11, 8
	shrd	rsi, r11, 4
	sub	edx, 2
	shr	r11, 8
	and	esi, 15
	cmp	rax, r10
	movzx	esi, BYTE PTR [rcx+rsi]
	mov	BYTE PTR 163[rsp+rbx], sil
	mov	rbx, r12
	sbb	rbx, r11
	jc	.L2081
.L2080:
	mov	edx, 15
	cmp	rdx, r10
	mov	edx, 0
	sbb	rdx, r11
	jnc	.L2082
	mov	rsi, r10
	and	esi, 15
	movzx	edx, BYTE PTR [rcx+rsi]
	mov	BYTE PTR 164[rsp], dl
	mov	rdx, r10
	shrd	rdx, r11, 4
	movzx	edx, BYTE PTR [rdx+rcx]
.L2083:
	lea	rdi, 163[rsp]
	mov	BYTE PTR 163[rsp], dl
	lea	rsi, [rdi+r8]
	cmp	r9b, 48
	je	.L2076
.L2077:
	mov	rax, QWORD PTR 592[rsp]
	test	BYTE PTR [rax], 16
	jne	.L2104
	.p2align 4
	.p2align 3
.L2123:
	mov	rdx, rdi
	lea	rcx, -1[rdx]
	test	r15, r15
	jns	.L2132
.L2121:
	mov	BYTE PTR -1[rdx], 45
.L2090:
	mov	rdx, rcx
	jmp	.L2088
	.p2align 4,,10
	.p2align 3
.L2127:
	mov	BYTE PTR -1[rdx], 43
	jmp	.L2090
	.p2align 4,,10
	.p2align 3
.L2046:
	mov	rax, r14
	or	rax, r15
	jne	.L2041
.L2124:
	mov	rax, QWORD PTR 592[rsp]
	mov	BYTE PTR 163[rsp], 48
	movzx	eax, BYTE PTR [rax]
.L2058:
	lea	rdi, 163[rsp]
	lea	rsi, 164[rsp]
	mov	rdx, rdi
	lea	rcx, 162[rsp]
	jmp	.L2087
	.p2align 4,,10
	.p2align 3
.L2044:
	mov	rax, r14
	or	rax, r15
	je	.L2124
	.p2align 4
	.p2align 3
.L2039:
	test	r11, r11
	jne	.L2133
	bsr	rax, r10
	mov	ecx, 63
	lea	edx, 3[rax]
	mov	eax, 2863311531
	imul	rdx, rax
	shr	rdx, 33
	mov	eax, edx
	cmp	rcx, r10
	jnb	.L2071
	sub	edx, 1
.L2070:
	mov	r9d, 63
	xor	r8d, r8d
	.p2align 4
	.p2align 3
.L2072:
	mov	rcx, r10
	mov	esi, edx
	lea	ebx, -1[rdx]
	sub	edx, 2
	and	ecx, 7
	add	ecx, 48
	mov	BYTE PTR 163[rsp+rsi], cl
	mov	rcx, r10
	shrd	r10, r11, 6
	shrd	rcx, r11, 3
	shr	r11, 6
	and	ecx, 7
	cmp	r9, r10
	lea	ecx, 48[rcx]
	mov	BYTE PTR 163[rsp+rbx], cl
	mov	rbx, r8
	sbb	rbx, r11
	jc	.L2072
.L2071:
	mov	edx, 7
	cmp	rdx, r10
	mov	edx, 0
	sbb	rdx, r11
	jnc	.L2073
	mov	r8, r10
	shrd	r10, r11, 3
	and	r8d, 7
	add	r10d, 48
	add	r8d, 48
	mov	BYTE PTR 164[rsp], r8b
.L2074:
	mov	BYTE PTR 163[rsp], r10b
	lea	rdi, 163[rsp]
	lea	r13, .LC27[rip]
	lea	rsi, [rdi+rax]
	mov	eax, 1
.L2075:
	mov	rbx, QWORD PTR 592[rsp]
	mov	rdx, rdi
	test	BYTE PTR [rbx], 16
	je	.L2057
	mov	rdx, rax
	neg	rdx
	jmp	.L2056
	.p2align 4,,10
	.p2align 3
.L2128:
	mov	BYTE PTR -1[rdx], 32
	jmp	.L2090
	.p2align 4,,10
	.p2align 3
.L2041:
	mov	eax, 9
	cmp	rax, r10
	mov	eax, 0
	sbb	rax, r11
	jnc	.L2097
	mov	QWORD PTR 104[rsp], r15
	mov	r13, r10
	mov	r15, rbp
	mov	edi, 1
	mov	QWORD PTR 80[rsp], r10
	xor	esi, esi
	mov	ebx, 999
	lea	rbp, 112[rsp]
	mov	QWORD PTR 88[rsp], r11
	mov	QWORD PTR 96[rsp], r14
	jmp	.L2064
	.p2align 4,,10
	.p2align 3
.L2060:
	cmp	rbx, r13
	mov	rax, rsi
	sbb	rax, r11
	jnc	.L2134
	mov	eax, 9999
	cmp	rax, r13
	mov	rax, rsi
	sbb	rax, r11
	jnc	.L2135
	mov	rdx, rbp
	mov	QWORD PTR 64[rsp], r11
	add	edi, 4
	lea	rcx, 128[rsp]
	mov	QWORD PTR 128[rsp], r13
	mov	QWORD PTR 136[rsp], r11
	mov	QWORD PTR 112[rsp], 10000
	mov	QWORD PTR 120[rsp], 0
	call	__udivti3
	mov	eax, 99999
	cmp	rax, r13
	mov	rax, rsi
	sbb	rax, QWORD PTR 64[rsp]
	movaps	XMMWORD PTR 48[rsp], xmm0
	jnc	.L2136
	mov	r13, QWORD PTR 48[rsp]
	mov	r11, QWORD PTR 56[rsp]
.L2064:
	mov	eax, 99
	cmp	rax, r13
	mov	rax, rsi
	sbb	rax, r11
	jc	.L2060
	mov	rbp, r15
	mov	r10, QWORD PTR 80[rsp]
	mov	r11, QWORD PTR 88[rsp]
	add	edi, 1
	mov	r14, QWORD PTR 96[rsp]
	mov	r15, QWORD PTR 104[rsp]
.L2061:
	mov	r9d, edi
	cmp	edi, 128
	ja	.L2099
	movabs	rax, 3688503277381496880
	lea	rcx, 304[rsp]
	movabs	rdx, 3976738051646829616
	mov	QWORD PTR 304[rsp], rax
	movabs	rax, 3544667369688283184
	mov	QWORD PTR 312[rsp], rdx
	movabs	rdx, 3832902143785906737
	mov	QWORD PTR 320[rsp], rax
	movabs	rax, 4121136918051239473
	mov	QWORD PTR 328[rsp], rdx
	movabs	rdx, 3689066235924983858
	mov	QWORD PTR 336[rsp], rax
	movabs	rax, 3977301010190316594
	mov	QWORD PTR 344[rsp], rdx
	movabs	rdx, 3545230328231770162
	mov	QWORD PTR 352[rsp], rax
	movabs	rax, 3833465102329393715
	mov	QWORD PTR 360[rsp], rdx
	movabs	rdx, 4121699876594726451
	mov	QWORD PTR 368[rsp], rax
	movabs	rax, 3689629194468470836
	mov	QWORD PTR 376[rsp], rdx
	movabs	rdx, 3977863968733803572
	mov	QWORD PTR 384[rsp], rax
	movabs	rax, 3545793286775257140
	mov	QWORD PTR 392[rsp], rdx
	movabs	rdx, 3834028060872880693
	mov	QWORD PTR 400[rsp], rax
	movabs	rax, 4122262835138213429
	mov	QWORD PTR 408[rsp], rdx
	movabs	rdx, 3690192153011957814
	mov	QWORD PTR 416[rsp], rax
	movabs	rax, 3978426927277290550
	mov	QWORD PTR 424[rsp], rdx
	movabs	rdx, 3546356245318744118
	mov	QWORD PTR 432[rsp], rax
	movabs	rax, 3834591019416367671
	mov	QWORD PTR 440[rsp], rdx
	movabs	rdx, 4122825793681700407
	mov	QWORD PTR 448[rsp], rax
	movabs	rax, 3690755111555444792
	mov	QWORD PTR 456[rsp], rdx
	movabs	rdx, 3978989885820777528
	mov	QWORD PTR 464[rsp], rax
	movabs	rax, 3546919203862231096
	mov	QWORD PTR 472[rsp], rdx
	movabs	rdx, 3835153977959854649
	mov	QWORD PTR 480[rsp], rax
	movabs	rax, 4122263930388298034
	mov	QWORD PTR 488[rsp], rdx
	movabs	rdx, 16106987313379638
	mov	QWORD PTR 489[rsp], rax
	mov	eax, 99
	cmp	rax, r10
	mov	eax, 0
	mov	QWORD PTR 497[rsp], rdx
	sbb	rax, r11
	jnc	.L2066
	mov	QWORD PTR 64[rsp], r14
	lea	ebx, -1[rdi]
	mov	r12, rbp
	movabs	r13, 1152921504606846975
	mov	QWORD PTR 72[rsp], r15
	mov	r15, r9
	.p2align 4
	.p2align 3
.L2067:
	mov	rax, r10
	mov	r8, r10
	mov	rsi, r10
	xor	r9d, r9d
	shrd	rax, r11, 60
	and	r8, r13
	mov	rdi, r11
	movabs	rbp, -8116567392432202711
	and	rax, r13
	mov	r14d, 25
	add	r8, rax
	mov	rax, r11
	shr	rax, 56
	add	r8, rax
	movabs	rax, 5165088340638674453
	mul	r8
	mov	rax, r8
	sub	rax, rdx
	shr	rax
	add	rdx, rax
	shr	rdx, 4
	lea	rax, [rdx+rdx*4]
	lea	rax, [rax+rax*4]
	sub	r8, rax
	movabs	rax, 2951479051793528258
	sub	rsi, r8
	sbb	rdi, r9
	imul	rax, rsi
	mov	r9d, ebx
	imul	rbp, rdi
	add	rbp, rax
	movabs	rax, -8116567392432202711
	mul	rsi
	mov	rsi, rax
	and	eax, 3
	add	rbp, rdx
	mul	r14
	mov	rdi, rbp
	add	rax, r8
	xor	edx, edx
	mov	r8, r10
	add	rax, rax
	adc	rdx, rdx
	shr	rdi, 2
	mov	QWORD PTR 48[rsp], rax
	mov	QWORD PTR 56[rsp], rdx
	mov	rdx, r11
	mov	r11, rdi
	mov	rdi, QWORD PTR 48[rsp]
	shrd	rsi, rbp, 2
	mov	r10, rsi
	movzx	esi, BYTE PTR 1[rcx+rdi]
	movzx	eax, BYTE PTR [rcx+rdi]
	mov	BYTE PTR 163[rsp+r9], sil
	lea	r9d, -1[rbx]
	sub	ebx, 2
	mov	BYTE PTR 163[rsp+r9], al
	mov	eax, 9999
	cmp	rax, r8
	mov	eax, 0
	sbb	rax, rdx
	jc	.L2067
	mov	eax, 999
	mov	r9, r15
	mov	rbp, r12
	mov	r15, QWORD PTR 72[rsp]
	cmp	rax, r8
	mov	eax, 0
	sbb	rax, rdx
	jc	.L2066
.L2059:
	add	r10d, 48
.L2068:
	lea	rdi, 163[rsp]
	mov	BYTE PTR 163[rsp], r10b
	lea	rsi, [rdi+r9]
	jmp	.L2123
	.p2align 4,,10
	.p2align 3
.L2133:
	bsr	rax, r11
	lea	edx, 67[rax]
	mov	eax, 2863311531
	imul	rdx, rax
	shr	rdx, 33
	mov	eax, edx
	sub	edx, 1
	jmp	.L2070
	.p2align 4,,10
	.p2align 3
.L2131:
	movabs	rbx, 3978425819141910832
	bsr	rax, r11
	movabs	rsi, 7378413942531504440
	lea	edx, 68[rax]
	mov	QWORD PTR 304[rsp], rbx
	shr	edx, 2
	mov	QWORD PTR 312[rsp], rsi
	mov	r8d, edx
	sub	edx, 1
	jmp	.L2079
	.p2align 4,,10
	.p2align 3
.L2129:
	bsr	rdx, r11
	xor	rdx, 63
	jmp	.L2122
	.p2align 4,,10
	.p2align 3
.L2103:
	lea	rsi, 164[rsp]
	lea	r13, .LC25[rip]
	lea	rdi, 163[rsp]
.L2076:
	mov	r12, rdi
	.p2align 4
	.p2align 3
.L2084:
	movsx	ecx, BYTE PTR [r12]
	add	r12, 1
	call	toupper
	mov	BYTE PTR -1[r12], al
	cmp	r12, rsi
	jne	.L2084
	mov	eax, 2
	jmp	.L2075
	.p2align 4,,10
	.p2align 3
.L2082:
	movzx	edx, BYTE PTR [rcx+r10]
	jmp	.L2083
	.p2align 4,,10
	.p2align 3
.L2073:
	add	r10d, 48
	jmp	.L2074
	.p2align 4,,10
	.p2align 3
.L2066:
	add	r10, r10
	movzx	eax, BYTE PTR 1[rcx+r10]
	movzx	r10d, BYTE PTR [rcx+r10]
	mov	BYTE PTR 164[rsp], al
	jmp	.L2068
	.p2align 4,,10
	.p2align 3
.L2130:
	mov	rax, r14
	or	rax, r15
	jne	.L2100
	mov	rax, QWORD PTR 592[rsp]
	mov	BYTE PTR 163[rsp], 48
	movzx	eax, BYTE PTR [rax]
	test	al, 16
	je	.L2058
	mov	rdx, -2
	lea	rsi, 164[rsp]
	lea	r13, .LC26[rip]
	mov	eax, 2
	lea	rdi, 163[rsp]
	jmp	.L2056
	.p2align 4,,10
	.p2align 3
.L2134:
	mov	rbp, r15
	mov	r10, QWORD PTR 80[rsp]
	mov	r11, QWORD PTR 88[rsp]
	add	edi, 2
	mov	r14, QWORD PTR 96[rsp]
	mov	r15, QWORD PTR 104[rsp]
	jmp	.L2061
	.p2align 4,,10
	.p2align 3
.L2135:
	mov	rbp, r15
	mov	r10, QWORD PTR 80[rsp]
	mov	r11, QWORD PTR 88[rsp]
	add	edi, 3
	mov	r14, QWORD PTR 96[rsp]
	mov	r15, QWORD PTR 104[rsp]
	jmp	.L2061
	.p2align 4,,10
	.p2align 3
.L2136:
	mov	rbp, r15
	mov	r10, QWORD PTR 80[rsp]
	mov	r11, QWORD PTR 88[rsp]
	mov	r14, QWORD PTR 96[rsp]
	mov	r15, QWORD PTR 104[rsp]
	jmp	.L2061
	.p2align 4,,10
	.p2align 3
.L2095:
	mov	eax, 1
	lea	rdi, 163[rsp]
	jmp	.L2054
.L2102:
	lea	r13, .LC25[rip]
	jmp	.L2043
.L2099:
	lea	rsi, 291[rsp]
	lea	rdi, 163[rsp]
	jmp	.L2123
.L2100:
	lea	r13, .LC26[rip]
	jmp	.L2043
.L2097:
	mov	r9d, 1
	jmp	.L2059
.L2036:
	lea	rcx, .LC28[rip]
	call	_ZSt20__throw_format_errorPKc
	nop
	.seh_endproc
	.section	.text$_ZNKSt8__format15__formatter_intIcE6formatIoNS_10_Sink_iterIcEEEENSt20basic_format_contextIT0_cE8iteratorET_RS7_,"x"
	.linkonce discard
	.align 2
	.p2align 4
	.globl	_ZNKSt8__format15__formatter_intIcE6formatIoNS_10_Sink_iterIcEEEENSt20basic_format_contextIT0_cE8iteratorET_RS7_
	.def	_ZNKSt8__format15__formatter_intIcE6formatIoNS_10_Sink_iterIcEEEENSt20basic_format_contextIT0_cE8iteratorET_RS7_;	.scl	2;	.type	32;	.endef
	.seh_proc	_ZNKSt8__format15__formatter_intIcE6formatIoNS_10_Sink_iterIcEEEENSt20basic_format_contextIT0_cE8iteratorET_RS7_
_ZNKSt8__format15__formatter_intIcE6formatIoNS_10_Sink_iterIcEEEENSt20basic_format_contextIT0_cE8iteratorET_RS7_:
.LFB5614:
	push	r15
	.seh_pushreg	r15
	push	r14
	.seh_pushreg	r14
	push	r13
	.seh_pushreg	r13
	push	r12
	.seh_pushreg	r12
	push	rbp
	.seh_pushreg	rbp
	push	rdi
	.seh_pushreg	rdi
	push	rsi
	.seh_pushreg	rsi
	push	rbx
	.seh_pushreg	rbx
	sub	rsp, 472
	.seh_stackalloc	472
	.seh_endprologue
	movzx	eax, BYTE PTR 1[rcx]
	mov	r10, QWORD PTR [rdx]
	mov	r11, QWORD PTR 8[rdx]
	mov	r9d, eax
	and	r9d, 120
	mov	r12, r8
	cmp	r9b, 56
	je	.L2217
	shr	al, 3
	and	eax, 15
	cmp	al, 4
	je	.L2141
	ja	.L2142
	cmp	al, 1
	jbe	.L2143
	cmp	r9b, 16
	lea	rax, .LC24[rip]
	lea	rbp, .LC23[rip]
	cmovne	rbp, rax
	mov	rax, r10
	or	rax, r11
	jne	.L2218
	mov	eax, 48
	lea	rbx, 116[rsp]
	lea	rsi, 115[rsp]
.L2148:
	movzx	edx, BYTE PTR [rcx]
	mov	BYTE PTR 115[rsp], al
	test	dl, 16
	je	.L2216
.L2199:
	mov	r10, -2
	mov	eax, 2
.L2153:
	add	r10, rsi
	mov	r11d, eax
	test	eax, eax
	je	.L2154
	xor	eax, eax
.L2185:
	mov	r8d, eax
	add	eax, 1
	movzx	r9d, BYTE PTR 0[rbp+r8]
	mov	BYTE PTR [r10+r8], r9b
	cmp	eax, r11d
	jb	.L2185
	jmp	.L2154
	.p2align 4,,10
	.p2align 3
.L2217:
	mov	eax, 127
	cmp	rax, r10
	mov	eax, 0
	sbb	rax, r11
	jc	.L2139
	mov	DWORD PTR 32[rsp], 1
	lea	rax, 256[rsp]
	mov	r9, rcx
	mov	edx, 1
	lea	rcx, 96[rsp]
	mov	BYTE PTR 256[rsp], r10b
	mov	QWORD PTR 96[rsp], 1
	mov	QWORD PTR 104[rsp], rax
	call	_ZNSt8__format22__write_padded_as_specIcNS_10_Sink_iterIcEEEET0_St17basic_string_viewINSt13type_identityIT_E4typeESt11char_traitsIS8_EEyRSt20basic_format_contextIS3_S6_ERKNS_5_SpecIS6_EENS_6_AlignE
.L2140:
	add	rsp, 472
	pop	rbx
	pop	rsi
	pop	rdi
	pop	rbp
	pop	r12
	pop	r13
	pop	r14
	pop	r15
	ret
	.p2align 4,,10
	.p2align 3
.L2143:
	mov	rax, r10
	or	rax, r11
	jne	.L2155
	mov	BYTE PTR 115[rsp], 48
	lea	rbx, 116[rsp]
	lea	rsi, 115[rsp]
.L2156:
	movzx	edx, BYTE PTR [rcx]
	mov	r10, rsi
.L2154:
	shr	dl, 2
	mov	eax, 43
	and	edx, 3
	cmp	edx, 1
	je	.L2189
	cmp	edx, 3
	je	.L2201
.L2188:
	mov	rax, rbx
	sub	rsi, r10
	lea	rdx, 96[rsp]
	mov	r9, r12
	sub	rax, r10
	mov	r8, rsi
	mov	QWORD PTR 104[rsp], r10
	mov	QWORD PTR 96[rsp], rax
	call	_ZNKSt8__format15__formatter_intIcE13_M_format_intINS_10_Sink_iterIcEEEENSt20basic_format_contextIT_cE8iteratorESt17basic_string_viewIcSt11char_traitsIcEEyRS7_
	jmp	.L2140
	.p2align 4,,10
	.p2align 3
.L2141:
	mov	rax, r10
	or	rax, r11
	je	.L2166
	test	r11, r11
	jne	.L2167
	bsr	rax, r10
	mov	r8d, 63
	lea	edx, 3[rax]
	mov	eax, 2863311531
	imul	rdx, rax
	shr	rdx, 33
	mov	eax, edx
	cmp	r8, r10
	jnb	.L2170
	sub	edx, 1
.L2169:
	mov	esi, 63
	xor	ebx, ebx
	.p2align 4
	.p2align 3
.L2171:
	mov	r8, r10
	mov	edi, edx
	lea	r9d, -1[rdx]
	sub	edx, 2
	and	r8d, 7
	add	r8d, 48
	mov	BYTE PTR 115[rsp+rdi], r8b
	mov	r8, r10
	shrd	r10, r11, 6
	shrd	r8, r11, 3
	shr	r11, 6
	mov	rdi, r8
	and	edi, 7
	cmp	rsi, r10
	lea	r8d, 48[rdi]
	mov	rdi, rbx
	sbb	rdi, r11
	mov	BYTE PTR 115[rsp+r9], r8b
	jc	.L2171
.L2170:
	mov	edx, 7
	cmp	rdx, r10
	mov	edx, 0
	sbb	rdx, r11
	jnc	.L2172
	mov	r8, r10
	shrd	r10, r11, 3
	and	r8d, 7
	add	r10d, 48
	add	r8d, 48
	mov	BYTE PTR 116[rsp], r8b
.L2173:
	mov	BYTE PTR 115[rsp], r10b
	lea	rsi, 115[rsp]
	lea	rbp, .LC27[rip]
	lea	rbx, [rsi+rax]
	mov	eax, 1
.L2174:
	movzx	edx, BYTE PTR [rcx]
	mov	r10, rsi
	test	dl, 16
	je	.L2154
	mov	r10, rax
	neg	r10
	jmp	.L2153
	.p2align 4,,10
	.p2align 3
.L2142:
	cmp	r9b, 40
	je	.L2219
	mov	rax, r10
	or	rax, r11
	jne	.L2197
	mov	BYTE PTR 115[rsp], 48
	cmp	r9b, 48
	je	.L2198
	lea	rbp, .LC25[rip]
	lea	rbx, 116[rsp]
	lea	rsi, 115[rsp]
	jmp	.L2176
	.p2align 4,,10
	.p2align 3
.L2201:
	mov	eax, 32
.L2189:
	mov	BYTE PTR -1[r10], al
	sub	r10, 1
	jmp	.L2188
	.p2align 4,,10
	.p2align 3
.L2197:
	lea	rbp, .LC25[rip]
.L2175:
	test	r11, r11
	jne	.L2220
	movabs	rbx, 3978425819141910832
	bsr	rax, r10
	movabs	rsi, 7378413942531504440
	mov	QWORD PTR 256[rsp], rbx
	lea	edx, 4[rax]
	mov	ebx, 255
	shr	edx, 2
	cmp	rbx, r10
	mov	QWORD PTR 264[rsp], rsi
	lea	rbx, 256[rsp]
	mov	r8d, edx
	jnb	.L2180
	sub	edx, 1
.L2179:
	lea	rbx, 256[rsp]
	xor	eax, eax
	.p2align 4
	.p2align 3
.L2181:
	mov	rsi, r10
	mov	r13d, edx
	lea	edi, -1[rdx]
	sub	edx, 2
	and	esi, 15
	movzx	esi, BYTE PTR [rbx+rsi]
	mov	BYTE PTR 115[rsp+r13], sil
	mov	rsi, r10
	shrd	r10, r11, 8
	shrd	rsi, r11, 4
	shr	r11, 8
	and	esi, 15
	movzx	esi, BYTE PTR [rbx+rsi]
	mov	BYTE PTR 115[rsp+rdi], sil
	mov	edi, 255
	cmp	rdi, r10
	mov	rdi, rax
	sbb	rdi, r11
	jc	.L2181
.L2180:
	mov	edx, 15
	cmp	rdx, r10
	mov	edx, 0
	sbb	rdx, r11
	jnc	.L2182
	mov	rsi, r10
	and	esi, 15
	movzx	edx, BYTE PTR [rbx+rsi]
	mov	BYTE PTR 116[rsp], dl
	mov	rdx, r10
	shrd	rdx, r11, 4
	movzx	edx, BYTE PTR [rdx+rbx]
.L2183:
	lea	rsi, 115[rsp]
	mov	BYTE PTR 115[rsp], dl
	lea	rbx, [rsi+r8]
	cmp	r9b, 48
	je	.L2177
.L2176:
	movzx	edx, BYTE PTR [rcx]
	test	dl, 16
	jne	.L2199
.L2216:
	mov	r10, rsi
	jmp	.L2154
	.p2align 4,,10
	.p2align 3
.L2218:
	test	r11, r11
	jne	.L2221
	bsr	rax, r10
	xor	rax, 63
	lea	edx, 64[rax]
	cmp	eax, 63
	je	.L2191
.L2215:
	mov	r9d, 127
	mov	eax, 128
	lea	rsi, 115[rsp]
	sub	r9d, edx
	sub	eax, edx
	mov	ebx, r9d
	sub	r9d, 1
	cdqe
	lea	rdi, 114[rsp+rbx]
	lea	rdx, [rsi+rbx]
	sub	rdi, r9
	.p2align 5
	.p2align 4
	.p2align 3
.L2152:
	mov	r8d, r10d
	sub	rdx, 1
	shrd	r10, r11, 1
	and	r8d, 1
	shr	r11
	add	r8d, 48
	mov	BYTE PTR 1[rdx], r8b
	cmp	rdi, rdx
	jne	.L2152
.L2151:
	lea	rbx, [rsi+rax]
	mov	eax, 49
	jmp	.L2148
	.p2align 4,,10
	.p2align 3
.L2155:
	mov	eax, 9
	cmp	rax, r10
	mov	eax, 0
	sbb	rax, r11
	jnc	.L2193
	mov	QWORD PTR 544[rsp], rcx
	mov	rsi, r10
	mov	rbx, r11
	xor	edi, edi
	mov	ebp, 1
	lea	r13, 80[rsp]
	mov	r14, r10
	mov	r15, r11
	mov	QWORD PTR 560[rsp], r8
	jmp	.L2162
	.p2align 4,,10
	.p2align 3
.L2158:
	mov	eax, 999
	cmp	rax, rsi
	mov	rax, rdi
	sbb	rax, rbx
	jnc	.L2222
	mov	eax, 9999
	cmp	rax, rsi
	mov	rax, rdi
	sbb	rax, rbx
	jnc	.L2223
	mov	rcx, r13
	lea	rdx, 64[rsp]
	mov	QWORD PTR 80[rsp], rsi
	add	ebp, 4
	mov	QWORD PTR 88[rsp], rbx
	mov	QWORD PTR 64[rsp], 10000
	mov	QWORD PTR 72[rsp], 0
	call	__udivti3
	mov	ecx, 99999
	cmp	rcx, rsi
	mov	rcx, rdi
	movaps	XMMWORD PTR 48[rsp], xmm0
	sbb	rcx, rbx
	jnc	.L2224
	mov	rsi, QWORD PTR 48[rsp]
	mov	rbx, QWORD PTR 56[rsp]
.L2162:
	mov	eax, 99
	cmp	rax, rsi
	mov	rax, rdi
	sbb	rax, rbx
	jc	.L2158
	mov	rcx, QWORD PTR 544[rsp]
	mov	r10, r14
	mov	r11, r15
	add	ebp, 1
	mov	r12, QWORD PTR 560[rsp]
.L2159:
	mov	r9d, ebp
	cmp	ebp, 128
	ja	.L2195
	movabs	rax, 3688503277381496880
	lea	rbx, 256[rsp]
	movabs	rdx, 3976738051646829616
	mov	QWORD PTR 256[rsp], rax
	movabs	rax, 3544667369688283184
	mov	QWORD PTR 264[rsp], rdx
	movabs	rdx, 3832902143785906737
	mov	QWORD PTR 272[rsp], rax
	movabs	rax, 4121136918051239473
	mov	QWORD PTR 280[rsp], rdx
	movabs	rdx, 3689066235924983858
	mov	QWORD PTR 288[rsp], rax
	movabs	rax, 3977301010190316594
	mov	QWORD PTR 296[rsp], rdx
	movabs	rdx, 3545230328231770162
	mov	QWORD PTR 304[rsp], rax
	movabs	rax, 3833465102329393715
	mov	QWORD PTR 312[rsp], rdx
	movabs	rdx, 4121699876594726451
	mov	QWORD PTR 320[rsp], rax
	movabs	rax, 3689629194468470836
	mov	QWORD PTR 328[rsp], rdx
	movabs	rdx, 3977863968733803572
	mov	QWORD PTR 336[rsp], rax
	movabs	rax, 3545793286775257140
	mov	QWORD PTR 344[rsp], rdx
	movabs	rdx, 3834028060872880693
	mov	QWORD PTR 352[rsp], rax
	movabs	rax, 4122262835138213429
	mov	QWORD PTR 360[rsp], rdx
	movabs	rdx, 3690192153011957814
	mov	QWORD PTR 368[rsp], rax
	movabs	rax, 3978426927277290550
	mov	QWORD PTR 376[rsp], rdx
	movabs	rdx, 3546356245318744118
	mov	QWORD PTR 384[rsp], rax
	movabs	rax, 3834591019416367671
	mov	QWORD PTR 392[rsp], rdx
	movabs	rdx, 4122825793681700407
	mov	QWORD PTR 400[rsp], rax
	movabs	rax, 3690755111555444792
	mov	QWORD PTR 408[rsp], rdx
	movabs	rdx, 3978989885820777528
	mov	QWORD PTR 416[rsp], rax
	movabs	rax, 3546919203862231096
	mov	QWORD PTR 424[rsp], rdx
	movabs	rdx, 3835153977959854649
	mov	QWORD PTR 432[rsp], rax
	movabs	rax, 4122263930388298034
	mov	QWORD PTR 440[rsp], rdx
	movabs	rdx, 16106987313379638
	mov	QWORD PTR 441[rsp], rax
	mov	eax, 99
	cmp	rax, r10
	mov	eax, 0
	mov	QWORD PTR 449[rsp], rdx
	sbb	rax, r11
	jnc	.L2163
	mov	QWORD PTR 560[rsp], r12
	sub	ebp, 1
	mov	r15, r9
	mov	r12, rcx
	lea	r13, 256[rsp]
	.p2align 4
	.p2align 3
.L2164:
	mov	rax, r10
	mov	rcx, r10
	xor	edi, edi
	movabs	rbx, 1152921504606846975
	movabs	rsi, 1152921504606846975
	shrd	rax, r11, 60
	movabs	r8, -8116567392432202711
	and	rax, rbx
	and	rsi, r10
	mov	rbx, r11
	add	rsi, rax
	mov	rax, r11
	shr	rax, 56
	add	rsi, rax
	movabs	rax, 5165088340638674453
	mul	rsi
	mov	rax, rsi
	sub	rax, rdx
	shr	rax
	add	rdx, rax
	shr	rdx, 4
	lea	rax, [rdx+rdx*4]
	lea	rax, [rax+rax*4]
	sub	rsi, rax
	movabs	rax, 2951479051793528258
	sub	rcx, rsi
	sbb	rbx, rdi
	imul	rax, rcx
	imul	r8, rbx
	add	r8, rax
	movabs	rax, -8116567392432202711
	mul	rcx
	add	r8, rdx
	mov	rcx, rax
	and	eax, 3
	mov	rbx, r8
	mov	r8d, 25
	mul	r8
	mov	r8, r10
	mov	rdx, r11
	add	rax, rsi
	add	rax, rax
	shrd	rcx, rbx, 2
	movzx	r9d, BYTE PTR 1[r13+rax]
	mov	r10, rcx
	mov	ecx, ebp
	shr	rbx, 2
	movzx	eax, BYTE PTR 0[r13+rax]
	mov	r11, rbx
	mov	BYTE PTR 115[rsp+rcx], r9b
	lea	ecx, -1[rbp]
	sub	ebp, 2
	mov	BYTE PTR 115[rsp+rcx], al
	mov	eax, 9999
	cmp	rax, r8
	mov	eax, 0
	sbb	rax, rdx
	jc	.L2164
	mov	eax, 999
	mov	rcx, r12
	mov	r9, r15
	mov	rbx, r13
	cmp	rax, r8
	mov	eax, 0
	mov	r12, QWORD PTR 560[rsp]
	sbb	rax, rdx
	jc	.L2163
.L2157:
	add	r10d, 48
.L2165:
	lea	rsi, 115[rsp]
	mov	BYTE PTR 115[rsp], r10b
	lea	rbx, [rsi+r9]
	jmp	.L2156
	.p2align 4,,10
	.p2align 3
.L2166:
	lea	rsi, 115[rsp]
	mov	BYTE PTR 115[rsp], 48
	movzx	edx, BYTE PTR [rcx]
	lea	rbx, 116[rsp]
	mov	r10, rsi
	jmp	.L2154
	.p2align 4,,10
	.p2align 3
.L2219:
	mov	rax, r10
	or	rax, r11
	jne	.L2196
	mov	BYTE PTR 115[rsp], 48
	lea	rbx, 116[rsp]
	lea	rsi, 115[rsp]
	lea	rbp, .LC26[rip]
	jmp	.L2176
	.p2align 4,,10
	.p2align 3
.L2220:
	movabs	rbx, 3978425819141910832
	bsr	rax, r11
	movabs	rsi, 7378413942531504440
	lea	edx, 68[rax]
	mov	QWORD PTR 256[rsp], rbx
	shr	edx, 2
	mov	QWORD PTR 264[rsp], rsi
	mov	r8d, edx
	sub	edx, 1
	jmp	.L2179
	.p2align 4,,10
	.p2align 3
.L2221:
	bsr	rdx, r11
	xor	rdx, 63
	jmp	.L2215
	.p2align 4,,10
	.p2align 3
.L2167:
	bsr	rax, r11
	lea	edx, 67[rax]
	mov	eax, 2863311531
	imul	rdx, rax
	shr	rdx, 33
	mov	eax, edx
	sub	edx, 1
	jmp	.L2169
	.p2align 4,,10
	.p2align 3
.L2196:
	lea	rbp, .LC26[rip]
	jmp	.L2175
	.p2align 4,,10
	.p2align 3
.L2198:
	lea	rbx, 116[rsp]
	lea	rbp, .LC25[rip]
	lea	rsi, 115[rsp]
.L2177:
	mov	rdi, rsi
	mov	r15, rsi
	mov	rsi, rcx
	.p2align 4
	.p2align 3
.L2184:
	movsx	ecx, BYTE PTR [rdi]
	add	rdi, 1
	call	toupper
	mov	BYTE PTR -1[rdi], al
	cmp	rdi, rbx
	jne	.L2184
	mov	rcx, rsi
	mov	eax, 2
	mov	rsi, r15
	jmp	.L2174
	.p2align 4,,10
	.p2align 3
.L2182:
	movzx	edx, BYTE PTR [rbx+r10]
	jmp	.L2183
	.p2align 4,,10
	.p2align 3
.L2172:
	add	r10d, 48
	jmp	.L2173
	.p2align 4,,10
	.p2align 3
.L2163:
	add	r10, r10
	movzx	eax, BYTE PTR 1[rbx+r10]
	movzx	r10d, BYTE PTR [rbx+r10]
	mov	BYTE PTR 116[rsp], al
	jmp	.L2165
	.p2align 4,,10
	.p2align 3
.L2222:
	mov	rcx, QWORD PTR 544[rsp]
	mov	r10, r14
	mov	r11, r15
	add	ebp, 2
	mov	r12, QWORD PTR 560[rsp]
	jmp	.L2159
	.p2align 4,,10
	.p2align 3
.L2223:
	mov	rcx, QWORD PTR 544[rsp]
	mov	r10, r14
	mov	r11, r15
	add	ebp, 3
	mov	r12, QWORD PTR 560[rsp]
	jmp	.L2159
	.p2align 4,,10
	.p2align 3
.L2224:
	mov	rcx, QWORD PTR 544[rsp]
	mov	r12, QWORD PTR 560[rsp]
	mov	r10, r14
	mov	r11, r15
	jmp	.L2159
	.p2align 4,,10
	.p2align 3
.L2191:
	mov	eax, 1
	lea	rsi, 115[rsp]
	jmp	.L2151
.L2195:
	lea	rbx, 243[rsp]
	lea	rsi, 115[rsp]
	jmp	.L2156
.L2193:
	mov	r9d, 1
	jmp	.L2157
.L2139:
	lea	rcx, .LC28[rip]
	call	_ZSt20__throw_format_errorPKc
	nop
	.seh_endproc
	.section	.text.unlikely,"x"
	.align 2
.LCOLDB29:
	.text
.LHOTB29:
	.align 2
	.p2align 4
	.def	_ZNKSt8__format14__formatter_fpIcE11_M_localizeB5cxx11ESt17basic_string_viewIcSt11char_traitsIcEEcRKSt6locale.isra.0;	.scl	3;	.type	32;	.endef
	.seh_proc	_ZNKSt8__format14__formatter_fpIcE11_M_localizeB5cxx11ESt17basic_string_viewIcSt11char_traitsIcEEcRKSt6locale.isra.0
_ZNKSt8__format14__formatter_fpIcE11_M_localizeB5cxx11ESt17basic_string_viewIcSt11char_traitsIcEEcRKSt6locale.isra.0:
.LFB6143:
	push	r15
	.seh_pushreg	r15
	push	r14
	.seh_pushreg	r14
	push	r13
	.seh_pushreg	r13
	push	r12
	.seh_pushreg	r12
	push	rbp
	.seh_pushreg	rbp
	push	rdi
	.seh_pushreg	rdi
	push	rsi
	.seh_pushreg	rsi
	push	rbx
	.seh_pushreg	rbx
	sub	rsp, 152
	.seh_stackalloc	152
	.seh_endprologue
	mov	rdi, QWORD PTR [rdx]
	mov	rsi, QWORD PTR 8[rdx]
	lea	rbp, 16[rcx]
	mov	BYTE PTR 16[rcx], 0
	mov	rbx, rcx
	mov	r14d, r8d
	mov	QWORD PTR [rcx], rbp
	mov	r12, r9
	mov	QWORD PTR 8[rcx], 0
.LEHB43:
	call	_ZNSt6locale7classicEv
	mov	rdx, rax
	mov	rcx, r12
	call	_ZNKSt6localeeqERKS_
	test	al, al
	je	.L2291
.L2225:
	mov	rax, rbx
	add	rsp, 152
	pop	rbx
	pop	rsi
	pop	rdi
	pop	rbp
	pop	r12
	pop	r13
	pop	r14
	pop	r15
	ret
	.p2align 4,,10
	.p2align 3
.L2291:
	mov	rcx, QWORD PTR .refptr._ZNSt7__cxx118numpunctIcE2idE[rip]
	call	_ZNKSt6locale2id5_M_idEv
	mov	rdx, rax
	mov	rax, QWORD PTR [r12]
	mov	rax, QWORD PTR 8[rax]
	mov	r12, QWORD PTR [rax+rdx*8]
	test	r12, r12
	je	.L2227
	mov	rax, QWORD PTR [r12]
	mov	rcx, r12
	call	[QWORD PTR 16[rax]]
	mov	BYTE PTR 63[rsp], al
	mov	rax, QWORD PTR [r12]
	lea	rcx, 112[rsp]
	mov	rdx, r12
	mov	QWORD PTR 104[rsp], rcx
	call	[QWORD PTR 32[rax]]
.LEHE43:
	cmp	QWORD PTR 120[rsp], 0
	jne	.L2270
	cmp	BYTE PTR 63[rsp], 46
	jne	.L2270
	mov	rcx, QWORD PTR 112[rsp]
	lea	rax, 128[rsp]
	cmp	rcx, rax
	jne	.L2253
	jmp	.L2225
	.p2align 4,,10
	.p2align 3
.L2270:
	test	rdi, rdi
	je	.L2231
	mov	r8, rdi
	mov	edx, 46
	mov	rcx, rsi
	call	memchr
	movsx	edx, r14b
	mov	r8, rdi
	mov	rcx, rsi
	mov	QWORD PTR 64[rsp], rax
	call	memchr
	mov	r9, QWORD PTR 64[rsp]
	test	r9, r9
	je	.L2232
	sub	r9, rsi
	mov	QWORD PTR 64[rsp], r9
	test	rax, rax
	je	.L2259
.L2258:
	mov	rdx, QWORD PTR 64[rsp]
	sub	rax, rsi
	cmp	rax, rdx
	cmova	rax, rdx
	mov	r14, rax
.L2233:
	cmp	r14, -1
	je	.L2234
	mov	rdx, rdi
	sub	rdx, r14
	mov	r13, rdx
.L2235:
	mov	r10, QWORD PTR [rbx]
	lea	r9, 0[r13+r14*2]
	cmp	rbp, r10
	je	.L2292
	mov	rax, QWORD PTR 16[rbx]
	cmp	rax, r9
	jnb	.L2262
	movabs	rdx, 9223372036854775806
	cmp	rdx, r9
	jb	.L2238
	add	rax, rax
	cmp	r9, rax
	jb	.L2242
.L2240:
	lea	rcx, 1[r9]
.L2243:
	mov	QWORD PTR 80[rsp], r10
	mov	QWORD PTR 72[rsp], r9
.LEHB44:
	call	_Znwy
.LEHE44:
	mov	r15, rax
	mov	rax, QWORD PTR 8[rbx]
	mov	r9, QWORD PTR 72[rsp]
	mov	r10, QWORD PTR 80[rsp]
	test	rax, rax
	lea	r8, 1[rax]
	je	.L2293
	mov	rdx, r10
	mov	rcx, r15
	mov	QWORD PTR 80[rsp], r9
	mov	QWORD PTR 72[rsp], r10
	call	memcpy
	mov	r10, QWORD PTR 72[rsp]
	mov	r9, QWORD PTR 80[rsp]
	cmp	rbp, r10
	je	.L2246
.L2245:
	mov	rax, QWORD PTR 16[rbx]
	mov	rcx, r10
	mov	QWORD PTR 72[rsp], r9
	lea	rdx, 1[rax]
