	.file	"_ch144_move.cpp"
	.intel_syntax noprefix
	.text
.Ltext0:
	.cfi_sections	.debug_frame
	.file 0 "C:/CodeLearnling/note/note/C++/CPP-Bible" "Examples/_ch144_move.cpp"
	.section	.text$_ZSt21is_constant_evaluatedv,"x"
	.linkonce discard
	.globl	_ZSt21is_constant_evaluatedv
	.def	_ZSt21is_constant_evaluatedv;	.scl	2;	.type	32;	.endef
	.seh_proc	_ZSt21is_constant_evaluatedv
_ZSt21is_constant_evaluatedv:
.LFB15:
	.file 1 "C:/Qt/Tools/mingw1530_64/include/c++/15.3.0/type_traits"
	.loc 1 4008 3
	.cfi_startproc
	push	rbp
	.seh_pushreg	rbp
	.cfi_def_cfa_offset 16
	.cfi_offset 6, -16
	mov	rbp, rsp
	.seh_setframe	rbp, 0
	.cfi_def_cfa_register 6
	.seh_endprologue
	.loc 1 4010 49
	mov	eax, 0
	.loc 1 4014 3
	pop	rbp
	.cfi_restore 6
	.cfi_def_cfa 7, 8
	ret
	.cfi_endproc
.LFE15:
	.seh_endproc
	.section	.text$_ZnwyPv,"x"
	.linkonce discard
	.globl	_ZnwyPv
	.def	_ZnwyPv;	.scl	2;	.type	32;	.endef
	.seh_proc	_ZnwyPv
_ZnwyPv:
.LFB220:
	.file 2 "C:/Qt/Tools/mingw1530_64/include/c++/15.3.0/new"
	.loc 2 208 1
	.cfi_startproc
	push	rbp
	.seh_pushreg	rbp
	.cfi_def_cfa_offset 16
	.cfi_offset 6, -16
	mov	rbp, rsp
	.seh_setframe	rbp, 0
	.cfi_def_cfa_register 6
	.seh_endprologue
	mov	QWORD PTR 16[rbp], rcx
	mov	QWORD PTR 24[rbp], rdx
	.loc 2 208 10
	mov	rax, QWORD PTR 24[rbp]
	.loc 2 208 15
	pop	rbp
	.cfi_restore 6
	.cfi_def_cfa 7, 8
	ret
	.cfi_endproc
.LFE220:
	.seh_endproc
	.section	.text$_ZdlPvS_,"x"
	.linkonce discard
	.globl	_ZdlPvS_
	.def	_ZdlPvS_;	.scl	2;	.type	32;	.endef
	.seh_proc	_ZdlPvS_
_ZdlPvS_:
.LFB222:
	.loc 2 219 1
	.cfi_startproc
	push	rbp
	.seh_pushreg	rbp
	.cfi_def_cfa_offset 16
	.cfi_offset 6, -16
	mov	rbp, rsp
	.seh_setframe	rbp, 0
	.cfi_def_cfa_register 6
	.seh_endprologue
	mov	QWORD PTR 16[rbp], rcx
	mov	QWORD PTR 24[rbp], rdx
	.loc 2 219 3
	nop
	pop	rbp
	.cfi_restore 6
	.cfi_def_cfa 7, 8
	ret
	.cfi_endproc
.LFE222:
	.seh_endproc
	.section	.text$_ZNSt12_Vector_baseIiSaIiEE12_Vector_implD1Ev,"x"
	.linkonce discard
	.align 2
	.globl	_ZNSt12_Vector_baseIiSaIiEE12_Vector_implD1Ev
	.def	_ZNSt12_Vector_baseIiSaIiEE12_Vector_implD1Ev;	.scl	2;	.type	32;	.endef
	.seh_proc	_ZNSt12_Vector_baseIiSaIiEE12_Vector_implD1Ev
_ZNSt12_Vector_baseIiSaIiEE12_Vector_implD1Ev:
.LFB1724:
	.file 3 "C:/Qt/Tools/mingw1530_64/include/c++/15.3.0/bits/stl_vector.h"
	.loc 3 139 14
	.cfi_startproc
	push	rbp
	.seh_pushreg	rbp
	.cfi_def_cfa_offset 16
	.cfi_offset 6, -16
	mov	rbp, rsp
	.seh_setframe	rbp, 0
	.cfi_def_cfa_register 6
	sub	rsp, 16
	.seh_stackalloc	16
	.seh_endprologue
	mov	QWORD PTR 16[rbp], rcx
	mov	rax, QWORD PTR 16[rbp]
	mov	QWORD PTR -8[rbp], rax
.LBB193:
.LBB194:
.LBB195:
	.file 4 "C:/Qt/Tools/mingw1530_64/include/c++/15.3.0/bits/allocator.h"
	.loc 4 189 39
	nop
.LBE195:
.LBE194:
.LBE193:
	.loc 3 139 14
	nop
	add	rsp, 16
	pop	rbp
	.cfi_restore 6
	.cfi_def_cfa 7, 8
	ret
	.cfi_endproc
.LFE1724:
	.seh_endproc
	.text
	.globl	_Z11make_bufferv
	.def	_Z11make_bufferv;	.scl	2;	.type	32;	.endef
	.seh_proc	_Z11make_bufferv
_Z11make_bufferv:
.LFB1719:
	.file 5 "Examples/_ch144_move.cpp"
	.loc 5 5 32
	.cfi_startproc
	push	rbp
	.seh_pushreg	rbp
	.cfi_def_cfa_offset 16
	.cfi_offset 6, -16
	mov	rbp, rsp
	.seh_setframe	rbp, 0
	.cfi_def_cfa_register 6
	sub	rsp, 48
	.seh_stackalloc	48
	.seh_endprologue
	mov	QWORD PTR 16[rbp], rcx
	lea	rax, -13[rbp]
	mov	QWORD PTR -8[rbp], rax
.LBB196:
.LBB197:
.LBB198:
.LBB199:
.LBB200:
	.file 6 "C:/Qt/Tools/mingw1530_64/include/c++/15.3.0/bits/new_allocator.h"
	.loc 6 88 49
	nop
.LBE200:
.LBE199:
.LBE198:
	.loc 4 168 38
	nop
.LBE197:
.LBE196:
	.loc 5 6 30 discriminator 1
	mov	DWORD PTR -12[rbp], 7
	.loc 5 6 31 discriminator 1
	lea	rcx, -13[rbp]
	lea	rdx, -12[rbp]
	mov	rax, QWORD PTR 16[rbp]
	mov	r9, rcx
	mov	r8, rdx
	mov	edx, 4096
	mov	rcx, rax
.LEHB0:
	call	_ZNSt6vectorIiSaIiEEC1EyRKiRKS0_
.LEHE0:
.LBB201:
.LBB202:
	.loc 4 189 39
	nop
.LBE202:
.LBE201:
	.loc 5 7 12
	jmp	.L11
.L10:
.LBB203:
.LBB204:
	.loc 4 189 39
	nop
	mov	rcx, rax
.LEHB1:
	call	_Unwind_Resume
.LEHE1:
.L11:
.LBE204:
.LBE203:
	.loc 5 8 1
	mov	rax, QWORD PTR 16[rbp]
	add	rsp, 48
	pop	rbp
	.cfi_restore 6
	.cfi_def_cfa 7, 8
	ret
	.cfi_endproc
.LFE1719:
	.seh_handler	__gxx_personality_seh0, @unwind, @except
	.seh_handlerdata
.LLSDA1719:
	.byte	0xff
	.byte	0xff
	.byte	0x1
	.uleb128 .LLSDACSE1719-.LLSDACSB1719
.LLSDACSB1719:
	.uleb128 .LEHB0-.LFB1719
	.uleb128 .LEHE0-.LEHB0
	.uleb128 .L10-.LFB1719
	.uleb128 0
	.uleb128 .LEHB1-.LFB1719
	.uleb128 .LEHE1-.LEHB1
	.uleb128 0
	.uleb128 0
.LLSDACSE1719:
	.text
	.seh_endproc
	.globl	_Z7consumev
	.def	_Z7consumev;	.scl	2;	.type	32;	.endef
	.seh_proc	_Z7consumev
_Z7consumev:
.LFB1729:
	.loc 5 10 28
	.cfi_startproc
	push	rbp
	.seh_pushreg	rbp
	.cfi_def_cfa_offset 16
	.cfi_offset 6, -16
	push	rbx
	.seh_pushreg	rbx
	.cfi_def_cfa_offset 24
	.cfi_offset 3, -24
	sub	rsp, 56
	.seh_stackalloc	56
	.cfi_def_cfa_offset 80
	lea	rbp, 48[rsp]
	.seh_setframe	rbp, 48
	.cfi_def_cfa 6, 32
	.seh_endprologue
	mov	QWORD PTR 32[rbp], rcx
	.loc 5 11 26
	mov	rax, QWORD PTR 32[rbp]
	mov	rcx, rax
.LEHB2:
	call	_Z11make_bufferv
.LEHE2:
	.loc 5 12 17
	mov	DWORD PTR -4[rbp], 1
	.loc 5 12 16
	lea	rdx, -4[rbp]
	mov	rax, QWORD PTR 32[rbp]
	mov	rcx, rax
.LEHB3:
	call	_ZNSt6vectorIiSaIiEE9push_backEOi
.LEHE3:
	.loc 5 13 12
	jmp	.L16
.L15:
	.loc 5 14 1
	mov	rbx, rax
	mov	rax, QWORD PTR 32[rbp]
	mov	rcx, rax
	call	_ZNSt6vectorIiSaIiEED1Ev
	mov	rax, rbx
	mov	rcx, rax
.LEHB4:
	call	_Unwind_Resume
.LEHE4:
.L16:
	mov	rax, QWORD PTR 32[rbp]
	add	rsp, 56
	pop	rbx
	.cfi_restore 3
	pop	rbp
	.cfi_restore 6
	.cfi_def_cfa 7, -40
	ret
	.cfi_endproc
.LFE1729:
	.seh_handler	__gxx_personality_seh0, @unwind, @except
	.seh_handlerdata
.LLSDA1729:
	.byte	0xff
	.byte	0xff
	.byte	0x1
	.uleb128 .LLSDACSE1729-.LLSDACSB1729
.LLSDACSB1729:
	.uleb128 .LEHB2-.LFB1729
	.uleb128 .LEHE2-.LEHB2
	.uleb128 0
	.uleb128 0
	.uleb128 .LEHB3-.LFB1729
	.uleb128 .LEHE3-.LEHB3
	.uleb128 .L15-.LFB1729
	.uleb128 0
	.uleb128 .LEHB4-.LFB1729
	.uleb128 .LEHE4-.LEHB4
	.uleb128 0
	.uleb128 0
.LLSDACSE1729:
	.text
	.seh_endproc
	.globl	_Z4demov
	.def	_Z4demov;	.scl	2;	.type	32;	.endef
	.seh_proc	_Z4demov
_Z4demov:
.LFB1730:
	.loc 5 16 12
	.cfi_startproc
	push	rbp
	.seh_pushreg	rbp
	.cfi_def_cfa_offset 16
	.cfi_offset 6, -16
	push	rbx
	.seh_pushreg	rbx
	.cfi_def_cfa_offset 24
	.cfi_offset 3, -24
	sub	rsp, 72
	.seh_stackalloc	72
	.cfi_def_cfa_offset 96
	lea	rbp, 64[rsp]
	.seh_setframe	rbp, 64
	.cfi_def_cfa 6, 32
	.seh_endprologue
	.loc 5 17 22
	lea	rax, -32[rbp]
	mov	rcx, rax
	call	_Z7consumev
	.loc 5 18 35
	lea	rax, -32[rbp]
	mov	rcx, rax
	call	_ZNKSt6vectorIiSaIiEE4sizeEv
	.loc 5 18 37 discriminator 1
	mov	ebx, eax
	.loc 5 19 1
	lea	rax, -32[rbp]
	mov	rcx, rax
	call	_ZNSt6vectorIiSaIiEED1Ev
	.loc 5 18 37
	mov	eax, ebx
	.loc 5 19 1
	add	rsp, 72
	pop	rbx
	.cfi_restore 3
	pop	rbp
	.cfi_restore 6
	.cfi_def_cfa 7, -56
	ret
	.cfi_endproc
.LFE1730:
	.seh_endproc
	.section	.text$_ZNSt6vectorIiSaIiEEC1EyRKiRKS0_,"x"
	.linkonce discard
	.align 2
	.globl	_ZNSt6vectorIiSaIiEEC1EyRKiRKS0_
	.def	_ZNSt6vectorIiSaIiEEC1EyRKiRKS0_;	.scl	2;	.type	32;	.endef
	.seh_proc	_ZNSt6vectorIiSaIiEEC1EyRKiRKS0_
_ZNSt6vectorIiSaIiEEC1EyRKiRKS0_:
.LFB1744:
	.loc 3 599 7
	.cfi_startproc
	push	rbp
	.seh_pushreg	rbp
	.cfi_def_cfa_offset 16
	.cfi_offset 6, -16
	push	rbx
	.seh_pushreg	rbx
	.cfi_def_cfa_offset 24
	.cfi_offset 3, -24
	sub	rsp, 40
	.seh_stackalloc	40
	.cfi_def_cfa_offset 64
	lea	rbp, 32[rsp]
	.seh_setframe	rbp, 32
	.cfi_def_cfa 6, 32
	.seh_endprologue
	mov	QWORD PTR 32[rbp], rcx
	mov	QWORD PTR 40[rbp], rdx
	mov	QWORD PTR 48[rbp], r8
	mov	QWORD PTR 56[rbp], r9
.LBB205:
	.loc 3 601 47
	mov	rbx, QWORD PTR 32[rbp]
	mov	rdx, QWORD PTR 56[rbp]
	mov	rax, QWORD PTR 40[rbp]
	mov	rcx, rax
.LEHB5:
	call	_ZNSt6vectorIiSaIiEE17_S_check_init_lenEyRKS0_
	.loc 3 601 47 is_stmt 0 discriminator 1
	mov	rdx, QWORD PTR 56[rbp]
	mov	r8, rdx
	mov	rdx, rax
	mov	rcx, rbx
	call	_ZNSt12_Vector_baseIiSaIiEEC2EyRKS0_
.LEHE5:
	.loc 3 602 27 is_stmt 1
	mov	rcx, QWORD PTR 48[rbp]
	mov	rdx, QWORD PTR 40[rbp]
	mov	rax, QWORD PTR 32[rbp]
	mov	r8, rcx
	mov	rcx, rax
.LEHB6:
	call	_ZNSt6vectorIiSaIiEE18_M_fill_initializeEyRKi
.LEHE6:
.LBE205:
	.loc 3 602 43
	jmp	.L22
.L21:
.LBB206:
	.loc 3 602 43 is_stmt 0 discriminator 2
	mov	rbx, rax
	mov	rax, QWORD PTR 32[rbp]
	mov	rcx, rax
	call	_ZNSt12_Vector_baseIiSaIiEED2Ev
	mov	rax, rbx
	mov	rcx, rax
.LEHB7:
	call	_Unwind_Resume
	nop
.LEHE7:
.L22:
.LBE206:
	.loc 3 602 43
	add	rsp, 40
	pop	rbx
	.cfi_restore 3
	pop	rbp
	.cfi_restore 6
	.cfi_def_cfa 7, -24
	ret
	.cfi_endproc
.LFE1744:
	.seh_handler	__gxx_personality_seh0, @unwind, @except
	.seh_handlerdata
.LLSDA1744:
	.byte	0xff
	.byte	0xff
	.byte	0x1
	.uleb128 .LLSDACSE1744-.LLSDACSB1744
.LLSDACSB1744:
	.uleb128 .LEHB5-.LFB1744
	.uleb128 .LEHE5-.LEHB5
	.uleb128 0
	.uleb128 0
	.uleb128 .LEHB6-.LFB1744
	.uleb128 .LEHE6-.LEHB6
	.uleb128 .L21-.LFB1744
	.uleb128 0
	.uleb128 .LEHB7-.LFB1744
	.uleb128 .LEHE7-.LEHB7
	.uleb128 0
	.uleb128 0
.LLSDACSE1744:
	.section	.text$_ZNSt6vectorIiSaIiEEC1EyRKiRKS0_,"x"
	.linkonce discard
	.seh_endproc
	.section	.text$_ZNSt6vectorIiSaIiEED1Ev,"x"
	.linkonce discard
	.align 2
	.globl	_ZNSt6vectorIiSaIiEED1Ev
	.def	_ZNSt6vectorIiSaIiEED1Ev;	.scl	2;	.type	32;	.endef
	.seh_proc	_ZNSt6vectorIiSaIiEED1Ev
_ZNSt6vectorIiSaIiEED1Ev:
.LFB1747:
	.loc 3 800 7 is_stmt 1
	.cfi_startproc
	push	rbp
	.seh_pushreg	rbp
	.cfi_def_cfa_offset 16
	.cfi_offset 6, -16
	mov	rbp, rsp
	.seh_setframe	rbp, 0
	.cfi_def_cfa_register 6
	sub	rsp, 64
	.seh_stackalloc	64
	.seh_endprologue
	mov	QWORD PTR 16[rbp], rcx
.LBB207:
	.loc 3 803 28
	mov	rax, QWORD PTR 16[rbp]
	mov	rcx, rax
	call	_ZNSt12_Vector_baseIiSaIiEE19_M_get_Tp_allocatorEv
	.loc 3 802 54
	mov	rdx, QWORD PTR 16[rbp]
	mov	rdx, QWORD PTR 8[rdx]
	.loc 3 802 30
	mov	rcx, QWORD PTR 16[rbp]
	mov	rcx, QWORD PTR [rcx]
	mov	QWORD PTR -8[rbp], rcx
	mov	QWORD PTR -16[rbp], rdx
	mov	QWORD PTR -24[rbp], rax
.LBB208:
.LBB209:
	.file 7 "C:/Qt/Tools/mingw1530_64/include/c++/15.3.0/bits/alloc_traits.h"
	.loc 7 1045 20
	mov	rdx, QWORD PTR -16[rbp]
	mov	rax, QWORD PTR -8[rbp]
	mov	rcx, rax
	call	_ZSt8_DestroyIPiEvT_S1_
	.loc 7 1046 5
	nop
.LBE209:
.LBE208:
	.loc 3 805 7
	mov	rax, QWORD PTR 16[rbp]
	mov	rcx, rax
	call	_ZNSt12_Vector_baseIiSaIiEED2Ev
.LBE207:
	nop
	add	rsp, 64
	pop	rbp
	.cfi_restore 6
	.cfi_def_cfa 7, 8
	ret
	.cfi_endproc
.LFE1747:
	.seh_handler	__gxx_personality_seh0, @unwind, @except
	.seh_handlerdata
.LLSDA1747:
	.byte	0xff
	.byte	0xff
	.byte	0x1
	.uleb128 .LLSDACSE1747-.LLSDACSB1747
.LLSDACSB1747:
.LLSDACSE1747:
	.section	.text$_ZNSt6vectorIiSaIiEED1Ev,"x"
	.linkonce discard
	.seh_endproc
	.section	.text$_ZNSt12_Vector_baseIiSaIiEED2Ev,"x"
	.linkonce discard
	.align 2
	.globl	_ZNSt12_Vector_baseIiSaIiEED2Ev
	.def	_ZNSt12_Vector_baseIiSaIiEED2Ev;	.scl	2;	.type	32;	.endef
	.seh_proc	_ZNSt12_Vector_baseIiSaIiEED2Ev
_ZNSt12_Vector_baseIiSaIiEED2Ev:
.LFB1752:
	.loc 3 373 7
	.cfi_startproc
	push	rbp
	.seh_pushreg	rbp
	.cfi_def_cfa_offset 16
	.cfi_offset 6, -16
	mov	rbp, rsp
	.seh_setframe	rbp, 0
	.cfi_def_cfa_register 6
	sub	rsp, 32
	.seh_stackalloc	32
	.seh_endprologue
	mov	QWORD PTR 16[rbp], rcx
.LBB210:
	.loc 3 376 17
	mov	rax, QWORD PTR 16[rbp]
	mov	rdx, QWORD PTR 16[rax]
	.loc 3 376 45
	mov	rax, QWORD PTR 16[rbp]
	mov	rax, QWORD PTR [rax]
	.loc 3 376 35
	sub	rdx, rax
	mov	rax, rdx
	sar	rax, 2
	.loc 3 375 15
	mov	rcx, rax
	mov	rax, QWORD PTR 16[rbp]
	mov	rdx, QWORD PTR [rax]
	mov	rax, QWORD PTR 16[rbp]
	mov	r8, rcx
	mov	rcx, rax
	call	_ZNSt12_Vector_baseIiSaIiEE13_M_deallocateEPiy
	.loc 3 377 7
	mov	rax, QWORD PTR 16[rbp]
	mov	rcx, rax
	call	_ZNSt12_Vector_baseIiSaIiEE12_Vector_implD1Ev
.LBE210:
	nop
	add	rsp, 32
	pop	rbp
	.cfi_restore 6
	.cfi_def_cfa 7, 8
	ret
	.cfi_endproc
.LFE1752:
	.seh_handler	__gxx_personality_seh0, @unwind, @except
	.seh_handlerdata
.LLSDA1752:
	.byte	0xff
	.byte	0xff
	.byte	0x1
	.uleb128 .LLSDACSE1752-.LLSDACSB1752
.LLSDACSB1752:
.LLSDACSE1752:
	.section	.text$_ZNSt12_Vector_baseIiSaIiEED2Ev,"x"
	.linkonce discard
	.seh_endproc
	.section	.text$_ZNSt6vectorIiSaIiEE9push_backEOi,"x"
	.linkonce discard
	.align 2
	.globl	_ZNSt6vectorIiSaIiEE9push_backEOi
	.def	_ZNSt6vectorIiSaIiEE9push_backEOi;	.scl	2;	.type	32;	.endef
	.seh_proc	_ZNSt6vectorIiSaIiEE9push_backEOi
_ZNSt6vectorIiSaIiEE9push_backEOi:
.LFB1754:
	.loc 3 1433 7
	.cfi_startproc
	push	rbp
	.seh_pushreg	rbp
	.cfi_def_cfa_offset 16
	.cfi_offset 6, -16
	mov	rbp, rsp
	.seh_setframe	rbp, 0
	.cfi_def_cfa_register 6
	sub	rsp, 48
	.seh_stackalloc	48
	.seh_endprologue
	mov	QWORD PTR 16[rbp], rcx
	mov	QWORD PTR 24[rbp], rdx
	mov	rax, QWORD PTR 24[rbp]
	mov	QWORD PTR -8[rbp], rax
.LBB211:
.LBB212:
	.file 8 "C:/Qt/Tools/mingw1530_64/include/c++/15.3.0/bits/move.h"
	.loc 8 139 74
	mov	rdx, QWORD PTR -8[rbp]
.LBE212:
.LBE211:
	.loc 3 1434 21 discriminator 1
	mov	rax, QWORD PTR 16[rbp]
	mov	rcx, rax
	call	_ZNSt6vectorIiSaIiEE12emplace_backIJiEEERiDpOT_
	.loc 3 1434 39
	nop
	add	rsp, 48
	pop	rbp
	.cfi_restore 6
	.cfi_def_cfa 7, 8
	ret
	.cfi_endproc
.LFE1754:
	.seh_endproc
	.section	.text$_ZNKSt6vectorIiSaIiEE4sizeEv,"x"
	.linkonce discard
	.align 2
	.globl	_ZNKSt6vectorIiSaIiEE4sizeEv
	.def	_ZNKSt6vectorIiSaIiEE4sizeEv;	.scl	2;	.type	32;	.endef
	.seh_proc	_ZNKSt6vectorIiSaIiEE4sizeEv
_ZNKSt6vectorIiSaIiEE4sizeEv:
.LFB1755:
	.loc 3 1117 7
	.cfi_startproc
	push	rbp
	.seh_pushreg	rbp
	.cfi_def_cfa_offset 16
	.cfi_offset 6, -16
	mov	rbp, rsp
	.seh_setframe	rbp, 0
	.cfi_def_cfa_register 6
	sub	rsp, 16
	.seh_stackalloc	16
	.seh_endprologue
	mov	QWORD PTR 16[rbp], rcx
	.loc 3 1119 34
	mov	rax, QWORD PTR 16[rbp]
	mov	rdx, QWORD PTR 8[rax]
	.loc 3 1119 60
	mov	rax, QWORD PTR 16[rbp]
	mov	rax, QWORD PTR [rax]
	.loc 3 1119 44
	sub	rdx, rax
	.loc 3 1119 12
	mov	rax, rdx
	sar	rax, 2
	mov	QWORD PTR -8[rbp], rax
	.loc 3 1120 2
	cmp	QWORD PTR -8[rbp], 0
	.loc 3 1122 24
	mov	rax, QWORD PTR -8[rbp]
	.loc 3 1123 7
	add	rsp, 16
	pop	rbp
	.cfi_restore 6
	.cfi_def_cfa 7, 8
	ret
	.cfi_endproc
.LFE1755:
	.seh_endproc
	.section .rdata,"dr"
	.align 8
.LC0:
	.ascii "cannot create std::vector larger than max_size()\0"
	.section	.text$_ZNSt6vectorIiSaIiEE17_S_check_init_lenEyRKS0_,"x"
	.linkonce discard
	.globl	_ZNSt6vectorIiSaIiEE17_S_check_init_lenEyRKS0_
	.def	_ZNSt6vectorIiSaIiEE17_S_check_init_lenEyRKS0_;	.scl	2;	.type	32;	.endef
	.seh_proc	_ZNSt6vectorIiSaIiEE17_S_check_init_lenEyRKS0_
_ZNSt6vectorIiSaIiEE17_S_check_init_lenEyRKS0_:
.LFB1759:
	.loc 3 2213 7
	.cfi_startproc
	push	rbp
	.seh_pushreg	rbp
	.cfi_def_cfa_offset 16
	.cfi_offset 6, -16
	mov	rbp, rsp
	.seh_setframe	rbp, 0
	.cfi_def_cfa_register 6
	sub	rsp, 64
	.seh_stackalloc	64
	.seh_endprologue
	mov	QWORD PTR 16[rbp], rcx
	mov	QWORD PTR 24[rbp], rdx
	mov	rax, QWORD PTR 24[rbp]
	mov	QWORD PTR -8[rbp], rax
	lea	rax, -25[rbp]
	mov	QWORD PTR -16[rbp], rax
	mov	rax, QWORD PTR -8[rbp]
	mov	QWORD PTR -24[rbp], rax
.LBB213:
.LBB214:
.LBB215:
.LBB216:
.LBB217:
	.loc 6 92 71
	nop
.LBE217:
.LBE216:
.LBE215:
	.loc 4 173 38
	nop
.LBE214:
.LBE213:
	.loc 3 2215 23 discriminator 1
	lea	rax, -25[rbp]
	mov	rcx, rax
	call	_ZNSt6vectorIiSaIiEE11_S_max_sizeERKS0_
	.loc 3 2215 10 discriminator 2
	cmp	rax, QWORD PTR 16[rbp]
	setb	al
.LBB218:
.LBB219:
	.loc 4 189 39
	nop
.LBE219:
.LBE218:
	.loc 3 2215 2 discriminator 3
	test	al, al
	je	.L31
	.loc 3 2216 24
	lea	rax, .LC0[rip]
	mov	rcx, rax
	call	_ZSt20__throw_length_errorPKc
.L31:
	.loc 3 2218 9
	mov	rax, QWORD PTR 16[rbp]
	.loc 3 2219 7
	add	rsp, 64
	pop	rbp
	.cfi_restore 6
	.cfi_def_cfa 7, 8
	ret
	.cfi_endproc
.LFE1759:
	.seh_endproc
	.section	.text$_ZNSt12_Vector_baseIiSaIiEEC2EyRKS0_,"x"
	.linkonce discard
	.align 2
	.globl	_ZNSt12_Vector_baseIiSaIiEEC2EyRKS0_
	.def	_ZNSt12_Vector_baseIiSaIiEEC2EyRKS0_;	.scl	2;	.type	32;	.endef
	.seh_proc	_ZNSt12_Vector_baseIiSaIiEEC2EyRKS0_
_ZNSt12_Vector_baseIiSaIiEEC2EyRKS0_:
.LFB1761:
	.loc 3 339 7
	.cfi_startproc
	push	rbp
	.seh_pushreg	rbp
	.cfi_def_cfa_offset 16
	.cfi_offset 6, -16
	push	rbx
	.seh_pushreg	rbx
	.cfi_def_cfa_offset 24
	.cfi_offset 3, -24
	sub	rsp, 40
	.seh_stackalloc	40
	.cfi_def_cfa_offset 64
	lea	rbp, 32[rsp]
	.seh_setframe	rbp, 32
	.cfi_def_cfa 6, 32
	.seh_endprologue
	mov	QWORD PTR 32[rbp], rcx
	mov	QWORD PTR 40[rbp], rdx
	mov	QWORD PTR 48[rbp], r8
.LBB220:
	.loc 3 340 9
	mov	rax, QWORD PTR 32[rbp]
	mov	rdx, QWORD PTR 48[rbp]
	mov	rcx, rax
	call	_ZNSt12_Vector_baseIiSaIiEE12_Vector_implC1ERKS0_
	.loc 3 341 26
	mov	rdx, QWORD PTR 40[rbp]
	mov	rax, QWORD PTR 32[rbp]
	mov	rcx, rax
.LEHB8:
	call	_ZNSt12_Vector_baseIiSaIiEE17_M_create_storageEy
.LEHE8:
.LBE220:
	.loc 3 341 33
	jmp	.L36
.L35:
.LBB221:
	.loc 3 341 33 is_stmt 0 discriminator 2
	mov	rbx, rax
	mov	rax, QWORD PTR 32[rbp]
	mov	rcx, rax
	call	_ZNSt12_Vector_baseIiSaIiEE12_Vector_implD1Ev
	mov	rax, rbx
	mov	rcx, rax
.LEHB9:
	call	_Unwind_Resume
	nop
.LEHE9:
.L36:
.LBE221:
	.loc 3 341 33
	add	rsp, 40
	pop	rbx
	.cfi_restore 3
	pop	rbp
	.cfi_restore 6
	.cfi_def_cfa 7, -24
	ret
	.cfi_endproc
.LFE1761:
	.seh_handler	__gxx_personality_seh0, @unwind, @except
	.seh_handlerdata
.LLSDA1761:
	.byte	0xff
	.byte	0xff
	.byte	0x1
	.uleb128 .LLSDACSE1761-.LLSDACSB1761
.LLSDACSB1761:
	.uleb128 .LEHB8-.LFB1761
	.uleb128 .LEHE8-.LEHB8
	.uleb128 .L35-.LFB1761
	.uleb128 0
	.uleb128 .LEHB9-.LFB1761
	.uleb128 .LEHE9-.LEHB9
	.uleb128 0
	.uleb128 0
.LLSDACSE1761:
	.section	.text$_ZNSt12_Vector_baseIiSaIiEEC2EyRKS0_,"x"
	.linkonce discard
	.seh_endproc
	.section	.text$_ZNSt6vectorIiSaIiEE18_M_fill_initializeEyRKi,"x"
	.linkonce discard
	.align 2
	.globl	_ZNSt6vectorIiSaIiEE18_M_fill_initializeEyRKi
	.def	_ZNSt6vectorIiSaIiEE18_M_fill_initializeEyRKi;	.scl	2;	.type	32;	.endef
	.seh_proc	_ZNSt6vectorIiSaIiEE18_M_fill_initializeEyRKi
_ZNSt6vectorIiSaIiEE18_M_fill_initializeEyRKi:
.LFB1763:
	.loc 3 1997 7 is_stmt 1
	.cfi_startproc
	push	rbp
	.seh_pushreg	rbp
	.cfi_def_cfa_offset 16
	.cfi_offset 6, -16
	mov	rbp, rsp
	.seh_setframe	rbp, 0
	.cfi_def_cfa_register 6
	sub	rsp, 32
	.seh_stackalloc	32
	.seh_endprologue
	mov	QWORD PTR 16[rbp], rcx
	mov	QWORD PTR 24[rbp], rdx
	mov	QWORD PTR 32[rbp], r8
	.loc 3 2001 25
	mov	rax, QWORD PTR 16[rbp]
	mov	rcx, rax
	call	_ZNSt12_Vector_baseIiSaIiEE19_M_get_Tp_allocatorEv
	mov	rcx, rax
	.loc 3 2000 48
	mov	rax, QWORD PTR 16[rbp]
	mov	rax, QWORD PTR [rax]
	.loc 3 2000 33
	mov	r8, QWORD PTR 32[rbp]
	mov	rdx, QWORD PTR 24[rbp]
	mov	r9, rcx
	mov	rcx, rax
	call	_ZSt24__uninitialized_fill_n_aIPiyiiET_S1_T0_RKT1_RSaIT2_E
	.loc 3 1999 26
	mov	rdx, QWORD PTR 16[rbp]
	mov	QWORD PTR 8[rdx], rax
	.loc 3 2002 7
	nop
	add	rsp, 32
	pop	rbp
	.cfi_restore 6
	.cfi_def_cfa 7, 8
	ret
	.cfi_endproc
.LFE1763:
	.seh_endproc
	.section	.text$_ZNSt12_Vector_baseIiSaIiEE19_M_get_Tp_allocatorEv,"x"
	.linkonce discard
	.align 2
	.globl	_ZNSt12_Vector_baseIiSaIiEE19_M_get_Tp_allocatorEv
	.def	_ZNSt12_Vector_baseIiSaIiEE19_M_get_Tp_allocatorEv;	.scl	2;	.type	32;	.endef
	.seh_proc	_ZNSt12_Vector_baseIiSaIiEE19_M_get_Tp_allocatorEv
_ZNSt12_Vector_baseIiSaIiEE19_M_get_Tp_allocatorEv:
.LFB1764:
	.loc 3 307 7
	.cfi_startproc
	push	rbp
	.seh_pushreg	rbp
	.cfi_def_cfa_offset 16
	.cfi_offset 6, -16
	mov	rbp, rsp
	.seh_setframe	rbp, 0
	.cfi_def_cfa_register 6
	.seh_endprologue
	mov	QWORD PTR 16[rbp], rcx
	.loc 3 308 22
	mov	rax, QWORD PTR 16[rbp]
	.loc 3 308 31
	pop	rbp
	.cfi_restore 6
	.cfi_def_cfa 7, 8
	ret
	.cfi_endproc
.LFE1764:
	.seh_endproc
	.section	.text$_ZNSt12_Vector_baseIiSaIiEE13_M_deallocateEPiy,"x"
	.linkonce discard
	.align 2
	.globl	_ZNSt12_Vector_baseIiSaIiEE13_M_deallocateEPiy
	.def	_ZNSt12_Vector_baseIiSaIiEE13_M_deallocateEPiy;	.scl	2;	.type	32;	.endef
	.seh_proc	_ZNSt12_Vector_baseIiSaIiEE13_M_deallocateEPiy
_ZNSt12_Vector_baseIiSaIiEE13_M_deallocateEPiy:
.LFB1773:
	.loc 3 392 7
	.cfi_startproc
	push	rbp
	.seh_pushreg	rbp
	.cfi_def_cfa_offset 16
	.cfi_offset 6, -16
	mov	rbp, rsp
	.seh_setframe	rbp, 0
	.cfi_def_cfa_register 6
	sub	rsp, 80
	.seh_stackalloc	80
	.seh_endprologue
	mov	QWORD PTR 16[rbp], rcx
	mov	QWORD PTR 24[rbp], rdx
	mov	QWORD PTR 32[rbp], r8
	.loc 3 395 2
	cmp	QWORD PTR 24[rbp], 0
	je	.L45
	.loc 3 396 20
	mov	rax, QWORD PTR 16[rbp]
	mov	QWORD PTR -8[rbp], rax
	mov	rax, QWORD PTR 24[rbp]
	mov	QWORD PTR -16[rbp], rax
	mov	rax, QWORD PTR 32[rbp]
	mov	QWORD PTR -24[rbp], rax
	mov	rax, QWORD PTR -8[rbp]
	mov	QWORD PTR -32[rbp], rax
	mov	rax, QWORD PTR -16[rbp]
	mov	QWORD PTR -40[rbp], rax
	mov	rax, QWORD PTR -24[rbp]
	mov	QWORD PTR -48[rbp], rax
.LBB222:
.LBB223:
.LBB224:
.LBB225:
.LBB226:
.LBB227:
	.file 9 "C:/Qt/Tools/mingw1530_64/include/c++/15.3.0/x86_64-w64-mingw32/bits/c++config.h"
	.loc 9 586 49
	mov	eax, 0
.LBE227:
.LBE226:
	.loc 4 210 2 discriminator 1
	test	al, al
	je	.L43
	.loc 4 212 23
	mov	rax, QWORD PTR -40[rbp]
	mov	rcx, rax
	call	_ZdlPv
	.loc 4 213 6
	jmp	.L44
.L43:
	.loc 4 215 35
	mov	rcx, QWORD PTR -48[rbp]
	mov	rdx, QWORD PTR -40[rbp]
	mov	rax, QWORD PTR -32[rbp]
	mov	r8, rcx
	mov	rcx, rax
	call	_ZNSt15__new_allocatorIiE10deallocateEPiy
.L44:
.LBE225:
.LBE224:
	.loc 7 649 35
	nop
.L45:
.LBE223:
.LBE222:
	.loc 3 397 7
	nop
	add	rsp, 80
	pop	rbp
	.cfi_restore 6
	.cfi_def_cfa 7, 8
	ret
	.cfi_endproc
.LFE1773:
	.seh_endproc
	.section	.text$_ZNSt6vectorIiSaIiEE12emplace_backIJiEEERiDpOT_,"x"
	.linkonce discard
	.align 2
	.globl	_ZNSt6vectorIiSaIiEE12emplace_backIJiEEERiDpOT_
	.def	_ZNSt6vectorIiSaIiEE12emplace_backIJiEEERiDpOT_;	.scl	2;	.type	32;	.endef
	.seh_proc	_ZNSt6vectorIiSaIiEE12emplace_backIJiEEERiDpOT_
_ZNSt6vectorIiSaIiEE12emplace_backIJiEEERiDpOT_:
.LFB1775:
	.file 10 "C:/Qt/Tools/mingw1530_64/include/c++/15.3.0/bits/vector.tcc"
	.loc 10 111 7
	.cfi_startproc
	push	rbp
	.seh_pushreg	rbp
	.cfi_def_cfa_offset 16
	.cfi_offset 6, -16
	mov	rbp, rsp
	.seh_setframe	rbp, 0
	.cfi_def_cfa_register 6
	sub	rsp, 80
	.seh_stackalloc	80
	.seh_endprologue
	mov	QWORD PTR 16[rbp], rcx
	mov	QWORD PTR 24[rbp], rdx
	.loc 10 114 20
	mov	rax, QWORD PTR 16[rbp]
	mov	rdx, QWORD PTR 8[rax]
	.loc 10 114 47
	mov	rax, QWORD PTR 16[rbp]
	mov	rax, QWORD PTR 16[rax]
	.loc 10 114 2
	cmp	rdx, rax
	je	.L47
	mov	rax, QWORD PTR 24[rbp]
	mov	QWORD PTR -40[rbp], rax
.LBB228:
.LBB229:
	.loc 8 73 36
	mov	rdx, QWORD PTR -40[rbp]
.LBE229:
.LBE228:
	.loc 10 117 60 discriminator 1
	mov	rax, QWORD PTR 16[rbp]
	mov	rcx, QWORD PTR 8[rax]
	.loc 10 117 37 discriminator 1
	mov	rax, QWORD PTR 16[rbp]
	mov	QWORD PTR -8[rbp], rcx
	mov	QWORD PTR -16[rbp], rdx
	mov	QWORD PTR -24[rbp], rax
	mov	rax, QWORD PTR -16[rbp]
	mov	QWORD PTR -32[rbp], rax
.LBB230:
.LBB231:
.LBB232:
.LBB233:
	.loc 8 73 36
	mov	rdx, QWORD PTR -32[rbp]
.LBE233:
.LBE232:
	.loc 7 676 21 discriminator 1
	mov	rax, QWORD PTR -8[rbp]
	mov	rcx, rax
	call	_ZSt12construct_atIiJiEQaant20is_unbounded_array_vIT_ErqXgsnwcvPvLi0E_S0_pispcl7declvalIT0_EEEEEPS0_S3_DpOS2_
	.loc 7 680 2
	nop
.LBE231:
.LBE230:
	.loc 10 119 22
	mov	rax, QWORD PTR 16[rbp]
	mov	rax, QWORD PTR 8[rax]
	.loc 10 119 6
	lea	rdx, 4[rax]
	mov	rax, QWORD PTR 16[rbp]
	mov	QWORD PTR 8[rax], rdx
	jmp	.L50
.L47:
	mov	rax, QWORD PTR 24[rbp]
	mov	QWORD PTR -48[rbp], rax
.LBB234:
.LBB235:
	.loc 8 73 36
	mov	rdx, QWORD PTR -48[rbp]
.LBE235:
.LBE234:
	.loc 10 123 21 discriminator 1
	mov	rax, QWORD PTR 16[rbp]
	mov	rcx, rax
	call	_ZNSt6vectorIiSaIiEE17_M_realloc_appendIJiEEEvDpOT_
.L50:
	.loc 10 125 13
	mov	rax, QWORD PTR 16[rbp]
	mov	rcx, rax
	call	_ZNSt6vectorIiSaIiEE4backEv
	.loc 10 127 7
	add	rsp, 80
	pop	rbp
	.cfi_restore 6
	.cfi_def_cfa 7, 8
	ret
	.cfi_endproc
.LFE1775:
	.seh_endproc
	.section	.text$_ZNSt6vectorIiSaIiEE11_S_max_sizeERKS0_,"x"
	.linkonce discard
	.globl	_ZNSt6vectorIiSaIiEE11_S_max_sizeERKS0_
	.def	_ZNSt6vectorIiSaIiEE11_S_max_sizeERKS0_;	.scl	2;	.type	32;	.endef
	.seh_proc	_ZNSt6vectorIiSaIiEE11_S_max_sizeERKS0_
_ZNSt6vectorIiSaIiEE11_S_max_sizeERKS0_:
.LFB1777:
	.loc 3 2222 7
	.cfi_startproc
	push	rbp
	.seh_pushreg	rbp
	.cfi_def_cfa_offset 16
	.cfi_offset 6, -16
	mov	rbp, rsp
	.seh_setframe	rbp, 0
	.cfi_def_cfa_register 6
	sub	rsp, 48
	.seh_stackalloc	48
	.seh_endprologue
	mov	QWORD PTR 16[rbp], rcx
	.loc 3 2227 15
	movabs	rax, 2305843009213693951
	mov	QWORD PTR -8[rbp], rax
	.loc 3 2229 15
	movabs	rax, 4611686018427387903
	mov	QWORD PTR -16[rbp], rax
	.loc 3 2230 19
	lea	rdx, -16[rbp]
	lea	rax, -8[rbp]
	mov	rcx, rax
	call	_ZSt3minIyERKT_S2_S2_
	.loc 3 2230 41 discriminator 1
	mov	rax, QWORD PTR [rax]
	.loc 3 2231 7
	add	rsp, 48
	pop	rbp
	.cfi_restore 6
	.cfi_def_cfa 7, 8
	ret
	.cfi_endproc
.LFE1777:
	.seh_endproc
	.section	.text$_ZNSt12_Vector_baseIiSaIiEE12_Vector_implC1ERKS0_,"x"
	.linkonce discard
	.align 2
	.globl	_ZNSt12_Vector_baseIiSaIiEE12_Vector_implC1ERKS0_
	.def	_ZNSt12_Vector_baseIiSaIiEE12_Vector_implC1ERKS0_;	.scl	2;	.type	32;	.endef
	.seh_proc	_ZNSt12_Vector_baseIiSaIiEE12_Vector_implC1ERKS0_
_ZNSt12_Vector_baseIiSaIiEE12_Vector_implC1ERKS0_:
.LFB1781:
	.loc 3 152 2
	.cfi_startproc
	push	rbp
	.seh_pushreg	rbp
	.cfi_def_cfa_offset 16
	.cfi_offset 6, -16
	mov	rbp, rsp
	.seh_setframe	rbp, 0
	.cfi_def_cfa_register 6
	sub	rsp, 64
	.seh_stackalloc	64
	.seh_endprologue
	mov	QWORD PTR 16[rbp], rcx
	mov	QWORD PTR 24[rbp], rdx
	mov	rax, QWORD PTR 16[rbp]
	mov	QWORD PTR -8[rbp], rax
	mov	rax, QWORD PTR 24[rbp]
	mov	QWORD PTR -16[rbp], rax
	mov	rax, QWORD PTR -8[rbp]
	mov	QWORD PTR -24[rbp], rax
	mov	rax, QWORD PTR -16[rbp]
	mov	QWORD PTR -32[rbp], rax
.LBB236:
.LBB237:
.LBB238:
.LBB239:
.LBB240:
.LBB241:
	.loc 6 92 71
	nop
.LBE241:
.LBE240:
.LBE239:
	.loc 4 173 38
	nop
.LBE238:
.LBE237:
	.loc 3 153 22 discriminator 1
	mov	rax, QWORD PTR 16[rbp]
	mov	rcx, rax
	call	_ZNSt12_Vector_baseIiSaIiEE17_Vector_impl_dataC2Ev
.LBE236:
	.loc 3 154 4
	nop
	add	rsp, 64
	pop	rbp
	.cfi_restore 6
	.cfi_def_cfa 7, 8
	ret
	.cfi_endproc
.LFE1781:
	.seh_endproc
	.section	.text$_ZNSt12_Vector_baseIiSaIiEE17_M_create_storageEy,"x"
	.linkonce discard
	.align 2
	.globl	_ZNSt12_Vector_baseIiSaIiEE17_M_create_storageEy
	.def	_ZNSt12_Vector_baseIiSaIiEE17_M_create_storageEy;	.scl	2;	.type	32;	.endef
	.seh_proc	_ZNSt12_Vector_baseIiSaIiEE17_M_create_storageEy
_ZNSt12_Vector_baseIiSaIiEE17_M_create_storageEy:
.LFB1782:
	.loc 3 403 7
	.cfi_startproc
	push	rbp
	.seh_pushreg	rbp
	.cfi_def_cfa_offset 16
	.cfi_offset 6, -16
	mov	rbp, rsp
	.seh_setframe	rbp, 0
	.cfi_def_cfa_register 6
	sub	rsp, 32
	.seh_stackalloc	32
	.seh_endprologue
	mov	QWORD PTR 16[rbp], rcx
	mov	QWORD PTR 24[rbp], rdx
	.loc 3 405 44
	mov	rdx, QWORD PTR 24[rbp]
	mov	rax, QWORD PTR 16[rbp]
	mov	rcx, rax
	call	_ZNSt12_Vector_baseIiSaIiEE11_M_allocateEy
	.loc 3 405 25 discriminator 1
	mov	rdx, QWORD PTR 16[rbp]
	mov	QWORD PTR [rdx], rax
	.loc 3 406 42
	mov	rax, QWORD PTR 16[rbp]
	mov	rdx, QWORD PTR [rax]
	.loc 3 406 26
	mov	rax, QWORD PTR 16[rbp]
	mov	QWORD PTR 8[rax], rdx
	.loc 3 407 50
	mov	rax, QWORD PTR 16[rbp]
	mov	rax, QWORD PTR [rax]
	.loc 3 407 59
	mov	rdx, QWORD PTR 24[rbp]
	sal	rdx, 2
	add	rdx, rax
	.loc 3 407 34
	mov	rax, QWORD PTR 16[rbp]
	mov	QWORD PTR 16[rax], rdx
	.loc 3 408 7
	nop
	add	rsp, 32
	pop	rbp
	.cfi_restore 6
	.cfi_def_cfa 7, 8
	ret
	.cfi_endproc
.LFE1782:
	.seh_endproc
	.section	.text$_ZSt24__uninitialized_fill_n_aIPiyiiET_S1_T0_RKT1_RSaIT2_E,"x"
	.linkonce discard
	.globl	_ZSt24__uninitialized_fill_n_aIPiyiiET_S1_T0_RKT1_RSaIT2_E
	.def	_ZSt24__uninitialized_fill_n_aIPiyiiET_S1_T0_RKT1_RSaIT2_E;	.scl	2;	.type	32;	.endef
	.seh_proc	_ZSt24__uninitialized_fill_n_aIPiyiiET_S1_T0_RKT1_RSaIT2_E
_ZSt24__uninitialized_fill_n_aIPiyiiET_S1_T0_RKT1_RSaIT2_E:
.LFB1783:
	.file 11 "C:/Qt/Tools/mingw1530_64/include/c++/15.3.0/bits/stl_uninitialized.h"
	.loc 11 747 5
	.cfi_startproc
	push	rbp
	.seh_pushreg	rbp
	.cfi_def_cfa_offset 16
	.cfi_offset 6, -16
	mov	rbp, rsp
	.seh_setframe	rbp, 0
	.cfi_def_cfa_register 6
	sub	rsp, 32
	.seh_stackalloc	32
	.seh_endprologue
	mov	QWORD PTR 16[rbp], rcx
	mov	QWORD PTR 24[rbp], rdx
	mov	QWORD PTR 32[rbp], r8
	mov	QWORD PTR 40[rbp], r9
	.loc 11 751 37
	call	_ZSt21is_constant_evaluatedv
	.loc 11 751 7 discriminator 1
	test	al, al
	je	.L58
	.loc 11 752 32
	mov	rcx, QWORD PTR 32[rbp]
	mov	rdx, QWORD PTR 24[rbp]
	mov	rax, QWORD PTR 16[rbp]
	mov	r8, rcx
	mov	rcx, rax
	call	_ZSt18__do_uninit_fill_nIPiyiET_S1_T0_RKT1_
	.loc 11 752 50
	jmp	.L59
.L58:
	.loc 11 754 39
	mov	rcx, QWORD PTR 32[rbp]
	mov	rdx, QWORD PTR 24[rbp]
	mov	rax, QWORD PTR 16[rbp]
	mov	r8, rcx
	mov	rcx, rax
	call	_ZSt20uninitialized_fill_nIPiyiET_S1_T0_RKT1_
	.loc 11 754 57
	nop
.L59:
	.loc 11 755 5
	add	rsp, 32
	pop	rbp
	.cfi_restore 6
	.cfi_def_cfa 7, 8
	ret
	.cfi_endproc
.LFE1783:
	.seh_endproc
	.section	.text$_ZSt8_DestroyIPiEvT_S1_,"x"
	.linkonce discard
	.globl	_ZSt8_DestroyIPiEvT_S1_
	.def	_ZSt8_DestroyIPiEvT_S1_;	.scl	2;	.type	32;	.endef
	.seh_proc	_ZSt8_DestroyIPiEvT_S1_
_ZSt8_DestroyIPiEvT_S1_:
.LFB1784:
	.file 12 "C:/Qt/Tools/mingw1530_64/include/c++/15.3.0/bits/stl_construct.h"
	.loc 12 219 5
	.cfi_startproc
	push	rbp
	.seh_pushreg	rbp
	.cfi_def_cfa_offset 16
	.cfi_offset 6, -16
	mov	rbp, rsp
	.seh_setframe	rbp, 0
	.cfi_def_cfa_register 6
	sub	rsp, 48
	.seh_stackalloc	48
	.seh_endprologue
	mov	QWORD PTR 16[rbp], rcx
	mov	QWORD PTR 24[rbp], rdx
.LBB242:
.LBB243:
	.loc 9 586 49
	mov	eax, 0
.LBE243:
.LBE242:
	.loc 12 228 12 discriminator 1
	test	al, al
	je	.L66
	.loc 12 229 2
	jmp	.L63
.L65:
	mov	rax, QWORD PTR 16[rbp]
	mov	QWORD PTR -8[rbp], rax
.LBB244:
.LBB245:
	.loc 8 53 37
	mov	rax, QWORD PTR -8[rbp]
.LBE245:
.LBE244:
	.loc 12 230 19 discriminator 1
	mov	rcx, rax
	call	_ZSt10destroy_atIiEvPT_
	.loc 12 229 2 discriminator 2
	add	QWORD PTR 16[rbp], 4
.L63:
	.loc 12 229 17 discriminator 1
	mov	rax, QWORD PTR 16[rbp]
	cmp	rax, QWORD PTR 24[rbp]
	jne	.L65
.L66:
	.loc 12 236 5
	nop
	add	rsp, 48
	pop	rbp
	.cfi_restore 6
	.cfi_def_cfa 7, 8
	ret
	.cfi_endproc
.LFE1784:
	.seh_endproc
	.section	.text$_ZSt3maxIyERKT_S2_S2_,"x"
	.linkonce discard
	.globl	_ZSt3maxIyERKT_S2_S2_
	.def	_ZSt3maxIyERKT_S2_S2_;	.scl	2;	.type	32;	.endef
	.seh_proc	_ZSt3maxIyERKT_S2_S2_
_ZSt3maxIyERKT_S2_S2_:
.LFB1793:
	.file 13 "C:/Qt/Tools/mingw1530_64/include/c++/15.3.0/bits/stl_algobase.h"
	.loc 13 258 5
	.cfi_startproc
	push	rbp
	.seh_pushreg	rbp
	.cfi_def_cfa_offset 16
	.cfi_offset 6, -16
	mov	rbp, rsp
	.seh_setframe	rbp, 0
	.cfi_def_cfa_register 6
	.seh_endprologue
	mov	QWORD PTR 16[rbp], rcx
	mov	QWORD PTR 24[rbp], rdx
	.loc 13 263 15
	mov	rax, QWORD PTR 16[rbp]
	mov	rdx, QWORD PTR [rax]
	mov	rax, QWORD PTR 24[rbp]
	mov	rax, QWORD PTR [rax]
	.loc 13 263 7
	cmp	rdx, rax
	jnb	.L68
	.loc 13 264 9
	mov	rax, QWORD PTR 24[rbp]
	jmp	.L69
.L68:
	.loc 13 265 14
	mov	rax, QWORD PTR 16[rbp]
.L69:
	.loc 13 266 5
	pop	rbp
	.cfi_restore 6
	.cfi_def_cfa 7, 8
	ret
	.cfi_endproc
.LFE1793:
	.seh_endproc
	.section	.text$_ZNKSt6vectorIiSaIiEE12_M_check_lenEyPKc,"x"
	.linkonce discard
	.align 2
	.globl	_ZNKSt6vectorIiSaIiEE12_M_check_lenEyPKc
	.def	_ZNKSt6vectorIiSaIiEE12_M_check_lenEyPKc;	.scl	2;	.type	32;	.endef
	.seh_proc	_ZNKSt6vectorIiSaIiEE12_M_check_lenEyPKc
_ZNKSt6vectorIiSaIiEE12_M_check_lenEyPKc:
.LFB1792:
	.loc 3 2202 7
	.cfi_startproc
	push	rbp
	.seh_pushreg	rbp
	.cfi_def_cfa_offset 16
	.cfi_offset 6, -16
	push	rbx
	.seh_pushreg	rbx
	.cfi_def_cfa_offset 24
	.cfi_offset 3, -24
	sub	rsp, 56
	.seh_stackalloc	56
	.cfi_def_cfa_offset 80
	lea	rbp, 48[rsp]
	.seh_setframe	rbp, 48
	.cfi_def_cfa 6, 32
	.seh_endprologue
	mov	QWORD PTR 32[rbp], rcx
	mov	QWORD PTR 40[rbp], rdx
	mov	QWORD PTR 48[rbp], r8
	.loc 3 2204 14
	mov	rax, QWORD PTR 32[rbp]
	mov	rcx, rax
	call	_ZNKSt6vectorIiSaIiEE8max_sizeEv
	mov	rbx, rax
	.loc 3 2204 23 discriminator 1
	mov	rax, QWORD PTR 32[rbp]
	mov	rcx, rax
	call	_ZNKSt6vectorIiSaIiEE4sizeEv
	.loc 3 2204 17 discriminator 2
	sub	rbx, rax
	mov	rdx, rbx
	.loc 3 2204 26 discriminator 2
	mov	rax, QWORD PTR 40[rbp]
	cmp	rdx, rax
	setb	al
	.loc 3 2204 2 discriminator 2
	test	al, al
	je	.L71
	.loc 3 2205 24
	mov	rax, QWORD PTR 48[rbp]
	mov	rcx, rax
	call	_ZSt20__throw_length_errorPKc
.L71:
	.loc 3 2207 30
	mov	rax, QWORD PTR 32[rbp]
	mov	rcx, rax
	call	_ZNKSt6vectorIiSaIiEE4sizeEv
	mov	rbx, rax
	.loc 3 2207 50 discriminator 1
	mov	rax, QWORD PTR 32[rbp]
	mov	rcx, rax
	call	_ZNKSt6vectorIiSaIiEE4sizeEv
	.loc 3 2207 50 is_stmt 0 discriminator 2
	mov	QWORD PTR -16[rbp], rax
	.loc 3 2207 45 is_stmt 1 discriminator 2
	lea	rdx, 40[rbp]
	lea	rax, -16[rbp]
	mov	rcx, rax
	call	_ZSt3maxIyERKT_S2_S2_
	.loc 3 2207 33 discriminator 3
	mov	rax, QWORD PTR [rax]
	.loc 3 2207 18 discriminator 3
	add	rax, rbx
	mov	QWORD PTR -8[rbp], rax
	.loc 3 2208 22
	mov	rax, QWORD PTR 32[rbp]
	mov	rcx, rax
	call	_ZNKSt6vectorIiSaIiEE4sizeEv
	.loc 3 2208 48 discriminator 1
	cmp	QWORD PTR -8[rbp], rax
	jb	.L72
	.loc 3 2208 44 discriminator 3
	mov	rax, QWORD PTR 32[rbp]
	mov	rcx, rax
	call	_ZNKSt6vectorIiSaIiEE8max_sizeEv
	.loc 3 2208 25 discriminator 4
	cmp	rax, QWORD PTR -8[rbp]
	jnb	.L73
.L72:
	.loc 3 2208 58 discriminator 5
	mov	rax, QWORD PTR 32[rbp]
	mov	rcx, rax
	call	_ZNKSt6vectorIiSaIiEE8max_sizeEv
	.loc 3 2208 63
	jmp	.L75
.L73:
	.loc 3 2208 63 is_stmt 0 discriminator 6
	mov	rax, QWORD PTR -8[rbp]
.L75:
	.loc 3 2209 7 is_stmt 1
	add	rsp, 56
	pop	rbx
	.cfi_restore 3
	pop	rbp
	.cfi_restore 6
	.cfi_def_cfa 7, -40
	ret
	.cfi_endproc
.LFE1792:
	.seh_endproc
	.section	.text$_ZNKSt6vectorIiSaIiEE8max_sizeEv,"x"
	.linkonce discard
	.align 2
	.globl	_ZNKSt6vectorIiSaIiEE8max_sizeEv
	.def	_ZNKSt6vectorIiSaIiEE8max_sizeEv;	.scl	2;	.type	32;	.endef
	.seh_proc	_ZNKSt6vectorIiSaIiEE8max_sizeEv
_ZNKSt6vectorIiSaIiEE8max_sizeEv:
.LFB1794:
	.loc 3 1128 7
	.cfi_startproc
	push	rbp
	.seh_pushreg	rbp
	.cfi_def_cfa_offset 16
	.cfi_offset 6, -16
	mov	rbp, rsp
	.seh_setframe	rbp, 0
	.cfi_def_cfa_register 6
	sub	rsp, 32
	.seh_stackalloc	32
	.seh_endprologue
	mov	QWORD PTR 16[rbp], rcx
	.loc 3 1129 47
	mov	rax, QWORD PTR 16[rbp]
	mov	rcx, rax
	call	_ZNKSt12_Vector_baseIiSaIiEE19_M_get_Tp_allocatorEv
	.loc 3 1129 27 discriminator 1
	mov	rcx, rax
	call	_ZNSt6vectorIiSaIiEE11_S_max_sizeERKS0_
	.loc 3 1129 52
	add	rsp, 32
	pop	rbp
	.cfi_restore 6
	.cfi_def_cfa 7, 8
	ret
	.cfi_endproc
.LFE1794:
	.seh_endproc
	.section	.text$_ZNKSt12_Vector_baseIiSaIiEE19_M_get_Tp_allocatorEv,"x"
	.linkonce discard
	.align 2
	.globl	_ZNKSt12_Vector_baseIiSaIiEE19_M_get_Tp_allocatorEv
	.def	_ZNKSt12_Vector_baseIiSaIiEE19_M_get_Tp_allocatorEv;	.scl	2;	.type	32;	.endef
	.seh_proc	_ZNKSt12_Vector_baseIiSaIiEE19_M_get_Tp_allocatorEv
_ZNKSt12_Vector_baseIiSaIiEE19_M_get_Tp_allocatorEv:
.LFB1795:
	.loc 3 312 7
	.cfi_startproc
	push	rbp
	.seh_pushreg	rbp
	.cfi_def_cfa_offset 16
	.cfi_offset 6, -16
	mov	rbp, rsp
	.seh_setframe	rbp, 0
	.cfi_def_cfa_register 6
	.seh_endprologue
	mov	QWORD PTR 16[rbp], rcx
	.loc 3 313 22
	mov	rax, QWORD PTR 16[rbp]
	.loc 3 313 31
	pop	rbp
	.cfi_restore 6
	.cfi_def_cfa 7, 8
	ret
	.cfi_endproc
.LFE1795:
	.seh_endproc
	.section	.text$_ZSt3minIyERKT_S2_S2_,"x"
	.linkonce discard
	.globl	_ZSt3minIyERKT_S2_S2_
	.def	_ZSt3minIyERKT_S2_S2_;	.scl	2;	.type	32;	.endef
	.seh_proc	_ZSt3minIyERKT_S2_S2_
_ZSt3minIyERKT_S2_S2_:
.LFB1796:
	.loc 13 234 5
	.cfi_startproc
	push	rbp
	.seh_pushreg	rbp
	.cfi_def_cfa_offset 16
	.cfi_offset 6, -16
	mov	rbp, rsp
	.seh_setframe	rbp, 0
	.cfi_def_cfa_register 6
	.seh_endprologue
	mov	QWORD PTR 16[rbp], rcx
	mov	QWORD PTR 24[rbp], rdx
	.loc 13 239 15
	mov	rax, QWORD PTR 24[rbp]
	mov	rdx, QWORD PTR [rax]
	mov	rax, QWORD PTR 16[rbp]
	mov	rax, QWORD PTR [rax]
	.loc 13 239 7
	cmp	rdx, rax
	jnb	.L81
	.loc 13 240 9
	mov	rax, QWORD PTR 24[rbp]
	jmp	.L82
.L81:
	.loc 13 241 14
	mov	rax, QWORD PTR 16[rbp]
.L82:
	.loc 13 242 5
	pop	rbp
	.cfi_restore 6
	.cfi_def_cfa 7, 8
	ret
	.cfi_endproc
.LFE1796:
	.seh_endproc
	.section	.text$_ZNSt6vectorIiSaIiEE3endEv,"x"
	.linkonce discard
	.align 2
	.globl	_ZNSt6vectorIiSaIiEE3endEv
	.def	_ZNSt6vectorIiSaIiEE3endEv;	.scl	2;	.type	32;	.endef
	.seh_proc	_ZNSt6vectorIiSaIiEE3endEv
_ZNSt6vectorIiSaIiEE3endEv:
.LFB1798:
	.loc 3 1018 7
	.cfi_startproc
	push	rbp
	.seh_pushreg	rbp
	.cfi_def_cfa_offset 16
	.cfi_offset 6, -16
	mov	rbp, rsp
	.seh_setframe	rbp, 0
	.cfi_def_cfa_register 6
	sub	rsp, 16
	.seh_stackalloc	16
	.seh_endprologue
	mov	QWORD PTR 16[rbp], rcx
	.loc 3 1019 39
	mov	rax, QWORD PTR 16[rbp]
	add	rax, 8
	mov	QWORD PTR -8[rbp], rax
.LBB246:
.LBB247:
.LBB248:
	.file 14 "C:/Qt/Tools/mingw1530_64/include/c++/15.3.0/bits/stl_iterator.h"
	.loc 14 1059 9
	mov	rax, QWORD PTR -8[rbp]
	mov	rax, QWORD PTR [rax]
	mov	QWORD PTR -16[rbp], rax
.LBE248:
	.loc 14 1059 27
	nop
.LBE247:
.LBE246:
	.loc 3 1019 48 discriminator 1
	mov	rax, QWORD PTR -16[rbp]
	.loc 3 1019 51
	add	rsp, 16
	pop	rbp
	.cfi_restore 6
	.cfi_def_cfa 7, 8
	ret
	.cfi_endproc
.LFE1798:
	.seh_endproc
	.section	.text$_ZNSt6vectorIiSaIiEE5beginEv,"x"
	.linkonce discard
	.align 2
	.globl	_ZNSt6vectorIiSaIiEE5beginEv
	.def	_ZNSt6vectorIiSaIiEE5beginEv;	.scl	2;	.type	32;	.endef
	.seh_proc	_ZNSt6vectorIiSaIiEE5beginEv
_ZNSt6vectorIiSaIiEE5beginEv:
.LFB1799:
	.loc 3 998 7
	.cfi_startproc
	push	rbp
	.seh_pushreg	rbp
	.cfi_def_cfa_offset 16
	.cfi_offset 6, -16
	mov	rbp, rsp
	.seh_setframe	rbp, 0
	.cfi_def_cfa_register 6
	sub	rsp, 16
	.seh_stackalloc	16
	.seh_endprologue
	mov	QWORD PTR 16[rbp], rcx
	.loc 3 999 39
	mov	rax, QWORD PTR 16[rbp]
	mov	QWORD PTR -8[rbp], rax
.LBB249:
.LBB250:
.LBB251:
	.loc 14 1059 9
	mov	rax, QWORD PTR -8[rbp]
	mov	rax, QWORD PTR [rax]
	mov	QWORD PTR -16[rbp], rax
.LBE251:
	.loc 14 1059 27
	nop
.LBE250:
.LBE249:
	.loc 3 999 47 discriminator 1
	mov	rax, QWORD PTR -16[rbp]
	.loc 3 999 50
	add	rsp, 16
	pop	rbp
	.cfi_restore 6
	.cfi_def_cfa 7, 8
	ret
	.cfi_endproc
.LFE1799:
	.seh_endproc
	.section .rdata,"dr"
.LC1:
	.ascii "vector::_M_realloc_append\0"
	.section	.text$_ZNSt6vectorIiSaIiEE17_M_realloc_appendIJiEEEvDpOT_,"x"
	.linkonce discard
	.align 2
	.globl	_ZNSt6vectorIiSaIiEE17_M_realloc_appendIJiEEEvDpOT_
	.def	_ZNSt6vectorIiSaIiEE17_M_realloc_appendIJiEEEvDpOT_;	.scl	2;	.type	32;	.endef
	.seh_proc	_ZNSt6vectorIiSaIiEE17_M_realloc_appendIJiEEEvDpOT_
_ZNSt6vectorIiSaIiEE17_M_realloc_appendIJiEEEvDpOT_:
.LFB1791:
	.loc 10 557 7
	.cfi_startproc
	push	rbp
	.seh_pushreg	rbp
	.cfi_def_cfa_offset 16
	.cfi_offset 6, -16
	mov	rbp, rsp
	.seh_setframe	rbp, 0
	.cfi_def_cfa_register 6
	sub	rsp, 192
	.seh_stackalloc	192
	.seh_endprologue
	mov	QWORD PTR 16[rbp], rcx
	mov	QWORD PTR 24[rbp], rdx
	.loc 10 566 43
	lea	rdx, .LC1[rip]
	mov	rax, QWORD PTR 16[rbp]
	mov	r8, rdx
	mov	edx, 1
	mov	rcx, rax
	call	_ZNKSt6vectorIiSaIiEE12_M_check_lenEyPKc
	.loc 10 566 43 is_stmt 0 discriminator 1
	mov	QWORD PTR -8[rbp], rax
	.loc 10 567 7 is_stmt 1
	cmp	QWORD PTR -8[rbp], 0
	.loc 10 569 15
	mov	rax, QWORD PTR 16[rbp]
	mov	rax, QWORD PTR [rax]
	mov	QWORD PTR -16[rbp], rax
	.loc 10 570 15
	mov	rax, QWORD PTR 16[rbp]
	mov	rax, QWORD PTR 8[rax]
	mov	QWORD PTR -24[rbp], rax
	.loc 10 571 46
	mov	rax, QWORD PTR 16[rbp]
	mov	rcx, rax
	call	_ZNSt6vectorIiSaIiEE5beginEv
	mov	QWORD PTR -136[rbp], rax
	.loc 10 571 36 discriminator 1
	mov	rax, QWORD PTR 16[rbp]
	mov	rcx, rax
	call	_ZNSt6vectorIiSaIiEE3endEv
	mov	QWORD PTR -128[rbp], rax
	lea	rax, -128[rbp]
	mov	QWORD PTR -104[rbp], rax
.LBB252:
.LBB253:
.LBB254:
.LBB255:
	.loc 14 1166 16
	mov	rax, QWORD PTR -104[rbp]
.LBE255:
.LBE254:
	.loc 14 1340 27 discriminator 1
	mov	rdx, QWORD PTR [rax]
	lea	rax, -136[rbp]
	mov	QWORD PTR -112[rbp], rax
.LBB256:
.LBB257:
	.loc 14 1166 16
	mov	rax, QWORD PTR -112[rbp]
.LBE257:
.LBE256:
	.loc 14 1340 27 discriminator 2
	mov	rax, QWORD PTR [rax]
	sub	rdx, rax
	.loc 14 1340 40 discriminator 2
	mov	rax, rdx
	sar	rax, 2
.LBE253:
.LBE252:
	.loc 10 571 23 discriminator 3
	mov	QWORD PTR -32[rbp], rax
	.loc 10 572 44
	mov	rax, QWORD PTR 16[rbp]
	mov	rdx, QWORD PTR -8[rbp]
	mov	rcx, rax
	call	_ZNSt12_Vector_baseIiSaIiEE11_M_allocateEy
	.loc 10 572 44 is_stmt 0 discriminator 1
	mov	QWORD PTR -40[rbp], rax
	.loc 10 573 15 is_stmt 1
	mov	rax, QWORD PTR -40[rbp]
	mov	QWORD PTR -48[rbp], rax
.LBB258:
	.loc 10 576 15
	mov	r8, QWORD PTR 16[rbp]
	mov	rcx, QWORD PTR -8[rbp]
	mov	rdx, QWORD PTR -40[rbp]
	lea	rax, -160[rbp]
	mov	r9, r8
	mov	r8, rcx
	mov	rcx, rax
	call	_ZNSt6vectorIiSaIiEE12_Guard_allocC1EPiyRSt12_Vector_baseIiS0_E
	mov	rax, QWORD PTR 24[rbp]
	mov	QWORD PTR -96[rbp], rax
.LBB259:
.LBB260:
	.loc 8 73 36
	mov	rdx, QWORD PTR -96[rbp]
.LBE260:
.LBE259:
	.loc 10 587 36
	mov	rax, QWORD PTR -32[rbp]
	lea	rcx, 0[0+rax*4]
	mov	rax, QWORD PTR -40[rbp]
	add	rax, rcx
	mov	QWORD PTR -120[rbp], rax
.LBB261:
.LBB262:
	.file 15 "C:/Qt/Tools/mingw1530_64/include/c++/15.3.0/bits/ptr_traits.h"
	.loc 15 264 29
	mov	rax, QWORD PTR -120[rbp]
	mov	QWORD PTR -88[rbp], rax
.LBB263:
.LBB264:
	.loc 15 236 14
	mov	rcx, QWORD PTR -88[rbp]
.LBE264:
.LBE263:
	.loc 15 264 35
	nop
.LBE262:
.LBE261:
	.loc 10 586 33 discriminator 2
	mov	rax, QWORD PTR 16[rbp]
	mov	QWORD PTR -56[rbp], rcx
	mov	QWORD PTR -64[rbp], rdx
	mov	QWORD PTR -72[rbp], rax
	mov	rax, QWORD PTR -64[rbp]
	mov	QWORD PTR -80[rbp], rax
.LBB265:
.LBB266:
.LBB267:
.LBB268:
	.loc 8 73 36
	mov	rdx, QWORD PTR -80[rbp]
.LBE268:
.LBE267:
	.loc 7 676 21 discriminator 1
	mov	rax, QWORD PTR -56[rbp]
	mov	rcx, rax
	call	_ZSt12construct_atIiJiEQaant20is_unbounded_array_vIT_ErqXgsnwcvPvLi0E_S0_pispcl7declvalIT0_EEEEEPS0_S3_DpOS2_
	.loc 7 680 2
	nop
.LBE266:
.LBE265:
	.loc 10 600 44
	mov	rax, QWORD PTR 16[rbp]
	mov	rcx, rax
	call	_ZNSt12_Vector_baseIiSaIiEE19_M_get_Tp_allocatorEv
	mov	rcx, rax
	.loc 10 599 32
	mov	r8, QWORD PTR -40[rbp]
	mov	rdx, QWORD PTR -24[rbp]
	mov	rax, QWORD PTR -16[rbp]
	mov	r9, rcx
	mov	rcx, rax
	call	_ZNSt6vectorIiSaIiEE11_S_relocateEPiS2_S2_RS0_
	mov	QWORD PTR -48[rbp], rax
	.loc 10 601 6
	add	QWORD PTR -48[rbp], 4
	.loc 10 638 21
	mov	rax, QWORD PTR -16[rbp]
	mov	QWORD PTR -160[rbp], rax
	.loc 10 639 33
	mov	rax, QWORD PTR 16[rbp]
	mov	rax, QWORD PTR 16[rax]
	.loc 10 639 51
	sub	rax, QWORD PTR -16[rbp]
	sar	rax, 2
	.loc 10 639 17
	mov	QWORD PTR -152[rbp], rax
	.loc 10 640 7
	lea	rax, -160[rbp]
	mov	rcx, rax
	call	_ZNSt6vectorIiSaIiEE12_Guard_allocD1Ev
.LBE258:
	.loc 10 644 30
	mov	rax, QWORD PTR 16[rbp]
	mov	rdx, QWORD PTR -40[rbp]
	mov	QWORD PTR [rax], rdx
	.loc 10 645 31
	mov	rax, QWORD PTR 16[rbp]
	mov	rdx, QWORD PTR -48[rbp]
	mov	QWORD PTR 8[rax], rdx
	.loc 10 646 53
	mov	rax, QWORD PTR -8[rbp]
	lea	rdx, 0[0+rax*4]
	mov	rax, QWORD PTR -40[rbp]
	add	rdx, rax
	.loc 10 646 39
	mov	rax, QWORD PTR 16[rbp]
	mov	QWORD PTR 16[rax], rdx
	.loc 10 647 5
	nop
	add	rsp, 192
	pop	rbp
	.cfi_restore 6
	.cfi_def_cfa 7, 8
	ret
	.cfi_endproc
.LFE1791:
	.seh_endproc
	.section .rdata,"dr"
.LC2:
	.ascii "!this->empty()\0"
	.align 8
.LC3:
	.ascii "constexpr std::vector<_Tp, _Alloc>::reference std::vector<_Tp, _Alloc>::back() [with _Tp = int; _Alloc = std::allocator<int>; reference = int&]\0"
	.align 8
.LC4:
	.ascii "C:/Qt/Tools/mingw1530_64/include/c++/15.3.0/bits/stl_vector.h\0"
	.section	.text$_ZNSt6vectorIiSaIiEE4backEv,"x"
	.linkonce discard
	.align 2
	.globl	_ZNSt6vectorIiSaIiEE4backEv
	.def	_ZNSt6vectorIiSaIiEE4backEv;	.scl	2;	.type	32;	.endef
	.seh_proc	_ZNSt6vectorIiSaIiEE4backEv
_ZNSt6vectorIiSaIiEE4backEv:
.LFB1807:
	.loc 3 1368 7
	.cfi_startproc
	push	rbp
	.seh_pushreg	rbp
	.cfi_def_cfa_offset 16
	.cfi_offset 6, -16
	mov	rbp, rsp
	.seh_setframe	rbp, 0
	.cfi_def_cfa_register 6
	sub	rsp, 80
	.seh_stackalloc	80
	.seh_endprologue
	mov	QWORD PTR 16[rbp], rcx
	.loc 3 1370 2
	mov	rax, QWORD PTR 16[rbp]
	mov	rcx, rax
	call	_ZNKSt6vectorIiSaIiEE5emptyEv
	.loc 3 1370 2 is_stmt 0 discriminator 1
	movzx	eax, al
	.loc 3 1370 2 discriminator 2
	test	eax, eax
	setne	al
	test	al, al
	je	.L97
	.loc 3 1370 2 discriminator 3
	lea	rcx, .LC2[rip]
	lea	rdx, .LC3[rip]
	lea	rax, .LC4[rip]
	mov	r9, rcx
	mov	r8, rdx
	mov	edx, 1370
	mov	rcx, rax
	call	_ZSt21__glibcxx_assert_failPKciS0_S0_
.L97:
	.loc 3 1371 14 is_stmt 1
	mov	rax, QWORD PTR 16[rbp]
	mov	rcx, rax
	call	_ZNSt6vectorIiSaIiEE3endEv
	mov	QWORD PTR -32[rbp], rax
	mov	QWORD PTR -8[rbp], 1
.LBB269:
.LBB270:
	.loc 14 1160 34
	mov	rax, QWORD PTR -32[rbp]
	.loc 14 1160 47
	mov	rdx, QWORD PTR -8[rbp]
	.loc 14 1160 45
	sal	rdx, 2
	neg	rdx
	add	rax, rdx
	mov	QWORD PTR -24[rbp], rax
.LBB271:
.LBB272:
.LBB273:
	.loc 14 1059 9
	mov	rax, QWORD PTR -24[rbp]
	mov	QWORD PTR -16[rbp], rax
.LBE273:
	.loc 14 1059 27
	nop
.LBE272:
.LBE271:
	.loc 14 1160 50 discriminator 1
	mov	rax, QWORD PTR -16[rbp]
.LBE270:
.LBE269:
	.loc 3 1371 17 discriminator 1
	mov	QWORD PTR -40[rbp], rax
.LBB274:
.LBB275:
	.loc 14 1090 17
	mov	rax, QWORD PTR -40[rbp]
.LBE275:
.LBE274:
	.loc 3 1372 7
	add	rsp, 80
	pop	rbp
	.cfi_restore 6
	.cfi_def_cfa 7, 8
	ret
	.cfi_endproc
.LFE1807:
	.seh_endproc
	.section	.text$_ZNSt12_Vector_baseIiSaIiEE17_Vector_impl_dataC2Ev,"x"
	.linkonce discard
	.align 2
	.globl	_ZNSt12_Vector_baseIiSaIiEE17_Vector_impl_dataC2Ev
	.def	_ZNSt12_Vector_baseIiSaIiEE17_Vector_impl_dataC2Ev;	.scl	2;	.type	32;	.endef
	.seh_proc	_ZNSt12_Vector_baseIiSaIiEE17_Vector_impl_dataC2Ev
_ZNSt12_Vector_baseIiSaIiEE17_Vector_impl_dataC2Ev:
.LFB1809:
	.loc 3 105 2
	.cfi_startproc
	push	rbp
	.seh_pushreg	rbp
	.cfi_def_cfa_offset 16
	.cfi_offset 6, -16
	mov	rbp, rsp
	.seh_setframe	rbp, 0
	.cfi_def_cfa_register 6
	.seh_endprologue
	mov	QWORD PTR 16[rbp], rcx
.LBB276:
	.loc 3 106 4
	mov	rax, QWORD PTR 16[rbp]
	mov	QWORD PTR [rax], 0
	.loc 3 106 16
	mov	rax, QWORD PTR 16[rbp]
	mov	QWORD PTR 8[rax], 0
	.loc 3 106 29
	mov	rax, QWORD PTR 16[rbp]
	mov	QWORD PTR 16[rax], 0
.LBE276:
	.loc 3 107 4
	nop
	pop	rbp
	.cfi_restore 6
	.cfi_def_cfa 7, 8
	ret
	.cfi_endproc
.LFE1809:
	.seh_endproc
	.section	.text$_ZNSt12_Vector_baseIiSaIiEE11_M_allocateEy,"x"
	.linkonce discard
	.align 2
	.globl	_ZNSt12_Vector_baseIiSaIiEE11_M_allocateEy
	.def	_ZNSt12_Vector_baseIiSaIiEE11_M_allocateEy;	.scl	2;	.type	32;	.endef
	.seh_proc	_ZNSt12_Vector_baseIiSaIiEE11_M_allocateEy
_ZNSt12_Vector_baseIiSaIiEE11_M_allocateEy:
.LFB1811:
	.loc 3 384 7
	.cfi_startproc
	push	rbp
	.seh_pushreg	rbp
	.cfi_def_cfa_offset 16
	.cfi_offset 6, -16
	mov	rbp, rsp
	.seh_setframe	rbp, 0
	.cfi_def_cfa_register 6
	sub	rsp, 64
	.seh_stackalloc	64
	.seh_endprologue
	mov	QWORD PTR 16[rbp], rcx
	mov	QWORD PTR 24[rbp], rdx
	.loc 3 387 18
	cmp	QWORD PTR 24[rbp], 0
	je	.L103
	.loc 3 387 34 discriminator 1
	mov	rax, QWORD PTR 16[rbp]
	mov	QWORD PTR -8[rbp], rax
	mov	rax, QWORD PTR 24[rbp]
	mov	QWORD PTR -16[rbp], rax
	mov	rax, QWORD PTR -8[rbp]
	mov	QWORD PTR -24[rbp], rax
	mov	rax, QWORD PTR -16[rbp]
	mov	QWORD PTR -32[rbp], rax
.LBB277:
.LBB278:
.LBB279:
.LBB280:
.LBB281:
.LBB282:
	.loc 9 586 49
	mov	eax, 0
.LBE282:
.LBE281:
	.loc 4 196 2 discriminator 1
	test	al, al
	je	.L105
	.loc 4 198 32
	mov	rax, QWORD PTR -32[rbp]
	mov	ecx, 0
	lea	rdx, 0[0+rax*4]
	shr	rax, 62
	test	rax, rax
	je	.L106
	mov	ecx, 1
.L106:
	mov	rax, rdx
	.loc 4 198 32 is_stmt 0 discriminator 1
	mov	QWORD PTR -32[rbp], rax
	mov	rax, rcx
	and	eax, 1
	.loc 4 198 6 is_stmt 1 discriminator 1
	test	al, al
	je	.L108
	.loc 4 199 41
	call	_ZSt28__throw_bad_array_new_lengthv
.L108:
	.loc 4 200 45
	mov	rax, QWORD PTR -32[rbp]
	mov	rcx, rax
	call	_Znwy
	.loc 4 200 50
	jmp	.L109
.L105:
	.loc 4 203 40
	mov	rdx, QWORD PTR -32[rbp]
	mov	rax, QWORD PTR -24[rbp]
	mov	r8d, 0
	mov	rcx, rax
	call	_ZNSt15__new_allocatorIiE8allocateEyPKv
	.loc 4 203 47
	nop
.L109:
.LBE280:
.LBE279:
	.loc 7 614 32
	nop
	jmp	.L111
.L103:
.LBE278:
.LBE277:
	.loc 3 387 58 discriminator 2
	mov	eax, 0
.L111:
	.loc 3 388 7
	add	rsp, 64
	pop	rbp
	.cfi_restore 6
	.cfi_def_cfa 7, 8
	ret
	.cfi_endproc
.LFE1811:
	.seh_endproc
	.section	.text$_ZNSt19_UninitDestroyGuardIPivEC1ERS0_,"x"
	.linkonce discard
	.align 2
	.globl	_ZNSt19_UninitDestroyGuardIPivEC1ERS0_
	.def	_ZNSt19_UninitDestroyGuardIPivEC1ERS0_;	.scl	2;	.type	32;	.endef
	.seh_proc	_ZNSt19_UninitDestroyGuardIPivEC1ERS0_
_ZNSt19_UninitDestroyGuardIPivEC1ERS0_:
.LFB1815:
	.loc 11 113 7
	.cfi_startproc
	push	rbp
	.seh_pushreg	rbp
	.cfi_def_cfa_offset 16
	.cfi_offset 6, -16
	mov	rbp, rsp
	.seh_setframe	rbp, 0
	.cfi_def_cfa_register 6
	.seh_endprologue
	mov	QWORD PTR 16[rbp], rcx
	mov	QWORD PTR 24[rbp], rdx
.LBB283:
	.loc 11 114 9
	mov	rax, QWORD PTR 24[rbp]
	mov	rdx, QWORD PTR [rax]
	mov	rax, QWORD PTR 16[rbp]
	mov	QWORD PTR [rax], rdx
	.loc 11 114 28
	mov	rax, QWORD PTR 16[rbp]
	mov	rdx, QWORD PTR 24[rbp]
	mov	QWORD PTR 8[rax], rdx
.LBE283:
	.loc 11 115 9
	nop
	pop	rbp
	.cfi_restore 6
	.cfi_def_cfa 7, 8
	ret
	.cfi_endproc
.LFE1815:
	.seh_endproc
	.section	.text$_ZSt18__do_uninit_fill_nIPiyiET_S1_T0_RKT1_,"x"
	.linkonce discard
	.globl	_ZSt18__do_uninit_fill_nIPiyiET_S1_T0_RKT1_
	.def	_ZSt18__do_uninit_fill_nIPiyiET_S1_T0_RKT1_;	.scl	2;	.type	32;	.endef
	.seh_proc	_ZSt18__do_uninit_fill_nIPiyiET_S1_T0_RKT1_
_ZSt18__do_uninit_fill_nIPiyiET_S1_T0_RKT1_:
.LFB1812:
	.loc 11 455 5
	.cfi_startproc
	push	rbp
	.seh_pushreg	rbp
	.cfi_def_cfa_offset 16
	.cfi_offset 6, -16
	push	rbx
	.seh_pushreg	rbx
	.cfi_def_cfa_offset 24
	.cfi_offset 3, -24
	sub	rsp, 72
	.seh_stackalloc	72
	.cfi_def_cfa_offset 96
	lea	rbp, 64[rsp]
	.seh_setframe	rbp, 64
	.cfi_def_cfa 6, 32
	.seh_endprologue
	mov	QWORD PTR 32[rbp], rcx
	mov	QWORD PTR 40[rbp], rdx
	mov	QWORD PTR 48[rbp], r8
	.loc 11 457 45
	lea	rax, -32[rbp]
	lea	rdx, 32[rbp]
	mov	rcx, rax
	call	_ZNSt19_UninitDestroyGuardIPivEC1ERS0_
	.loc 11 469 7
	jmp	.L115
.L117:
	.loc 11 470 17
	mov	rax, QWORD PTR 32[rbp]
	mov	QWORD PTR -8[rbp], rax
.LBB284:
.LBB285:
	.loc 8 53 37
	mov	rax, QWORD PTR -8[rbp]
.LBE285:
.LBE284:
	.loc 11 470 17 discriminator 1
	mov	rdx, QWORD PTR 48[rbp]
	mov	rcx, rax
	call	_ZSt10_ConstructIiJRKiEEvPT_DpOT0_
	.loc 11 469 7 discriminator 2
	mov	rax, QWORD PTR 32[rbp]
	add	rax, 4
	mov	QWORD PTR 32[rbp], rax
.L115:
	.loc 11 469 7 is_stmt 0 discriminator 1
	mov	rax, QWORD PTR 40[rbp]
	lea	rdx, -1[rax]
	mov	QWORD PTR 40[rbp], rdx
	test	rax, rax
	setne	al
	test	al, al
	jne	.L117
	.loc 11 471 22 is_stmt 1
	lea	rax, -32[rbp]
	mov	rcx, rax
	call	_ZNSt19_UninitDestroyGuardIPivE7releaseEv
	.loc 11 472 14
	mov	rbx, QWORD PTR 32[rbp]
	.loc 11 473 5
	lea	rax, -32[rbp]
	mov	rcx, rax
	call	_ZNSt19_UninitDestroyGuardIPivED1Ev
	.loc 11 472 14
	mov	rax, rbx
	.loc 11 473 5
	add	rsp, 72
	pop	rbx
	.cfi_restore 3
	pop	rbp
	.cfi_restore 6
	.cfi_def_cfa 7, -56
	ret
	.cfi_endproc
.LFE1812:
	.seh_endproc
	.section	.text$_ZSt20uninitialized_fill_nIPiyiET_S1_T0_RKT1_,"x"
	.linkonce discard
	.globl	_ZSt20uninitialized_fill_nIPiyiET_S1_T0_RKT1_
	.def	_ZSt20uninitialized_fill_nIPiyiET_S1_T0_RKT1_;	.scl	2;	.type	32;	.endef
	.seh_proc	_ZSt20uninitialized_fill_nIPiyiET_S1_T0_RKT1_
_ZSt20uninitialized_fill_nIPiyiET_S1_T0_RKT1_:
.LFB1816:
	.loc 11 526 5
	.cfi_startproc
	push	rbp
	.seh_pushreg	rbp
	.cfi_def_cfa_offset 16
	.cfi_offset 6, -16
	mov	rbp, rsp
	.seh_setframe	rbp, 0
	.cfi_def_cfa_register 6
	sub	rsp, 32
	.seh_stackalloc	32
	.seh_endprologue
	mov	QWORD PTR 16[rbp], rcx
	mov	QWORD PTR 24[rbp], rdx
	mov	QWORD PTR 32[rbp], r8
	.loc 11 571 37
	mov	rcx, QWORD PTR 32[rbp]
	mov	rdx, QWORD PTR 24[rbp]
	mov	rax, QWORD PTR 16[rbp]
	mov	r8, rcx
	mov	rcx, rax
	call	_ZSt18__do_uninit_fill_nIPiyiET_S1_T0_RKT1_
	.loc 11 580 5
	add	rsp, 32
	pop	rbp
	.cfi_restore 6
	.cfi_def_cfa 7, 8
	ret
	.cfi_endproc
.LFE1816:
	.seh_endproc
	.section	.text$_ZSt10destroy_atIiEvPT_,"x"
	.linkonce discard
	.globl	_ZSt10destroy_atIiEvPT_
	.def	_ZSt10destroy_atIiEvPT_;	.scl	2;	.type	32;	.endef
	.seh_proc	_ZSt10destroy_atIiEvPT_
_ZSt10destroy_atIiEvPT_:
.LFB1818:
	.loc 12 80 5
	.cfi_startproc
	push	rbp
	.seh_pushreg	rbp
	.cfi_def_cfa_offset 16
	.cfi_offset 6, -16
	mov	rbp, rsp
	.seh_setframe	rbp, 0
	.cfi_def_cfa_register 6
	.seh_endprologue
	mov	QWORD PTR 16[rbp], rcx
	.loc 12 89 5
	nop
	pop	rbp
	.cfi_restore 6
	.cfi_def_cfa 7, 8
	ret
	.cfi_endproc
.LFE1818:
	.seh_endproc
	.section	.text$_ZSt12construct_atIiJiEQaant20is_unbounded_array_vIT_ErqXgsnwcvPvLi0E_S0_pispcl7declvalIT0_EEEEEPS0_S3_DpOS2_,"x"
	.linkonce discard
	.globl	_ZSt12construct_atIiJiEQaant20is_unbounded_array_vIT_ErqXgsnwcvPvLi0E_S0_pispcl7declvalIT0_EEEEEPS0_S3_DpOS2_
	.def	_ZSt12construct_atIiJiEQaant20is_unbounded_array_vIT_ErqXgsnwcvPvLi0E_S0_pispcl7declvalIT0_EEEEEPS0_S3_DpOS2_;	.scl	2;	.type	32;	.endef
	.seh_proc	_ZSt12construct_atIiJiEQaant20is_unbounded_array_vIT_ErqXgsnwcvPvLi0E_S0_pispcl7declvalIT0_EEEEEPS0_S3_DpOS2_
_ZSt12construct_atIiJiEQaant20is_unbounded_array_vIT_ErqXgsnwcvPvLi0E_S0_pispcl7declvalIT0_EEEEEPS0_S3_DpOS2_:
.LFB1820:
	.loc 12 96 5
	.cfi_startproc
	push	rbp
	.seh_pushreg	rbp
	.cfi_def_cfa_offset 16
	.cfi_offset 6, -16
	push	rsi
	.seh_pushreg	rsi
	.cfi_def_cfa_offset 24
	.cfi_offset 4, -24
	push	rbx
	.seh_pushreg	rbx
	.cfi_def_cfa_offset 32
	.cfi_offset 3, -32
	sub	rsp, 48
	.seh_stackalloc	48
	.cfi_def_cfa_offset 80
	lea	rbp, 48[rsp]
	.seh_setframe	rbp, 48
	.cfi_def_cfa 6, 32
	.seh_endprologue
	mov	QWORD PTR 32[rbp], rcx
	mov	QWORD PTR 40[rbp], rdx
	.loc 12 99 13
	mov	rax, QWORD PTR 32[rbp]
	mov	QWORD PTR -8[rbp], rax
	.loc 12 110 15
	mov	rsi, QWORD PTR -8[rbp]
	.loc 12 110 9
	mov	rdx, rsi
	mov	ecx, 4
	call	_ZnwyPv
	mov	rbx, rax
	mov	rax, QWORD PTR 40[rbp]
	mov	QWORD PTR -16[rbp], rax
.LBB286:
.LBB287:
	.loc 8 73 36
	mov	rax, QWORD PTR -16[rbp]
.LBE287:
.LBE286:
	.loc 12 110 9 discriminator 2
	mov	eax, DWORD PTR [rax]
	mov	DWORD PTR [rbx], eax
	.loc 12 110 56 discriminator 2
	mov	eax, 0
	.loc 12 110 56 is_stmt 0 discriminator 3
	test	al, al
	je	.L125
	.loc 12 110 9 is_stmt 1 discriminator 4
	mov	rdx, rsi
	mov	rcx, rbx
	call	_ZdlPvS_
.L125:
	.loc 12 110 56 discriminator 8
	mov	rax, rbx
	.loc 12 111 5
	add	rsp, 48
	pop	rbx
	.cfi_restore 3
	pop	rsi
	.cfi_restore 4
	pop	rbp
	.cfi_restore 6
	.cfi_def_cfa 7, -24
	ret
	.cfi_endproc
.LFE1820:
	.seh_endproc
	.weak	_ZSt12construct_atIiJiEEPT_S1_DpOT0_
	.def	_ZSt12construct_atIiJiEEPT_S1_DpOT0_;	.scl	2;	.type	32;	.endef
	.set	_ZSt12construct_atIiJiEEPT_S1_DpOT0_,_ZSt12construct_atIiJiEQaant20is_unbounded_array_vIT_ErqXgsnwcvPvLi0E_S0_pispcl7declvalIT0_EEEEEPS0_S3_DpOS2_
	.section	.text$_ZNSt6vectorIiSaIiEE12_Guard_allocC1EPiyRSt12_Vector_baseIiS0_E,"x"
	.linkonce discard
	.align 2
	.globl	_ZNSt6vectorIiSaIiEE12_Guard_allocC1EPiyRSt12_Vector_baseIiS0_E
	.def	_ZNSt6vectorIiSaIiEE12_Guard_allocC1EPiyRSt12_Vector_baseIiS0_E;	.scl	2;	.type	32;	.endef
	.seh_proc	_ZNSt6vectorIiSaIiEE12_Guard_allocC1EPiyRSt12_Vector_baseIiS0_E
_ZNSt6vectorIiSaIiEE12_Guard_allocC1EPiyRSt12_Vector_baseIiS0_E:
.LFB1824:
	.loc 3 1875 2
	.cfi_startproc
	push	rbp
	.seh_pushreg	rbp
	.cfi_def_cfa_offset 16
	.cfi_offset 6, -16
	mov	rbp, rsp
	.seh_setframe	rbp, 0
	.cfi_def_cfa_register 6
	.seh_endprologue
	mov	QWORD PTR 16[rbp], rcx
	mov	QWORD PTR 24[rbp], rdx
	mov	QWORD PTR 32[rbp], r8
	mov	QWORD PTR 40[rbp], r9
.LBB288:
	.loc 3 1876 4
	mov	rax, QWORD PTR 16[rbp]
	mov	rdx, QWORD PTR 24[rbp]
	mov	QWORD PTR [rax], rdx
	.loc 3 1876 21
	mov	rax, QWORD PTR 16[rbp]
	mov	rdx, QWORD PTR 32[rbp]
	mov	QWORD PTR 8[rax], rdx
	.loc 3 1876 34
	mov	rax, QWORD PTR 16[rbp]
	mov	rdx, QWORD PTR 40[rbp]
	mov	QWORD PTR 16[rax], rdx
.LBE288:
	.loc 3 1877 4
	nop
	pop	rbp
	.cfi_restore 6
	.cfi_def_cfa 7, 8
	ret
	.cfi_endproc
.LFE1824:
	.seh_endproc
	.section	.text$_ZNSt6vectorIiSaIiEE12_Guard_allocD1Ev,"x"
	.linkonce discard
	.align 2
	.globl	_ZNSt6vectorIiSaIiEE12_Guard_allocD1Ev
	.def	_ZNSt6vectorIiSaIiEE12_Guard_allocD1Ev;	.scl	2;	.type	32;	.endef
	.seh_proc	_ZNSt6vectorIiSaIiEE12_Guard_allocD1Ev
_ZNSt6vectorIiSaIiEE12_Guard_allocD1Ev:
.LFB1827:
	.loc 3 1880 2
	.cfi_startproc
	push	rbp
	.seh_pushreg	rbp
	.cfi_def_cfa_offset 16
	.cfi_offset 6, -16
	mov	rbp, rsp
	.seh_setframe	rbp, 0
	.cfi_def_cfa_register 6
	sub	rsp, 32
	.seh_stackalloc	32
	.seh_endprologue
	mov	QWORD PTR 16[rbp], rcx
.LBB289:
	.loc 3 1882 8
	mov	rax, QWORD PTR 16[rbp]
	mov	rax, QWORD PTR [rax]
	.loc 3 1882 4
	test	rax, rax
	je	.L129
	.loc 3 1883 6
	mov	rax, QWORD PTR 16[rbp]
	mov	rax, QWORD PTR 16[rax]
	.loc 3 1883 40
	mov	rdx, QWORD PTR 16[rbp]
	mov	rcx, QWORD PTR 8[rdx]
	.loc 3 1883 28
	mov	rdx, QWORD PTR 16[rbp]
	mov	rdx, QWORD PTR [rdx]
	.loc 3 1883 27
	mov	r8, rcx
	mov	rcx, rax
	call	_ZNSt12_Vector_baseIiSaIiEE13_M_deallocateEPiy
.L129:
.LBE289:
	.loc 3 1884 2
	nop
	add	rsp, 32
	pop	rbp
	.cfi_restore 6
	.cfi_def_cfa 7, 8
	ret
	.cfi_endproc
.LFE1827:
	.seh_endproc
	.section	.text$_ZNSt6vectorIiSaIiEE11_S_relocateEPiS2_S2_RS0_,"x"
	.linkonce discard
	.globl	_ZNSt6vectorIiSaIiEE11_S_relocateEPiS2_S2_RS0_
	.def	_ZNSt6vectorIiSaIiEE11_S_relocateEPiS2_S2_RS0_;	.scl	2;	.type	32;	.endef
	.seh_proc	_ZNSt6vectorIiSaIiEE11_S_relocateEPiS2_S2_RS0_
_ZNSt6vectorIiSaIiEE11_S_relocateEPiS2_S2_RS0_:
.LFB1829:
	.loc 3 534 7
	.cfi_startproc
	push	rbp
	.seh_pushreg	rbp
	.cfi_def_cfa_offset 16
	.cfi_offset 6, -16
	mov	rbp, rsp
	.seh_setframe	rbp, 0
	.cfi_def_cfa_register 6
	sub	rsp, 32
	.seh_stackalloc	32
	.seh_endprologue
	mov	QWORD PTR 16[rbp], rcx
	mov	QWORD PTR 24[rbp], rdx
	mov	QWORD PTR 32[rbp], r8
	mov	QWORD PTR 40[rbp], r9
	.loc 3 539 26
	mov	r8, QWORD PTR 40[rbp]
	mov	rcx, QWORD PTR 32[rbp]
	mov	rdx, QWORD PTR 24[rbp]
	mov	rax, QWORD PTR 16[rbp]
	mov	r9, r8
	mov	r8, rcx
	mov	rcx, rax
	call	_ZSt12__relocate_aIPiS0_SaIiEET0_T_S3_S2_RT1_
	.loc 3 544 7
	add	rsp, 32
	pop	rbp
	.cfi_restore 6
	.cfi_def_cfa 7, 8
	ret
	.cfi_endproc
.LFE1829:
	.seh_endproc
	.section	.text$_ZNKSt6vectorIiSaIiEE5emptyEv,"x"
	.linkonce discard
	.align 2
	.globl	_ZNKSt6vectorIiSaIiEE5emptyEv
	.def	_ZNKSt6vectorIiSaIiEE5emptyEv;	.scl	2;	.type	32;	.endef
	.seh_proc	_ZNKSt6vectorIiSaIiEE5emptyEv
_ZNKSt6vectorIiSaIiEE5emptyEv:
.LFB1830:
	.loc 3 1223 7
	.cfi_startproc
	push	rbp
	.seh_pushreg	rbp
	.cfi_def_cfa_offset 16
	.cfi_offset 6, -16
	mov	rbp, rsp
	.seh_setframe	rbp, 0
	.cfi_def_cfa_register 6
	sub	rsp, 64
	.seh_stackalloc	64
	.seh_endprologue
	mov	QWORD PTR 16[rbp], rcx
	.loc 3 1224 30
	mov	rax, QWORD PTR 16[rbp]
	mov	rcx, rax
	call	_ZNKSt6vectorIiSaIiEE3endEv
	mov	QWORD PTR -32[rbp], rax
	.loc 3 1224 21 discriminator 1
	mov	rax, QWORD PTR 16[rbp]
	mov	rcx, rax
	call	_ZNKSt6vectorIiSaIiEE5beginEv
	mov	QWORD PTR -24[rbp], rax
	lea	rax, -24[rbp]
	mov	QWORD PTR -8[rbp], rax
.LBB290:
.LBB291:
.LBB292:
.LBB293:
	.loc 14 1166 16
	mov	rax, QWORD PTR -8[rbp]
.LBE293:
.LBE292:
	.loc 14 1206 27 discriminator 1
	mov	rdx, QWORD PTR [rax]
	lea	rax, -32[rbp]
	mov	QWORD PTR -16[rbp], rax
.LBB294:
.LBB295:
	.loc 14 1166 16
	mov	rax, QWORD PTR -16[rbp]
.LBE295:
.LBE294:
	.loc 14 1206 27 discriminator 2
	mov	rax, QWORD PTR [rax]
	.loc 14 1206 41 discriminator 2
	cmp	rdx, rax
	sete	al
.LBE291:
.LBE290:
	.loc 3 1224 34
	add	rsp, 64
	pop	rbp
	.cfi_restore 6
	.cfi_def_cfa 7, 8
	ret
	.cfi_endproc
.LFE1830:
	.seh_endproc
	.section	.text$_ZNSt19_UninitDestroyGuardIPivED1Ev,"x"
	.linkonce discard
	.align 2
	.globl	_ZNSt19_UninitDestroyGuardIPivED1Ev
	.def	_ZNSt19_UninitDestroyGuardIPivED1Ev;	.scl	2;	.type	32;	.endef
	.seh_proc	_ZNSt19_UninitDestroyGuardIPivED1Ev
_ZNSt19_UninitDestroyGuardIPivED1Ev:
.LFB1836:
	.loc 11 118 7
	.cfi_startproc
	push	rbp
	.seh_pushreg	rbp
	.cfi_def_cfa_offset 16
	.cfi_offset 6, -16
	mov	rbp, rsp
	.seh_setframe	rbp, 0
	.cfi_def_cfa_register 6
	sub	rsp, 32
	.seh_stackalloc	32
	.seh_endprologue
	mov	QWORD PTR 16[rbp], rcx
.LBB296:
	.loc 11 120 23
	mov	rax, QWORD PTR 16[rbp]
	mov	rax, QWORD PTR 8[rax]
	.loc 11 120 30
	test	rax, rax
	setne	al
	.loc 11 120 22
	movzx	eax, al
	.loc 11 120 2 discriminator 1
	test	eax, eax
	je	.L139
	.loc 11 121 29
	mov	rax, QWORD PTR 16[rbp]
	mov	rax, QWORD PTR 8[rax]
	.loc 11 121 17
	mov	rdx, QWORD PTR [rax]
	.loc 11 121 18
	mov	rax, QWORD PTR 16[rbp]
	mov	rax, QWORD PTR [rax]
	.loc 11 121 17
	mov	rcx, rax
	call	_ZSt8_DestroyIPiEvT_S1_
.L139:
.LBE296:
	.loc 11 122 7
	nop
	add	rsp, 32
	pop	rbp
	.cfi_restore 6
	.cfi_def_cfa 7, 8
	ret
	.cfi_endproc
.LFE1836:
	.seh_endproc
	.section	.text$_ZSt10_ConstructIiJRKiEEvPT_DpOT0_,"x"
	.linkonce discard
	.globl	_ZSt10_ConstructIiJRKiEEvPT_DpOT0_
	.def	_ZSt10_ConstructIiJRKiEEvPT_DpOT0_;	.scl	2;	.type	32;	.endef
	.seh_proc	_ZSt10_ConstructIiJRKiEEvPT_DpOT0_
_ZSt10_ConstructIiJRKiEEvPT_DpOT0_:
.LFB1837:
	.loc 12 123 5
	.cfi_startproc
	push	rbp
	.seh_pushreg	rbp
	.cfi_def_cfa_offset 16
	.cfi_offset 6, -16
	push	rbx
	.seh_pushreg	rbx
	.cfi_def_cfa_offset 24
	.cfi_offset 3, -24
	sub	rsp, 56
	.seh_stackalloc	56
	.cfi_def_cfa_offset 80
	lea	rbp, 48[rsp]
	.seh_setframe	rbp, 48
	.cfi_def_cfa 6, 32
	.seh_endprologue
	mov	QWORD PTR 32[rbp], rcx
	mov	QWORD PTR 40[rbp], rdx
.LBB297:
.LBB298:
	.loc 9 586 49
	mov	eax, 0
.LBE298:
.LBE297:
	.loc 12 126 7 discriminator 1
	test	al, al
	je	.L142
	mov	rax, QWORD PTR 40[rbp]
	mov	QWORD PTR -8[rbp], rax
.LBB299:
.LBB300:
	.loc 8 73 36
	mov	rdx, QWORD PTR -8[rbp]
.LBE300:
.LBE299:
	.loc 12 129 21 discriminator 1
	mov	rax, QWORD PTR 32[rbp]
	mov	rcx, rax
	call	_ZSt12construct_atIiJRKiEQaant20is_unbounded_array_vIT_ErqXgsnwcvPvLi0E_S2_pispcl7declvalIT0_EEEEEPS2_S5_DpOS4_
	.loc 12 130 4
	jmp	.L140
.L142:
	.loc 12 133 13
	mov	rbx, QWORD PTR 32[rbp]
	.loc 12 133 7
	mov	rdx, rbx
	mov	ecx, 4
	call	_ZnwyPv
	mov	rdx, QWORD PTR 40[rbp]
	mov	QWORD PTR -16[rbp], rdx
.LBB301:
.LBB302:
	.loc 8 73 36
	mov	rdx, QWORD PTR -16[rbp]
.LBE302:
.LBE301:
	.loc 12 133 7 discriminator 2
	mov	edx, DWORD PTR [rdx]
	mov	DWORD PTR [rax], edx
	mov	edx, 0
	test	dl, dl
	je	.L140
	.loc 12 133 7 is_stmt 0 discriminator 3
	mov	rdx, rbx
	mov	rcx, rax
	call	_ZdlPvS_
	nop
.L140:
	.loc 12 134 5 is_stmt 1
	add	rsp, 56
	pop	rbx
	.cfi_restore 3
	pop	rbp
	.cfi_restore 6
	.cfi_def_cfa 7, -40
	ret
	.cfi_endproc
.LFE1837:
	.seh_endproc
	.section	.text$_ZNSt19_UninitDestroyGuardIPivE7releaseEv,"x"
	.linkonce discard
	.align 2
	.globl	_ZNSt19_UninitDestroyGuardIPivE7releaseEv
	.def	_ZNSt19_UninitDestroyGuardIPivE7releaseEv;	.scl	2;	.type	32;	.endef
	.seh_proc	_ZNSt19_UninitDestroyGuardIPivE7releaseEv
_ZNSt19_UninitDestroyGuardIPivE7releaseEv:
.LFB1838:
	.loc 11 125 12
	.cfi_startproc
	push	rbp
	.seh_pushreg	rbp
	.cfi_def_cfa_offset 16
	.cfi_offset 6, -16
	mov	rbp, rsp
	.seh_setframe	rbp, 0
	.cfi_def_cfa_register 6
	.seh_endprologue
	mov	QWORD PTR 16[rbp], rcx
	.loc 11 125 31
	mov	rax, QWORD PTR 16[rbp]
	mov	QWORD PTR 8[rax], 0
	.loc 11 125 36
	nop
	pop	rbp
	.cfi_restore 6
	.cfi_def_cfa 7, 8
	ret
	.cfi_endproc
.LFE1838:
	.seh_endproc
	.section	.text$_ZNSt15__new_allocatorIiE10deallocateEPiy,"x"
	.linkonce discard
	.align 2
	.globl	_ZNSt15__new_allocatorIiE10deallocateEPiy
	.def	_ZNSt15__new_allocatorIiE10deallocateEPiy;	.scl	2;	.type	32;	.endef
	.seh_proc	_ZNSt15__new_allocatorIiE10deallocateEPiy
_ZNSt15__new_allocatorIiE10deallocateEPiy:
.LFB1839:
	.loc 6 156 7
	.cfi_startproc
	push	rbp
	.seh_pushreg	rbp
	.cfi_def_cfa_offset 16
	.cfi_offset 6, -16
	mov	rbp, rsp
	.seh_setframe	rbp, 0
	.cfi_def_cfa_register 6
	sub	rsp, 32
	.seh_stackalloc	32
	.seh_endprologue
	mov	QWORD PTR 16[rbp], rcx
	mov	QWORD PTR 24[rbp], rdx
	mov	QWORD PTR 32[rbp], r8
	.loc 6 172 59
	mov	rax, QWORD PTR 32[rbp]
	lea	rdx, 0[0+rax*4]
	mov	rax, QWORD PTR 24[rbp]
	mov	rcx, rax
	call	_ZdlPvy
	nop
	.loc 6 173 7
	add	rsp, 32
	pop	rbp
	.cfi_restore 6
	.cfi_def_cfa 7, 8
	ret
	.cfi_endproc
.LFE1839:
	.seh_endproc
	.section	.text$_ZSt12__relocate_aIPiS0_SaIiEET0_T_S3_S2_RT1_,"x"
	.linkonce discard
	.globl	_ZSt12__relocate_aIPiS0_SaIiEET0_T_S3_S2_RT1_
	.def	_ZSt12__relocate_aIPiS0_SaIiEET0_T_S3_S2_RT1_;	.scl	2;	.type	32;	.endef
	.seh_proc	_ZSt12__relocate_aIPiS0_SaIiEET0_T_S3_S2_RT1_
_ZSt12__relocate_aIPiS0_SaIiEET0_T_S3_S2_RT1_:
.LFB1840:
	.loc 11 1380 5
	.cfi_startproc
	push	rbp
	.seh_pushreg	rbp
	.cfi_def_cfa_offset 16
	.cfi_offset 6, -16
	mov	rbp, rsp
	.seh_setframe	rbp, 0
	.cfi_def_cfa_register 6
	sub	rsp, 64
	.seh_stackalloc	64
	.seh_endprologue
	mov	QWORD PTR 16[rbp], rcx
	mov	QWORD PTR 24[rbp], rdx
	mov	QWORD PTR 32[rbp], r8
	mov	QWORD PTR 40[rbp], r9
	mov	rax, QWORD PTR 32[rbp]
	mov	QWORD PTR -24[rbp], rax
.LBB303:
.LBB304:
	.loc 14 3011 14
	mov	rcx, QWORD PTR -24[rbp]
	mov	rax, QWORD PTR 24[rbp]
	mov	QWORD PTR -16[rbp], rax
.LBE304:
.LBE303:
.LBB305:
.LBB306:
	mov	rdx, QWORD PTR -16[rbp]
	mov	rax, QWORD PTR 16[rbp]
	mov	QWORD PTR -8[rbp], rax
.LBE306:
.LBE305:
.LBB307:
.LBB308:
	mov	rax, QWORD PTR -8[rbp]
.LBE308:
.LBE307:
	.loc 11 1386 33 discriminator 3
	mov	r8, QWORD PTR 40[rbp]
	mov	r9, r8
	mov	r8, rcx
	mov	rcx, rax
	call	_ZSt14__relocate_a_1IiiENSt9enable_ifIXsrSt24__is_bitwise_relocatableIT_vE5valueEPS2_E4typeES4_S4_S4_RSaIT0_E
	.loc 11 1389 5
	add	rsp, 64
	pop	rbp
	.cfi_restore 6
	.cfi_def_cfa 7, 8
	ret
	.cfi_endproc
.LFE1840:
	.seh_endproc
	.section	.text$_ZNKSt6vectorIiSaIiEE5beginEv,"x"
	.linkonce discard
	.align 2
	.globl	_ZNKSt6vectorIiSaIiEE5beginEv
	.def	_ZNKSt6vectorIiSaIiEE5beginEv;	.scl	2;	.type	32;	.endef
	.seh_proc	_ZNKSt6vectorIiSaIiEE5beginEv
_ZNKSt6vectorIiSaIiEE5beginEv:
.LFB1841:
	.loc 3 1008 7
	.cfi_startproc
	push	rbp
	.seh_pushreg	rbp
	.cfi_def_cfa_offset 16
	.cfi_offset 6, -16
	mov	rbp, rsp
	.seh_setframe	rbp, 0
	.cfi_def_cfa_register 6
	sub	rsp, 16
	.seh_stackalloc	16
	.seh_endprologue
	mov	QWORD PTR 16[rbp], rcx
	.loc 3 1009 45
	mov	rax, QWORD PTR 16[rbp]
	mov	QWORD PTR -8[rbp], rax
.LBB309:
.LBB310:
.LBB311:
	.loc 14 1059 9
	mov	rax, QWORD PTR -8[rbp]
	mov	rax, QWORD PTR [rax]
	mov	QWORD PTR -16[rbp], rax
.LBE311:
	.loc 14 1059 27
	nop
.LBE310:
.LBE309:
	.loc 3 1009 53 discriminator 1
	mov	rax, QWORD PTR -16[rbp]
	.loc 3 1009 56
	add	rsp, 16
	pop	rbp
	.cfi_restore 6
	.cfi_def_cfa 7, 8
	ret
	.cfi_endproc
.LFE1841:
	.seh_endproc
	.section	.text$_ZNKSt6vectorIiSaIiEE3endEv,"x"
	.linkonce discard
	.align 2
	.globl	_ZNKSt6vectorIiSaIiEE3endEv
	.def	_ZNKSt6vectorIiSaIiEE3endEv;	.scl	2;	.type	32;	.endef
	.seh_proc	_ZNKSt6vectorIiSaIiEE3endEv
_ZNKSt6vectorIiSaIiEE3endEv:
.LFB1842:
	.loc 3 1028 7
	.cfi_startproc
	push	rbp
	.seh_pushreg	rbp
	.cfi_def_cfa_offset 16
	.cfi_offset 6, -16
	mov	rbp, rsp
	.seh_setframe	rbp, 0
	.cfi_def_cfa_register 6
	sub	rsp, 16
	.seh_stackalloc	16
	.seh_endprologue
	mov	QWORD PTR 16[rbp], rcx
	.loc 3 1029 45
	mov	rax, QWORD PTR 16[rbp]
	add	rax, 8
	mov	QWORD PTR -8[rbp], rax
.LBB312:
.LBB313:
.LBB314:
	.loc 14 1059 9
	mov	rax, QWORD PTR -8[rbp]
	mov	rax, QWORD PTR [rax]
	mov	QWORD PTR -16[rbp], rax
.LBE314:
	.loc 14 1059 27
	nop
.LBE313:
.LBE312:
	.loc 3 1029 54 discriminator 1
	mov	rax, QWORD PTR -16[rbp]
	.loc 3 1029 57
	add	rsp, 16
	pop	rbp
	.cfi_restore 6
	.cfi_def_cfa 7, 8
	ret
	.cfi_endproc
.LFE1842:
	.seh_endproc
	.section	.text$_ZSt12construct_atIiJRKiEQaant20is_unbounded_array_vIT_ErqXgsnwcvPvLi0E_S2_pispcl7declvalIT0_EEEEEPS2_S5_DpOS4_,"x"
	.linkonce discard
	.globl	_ZSt12construct_atIiJRKiEQaant20is_unbounded_array_vIT_ErqXgsnwcvPvLi0E_S2_pispcl7declvalIT0_EEEEEPS2_S5_DpOS4_
	.def	_ZSt12construct_atIiJRKiEQaant20is_unbounded_array_vIT_ErqXgsnwcvPvLi0E_S2_pispcl7declvalIT0_EEEEEPS2_S5_DpOS4_;	.scl	2;	.type	32;	.endef
	.seh_proc	_ZSt12construct_atIiJRKiEQaant20is_unbounded_array_vIT_ErqXgsnwcvPvLi0E_S2_pispcl7declvalIT0_EEEEEPS2_S5_DpOS4_
_ZSt12construct_atIiJRKiEQaant20is_unbounded_array_vIT_ErqXgsnwcvPvLi0E_S2_pispcl7declvalIT0_EEEEEPS2_S5_DpOS4_:
.LFB1846:
	.loc 12 96 5
	.cfi_startproc
	push	rbp
	.seh_pushreg	rbp
	.cfi_def_cfa_offset 16
	.cfi_offset 6, -16
	push	rsi
	.seh_pushreg	rsi
	.cfi_def_cfa_offset 24
	.cfi_offset 4, -24
	push	rbx
	.seh_pushreg	rbx
	.cfi_def_cfa_offset 32
	.cfi_offset 3, -32
	sub	rsp, 48
	.seh_stackalloc	48
	.cfi_def_cfa_offset 80
	lea	rbp, 48[rsp]
	.seh_setframe	rbp, 48
	.cfi_def_cfa 6, 32
	.seh_endprologue
	mov	QWORD PTR 32[rbp], rcx
	mov	QWORD PTR 40[rbp], rdx
	.loc 12 99 13
	mov	rax, QWORD PTR 32[rbp]
	mov	QWORD PTR -8[rbp], rax
	.loc 12 110 15
	mov	rsi, QWORD PTR -8[rbp]
	.loc 12 110 9
	mov	rdx, rsi
	mov	ecx, 4
	call	_ZnwyPv
	mov	rbx, rax
	mov	rax, QWORD PTR 40[rbp]
	mov	QWORD PTR -16[rbp], rax
.LBB315:
.LBB316:
	.loc 8 73 36
	mov	rax, QWORD PTR -16[rbp]
.LBE316:
.LBE315:
	.loc 12 110 9 discriminator 2
	mov	eax, DWORD PTR [rax]
	mov	DWORD PTR [rbx], eax
	.loc 12 110 56 discriminator 2
	mov	eax, 0
	.loc 12 110 56 is_stmt 0 discriminator 3
	test	al, al
	je	.L161
	.loc 12 110 9 is_stmt 1 discriminator 4
	mov	rdx, rsi
	mov	rcx, rbx
	call	_ZdlPvS_
.L161:
	.loc 12 110 56 discriminator 8
	mov	rax, rbx
	.loc 12 111 5
	add	rsp, 48
	pop	rbx
	.cfi_restore 3
	pop	rsi
	.cfi_restore 4
	pop	rbp
	.cfi_restore 6
	.cfi_def_cfa 7, -24
	ret
	.cfi_endproc
.LFE1846:
	.seh_endproc
	.weak	_ZSt12construct_atIiJRKiEEPT_S3_DpOT0_
	.def	_ZSt12construct_atIiJRKiEEPT_S3_DpOT0_;	.scl	2;	.type	32;	.endef
	.set	_ZSt12construct_atIiJRKiEEPT_S3_DpOT0_,_ZSt12construct_atIiJRKiEQaant20is_unbounded_array_vIT_ErqXgsnwcvPvLi0E_S2_pispcl7declvalIT0_EEEEEPS2_S5_DpOS4_
	.section	.text$_ZSt14__relocate_a_1IiiENSt9enable_ifIXsrSt24__is_bitwise_relocatableIT_vE5valueEPS2_E4typeES4_S4_S4_RSaIT0_E,"x"
	.linkonce discard
	.globl	_ZSt14__relocate_a_1IiiENSt9enable_ifIXsrSt24__is_bitwise_relocatableIT_vE5valueEPS2_E4typeES4_S4_S4_RSaIT0_E
	.def	_ZSt14__relocate_a_1IiiENSt9enable_ifIXsrSt24__is_bitwise_relocatableIT_vE5valueEPS2_E4typeES4_S4_S4_RSaIT0_E;	.scl	2;	.type	32;	.endef
	.seh_proc	_ZSt14__relocate_a_1IiiENSt9enable_ifIXsrSt24__is_bitwise_relocatableIT_vE5valueEPS2_E4typeES4_S4_S4_RSaIT0_E
_ZSt14__relocate_a_1IiiENSt9enable_ifIXsrSt24__is_bitwise_relocatableIT_vE5valueEPS2_E4typeES4_S4_S4_RSaIT0_E:
.LFB1848:
	.loc 11 1353 5
	.cfi_startproc
	push	rbp
	.seh_pushreg	rbp
	.cfi_def_cfa_offset 16
	.cfi_offset 6, -16
	mov	rbp, rsp
	.seh_setframe	rbp, 0
	.cfi_def_cfa_register 6
	sub	rsp, 48
	.seh_stackalloc	48
	.seh_endprologue
	mov	QWORD PTR 16[rbp], rcx
	mov	QWORD PTR 24[rbp], rdx
	mov	QWORD PTR 32[rbp], r8
	mov	QWORD PTR 40[rbp], r9
	.loc 11 1357 34
	mov	rax, QWORD PTR 24[rbp]
	sub	rax, QWORD PTR 16[rbp]
	.loc 11 1357 17
	sar	rax, 2
	mov	QWORD PTR -8[rbp], rax
.LBB317:
	.loc 11 1358 7
	cmp	QWORD PTR -8[rbp], 0
	jle	.L163
.LBB318:
.LBB319:
	.loc 11 1361 34
	call	_ZSt21is_constant_evaluatedv
	.loc 11 1361 4 discriminator 1
	test	al, al
	je	.L164
.LBB320:
.LBB321:
.LBB322:
.LBB323:
	.loc 14 1059 9
	mov	rax, QWORD PTR 32[rbp]
	mov	QWORD PTR -16[rbp], rax
.LBE323:
	.loc 14 1059 27
	nop
.LBE322:
.LBE321:
	.loc 11 1366 35
	mov	r8, QWORD PTR 40[rbp]
	mov	rcx, QWORD PTR -16[rbp]
	mov	rdx, QWORD PTR 24[rbp]
	mov	rax, QWORD PTR 16[rbp]
	mov	r9, r8
	mov	r8, rcx
	mov	rcx, rax
	call	_ZSt14__relocate_a_1IPiN9__gnu_cxx17__normal_iteratorIS0_vEESaIiEET0_T_S6_S5_RT1_
	mov	QWORD PTR -16[rbp], rax
.LBB324:
.LBB325:
	.loc 14 1166 16
	lea	rax, -16[rbp]
.LBE325:
.LBE324:
	.loc 11 1367 26 discriminator 1
	mov	rax, QWORD PTR [rax]
	.loc 11 1367 26 is_stmt 0
	jmp	.L166
.L164:
.LBE320:
.LBE319:
	.loc 11 1370 40 is_stmt 1
	mov	rax, QWORD PTR -8[rbp]
	.loc 11 1370 20
	lea	r8, 0[0+rax*4]
	mov	rdx, QWORD PTR 32[rbp]
	mov	rax, QWORD PTR 16[rbp]
	mov	rcx, rdx
	mov	rdx, r8
	mov	r8, rdx
	mov	rdx, rax
	call	memcpy
.L163:
.LBE318:
.LBE317:
	.loc 11 1372 23
	mov	rax, QWORD PTR 32[rbp]
	.loc 11 1372 25
	mov	rdx, QWORD PTR -8[rbp]
	.loc 11 1372 23
	sal	rdx, 2
	.loc 11 1372 25
	add	rax, rdx
.L166:
	.loc 11 1373 5
	add	rsp, 48
	pop	rbp
	.cfi_restore 6
	.cfi_def_cfa 7, 8
	ret
	.cfi_endproc
.LFE1848:
	.seh_endproc
	.section	.text$_ZNSt15__new_allocatorIiE8allocateEyPKv,"x"
	.linkonce discard
	.align 2
	.globl	_ZNSt15__new_allocatorIiE8allocateEyPKv
	.def	_ZNSt15__new_allocatorIiE8allocateEyPKv;	.scl	2;	.type	32;	.endef
	.seh_proc	_ZNSt15__new_allocatorIiE8allocateEyPKv
_ZNSt15__new_allocatorIiE8allocateEyPKv:
.LFB1856:
	.loc 6 126 7
	.cfi_startproc
	push	rbp
	.seh_pushreg	rbp
	.cfi_def_cfa_offset 16
	.cfi_offset 6, -16
	mov	rbp, rsp
	.seh_setframe	rbp, 0
	.cfi_def_cfa_register 6
	sub	rsp, 48
	.seh_stackalloc	48
	.seh_endprologue
	mov	QWORD PTR 16[rbp], rcx
	mov	QWORD PTR 24[rbp], rdx
	mov	QWORD PTR 32[rbp], r8
	mov	rax, QWORD PTR 16[rbp]
	mov	QWORD PTR -8[rbp], rax
.LBB326:
.LBB327:
	.loc 6 233 50
	movabs	rax, 2305843009213693951
.LBE327:
.LBE326:
	.loc 6 134 27 discriminator 1
	cmp	rax, QWORD PTR 24[rbp]
	setb	al
	.loc 6 134 22 discriminator 1
	movzx	eax, al
	.loc 6 134 22 is_stmt 0 discriminator 2
	test	eax, eax
	setne	al
	.loc 6 134 2 is_stmt 1 discriminator 2
	test	al, al
	je	.L169
	.loc 6 138 6
	movabs	rax, 4611686018427387903
	cmp	rax, QWORD PTR 24[rbp]
	jnb	.L170
	.loc 6 139 41
	call	_ZSt28__throw_bad_array_new_lengthv
.L170:
	.loc 6 140 28
	call	_ZSt17__throw_bad_allocv
.L169:
	.loc 6 151 66
	mov	rax, QWORD PTR 24[rbp]
	sal	rax, 2
	mov	rcx, rax
	call	_Znwy
	.loc 6 151 67
	nop
	.loc 6 152 7
	add	rsp, 48
	pop	rbp
	.cfi_restore 6
	.cfi_def_cfa 7, 8
	ret
	.cfi_endproc
.LFE1856:
	.seh_endproc
	.section	.text$_ZSt14__relocate_a_1IPiN9__gnu_cxx17__normal_iteratorIS0_vEESaIiEET0_T_S6_S5_RT1_,"x"
	.linkonce discard
	.globl	_ZSt14__relocate_a_1IPiN9__gnu_cxx17__normal_iteratorIS0_vEESaIiEET0_T_S6_S5_RT1_
	.def	_ZSt14__relocate_a_1IPiN9__gnu_cxx17__normal_iteratorIS0_vEESaIiEET0_T_S6_S5_RT1_;	.scl	2;	.type	32;	.endef
	.seh_proc	_ZSt14__relocate_a_1IPiN9__gnu_cxx17__normal_iteratorIS0_vEESaIiEET0_T_S6_S5_RT1_
_ZSt14__relocate_a_1IPiN9__gnu_cxx17__normal_iteratorIS0_vEESaIiEET0_T_S6_S5_RT1_:
.LFB1857:
	.loc 11 1330 5
	.cfi_startproc
	push	rbp
	.seh_pushreg	rbp
	.cfi_def_cfa_offset 16
	.cfi_offset 6, -16
	mov	rbp, rsp
	.seh_setframe	rbp, 0
	.cfi_def_cfa_register 6
	sub	rsp, 64
	.seh_stackalloc	64
	.seh_endprologue
	mov	QWORD PTR 16[rbp], rcx
	mov	QWORD PTR 24[rbp], rdx
	mov	QWORD PTR 32[rbp], r8
	mov	QWORD PTR 40[rbp], r9
	.loc 11 1342 24
	mov	rax, QWORD PTR 32[rbp]
	mov	QWORD PTR -24[rbp], rax
	.loc 11 1343 7
	jmp	.L173
.L178:
	mov	rax, QWORD PTR 16[rbp]
	mov	QWORD PTR -16[rbp], rax
.LBB328:
.LBB329:
	.loc 8 53 37
	mov	rdx, QWORD PTR -16[rbp]
.LBE329:
.LBE328:
.LBB330:
.LBB331:
	.loc 14 1090 17
	mov	rax, QWORD PTR -24[rbp]
	mov	QWORD PTR -8[rbp], rax
.LBE331:
.LBE330:
.LBB332:
.LBB333:
	.loc 8 53 37
	mov	rax, QWORD PTR -8[rbp]
.LBE333:
.LBE332:
	.loc 11 1344 26 discriminator 3
	mov	rcx, QWORD PTR 40[rbp]
	mov	r8, rcx
	mov	rcx, rax
	call	_ZSt19__relocate_object_aIiiSaIiEEvPT_PT0_RT1_
	.loc 11 1343 7 discriminator 3
	add	QWORD PTR 16[rbp], 4
.LBB334:
.LBB335:
	.loc 14 1103 4
	mov	rax, QWORD PTR -24[rbp]
	.loc 14 1103 2
	add	rax, 4
	mov	QWORD PTR -24[rbp], rax
	.loc 14 1104 10
	nop
.L173:
.LBE335:
.LBE334:
	.loc 11 1343 22 discriminator 2
	mov	rax, QWORD PTR 16[rbp]
	cmp	rax, QWORD PTR 24[rbp]
	jne	.L178
	.loc 11 1346 14
	mov	rax, QWORD PTR -24[rbp]
	.loc 11 1347 5
	add	rsp, 64
	pop	rbp
	.cfi_restore 6
	.cfi_def_cfa 7, 8
	ret
	.cfi_endproc
.LFE1857:
	.seh_endproc
	.section	.text$_ZSt19__relocate_object_aIiiSaIiEEvPT_PT0_RT1_,"x"
	.linkonce discard
	.globl	_ZSt19__relocate_object_aIiiSaIiEEvPT_PT0_RT1_
	.def	_ZSt19__relocate_object_aIiiSaIiEEvPT_PT0_RT1_;	.scl	2;	.type	32;	.endef
	.seh_proc	_ZSt19__relocate_object_aIiiSaIiEEvPT_PT0_RT1_
_ZSt19__relocate_object_aIiiSaIiEEvPT_PT0_RT1_:
.LFB1862:
	.loc 11 1307 5
	.cfi_startproc
	push	rbp
	.seh_pushreg	rbp
	.cfi_def_cfa_offset 16
	.cfi_offset 6, -16
	mov	rbp, rsp
	.seh_setframe	rbp, 0
	.cfi_def_cfa_register 6
	sub	rsp, 96
	.seh_stackalloc	96
	.seh_endprologue
	mov	QWORD PTR 16[rbp], rcx
	mov	QWORD PTR 24[rbp], rdx
	mov	QWORD PTR 32[rbp], r8
	mov	rax, QWORD PTR 24[rbp]
	mov	QWORD PTR -64[rbp], rax
.LBB336:
.LBB337:
	.loc 8 139 74
	mov	rax, QWORD PTR -64[rbp]
	mov	rdx, QWORD PTR 16[rbp]
	mov	QWORD PTR -32[rbp], rdx
	mov	QWORD PTR -40[rbp], rax
	mov	rax, QWORD PTR 32[rbp]
	mov	QWORD PTR -48[rbp], rax
	mov	rax, QWORD PTR -40[rbp]
	mov	QWORD PTR -56[rbp], rax
.LBE337:
.LBE336:
.LBB338:
.LBB339:
.LBB340:
.LBB341:
	.loc 8 73 36
	mov	rdx, QWORD PTR -56[rbp]
.LBE341:
.LBE340:
	.loc 7 676 21 discriminator 1
	mov	rax, QWORD PTR -32[rbp]
	mov	rcx, rax
	call	_ZSt12construct_atIiJiEQaant20is_unbounded_array_vIT_ErqXgsnwcvPvLi0E_S0_pispcl7declvalIT0_EEEEEPS0_S3_DpOS2_
	.loc 7 680 2
	nop
	mov	rax, QWORD PTR 24[rbp]
	mov	QWORD PTR -24[rbp], rax
.LBE339:
.LBE338:
.LBB342:
.LBB343:
	.loc 8 53 37
	mov	rax, QWORD PTR -24[rbp]
	mov	QWORD PTR -8[rbp], rax
	mov	rax, QWORD PTR 32[rbp]
	mov	QWORD PTR -16[rbp], rax
.LBE343:
.LBE342:
.LBB344:
.LBB345:
	.loc 7 698 19
	mov	rax, QWORD PTR -8[rbp]
	mov	rcx, rax
	call	_ZSt10destroy_atIiEvPT_
	.loc 7 700 2
	nop
.LBE345:
.LBE344:
	.loc 11 1317 5
	nop
	add	rsp, 96
	pop	rbp
	.cfi_restore 6
	.cfi_def_cfa 7, 8
	ret
	.cfi_endproc
.LFE1862:
	.seh_endproc
	.text
.Letext0:
	.file 16 "C:/Qt/Tools/mingw1530_64/include/c++/15.3.0/bits/utility.h"
	.file 17 "C:/Qt/Tools/mingw1530_64/include/c++/15.3.0/concepts"
	.file 18 "C:/Qt/Tools/mingw1530_64/include/c++/15.3.0/bits/iterator_concepts.h"
	.file 19 "C:/Qt/Tools/mingw1530_64/include/c++/15.3.0/compare"
	.file 20 "C:/Qt/Tools/mingw1530_64/include/c++/15.3.0/debug/debug.h"
	.file 21 "C:/Qt/Tools/mingw1530_64/include/c++/15.3.0/numbers"
	.file 22 "C:/Qt/Tools/mingw1530_64/include/c++/15.3.0/bits/memory_resource.h"
	.file 23 "C:/Qt/Tools/mingw1530_64/include/c++/15.3.0/cstddef"
	.file 24 "C:/Qt/Tools/mingw1530_64/include/c++/15.3.0/initializer_list"
	.file 25 "C:/Qt/Tools/mingw1530_64/include/c++/15.3.0/bits/stl_iterator_base_types.h"
	.file 26 "C:/Qt/Tools/mingw1530_64/include/c++/15.3.0/bits/functexcept.h"
	.file 27 "C:/Qt/Tools/mingw1530_64/include/c++/15.3.0/bits/predefined_ops.h"
	.file 28 "C:/Qt/Tools/mingw1530_64/include/c++/15.3.0/ext/alloc_traits.h"
	.file 29 "C:/Qt/Tools/mingw1530_64/x86_64-w64-mingw32/include/stddef.h"