	.file	"_ch147_vdtor.cpp"
	.intel_syntax noprefix
	.text
.Ltext0:
	.cfi_sections	.debug_frame
	.file 0 "C:/CodeLearnling/note/note/C++/CPP-Bible" "Examples/_ch147_vdtor.cpp"
	.section	.text$_ZN4BaseD2Ev,"x"
	.linkonce discard
	.align 2
	.globl	_ZN4BaseD2Ev
	.def	_ZN4BaseD2Ev;	.scl	2;	.type	32;	.endef
	.seh_proc	_ZN4BaseD2Ev
_ZN4BaseD2Ev:
.LFB1:
	.file 1 "Examples/_ch147_vdtor.cpp"
	.loc 1 1 15
	.cfi_startproc
	push	rbp
	.seh_pushreg	rbp
	.cfi_def_cfa_offset 16
	.cfi_offset 6, -16
	mov	rbp, rsp
	.seh_setframe	rbp, 0
	.cfi_def_cfa_register 6
	.seh_endprologue
	mov	QWORD PTR 16[rbp], rcx
	.loc 1 1 24
	nop
	pop	rbp
	.cfi_restore 6
	.cfi_def_cfa 7, 8
	ret
	.cfi_endproc
.LFE1:
	.seh_endproc
	.section	.text$_ZN4BaseD1Ev,"x"
	.linkonce discard
	.align 2
	.globl	_ZN4BaseD1Ev
	.def	_ZN4BaseD1Ev;	.scl	2;	.type	32;	.endef
	.seh_proc	_ZN4BaseD1Ev
_ZN4BaseD1Ev:
.LFB2:
	.loc 1 1 15
	.cfi_startproc
	push	rbp
	.seh_pushreg	rbp
	.cfi_def_cfa_offset 16
	.cfi_offset 6, -16
	mov	rbp, rsp
	.seh_setframe	rbp, 0
	.cfi_def_cfa_register 6
	.seh_endprologue
	mov	QWORD PTR 16[rbp], rcx
	.loc 1 1 24
	nop
	pop	rbp
	.cfi_restore 6
	.cfi_def_cfa 7, 8
	ret
	.cfi_endproc
.LFE2:
	.seh_endproc
	.section	.text$_ZN7DerivedC1Ev,"x"
	.linkonce discard
	.align 2
	.globl	_ZN7DerivedC1Ev
	.def	_ZN7DerivedC1Ev;	.scl	2;	.type	32;	.endef
	.seh_proc	_ZN7DerivedC1Ev
_ZN7DerivedC1Ev:
.LFB9:
	.loc 1 2 8
	.cfi_startproc
	push	rbp
	.seh_pushreg	rbp
	.cfi_def_cfa_offset 16
	.cfi_offset 6, -16
	push	rbx
	.seh_pushreg	rbx
	.cfi_def_cfa_offset 24
	.cfi_offset 3, -24
	sub	rsp, 40
	.seh_stackalloc	40
	.cfi_def_cfa_offset 64
	lea	rbp, 32[rsp]
	.seh_setframe	rbp, 32
	.cfi_def_cfa 6, 32
	.seh_endprologue
	mov	QWORD PTR 32[rbp], rcx
.LBB2:
	.loc 1 2 8
	mov	ecx, 4
.LEHB0:
	call	_Znwy
.LEHE0:
	.loc 1 2 8 is_stmt 0 discriminator 3
	mov	DWORD PTR [rax], 0
	mov	rdx, QWORD PTR 32[rbp]
	mov	QWORD PTR [rdx], rax
.LBE2:
	.loc 1 2 8
	jmp	.L6
.L5:
.LBB3:
	.loc 1 2 8 discriminator 2
	mov	rbx, rax
	mov	rax, QWORD PTR 32[rbp]
	mov	rcx, rax
	call	_ZN4BaseD2Ev
	mov	rax, rbx
	mov	rcx, rax
.LEHB1:
	call	_Unwind_Resume
	nop
.LEHE1:
.L6:
.LBE3:
	.loc 1 2 8
	add	rsp, 40
	pop	rbx
	.cfi_restore 3
	pop	rbp
	.cfi_restore 6
	.cfi_def_cfa 7, -24
	ret
	.cfi_endproc
.LFE9:
	.seh_handler	__gxx_personality_seh0, @unwind, @except
	.seh_handlerdata
.LLSDA9:
	.byte	0xff
	.byte	0xff
	.byte	0x1
	.uleb128 .LLSDACSE9-.LLSDACSB9
.LLSDACSB9:
	.uleb128 .LEHB0-.LFB9
	.uleb128 .LEHE0-.LEHB0
	.uleb128 .L5-.LFB9
	.uleb128 0
	.uleb128 .LEHB1-.LFB9
	.uleb128 .LEHE1-.LEHB1
	.uleb128 0
	.uleb128 0
.LLSDACSE9:
	.section	.text$_ZN7DerivedC1Ev,"x"
	.linkonce discard
	.seh_endproc
	.text
	.globl	main
	.def	main;	.scl	2;	.type	32;	.endef
	.seh_proc	main
main:
.LFB6:
	.loc 1 3 11 is_stmt 1
	.cfi_startproc
	push	rbp
	.seh_pushreg	rbp
	.cfi_def_cfa_offset 16
	.cfi_offset 6, -16
	push	rdi
	.seh_pushreg	rdi
	.cfi_def_cfa_offset 24
	.cfi_offset 5, -24
	push	rsi
	.seh_pushreg	rsi
	.cfi_def_cfa_offset 32
	.cfi_offset 4, -32
	push	rbx
	.seh_pushreg	rbx
	.cfi_def_cfa_offset 40
	.cfi_offset 3, -40
	sub	rsp, 56
	.seh_stackalloc	56
	.cfi_def_cfa_offset 96
	lea	rbp, 48[rsp]
	.seh_setframe	rbp, 48
	.cfi_def_cfa 6, 48
	.seh_endprologue
	.loc 1 3 11
	call	__main
	.loc 1 3 27
	mov	ecx, 8
.LEHB2:
	call	_Znwy
.LEHE2:
	mov	rbx, rax
	.loc 1 3 27 is_stmt 0 discriminator 1
	mov	edi, 1
	mov	rcx, rbx
.LEHB3:
	call	_ZN7DerivedC1Ev
.LEHE3:
	.loc 1 3 27 discriminator 4
	mov	eax, 0
	mov	QWORD PTR -8[rbp], rbx
	test	al, al
	je	.L8
	.loc 1 3 27 discriminator 5
	mov	edx, 8
	mov	rcx, rbx
	call	_ZdlPvy
.L8:
	.loc 1 3 36 is_stmt 1 discriminator 8
	mov	rbx, QWORD PTR -8[rbp]
	test	rbx, rbx
	je	.L9
	.loc 1 3 43 discriminator 9
	mov	rcx, rbx
	call	_ZN4BaseD1Ev
	.loc 1 3 43 is_stmt 0 discriminator 11
	mov	edx, 1
	mov	rcx, rbx
	call	_ZdlPvy
.L9:
	.loc 1 3 46 is_stmt 1 discriminator 13
	mov	eax, 0
	.loc 1 3 46 is_stmt 0
	jmp	.L14
.L13:
	.loc 1 3 27 is_stmt 1 discriminator 3
	mov	rsi, rax
	test	dil, dil
	je	.L12
	.loc 1 3 27 is_stmt 0 discriminator 15
	mov	edx, 8
	mov	rcx, rbx
	call	_ZdlPvy
.L12:
	mov	rax, rsi
	mov	rcx, rax
.LEHB4:
	call	_Unwind_Resume
.LEHE4:
.L14:
	.loc 1 3 46 is_stmt 1
	add	rsp, 56
	pop	rbx
	.cfi_restore 3
	pop	rsi
	.cfi_restore 4
	pop	rdi
	.cfi_restore 5
	pop	rbp
	.cfi_restore 6
	.cfi_def_cfa 7, -24
	ret
	.cfi_endproc
.LFE6:
	.seh_handler	__gxx_personality_seh0, @unwind, @except
	.seh_handlerdata
.LLSDA6:
	.byte	0xff
	.byte	0xff
	.byte	0x1
	.uleb128 .LLSDACSE6-.LLSDACSB6
.LLSDACSB6:
	.uleb128 .LEHB2-.LFB6
	.uleb128 .LEHE2-.LEHB2
	.uleb128 0
	.uleb128 0
	.uleb128 .LEHB3-.LFB6
	.uleb128 .LEHE3-.LEHB3
	.uleb128 .L13-.LFB6
	.uleb128 0
	.uleb128 .LEHB4-.LFB6
	.uleb128 .LEHE4-.LEHB4
	.uleb128 0
	.uleb128 0
.LLSDACSE6:
	.text
	.seh_endproc
.Letext0: