	.file	"_ch140_variadic.cpp"
	.intel_syntax noprefix
	.text
.Ltext0:
	.cfi_sections	.debug_frame
	.file 0 "C:/CodeLearnling/note/note/C++/CPP-Bible" "Examples/_ch140_variadic.cpp"
	.globl	main
	.def	main;	.scl	2;	.type	32;	.endef
	.seh_proc	main
main:
.LFB16:
	.file 1 "Examples/_ch140_variadic.cpp"
	.loc 1 4 11
	.cfi_startproc
	push	rbp
	.seh_pushreg	rbp
	.cfi_def_cfa_offset 16
	.cfi_offset 6, -16
	mov	rbp, rsp
	.seh_setframe	rbp, 0
	.cfi_def_cfa_register 6
	sub	rsp, 32
	.seh_stackalloc	32
	.seh_endprologue
	.loc 1 4 11
	call	__main
	.loc 1 4 44
	mov	eax, 2
	.loc 1 4 47
	add	rsp, 32
	pop	rbp
	.cfi_restore 6
	.cfi_def_cfa 7, 8
	ret
	.cfi_endproc
.LFE16:
	.seh_endproc
.Letext0:
	.file 2 "C:/Qt/Tools/mingw1530_64/x86_64-w64-mingw32/include/stddef.h"
	.file 3 "C:/Qt/Tools/mingw1530_64/include/c++/15.3.0/x86_64-w64-mingw32/bits/c++config.h"
	.file 4 "C:/Qt/Tools/mingw1530_64/include/c++/15.3.0/cstddef"