	.file	"_ch142_lockfree.cpp"
	.intel_syntax noprefix
	.text
.Ltext0:
	.cfi_sections	.debug_frame
	.file 0 "C:/CodeLearnling/note/note/C++/CPP-Bible" "Examples/_ch142_lockfree.cpp"
	.section	.text$_ZStanSt12memory_orderSt23__memory_order_modifier,"x"
	.linkonce discard
	.globl	_ZStanSt12memory_orderSt23__memory_order_modifier
	.def	_ZStanSt12memory_orderSt23__memory_order_modifier;	.scl	2;	.type	32;	.endef
	.seh_proc	_ZStanSt12memory_orderSt23__memory_order_modifier
_ZStanSt12memory_orderSt23__memory_order_modifier:
.LFB183:
	.file 1 "C:/Qt/Tools/mingw1530_64/include/c++/15.3.0/bits/atomic_base.h"
	.loc 1 111 3
	.cfi_startproc
	push	rbp
	.seh_pushreg	rbp
	.cfi_def_cfa_offset 16
	.cfi_offset 6, -16
	mov	rbp, rsp
	.seh_setframe	rbp, 0
	.cfi_def_cfa_register 6
	.seh_endprologue
	mov	DWORD PTR 16[rbp], ecx
	mov	DWORD PTR 24[rbp], edx
	.loc 1 112 36
	mov	eax, DWORD PTR 24[rbp]
	.loc 1 112 46
	and	eax, DWORD PTR 16[rbp]
	.loc 1 113 3
	pop	rbp
	.cfi_restore 6
	.cfi_def_cfa 7, 8
	ret
	.cfi_endproc
.LFE183:
	.seh_endproc
	.section .rdata,"dr"
.LC0:
	.ascii "__b != memory_order_acquire\0"
	.align 8
.LC1:
	.ascii "void std::__atomic_base<_IntTp>::store(__int_type, std::memory_order) [with _ITp = bool; __int_type = bool]\0"
	.align 8
.LC2:
	.ascii "C:/Qt/Tools/mingw1530_64/include/c++/15.3.0/bits/atomic_base.h\0"
.LC3:
	.ascii "__b != memory_order_acq_rel\0"
.LC4:
	.ascii "__b != memory_order_consume\0"
	.section	.text$_ZNSt6atomicIbE5storeEbSt12memory_order,"x"
	.linkonce discard
	.align 2
	.globl	_ZNSt6atomicIbE5storeEbSt12memory_order
	.def	_ZNSt6atomicIbE5storeEbSt12memory_order;	.scl	2;	.type	32;	.endef
	.seh_proc	_ZNSt6atomicIbE5storeEbSt12memory_order
_ZNSt6atomicIbE5storeEbSt12memory_order:
.LFB446:
	.file 2 "C:/Qt/Tools/mingw1530_64/include/c++/15.3.0/atomic"
	.loc 2 112 5
	.cfi_startproc
	push	rbp
	.seh_pushreg	rbp
	.cfi_def_cfa_offset 16
	.cfi_offset 6, -16
	mov	rbp, rsp
	.seh_setframe	rbp, 0
	.cfi_def_cfa_register 6
	sub	rsp, 64
	.seh_stackalloc	64
	.seh_endprologue
	mov	QWORD PTR 16[rbp], rcx
	mov	eax, edx
	mov	DWORD PTR 32[rbp], r8d
	mov	BYTE PTR 24[rbp], al
	.loc 2 113 20
	mov	rdx, QWORD PTR 16[rbp]
	movzx	eax, BYTE PTR 24[rbp]
	mov	QWORD PTR -8[rbp], rdx
	mov	BYTE PTR -9[rbp], al
	and	BYTE PTR -9[rbp], 1
	mov	eax, DWORD PTR 32[rbp]
	mov	DWORD PTR -16[rbp], eax
.LBB8:
.LBB9:
	.loc 1 472 10
	mov	eax, DWORD PTR -16[rbp]
	mov	edx, 65535
	mov	ecx, eax
	call	_ZStanSt12memory_orderSt23__memory_order_modifier
	mov	DWORD PTR -20[rbp], eax
	.loc 1 473 2
	cmp	DWORD PTR -20[rbp], 2
	sete	al
	movzx	eax, al
	.loc 1 473 2 is_stmt 0 discriminator 1
	test	eax, eax
	je	.L4
	.loc 1 473 2 discriminator 2
	lea	rcx, .LC0[rip]
	lea	rdx, .LC1[rip]
	lea	rax, .LC2[rip]
	mov	r9, rcx
	mov	r8, rdx
	mov	edx, 473
	mov	rcx, rax
	call	_ZSt21__glibcxx_assert_failPKciS0_S0_
.L4:
	.loc 1 474 2 is_stmt 1
	cmp	DWORD PTR -20[rbp], 4
	sete	al
	movzx	eax, al
	.loc 1 474 2 is_stmt 0 discriminator 1
	test	eax, eax
	je	.L5
	.loc 1 474 2 discriminator 2
	lea	rcx, .LC3[rip]
	lea	rdx, .LC1[rip]
	lea	rax, .LC2[rip]
	mov	r9, rcx
	mov	r8, rdx
	mov	edx, 474
	mov	rcx, rax
	call	_ZSt21__glibcxx_assert_failPKciS0_S0_
.L5:
	.loc 1 475 2 is_stmt 1
	cmp	DWORD PTR -20[rbp], 1
	sete	al
	movzx	eax, al
	.loc 1 475 2 is_stmt 0 discriminator 1
	test	eax, eax
	je	.L6
	.loc 1 475 2 discriminator 2
	lea	rcx, .LC4[rip]
	lea	rdx, .LC1[rip]
	lea	rax, .LC2[rip]
	mov	r9, rcx
	mov	r8, rdx
	mov	edx, 475
	mov	rcx, rax
	call	_ZSt21__glibcxx_assert_failPKciS0_S0_
.L6:
	.loc 1 477 18 is_stmt 1
	movzx	edx, BYTE PTR -9[rbp]
	.loc 1 477 19
	mov	rax, QWORD PTR -8[rbp]
	.loc 1 477 18
	xchg	dl, BYTE PTR [rax]
	.loc 1 478 7
	nop
.LBE9:
.LBE8:
	.loc 2 113 32
	nop
	add	rsp, 64
	pop	rbp
	.cfi_restore 6
	.cfi_def_cfa 7, 8
	ret
	.cfi_endproc
.LFE446:
	.seh_endproc
	.section .rdata,"dr"
.LC5:
	.ascii "__b != memory_order_release\0"
	.align 8
.LC6:
	.ascii "std::__atomic_base<_IntTp>::__int_type std::__atomic_base<_IntTp>::load(std::memory_order) const [with _ITp = bool; __int_type = bool]\0"
	.section	.text$_ZNKSt6atomicIbE4loadESt12memory_order,"x"
	.linkonce discard
	.align 2
	.globl	_ZNKSt6atomicIbE4loadESt12memory_order
	.def	_ZNKSt6atomicIbE4loadESt12memory_order;	.scl	2;	.type	32;	.endef
	.seh_proc	_ZNKSt6atomicIbE4loadESt12memory_order
_ZNKSt6atomicIbE4loadESt12memory_order:
.LFB448:
	.loc 2 120 5
	.cfi_startproc
	push	rbp
	.seh_pushreg	rbp
	.cfi_def_cfa_offset 16
	.cfi_offset 6, -16
	mov	rbp, rsp
	.seh_setframe	rbp, 0
	.cfi_def_cfa_register 6
	sub	rsp, 48
	.seh_stackalloc	48
	.seh_endprologue
	mov	QWORD PTR 16[rbp], rcx
	mov	DWORD PTR 24[rbp], edx
	.loc 2 121 26
	mov	rax, QWORD PTR 16[rbp]
	mov	QWORD PTR -8[rbp], rax
	mov	eax, DWORD PTR 24[rbp]
	mov	DWORD PTR -12[rbp], eax
.LBB10:
.LBB11:
	.loc 1 497 10
	mov	eax, DWORD PTR -12[rbp]
	mov	edx, 65535
	mov	ecx, eax
	call	_ZStanSt12memory_orderSt23__memory_order_modifier
	mov	DWORD PTR -16[rbp], eax
	.loc 1 498 2
	cmp	DWORD PTR -16[rbp], 3
	sete	al
	movzx	eax, al
	.loc 1 498 2 is_stmt 0 discriminator 1
	test	eax, eax
	je	.L8
	.loc 1 498 2 discriminator 2
	lea	rcx, .LC5[rip]
	lea	rdx, .LC6[rip]
	lea	rax, .LC2[rip]
	mov	r9, rcx
	mov	r8, rdx
	mov	edx, 498
	mov	rcx, rax
	call	_ZSt21__glibcxx_assert_failPKciS0_S0_
.L8:
	.loc 1 499 2 is_stmt 1
	cmp	DWORD PTR -16[rbp], 4
	sete	al
	movzx	eax, al
	.loc 1 499 2 is_stmt 0 discriminator 1
	test	eax, eax
	je	.L9
	.loc 1 499 2 discriminator 2
	lea	rcx, .LC3[rip]
	lea	rdx, .LC6[rip]
	lea	rax, .LC2[rip]
	mov	r9, rcx
	mov	r8, rdx
	mov	edx, 499
	mov	rcx, rax
	call	_ZSt21__glibcxx_assert_failPKciS0_S0_
.L9:
	.loc 1 501 25 is_stmt 1
	mov	rax, QWORD PTR -8[rbp]
	.loc 1 501 24
	movzx	eax, BYTE PTR [rax]
	.loc 1 501 40 discriminator 1
	test	al, al
	setne	al
.LBE11:
.LBE10:
	.loc 2 121 33
	add	rsp, 48
	pop	rbp
	.cfi_restore 6
	.cfi_def_cfa 7, 8
	ret
	.cfi_endproc
.LFE448:
	.seh_endproc
	.text
	.globl	_Z8is_aliveRK12EntityRecord
	.def	_Z8is_aliveRK12EntityRecord;	.scl	2;	.type	32;	.endef
	.seh_proc	_Z8is_aliveRK12EntityRecord
_Z8is_aliveRK12EntityRecord:
.LFB663:
	.file 3 "Examples/_ch142_lockfree.cpp"
	.loc 3 14 38
	.cfi_startproc
	push	rbp
	.seh_pushreg	rbp
	.cfi_def_cfa_offset 16
	.cfi_offset 6, -16
	mov	rbp, rsp
	.seh_setframe	rbp, 0
	.cfi_def_cfa_register 6
	sub	rsp, 32
	.seh_stackalloc	32
	.seh_endprologue
	mov	QWORD PTR 16[rbp], rcx
	.loc 3 15 24
	mov	rax, QWORD PTR 16[rbp]
	add	rax, 4
	mov	edx, 2
	mov	rcx, rax
	call	_ZNKSt6atomicIbE4loadESt12memory_order
	.loc 3 16 1
	add	rsp, 32
	pop	rbp
	.cfi_restore 6
	.cfi_def_cfa 7, 8
	ret
	.cfi_endproc
.LFE663:
	.seh_endproc
	.globl	_Z4killR12EntityRecord
	.def	_Z4killR12EntityRecord;	.scl	2;	.type	32;	.endef
	.seh_proc	_Z4killR12EntityRecord
_Z4killR12EntityRecord:
.LFB664:
	.loc 3 19 28
	.cfi_startproc
	push	rbp
	.seh_pushreg	rbp
	.cfi_def_cfa_offset 16
	.cfi_offset 6, -16
	mov	rbp, rsp
	.seh_setframe	rbp, 0
	.cfi_def_cfa_register 6
	sub	rsp, 48
	.seh_stackalloc	48
	.seh_endprologue
	mov	QWORD PTR 16[rbp], rcx
	.loc 3 20 18
	mov	rax, QWORD PTR 16[rbp]
	add	rax, 4
	mov	r8d, 3
	mov	edx, 0
	mov	rcx, rax
	call	_ZNSt6atomicIbE5storeEbSt12memory_order
	.loc 3 21 24
	mov	rax, QWORD PTR 16[rbp]
	mov	QWORD PTR -8[rbp], rax
	mov	DWORD PTR -12[rbp], 1
	mov	DWORD PTR -16[rbp], 0
.LBB12:
.LBB13:
	.loc 1 631 35
	mov	rax, QWORD PTR -8[rbp]
	.loc 1 631 34
	mov	edx, DWORD PTR -12[rbp]
	lock xadd	DWORD PTR [rax], edx
	.loc 1 631 55
	nop
.LBE13:
.LBE12:
	.loc 3 22 1
	nop
	add	rsp, 48
	pop	rbp
	.cfi_restore 6
	.cfi_def_cfa 7, 8
	ret
	.cfi_endproc
.LFE664:
	.seh_endproc
	.globl	main
	.def	main;	.scl	2;	.type	32;	.endef
	.seh_proc	main
main:
.LFB665:
	.loc 3 24 12
	.cfi_startproc
	push	rbp
	.seh_pushreg	rbp
	.cfi_def_cfa_offset 16
	.cfi_offset 6, -16
	mov	rbp, rsp
	.seh_setframe	rbp, 0
	.cfi_def_cfa_register 6
	sub	rsp, 48
	.seh_stackalloc	48
	.seh_endprologue
	.loc 3 24 12
	call	__main
	.loc 3 25 18
	mov	DWORD PTR -12[rbp], 0
	mov	BYTE PTR -8[rbp], 0
	.loc 3 26 18
	lea	rax, -12[rbp]
	add	rax, 4
	mov	r8d, 0
	mov	edx, 1
	mov	rcx, rax
	call	_ZNSt6atomicIbE5storeEbSt12memory_order
	.loc 3 27 22
	lea	rax, -12[rbp]
	mov	rcx, rax
	call	_Z8is_aliveRK12EntityRecord
	mov	BYTE PTR -1[rbp], al
	.loc 3 28 9
	lea	rax, -12[rbp]
	mov	rcx, rax
	call	_Z4killR12EntityRecord
	.loc 3 29 14
	cmp	BYTE PTR -1[rbp], 0
	je	.L17
	.loc 3 29 20 discriminator 1
	mov	eax, 1
	.loc 3 29 20 is_stmt 0
	jmp	.L19
.L17:
	.loc 3 29 20 discriminator 2
	mov	eax, 0
.L19:
	.loc 3 30 1 is_stmt 1
	add	rsp, 48
	pop	rbp
	.cfi_restore 6
	.cfi_def_cfa 7, 8
	ret
	.cfi_endproc
.LFE665:
	.seh_endproc
.Letext0:
	.file 4 "C:/Qt/Tools/mingw1530_64/include/c++/15.3.0/type_traits"
	.file 5 "C:/Qt/Tools/mingw1530_64/include/c++/15.3.0/cstdint"
	.file 6 "C:/Qt/Tools/mingw1530_64/include/c++/15.3.0/x86_64-w64-mingw32/bits/c++config.h"
	.file 7 "C:/Qt/Tools/mingw1530_64/x86_64-w64-mingw32/include/corecrt.h"
	.file 8 "C:/Qt/Tools/mingw1530_64/x86_64-w64-mingw32/include/stdint.h"