	.file	"_ch142_antipattern.cpp"
	.intel_syntax noprefix
	.text
.Ltext0:
	.cfi_sections	.debug_frame
	.file 0 "C:/CodeLearnling/note/note/C++/CPP-Bible" "Examples/_ch142_antipattern.cpp"
	.section	.text$_ZSt21is_constant_evaluatedv,"x"
	.linkonce discard
	.globl	_ZSt21is_constant_evaluatedv
	.def	_ZSt21is_constant_evaluatedv;	.scl	2;	.type	32;	.endef
	.seh_proc	_ZSt21is_constant_evaluatedv
_ZSt21is_constant_evaluatedv:
.LFB15:
	.file 1 "C:/Qt/Tools/mingw1530_64/include/c++/15.3.0/type_traits"
	.loc 1 4008 3
	.cfi_startproc
	push	rbp
	.seh_pushreg	rbp
	.cfi_def_cfa_offset 16
	.cfi_offset 6, -16
	mov	rbp, rsp
	.seh_setframe	rbp, 0
	.cfi_def_cfa_register 6
	.seh_endprologue
	.loc 1 4010 49
	mov	eax, 0
	.loc 1 4014 3
	pop	rbp
	.cfi_restore 6
	.cfi_def_cfa 7, 8
	ret
	.cfi_endproc
.LFE15:
	.seh_endproc
	.section	.text$_ZnwyPv,"x"
	.linkonce discard
	.globl	_ZnwyPv
	.def	_ZnwyPv;	.scl	2;	.type	32;	.endef
	.seh_proc	_ZnwyPv
_ZnwyPv:
.LFB220:
	.file 2 "C:/Qt/Tools/mingw1530_64/include/c++/15.3.0/new"
	.loc 2 208 1
	.cfi_startproc
	push	rbp
	.seh_pushreg	rbp
	.cfi_def_cfa_offset 16
	.cfi_offset 6, -16
	mov	rbp, rsp
	.seh_setframe	rbp, 0
	.cfi_def_cfa_register 6
	.seh_endprologue
	mov	QWORD PTR 16[rbp], rcx
	mov	QWORD PTR 24[rbp], rdx
	.loc 2 208 10
	mov	rax, QWORD PTR 24[rbp]
	.loc 2 208 15
	pop	rbp
	.cfi_restore 6
	.cfi_def_cfa 7, 8
	ret
	.cfi_endproc
.LFE220:
	.seh_endproc
	.section	.text$_ZdlPvS_,"x"
	.linkonce discard
	.globl	_ZdlPvS_
	.def	_ZdlPvS_;	.scl	2;	.type	32;	.endef
	.seh_proc	_ZdlPvS_
_ZdlPvS_:
.LFB222:
	.loc 2 219 1
	.cfi_startproc
	push	rbp
	.seh_pushreg	rbp
	.cfi_def_cfa_offset 16
	.cfi_offset 6, -16
	mov	rbp, rsp
	.seh_setframe	rbp, 0
	.cfi_def_cfa_register 6
	.seh_endprologue
	mov	QWORD PTR 16[rbp], rcx
	mov	QWORD PTR 24[rbp], rdx
	.loc 2 219 3
	nop
	pop	rbp
	.cfi_restore 6
	.cfi_def_cfa 7, 8
	ret
	.cfi_endproc
.LFE222:
	.seh_endproc
	.section	.text$_ZN7Monster6updateEv,"x"
	.linkonce discard
	.align 2
	.globl	_ZN7Monster6updateEv
	.def	_ZN7Monster6updateEv;	.scl	2;	.type	32;	.endef
	.seh_proc	_ZN7Monster6updateEv
_ZN7Monster6updateEv:
.LFB1719:
	.file 3 "Examples/_ch142_antipattern.cpp"
	.loc 3 14 10
	.cfi_startproc
	push	rbp
	.seh_pushreg	rbp
	.cfi_def_cfa_offset 16
	.cfi_offset 6, -16
	mov	rbp, rsp
	.seh_setframe	rbp, 0
	.cfi_def_cfa_register 6
	.seh_endprologue
	mov	QWORD PTR 16[rbp], rcx
	.loc 3 14 30
	mov	rax, QWORD PTR 16[rbp]
	movss	xmm1, DWORD PTR 8[rax]
	.loc 3 14 32
	movss	xmm0, DWORD PTR .LC0[rip]
	addss	xmm0, xmm1
	mov	rax, QWORD PTR 16[rbp]
	movss	DWORD PTR 8[rax], xmm0
	.loc 3 14 41
	nop
	pop	rbp
	.cfi_restore 6
	.cfi_def_cfa 7, 8
	ret
	.cfi_endproc
.LFE1719:
	.seh_endproc
	.text
	.globl	_Z14monster_systemRSt6vectorI11MonsterDataSaIS0_EE
	.def	_Z14monster_systemRSt6vectorI11MonsterDataSaIS0_EE;	.scl	2;	.type	32;	.endef
	.seh_proc	_Z14monster_systemRSt6vectorI11MonsterDataSaIS0_EE
_Z14monster_systemRSt6vectorI11MonsterDataSaIS0_EE:
.LFB1720:
	.loc 3 19 50
	.cfi_startproc
	push	rbp
	.seh_pushreg	rbp
	.cfi_def_cfa_offset 16
	.cfi_offset 6, -16
	mov	rbp, rsp
	.seh_setframe	rbp, 0
	.cfi_def_cfa_register 6
	sub	rsp, 80
	.seh_stackalloc	80
	.seh_endprologue
	mov	QWORD PTR 16[rbp], rcx
.LBB104:
	.loc 3 20 20
	mov	rax, QWORD PTR 16[rbp]
	mov	QWORD PTR -8[rbp], rax
	mov	rax, QWORD PTR -8[rbp]
	mov	rcx, rax
	call	_ZNSt6vectorI11MonsterDataSaIS0_EE5beginEv
	mov	QWORD PTR -40[rbp], rax
	.loc 3 20 20 is_stmt 0 discriminator 1
	mov	rax, QWORD PTR -8[rbp]
	mov	rcx, rax
	call	_ZNSt6vectorI11MonsterDataSaIS0_EE3endEv
	mov	QWORD PTR -48[rbp], rax
	.loc 3 20 5 is_stmt 1
	jmp	.L8
.L14:
.LBB105:
.LBB106:
	.file 4 "C:/Qt/Tools/mingw1530_64/include/c++/15.3.0/bits/stl_iterator.h"
	.loc 4 1090 17
	mov	rax, QWORD PTR -40[rbp]
.LBE106:
.LBE105:
	.loc 3 20 20 discriminator 8
	mov	QWORD PTR -16[rbp], rax
	.loc 3 20 25 discriminator 8
	mov	rax, QWORD PTR -16[rbp]
	movss	xmm1, DWORD PTR [rax]
	.loc 3 20 27 discriminator 8
	movss	xmm0, DWORD PTR .LC0[rip]
	addss	xmm0, xmm1
	mov	rax, QWORD PTR -16[rbp]
	movss	DWORD PTR [rax], xmm0
.LBB107:
.LBB108:
	.loc 4 1103 4
	mov	rax, QWORD PTR -40[rbp]
	.loc 4 1103 2
	add	rax, 8
	mov	QWORD PTR -40[rbp], rax
	.loc 4 1104 10
	nop
.L8:
	lea	rax, -40[rbp]
	mov	QWORD PTR -24[rbp], rax
.LBE108:
.LBE107:
.LBB109:
.LBB110:
.LBB111:
.LBB112:
	.loc 4 1166 16
	mov	rax, QWORD PTR -24[rbp]
.LBE112:
.LBE111:
	.loc 4 1206 27 discriminator 1
	mov	rdx, QWORD PTR [rax]
	lea	rax, -48[rbp]
	mov	QWORD PTR -32[rbp], rax
.LBB113:
.LBB114:
	.loc 4 1166 16
	mov	rax, QWORD PTR -32[rbp]
.LBE114:
.LBE113:
	.loc 4 1206 27 discriminator 2
	mov	rax, QWORD PTR [rax]
	.loc 4 1206 41 discriminator 2
	cmp	rdx, rax
	sete	al
.LBE110:
.LBE109:
	.loc 3 20 20 discriminator 7
	xor	eax, 1
	test	al, al
	jne	.L14
.LBE104:
	.loc 3 21 1
	nop
	nop
	add	rsp, 80
	pop	rbp
	.cfi_restore 6
	.cfi_def_cfa 7, 8
	ret
	.cfi_endproc
.LFE1720:
	.seh_endproc
	.globl	main
	.def	main;	.scl	2;	.type	32;	.endef
	.seh_proc	main
main:
.LFB1724:
	.loc 3 23 12
	.cfi_startproc
	push	rbp
	.seh_pushreg	rbp
	.cfi_def_cfa_offset 16
	.cfi_offset 6, -16
	push	rbx
	.seh_pushreg	rbx
	.cfi_def_cfa_offset 24
	.cfi_offset 3, -24
	sub	rsp, 88
	.seh_stackalloc	88
	.cfi_def_cfa_offset 112
	lea	rbp, 80[rsp]
	.seh_setframe	rbp, 80
	.cfi_def_cfa 6, 32
	.seh_endprologue
	.loc 3 23 12
	call	__main
	lea	rax, -9[rbp]
	mov	QWORD PTR -8[rbp], rax
.LBB115:
.LBB116:
.LBB117:
.LBB118:
.LBB119:
	.file 5 "C:/Qt/Tools/mingw1530_64/include/c++/15.3.0/bits/new_allocator.h"
	.loc 5 88 49
	nop
.LBE119:
.LBE118:
.LBE117:
	.file 6 "C:/Qt/Tools/mingw1530_64/include/c++/15.3.0/bits/allocator.h"
	.loc 6 168 38
	nop
.LBE116:
.LBE115:
	.loc 3 24 31 discriminator 1
	lea	rdx, -9[rbp]
	lea	rax, -48[rbp]
	mov	r8, rdx
	mov	edx, 64
	mov	rcx, rax
	call	_ZNSt6vectorI7MonsterSaIS0_EEC1EyRKS1_
.LBB120:
.LBB121:
	.loc 6 189 39
	nop
.LBE121:
.LBE120:
	.loc 3 25 19
	lea	rax, -48[rbp]
	mov	rcx, rax
	call	_Z14monster_systemRSt6vectorI11MonsterDataSaIS0_EE
	.loc 3 26 21
	lea	rax, -48[rbp]
	mov	edx, 0
	mov	rcx, rax
	call	_ZNSt6vectorI7MonsterSaIS0_EEixEy
	.loc 3 26 23 discriminator 1
	movss	xmm0, DWORD PTR 8[rax]
	cvttss2si	ebx, xmm0
	.loc 3 27 1
	lea	rax, -48[rbp]
	mov	rcx, rax
	call	_ZNSt6vectorI7MonsterSaIS0_EED1Ev
	mov	eax, ebx
	add	rsp, 88
	pop	rbx
	.cfi_restore 3
	pop	rbp
	.cfi_restore 6
	.cfi_def_cfa 7, -72
	ret
	.cfi_endproc
.LFE1724:
	.seh_endproc
	.section	.text$_ZNSt6vectorI11MonsterDataSaIS0_EE5beginEv,"x"
	.linkonce discard
	.align 2
	.globl	_ZNSt6vectorI11MonsterDataSaIS0_EE5beginEv
	.def	_ZNSt6vectorI11MonsterDataSaIS0_EE5beginEv;	.scl	2;	.type	32;	.endef
	.seh_proc	_ZNSt6vectorI11MonsterDataSaIS0_EE5beginEv
_ZNSt6vectorI11MonsterDataSaIS0_EE5beginEv:
.LFB1730:
	.file 7 "C:/Qt/Tools/mingw1530_64/include/c++/15.3.0/bits/stl_vector.h"
	.loc 7 998 7
	.cfi_startproc
	push	rbp
	.seh_pushreg	rbp
	.cfi_def_cfa_offset 16
	.cfi_offset 6, -16
	mov	rbp, rsp
	.seh_setframe	rbp, 0
	.cfi_def_cfa_register 6
	sub	rsp, 16
	.seh_stackalloc	16
	.seh_endprologue
	mov	QWORD PTR 16[rbp], rcx
	.loc 7 999 39
	mov	rax, QWORD PTR 16[rbp]
	mov	QWORD PTR -8[rbp], rax
.LBB122:
.LBB123:
.LBB124:
	.loc 4 1059 9
	mov	rax, QWORD PTR -8[rbp]
	mov	rax, QWORD PTR [rax]
	mov	QWORD PTR -16[rbp], rax
.LBE124:
	.loc 4 1059 27
	nop
.LBE123:
.LBE122:
	.loc 7 999 47 discriminator 1
	mov	rax, QWORD PTR -16[rbp]
	.loc 7 999 50
	add	rsp, 16
	pop	rbp
	.cfi_restore 6
	.cfi_def_cfa 7, 8
	ret
	.cfi_endproc
.LFE1730:
	.seh_endproc
	.section	.text$_ZNSt6vectorI11MonsterDataSaIS0_EE3endEv,"x"
	.linkonce discard
	.align 2
	.globl	_ZNSt6vectorI11MonsterDataSaIS0_EE3endEv
	.def	_ZNSt6vectorI11MonsterDataSaIS0_EE3endEv;	.scl	2;	.type	32;	.endef
	.seh_proc	_ZNSt6vectorI11MonsterDataSaIS0_EE3endEv
_ZNSt6vectorI11MonsterDataSaIS0_EE3endEv:
.LFB1731:
	.loc 7 1018 7
	.cfi_startproc
	push	rbp
	.seh_pushreg	rbp
	.cfi_def_cfa_offset 16
	.cfi_offset 6, -16
	mov	rbp, rsp
	.seh_setframe	rbp, 0
	.cfi_def_cfa_register 6
	sub	rsp, 16
	.seh_stackalloc	16
	.seh_endprologue
	mov	QWORD PTR 16[rbp], rcx
	.loc 7 1019 39
	mov	rax, QWORD PTR 16[rbp]
	add	rax, 8
	mov	QWORD PTR -8[rbp], rax
.LBB125:
.LBB126:
.LBB127:
	.loc 4 1059 9
	mov	rax, QWORD PTR -8[rbp]
	mov	rax, QWORD PTR [rax]
	mov	QWORD PTR -16[rbp], rax
.LBE127:
	.loc 4 1059 27
	nop
.LBE126:
.LBE125:
	.loc 7 1019 48 discriminator 1
	mov	rax, QWORD PTR -16[rbp]
	.loc 7 1019 51
	add	rsp, 16
	pop	rbp
	.cfi_restore 6
	.cfi_def_cfa 7, 8
	ret
	.cfi_endproc
.LFE1731:
	.seh_endproc
	.section	.text$_ZNSt6vectorI7MonsterSaIS0_EEC1EyRKS1_,"x"
	.linkonce discard
	.align 2
	.globl	_ZNSt6vectorI7MonsterSaIS0_EEC1EyRKS1_
	.def	_ZNSt6vectorI7MonsterSaIS0_EEC1EyRKS1_;	.scl	2;	.type	32;	.endef
	.seh_proc	_ZNSt6vectorI7MonsterSaIS0_EEC1EyRKS1_
_ZNSt6vectorI7MonsterSaIS0_EEC1EyRKS1_:
.LFB1741:
	.loc 7 586 7
	.cfi_startproc
	push	rbp
	.seh_pushreg	rbp
	.cfi_def_cfa_offset 16
	.cfi_offset 6, -16
	push	rbx
	.seh_pushreg	rbx
	.cfi_def_cfa_offset 24
	.cfi_offset 3, -24
	sub	rsp, 40
	.seh_stackalloc	40
	.cfi_def_cfa_offset 64
	lea	rbp, 32[rsp]
	.seh_setframe	rbp, 32
	.cfi_def_cfa 6, 32
	.seh_endprologue
	mov	QWORD PTR 32[rbp], rcx
	mov	QWORD PTR 40[rbp], rdx
	mov	QWORD PTR 48[rbp], r8
.LBB128:
	.loc 7 587 47
	mov	rbx, QWORD PTR 32[rbp]
	mov	rdx, QWORD PTR 48[rbp]
	mov	rax, QWORD PTR 40[rbp]
	mov	rcx, rax
.LEHB0:
	call	_ZNSt6vectorI7MonsterSaIS0_EE17_S_check_init_lenEyRKS1_
	.loc 7 587 47 is_stmt 0 discriminator 1
	mov	rdx, QWORD PTR 48[rbp]
	mov	r8, rdx
	mov	rdx, rax
	mov	rcx, rbx
	call	_ZNSt12_Vector_baseI7MonsterSaIS0_EEC2EyRKS1_
.LEHE0:
	.loc 7 588 30 is_stmt 1
	mov	rdx, QWORD PTR 40[rbp]
	mov	rax, QWORD PTR 32[rbp]
	mov	rcx, rax
.LEHB1:
	call	_ZNSt6vectorI7MonsterSaIS0_EE21_M_default_initializeEy
.LEHE1:
.LBE128:
	.loc 7 588 37
	jmp	.L24
.L23:
.LBB129:
	.loc 7 588 37 is_stmt 0 discriminator 2
	mov	rbx, rax
	mov	rax, QWORD PTR 32[rbp]
	mov	rcx, rax
	call	_ZNSt12_Vector_baseI7MonsterSaIS0_EED2Ev
	mov	rax, rbx
	mov	rcx, rax
.LEHB2:
	call	_Unwind_Resume
	nop
.LEHE2:
.L24:
.LBE129:
	.loc 7 588 37
	add	rsp, 40
	pop	rbx
	.cfi_restore 3
	pop	rbp
	.cfi_restore 6
	.cfi_def_cfa 7, -24
	ret
	.cfi_endproc
.LFE1741:
	.seh_handler	__gxx_personality_seh0, @unwind, @except
	.seh_handlerdata
.LLSDA1741:
	.byte	0xff
	.byte	0xff
	.byte	0x1
	.uleb128 .LLSDACSE1741-.LLSDACSB1741
.LLSDACSB1741:
	.uleb128 .LEHB0-.LFB1741
	.uleb128 .LEHE0-.LEHB0
	.uleb128 0
	.uleb128 0
	.uleb128 .LEHB1-.LFB1741
	.uleb128 .LEHE1-.LEHB1
	.uleb128 .L23-.LFB1741
	.uleb128 0
	.uleb128 .LEHB2-.LFB1741
	.uleb128 .LEHE2-.LEHB2
	.uleb128 0
	.uleb128 0
.LLSDACSE1741:
	.section	.text$_ZNSt6vectorI7MonsterSaIS0_EEC1EyRKS1_,"x"
	.linkonce discard
	.seh_endproc
	.section	.text$_ZNSt6vectorI7MonsterSaIS0_EED1Ev,"x"
	.linkonce discard
	.align 2
	.globl	_ZNSt6vectorI7MonsterSaIS0_EED1Ev
	.def	_ZNSt6vectorI7MonsterSaIS0_EED1Ev;	.scl	2;	.type	32;	.endef
	.seh_proc	_ZNSt6vectorI7MonsterSaIS0_EED1Ev
_ZNSt6vectorI7MonsterSaIS0_EED1Ev:
.LFB1744:
	.loc 7 800 7 is_stmt 1
	.cfi_startproc
	push	rbp
	.seh_pushreg	rbp
	.cfi_def_cfa_offset 16
	.cfi_offset 6, -16
	mov	rbp, rsp
	.seh_setframe	rbp, 0
	.cfi_def_cfa_register 6
	sub	rsp, 64
	.seh_stackalloc	64
	.seh_endprologue
	mov	QWORD PTR 16[rbp], rcx
.LBB130:
	.loc 7 803 28
	mov	rax, QWORD PTR 16[rbp]
	mov	rcx, rax
	call	_ZNSt12_Vector_baseI7MonsterSaIS0_EE19_M_get_Tp_allocatorEv
	.loc 7 802 54
	mov	rdx, QWORD PTR 16[rbp]
	mov	rdx, QWORD PTR 8[rdx]
	.loc 7 802 30
	mov	rcx, QWORD PTR 16[rbp]
	mov	rcx, QWORD PTR [rcx]
	mov	QWORD PTR -8[rbp], rcx
	mov	QWORD PTR -16[rbp], rdx
	mov	QWORD PTR -24[rbp], rax
.LBB131:
.LBB132:
	.file 8 "C:/Qt/Tools/mingw1530_64/include/c++/15.3.0/bits/alloc_traits.h"
	.loc 8 1045 20
	mov	rdx, QWORD PTR -16[rbp]
	mov	rax, QWORD PTR -8[rbp]
	mov	rcx, rax
	call	_ZSt8_DestroyIP7MonsterEvT_S2_
	.loc 8 1046 5
	nop
.LBE132:
.LBE131:
	.loc 7 805 7
	mov	rax, QWORD PTR 16[rbp]
	mov	rcx, rax
	call	_ZNSt12_Vector_baseI7MonsterSaIS0_EED2Ev
.LBE130:
	nop
	add	rsp, 64
	pop	rbp
	.cfi_restore 6
	.cfi_def_cfa 7, 8
	ret
	.cfi_endproc
.LFE1744:
	.seh_handler	__gxx_personality_seh0, @unwind, @except
	.seh_handlerdata
.LLSDA1744:
	.byte	0xff
	.byte	0xff
	.byte	0x1
	.uleb128 .LLSDACSE1744-.LLSDACSB1744
.LLSDACSB1744:
.LLSDACSE1744:
	.section	.text$_ZNSt6vectorI7MonsterSaIS0_EED1Ev,"x"
	.linkonce discard
	.seh_endproc
	.section .rdata,"dr"
.LC1:
	.ascii "__n < this->size()\0"
	.align 8
.LC2:
	.ascii "constexpr std::vector<_Tp, _Alloc>::reference std::vector<_Tp, _Alloc>::operator[](size_type) [with _Tp = Monster; _Alloc = std::allocator<Monster>; reference = Monster&; size_type = long long unsigned int]\0"
	.align 8
.LC3:
	.ascii "C:/Qt/Tools/mingw1530_64/include/c++/15.3.0/bits/stl_vector.h\0"
	.section	.text$_ZNSt6vectorI7MonsterSaIS0_EEixEy,"x"
	.linkonce discard
	.align 2
	.globl	_ZNSt6vectorI7MonsterSaIS0_EEixEy
	.def	_ZNSt6vectorI7MonsterSaIS0_EEixEy;	.scl	2;	.type	32;	.endef
	.seh_proc	_ZNSt6vectorI7MonsterSaIS0_EEixEy
_ZNSt6vectorI7MonsterSaIS0_EEixEy:
.LFB1745:
	.loc 7 1261 7
	.cfi_startproc
	push	rbp
	.seh_pushreg	rbp
	.cfi_def_cfa_offset 16
	.cfi_offset 6, -16
	mov	rbp, rsp
	.seh_setframe	rbp, 0
	.cfi_def_cfa_register 6
	sub	rsp, 32
	.seh_stackalloc	32
	.seh_endprologue
	mov	QWORD PTR 16[rbp], rcx
	mov	QWORD PTR 24[rbp], rdx
	.loc 7 1263 2
	mov	rax, QWORD PTR 16[rbp]
	mov	rcx, rax
	call	_ZNKSt6vectorI7MonsterSaIS0_EE4sizeEv
	.loc 7 1263 2 is_stmt 0 discriminator 1
	cmp	QWORD PTR 24[rbp], rax
	setnb	al
	movzx	eax, al
	.loc 7 1263 2 discriminator 2
	test	eax, eax
	setne	al
	test	al, al
	je	.L27
	.loc 7 1263 2 discriminator 3
	lea	rcx, .LC1[rip]
	lea	rdx, .LC2[rip]
	lea	rax, .LC3[rip]
	mov	r9, rcx
	mov	r8, rdx
	mov	edx, 1263
	mov	rcx, rax
	call	_ZSt21__glibcxx_assert_failPKciS0_S0_
.L27:
	.loc 7 1264 25 is_stmt 1
	mov	rax, QWORD PTR 16[rbp]
	mov	rax, QWORD PTR [rax]
	.loc 7 1264 34
	mov	rdx, QWORD PTR 24[rbp]
	sal	rdx, 4
	.loc 7 1264 39
	add	rax, rdx
	.loc 7 1265 7
	add	rsp, 32
	pop	rbp
	.cfi_restore 6
	.cfi_def_cfa 7, 8
	ret
	.cfi_endproc
.LFE1745:
	.seh_endproc
	.section .rdata,"dr"
	.align 8
.LC4:
	.ascii "cannot create std::vector larger than max_size()\0"
	.section	.text$_ZNSt6vectorI7MonsterSaIS0_EE17_S_check_init_lenEyRKS1_,"x"
	.linkonce discard
	.globl	_ZNSt6vectorI7MonsterSaIS0_EE17_S_check_init_lenEyRKS1_
	.def	_ZNSt6vectorI7MonsterSaIS0_EE17_S_check_init_lenEyRKS1_;	.scl	2;	.type	32;	.endef
	.seh_proc	_ZNSt6vectorI7MonsterSaIS0_EE17_S_check_init_lenEyRKS1_
_ZNSt6vectorI7MonsterSaIS0_EE17_S_check_init_lenEyRKS1_:
.LFB1752:
	.loc 7 2213 7
	.cfi_startproc
	push	rbp
	.seh_pushreg	rbp
	.cfi_def_cfa_offset 16
	.cfi_offset 6, -16
	mov	rbp, rsp
	.seh_setframe	rbp, 0
	.cfi_def_cfa_register 6
	sub	rsp, 64
	.seh_stackalloc	64
	.seh_endprologue
	mov	QWORD PTR 16[rbp], rcx
	mov	QWORD PTR 24[rbp], rdx
	mov	rax, QWORD PTR 24[rbp]
	mov	QWORD PTR -8[rbp], rax
	lea	rax, -25[rbp]
	mov	QWORD PTR -16[rbp], rax
	mov	rax, QWORD PTR -8[rbp]
	mov	QWORD PTR -24[rbp], rax
.LBB133:
.LBB134:
.LBB135:
.LBB136:
.LBB137:
	.loc 5 92 71
	nop
.LBE137:
.LBE136:
.LBE135:
	.loc 6 173 38
	nop
.LBE134:
.LBE133:
	.loc 7 2215 23 discriminator 1
	lea	rax, -25[rbp]
	mov	rcx, rax
	call	_ZNSt6vectorI7MonsterSaIS0_EE11_S_max_sizeERKS1_
	.loc 7 2215 10 discriminator 2
	cmp	rax, QWORD PTR 16[rbp]
	setb	al
.LBB138:
.LBB139:
	.loc 6 189 39
	nop
.LBE139:
.LBE138:
	.loc 7 2215 2 discriminator 3
	test	al, al
	je	.L30
	.loc 7 2216 24
	lea	rax, .LC4[rip]
	mov	rcx, rax
	call	_ZSt20__throw_length_errorPKc
.L30:
	.loc 7 2218 9
	mov	rax, QWORD PTR 16[rbp]
	.loc 7 2219 7
	add	rsp, 64
	pop	rbp
	.cfi_restore 6
	.cfi_def_cfa 7, 8
	ret
	.cfi_endproc
.LFE1752:
	.seh_endproc
	.section	.text$_ZNSt12_Vector_baseI7MonsterSaIS0_EE12_Vector_implD1Ev,"x"
	.linkonce discard
	.align 2
	.globl	_ZNSt12_Vector_baseI7MonsterSaIS0_EE12_Vector_implD1Ev
	.def	_ZNSt12_Vector_baseI7MonsterSaIS0_EE12_Vector_implD1Ev;	.scl	2;	.type	32;	.endef
	.seh_proc	_ZNSt12_Vector_baseI7MonsterSaIS0_EE12_Vector_implD1Ev
_ZNSt12_Vector_baseI7MonsterSaIS0_EE12_Vector_implD1Ev:
.LFB1756:
	.loc 7 139 14
	.cfi_startproc
	push	rbp
	.seh_pushreg	rbp
	.cfi_def_cfa_offset 16
	.cfi_offset 6, -16
	mov	rbp, rsp
	.seh_setframe	rbp, 0
	.cfi_def_cfa_register 6
	sub	rsp, 16
	.seh_stackalloc	16
	.seh_endprologue
	mov	QWORD PTR 16[rbp], rcx
	mov	rax, QWORD PTR 16[rbp]
	mov	QWORD PTR -8[rbp], rax
.LBB140:
.LBB141:
.LBB142:
	.loc 6 189 39
	nop
.LBE142:
.LBE141:
.LBE140:
	.loc 7 139 14
	nop
	add	rsp, 16
	pop	rbp
	.cfi_restore 6
	.cfi_def_cfa 7, 8
	ret
	.cfi_endproc
.LFE1756:
	.seh_endproc
	.section	.text$_ZNSt12_Vector_baseI7MonsterSaIS0_EEC2EyRKS1_,"x"
	.linkonce discard
	.align 2
	.globl	_ZNSt12_Vector_baseI7MonsterSaIS0_EEC2EyRKS1_
	.def	_ZNSt12_Vector_baseI7MonsterSaIS0_EEC2EyRKS1_;	.scl	2;	.type	32;	.endef
	.seh_proc	_ZNSt12_Vector_baseI7MonsterSaIS0_EEC2EyRKS1_
_ZNSt12_Vector_baseI7MonsterSaIS0_EEC2EyRKS1_:
.LFB1757:
	.loc 7 339 7
	.cfi_startproc
	push	rbp
	.seh_pushreg	rbp
	.cfi_def_cfa_offset 16
	.cfi_offset 6, -16
	push	rbx
	.seh_pushreg	rbx
	.cfi_def_cfa_offset 24
	.cfi_offset 3, -24
	sub	rsp, 40
	.seh_stackalloc	40
	.cfi_def_cfa_offset 64
	lea	rbp, 32[rsp]
	.seh_setframe	rbp, 32
	.cfi_def_cfa 6, 32
	.seh_endprologue
	mov	QWORD PTR 32[rbp], rcx
	mov	QWORD PTR 40[rbp], rdx
	mov	QWORD PTR 48[rbp], r8
.LBB143:
	.loc 7 340 9
	mov	rax, QWORD PTR 32[rbp]
	mov	rdx, QWORD PTR 48[rbp]
	mov	rcx, rax
	call	_ZNSt12_Vector_baseI7MonsterSaIS0_EE12_Vector_implC1ERKS1_
	.loc 7 341 26
	mov	rdx, QWORD PTR 40[rbp]
	mov	rax, QWORD PTR 32[rbp]
	mov	rcx, rax
.LEHB3:
	call	_ZNSt12_Vector_baseI7MonsterSaIS0_EE17_M_create_storageEy
.LEHE3:
.LBE143:
	.loc 7 341 33
	jmp	.L36
.L35:
.LBB144:
	.loc 7 341 33 is_stmt 0 discriminator 2
	mov	rbx, rax
	mov	rax, QWORD PTR 32[rbp]
	mov	rcx, rax
	call	_ZNSt12_Vector_baseI7MonsterSaIS0_EE12_Vector_implD1Ev
	mov	rax, rbx
	mov	rcx, rax
.LEHB4:
	call	_Unwind_Resume
	nop
.LEHE4:
.L36:
.LBE144:
	.loc 7 341 33
	add	rsp, 40
	pop	rbx
	.cfi_restore 3
	pop	rbp
	.cfi_restore 6
	.cfi_def_cfa 7, -24
	ret
	.cfi_endproc
.LFE1757:
	.seh_handler	__gxx_personality_seh0, @unwind, @except
	.seh_handlerdata
.LLSDA1757:
	.byte	0xff
	.byte	0xff
	.byte	0x1
	.uleb128 .LLSDACSE1757-.LLSDACSB1757
.LLSDACSB1757:
	.uleb128 .LEHB3-.LFB1757
	.uleb128 .LEHE3-.LEHB3
	.uleb128 .L35-.LFB1757
	.uleb128 0
	.uleb128 .LEHB4-.LFB1757
	.uleb128 .LEHE4-.LEHB4
	.uleb128 0
	.uleb128 0
.LLSDACSE1757:
	.section	.text$_ZNSt12_Vector_baseI7MonsterSaIS0_EEC2EyRKS1_,"x"
	.linkonce discard
	.seh_endproc
	.section	.text$_ZNSt12_Vector_baseI7MonsterSaIS0_EED2Ev,"x"
	.linkonce discard
	.align 2
	.globl	_ZNSt12_Vector_baseI7MonsterSaIS0_EED2Ev
	.def	_ZNSt12_Vector_baseI7MonsterSaIS0_EED2Ev;	.scl	2;	.type	32;	.endef
	.seh_proc	_ZNSt12_Vector_baseI7MonsterSaIS0_EED2Ev
_ZNSt12_Vector_baseI7MonsterSaIS0_EED2Ev:
.LFB1760:
	.loc 7 373 7 is_stmt 1
	.cfi_startproc
	push	rbp
	.seh_pushreg	rbp
	.cfi_def_cfa_offset 16
	.cfi_offset 6, -16
	mov	rbp, rsp
	.seh_setframe	rbp, 0
	.cfi_def_cfa_register 6
	sub	rsp, 32
	.seh_stackalloc	32
	.seh_endprologue
	mov	QWORD PTR 16[rbp], rcx
.LBB145:
	.loc 7 376 17
	mov	rax, QWORD PTR 16[rbp]
	mov	rdx, QWORD PTR 16[rax]
	.loc 7 376 45
	mov	rax, QWORD PTR 16[rbp]
	mov	rax, QWORD PTR [rax]
	.loc 7 376 35
	sub	rdx, rax
	mov	rax, rdx
	sar	rax, 4
	.loc 7 375 15
	mov	rcx, rax
	mov	rax, QWORD PTR 16[rbp]
	mov	rdx, QWORD PTR [rax]
	mov	rax, QWORD PTR 16[rbp]
	mov	r8, rcx
	mov	rcx, rax
	call	_ZNSt12_Vector_baseI7MonsterSaIS0_EE13_M_deallocateEPS0_y
	.loc 7 377 7
	mov	rax, QWORD PTR 16[rbp]
	mov	rcx, rax
	call	_ZNSt12_Vector_baseI7MonsterSaIS0_EE12_Vector_implD1Ev
.LBE145:
	nop
	add	rsp, 32
	pop	rbp
	.cfi_restore 6
	.cfi_def_cfa 7, 8
	ret
	.cfi_endproc
.LFE1760:
	.seh_handler	__gxx_personality_seh0, @unwind, @except
	.seh_handlerdata
.LLSDA1760:
	.byte	0xff
	.byte	0xff
	.byte	0x1
	.uleb128 .LLSDACSE1760-.LLSDACSB1760
.LLSDACSB1760:
.LLSDACSE1760:
	.section	.text$_ZNSt12_Vector_baseI7MonsterSaIS0_EED2Ev,"x"
	.linkonce discard
	.seh_endproc
	.section	.text$_ZNSt6vectorI7MonsterSaIS0_EE21_M_default_initializeEy,"x"
	.linkonce discard
	.align 2
	.globl	_ZNSt6vectorI7MonsterSaIS0_EE21_M_default_initializeEy
	.def	_ZNSt6vectorI7MonsterSaIS0_EE21_M_default_initializeEy;	.scl	2;	.type	32;	.endef
	.seh_proc	_ZNSt6vectorI7MonsterSaIS0_EE21_M_default_initializeEy
_ZNSt6vectorI7MonsterSaIS0_EE21_M_default_initializeEy:
.LFB1762:
	.loc 7 2008 7
	.cfi_startproc
	push	rbp
	.seh_pushreg	rbp
	.cfi_def_cfa_offset 16
	.cfi_offset 6, -16
	mov	rbp, rsp
	.seh_setframe	rbp, 0
	.cfi_def_cfa_register 6
	sub	rsp, 32
	.seh_stackalloc	32
	.seh_endprologue
	mov	QWORD PTR 16[rbp], rcx
	mov	QWORD PTR 24[rbp], rdx
	.loc 7 2012 28
	mov	rax, QWORD PTR 16[rbp]
	mov	rcx, rax
	call	_ZNSt12_Vector_baseI7MonsterSaIS0_EE19_M_get_Tp_allocatorEv
	mov	rcx, rax
	.loc 7 2011 51
	mov	rax, QWORD PTR 16[rbp]
	mov	rax, QWORD PTR [rax]
	.loc 7 2011 36
	mov	rdx, QWORD PTR 24[rbp]
	mov	r8, rcx
	mov	rcx, rax
	call	_ZSt27__uninitialized_default_n_aIP7MonsteryS0_ET_S2_T0_RSaIT1_E
	.loc 7 2010 26
	mov	rdx, QWORD PTR 16[rbp]
	mov	QWORD PTR 8[rdx], rax
	.loc 7 2013 7
	nop
	add	rsp, 32
	pop	rbp
	.cfi_restore 6
	.cfi_def_cfa 7, 8
	ret
	.cfi_endproc
.LFE1762:
	.seh_endproc
	.section	.text$_ZNSt12_Vector_baseI7MonsterSaIS0_EE19_M_get_Tp_allocatorEv,"x"
	.linkonce discard
	.align 2
	.globl	_ZNSt12_Vector_baseI7MonsterSaIS0_EE19_M_get_Tp_allocatorEv
	.def	_ZNSt12_Vector_baseI7MonsterSaIS0_EE19_M_get_Tp_allocatorEv;	.scl	2;	.type	32;	.endef
	.seh_proc	_ZNSt12_Vector_baseI7MonsterSaIS0_EE19_M_get_Tp_allocatorEv
_ZNSt12_Vector_baseI7MonsterSaIS0_EE19_M_get_Tp_allocatorEv:
.LFB1763:
	.loc 7 307 7
	.cfi_startproc
	push	rbp
	.seh_pushreg	rbp
	.cfi_def_cfa_offset 16
	.cfi_offset 6, -16
	mov	rbp, rsp
	.seh_setframe	rbp, 0
	.cfi_def_cfa_register 6
	.seh_endprologue
	mov	QWORD PTR 16[rbp], rcx
	.loc 7 308 22
	mov	rax, QWORD PTR 16[rbp]
	.loc 7 308 31
	pop	rbp
	.cfi_restore 6
	.cfi_def_cfa 7, 8
	ret
	.cfi_endproc
.LFE1763:
	.seh_endproc
	.section	.text$_ZNKSt6vectorI7MonsterSaIS0_EE4sizeEv,"x"
	.linkonce discard
	.align 2
	.globl	_ZNKSt6vectorI7MonsterSaIS0_EE4sizeEv
	.def	_ZNKSt6vectorI7MonsterSaIS0_EE4sizeEv;	.scl	2;	.type	32;	.endef
	.seh_proc	_ZNKSt6vectorI7MonsterSaIS0_EE4sizeEv
_ZNKSt6vectorI7MonsterSaIS0_EE4sizeEv:
.LFB1765:
	.loc 7 1117 7
	.cfi_startproc
	push	rbp
	.seh_pushreg	rbp
	.cfi_def_cfa_offset 16
	.cfi_offset 6, -16
	mov	rbp, rsp
	.seh_setframe	rbp, 0
	.cfi_def_cfa_register 6
	sub	rsp, 16
	.seh_stackalloc	16
	.seh_endprologue
	mov	QWORD PTR 16[rbp], rcx
	.loc 7 1119 34
	mov	rax, QWORD PTR 16[rbp]
	mov	rdx, QWORD PTR 8[rax]
	.loc 7 1119 60
	mov	rax, QWORD PTR 16[rbp]
	mov	rax, QWORD PTR [rax]
	.loc 7 1119 44
	sub	rdx, rax
	.loc 7 1119 12
	mov	rax, rdx
	sar	rax, 4
	mov	QWORD PTR -8[rbp], rax
	.loc 7 1120 2
	cmp	QWORD PTR -8[rbp], 0
	.loc 7 1122 24
	mov	rax, QWORD PTR -8[rbp]
	.loc 7 1123 7
	add	rsp, 16
	pop	rbp
	.cfi_restore 6
	.cfi_def_cfa 7, 8
	ret
	.cfi_endproc
.LFE1765:
	.seh_endproc
	.section	.text$_ZNSt6vectorI7MonsterSaIS0_EE11_S_max_sizeERKS1_,"x"
	.linkonce discard
	.globl	_ZNSt6vectorI7MonsterSaIS0_EE11_S_max_sizeERKS1_
	.def	_ZNSt6vectorI7MonsterSaIS0_EE11_S_max_sizeERKS1_;	.scl	2;	.type	32;	.endef
	.seh_proc	_ZNSt6vectorI7MonsterSaIS0_EE11_S_max_sizeERKS1_
_ZNSt6vectorI7MonsterSaIS0_EE11_S_max_sizeERKS1_:
.LFB1766:
	.loc 7 2222 7
	.cfi_startproc
	push	rbp
	.seh_pushreg	rbp
	.cfi_def_cfa_offset 16
	.cfi_offset 6, -16
	mov	rbp, rsp
	.seh_setframe	rbp, 0
	.cfi_def_cfa_register 6
	sub	rsp, 48
	.seh_stackalloc	48
	.seh_endprologue
	mov	QWORD PTR 16[rbp], rcx
	.loc 7 2227 15
	movabs	rax, 576460752303423487
	mov	QWORD PTR -8[rbp], rax
	.loc 7 2229 15
	movabs	rax, 1152921504606846975
	mov	QWORD PTR -16[rbp], rax
	.loc 7 2230 19
	lea	rdx, -16[rbp]
	lea	rax, -8[rbp]
	mov	rcx, rax
	call	_ZSt3minIyERKT_S2_S2_
	.loc 7 2230 41 discriminator 1
	mov	rax, QWORD PTR [rax]
	.loc 7 2231 7
	add	rsp, 48
	pop	rbp
	.cfi_restore 6
	.cfi_def_cfa 7, 8
	ret
	.cfi_endproc
.LFE1766:
	.seh_endproc
	.section	.text$_ZNSt12_Vector_baseI7MonsterSaIS0_EE12_Vector_implC1ERKS1_,"x"
	.linkonce discard
	.align 2
	.globl	_ZNSt12_Vector_baseI7MonsterSaIS0_EE12_Vector_implC1ERKS1_
	.def	_ZNSt12_Vector_baseI7MonsterSaIS0_EE12_Vector_implC1ERKS1_;	.scl	2;	.type	32;	.endef
	.seh_proc	_ZNSt12_Vector_baseI7MonsterSaIS0_EE12_Vector_implC1ERKS1_
_ZNSt12_Vector_baseI7MonsterSaIS0_EE12_Vector_implC1ERKS1_:
.LFB1773:
	.loc 7 152 2
	.cfi_startproc
	push	rbp
	.seh_pushreg	rbp
	.cfi_def_cfa_offset 16
	.cfi_offset 6, -16
	mov	rbp, rsp
	.seh_setframe	rbp, 0
	.cfi_def_cfa_register 6
	sub	rsp, 64
	.seh_stackalloc	64
	.seh_endprologue
	mov	QWORD PTR 16[rbp], rcx
	mov	QWORD PTR 24[rbp], rdx
	mov	rax, QWORD PTR 16[rbp]
	mov	QWORD PTR -8[rbp], rax
	mov	rax, QWORD PTR 24[rbp]
	mov	QWORD PTR -16[rbp], rax
	mov	rax, QWORD PTR -8[rbp]
	mov	QWORD PTR -24[rbp], rax
	mov	rax, QWORD PTR -16[rbp]
	mov	QWORD PTR -32[rbp], rax
.LBB146:
.LBB147:
.LBB148:
.LBB149:
.LBB150:
.LBB151:
	.loc 5 92 71
	nop
.LBE151:
.LBE150:
.LBE149:
	.loc 6 173 38
	nop
.LBE148:
.LBE147:
	.loc 7 153 22 discriminator 1
	mov	rax, QWORD PTR 16[rbp]
	mov	rcx, rax
	call	_ZNSt12_Vector_baseI7MonsterSaIS0_EE17_Vector_impl_dataC2Ev
.LBE146:
	.loc 7 154 4
	nop
	add	rsp, 64
	pop	rbp
	.cfi_restore 6
	.cfi_def_cfa 7, 8
	ret
	.cfi_endproc
.LFE1773:
	.seh_endproc
	.section	.text$_ZNSt12_Vector_baseI7MonsterSaIS0_EE17_M_create_storageEy,"x"
	.linkonce discard
	.align 2
	.globl	_ZNSt12_Vector_baseI7MonsterSaIS0_EE17_M_create_storageEy
	.def	_ZNSt12_Vector_baseI7MonsterSaIS0_EE17_M_create_storageEy;	.scl	2;	.type	32;	.endef
	.seh_proc	_ZNSt12_Vector_baseI7MonsterSaIS0_EE17_M_create_storageEy
_ZNSt12_Vector_baseI7MonsterSaIS0_EE17_M_create_storageEy:
.LFB1774:
	.loc 7 403 7
	.cfi_startproc
	push	rbp
	.seh_pushreg	rbp
	.cfi_def_cfa_offset 16
	.cfi_offset 6, -16
	mov	rbp, rsp
	.seh_setframe	rbp, 0
	.cfi_def_cfa_register 6
	sub	rsp, 32
	.seh_stackalloc	32
	.seh_endprologue
	mov	QWORD PTR 16[rbp], rcx
	mov	QWORD PTR 24[rbp], rdx
	.loc 7 405 44
	mov	rdx, QWORD PTR 24[rbp]
	mov	rax, QWORD PTR 16[rbp]
	mov	rcx, rax
	call	_ZNSt12_Vector_baseI7MonsterSaIS0_EE11_M_allocateEy
	.loc 7 405 25 discriminator 1
	mov	rdx, QWORD PTR 16[rbp]
	mov	QWORD PTR [rdx], rax
	.loc 7 406 42
	mov	rax, QWORD PTR 16[rbp]
	mov	rdx, QWORD PTR [rax]
	.loc 7 406 26
	mov	rax, QWORD PTR 16[rbp]
	mov	QWORD PTR 8[rax], rdx
	.loc 7 407 50
	mov	rax, QWORD PTR 16[rbp]
	mov	rax, QWORD PTR [rax]
	.loc 7 407 59
	mov	rdx, QWORD PTR 24[rbp]
	sal	rdx, 4
	add	rdx, rax
	.loc 7 407 34
	mov	rax, QWORD PTR 16[rbp]
	mov	QWORD PTR 16[rax], rdx
	.loc 7 408 7
	nop
	add	rsp, 32
	pop	rbp
	.cfi_restore 6
	.cfi_def_cfa 7, 8
	ret
	.cfi_endproc
.LFE1774:
	.seh_endproc
	.section	.text$_ZNSt12_Vector_baseI7MonsterSaIS0_EE13_M_deallocateEPS0_y,"x"
	.linkonce discard
	.align 2
	.globl	_ZNSt12_Vector_baseI7MonsterSaIS0_EE13_M_deallocateEPS0_y
	.def	_ZNSt12_Vector_baseI7MonsterSaIS0_EE13_M_deallocateEPS0_y;	.scl	2;	.type	32;	.endef
	.seh_proc	_ZNSt12_Vector_baseI7MonsterSaIS0_EE13_M_deallocateEPS0_y
_ZNSt12_Vector_baseI7MonsterSaIS0_EE13_M_deallocateEPS0_y:
.LFB1775:
	.loc 7 392 7
	.cfi_startproc
	push	rbp
	.seh_pushreg	rbp
	.cfi_def_cfa_offset 16
	.cfi_offset 6, -16
	mov	rbp, rsp
	.seh_setframe	rbp, 0
	.cfi_def_cfa_register 6
	sub	rsp, 80
	.seh_stackalloc	80
	.seh_endprologue
	mov	QWORD PTR 16[rbp], rcx
	mov	QWORD PTR 24[rbp], rdx
	mov	QWORD PTR 32[rbp], r8
	.loc 7 395 2
	cmp	QWORD PTR 24[rbp], 0
	je	.L53
	.loc 7 396 20
	mov	rax, QWORD PTR 16[rbp]
	mov	QWORD PTR -8[rbp], rax
	mov	rax, QWORD PTR 24[rbp]
	mov	QWORD PTR -16[rbp], rax
	mov	rax, QWORD PTR 32[rbp]
	mov	QWORD PTR -24[rbp], rax
	mov	rax, QWORD PTR -8[rbp]
	mov	QWORD PTR -32[rbp], rax
	mov	rax, QWORD PTR -16[rbp]
	mov	QWORD PTR -40[rbp], rax
	mov	rax, QWORD PTR -24[rbp]
	mov	QWORD PTR -48[rbp], rax
.LBB152:
.LBB153:
.LBB154:
.LBB155:
.LBB156:
.LBB157:
	.file 9 "C:/Qt/Tools/mingw1530_64/include/c++/15.3.0/x86_64-w64-mingw32/bits/c++config.h"
	.loc 9 586 49
	mov	eax, 0
.LBE157:
.LBE156:
	.loc 6 210 2 discriminator 1
	test	al, al
	je	.L51
	.loc 6 212 23
	mov	rax, QWORD PTR -40[rbp]
	mov	rcx, rax
	call	_ZdlPv
	.loc 6 213 6
	jmp	.L52
.L51:
	.loc 6 215 35
	mov	rcx, QWORD PTR -48[rbp]
	mov	rdx, QWORD PTR -40[rbp]
	mov	rax, QWORD PTR -32[rbp]
	mov	r8, rcx
	mov	rcx, rax
	call	_ZNSt15__new_allocatorI7MonsterE10deallocateEPS0_y
.L52:
.LBE155:
.LBE154:
	.loc 8 649 35
	nop
.L53:
.LBE153:
.LBE152:
	.loc 7 397 7
	nop
	add	rsp, 80
	pop	rbp
	.cfi_restore 6
	.cfi_def_cfa 7, 8
	ret
	.cfi_endproc
.LFE1775:
	.seh_endproc
	.section	.text$_ZSt27__uninitialized_default_n_aIP7MonsteryS0_ET_S2_T0_RSaIT1_E,"x"
	.linkonce discard
	.globl	_ZSt27__uninitialized_default_n_aIP7MonsteryS0_ET_S2_T0_RSaIT1_E
	.def	_ZSt27__uninitialized_default_n_aIP7MonsteryS0_ET_S2_T0_RSaIT1_E;	.scl	2;	.type	32;	.endef
	.seh_proc	_ZSt27__uninitialized_default_n_aIP7MonsteryS0_ET_S2_T0_RSaIT1_E
_ZSt27__uninitialized_default_n_aIP7MonsteryS0_ET_S2_T0_RSaIT1_E:
.LFB1776:
	.file 10 "C:/Qt/Tools/mingw1530_64/include/c++/15.3.0/bits/stl_uninitialized.h"
	.loc 10 1027 5
	.cfi_startproc
	push	rbp
	.seh_pushreg	rbp
	.cfi_def_cfa_offset 16
	.cfi_offset 6, -16
	mov	rbp, rsp
	.seh_setframe	rbp, 0
	.cfi_def_cfa_register 6
	sub	rsp, 32
	.seh_stackalloc	32
	.seh_endprologue
	mov	QWORD PTR 16[rbp], rcx
	mov	QWORD PTR 24[rbp], rdx
	mov	QWORD PTR 32[rbp], r8
	.loc 10 1029 44
	mov	rdx, QWORD PTR 24[rbp]
	mov	rax, QWORD PTR 16[rbp]
	mov	rcx, rax
	call	_ZSt25__uninitialized_default_nIP7MonsteryET_S2_T0_
	.loc 10 1029 60
	add	rsp, 32
	pop	rbp
	.cfi_restore 6
	.cfi_def_cfa 7, 8
	ret
	.cfi_endproc
.LFE1776:
	.seh_endproc
	.section	.text$_ZSt8_DestroyIP7MonsterEvT_S2_,"x"
	.linkonce discard
	.globl	_ZSt8_DestroyIP7MonsterEvT_S2_
	.def	_ZSt8_DestroyIP7MonsterEvT_S2_;	.scl	2;	.type	32;	.endef
	.seh_proc	_ZSt8_DestroyIP7MonsterEvT_S2_
_ZSt8_DestroyIP7MonsterEvT_S2_:
.LFB1777:
	.file 11 "C:/Qt/Tools/mingw1530_64/include/c++/15.3.0/bits/stl_construct.h"
	.loc 11 219 5
	.cfi_startproc
	push	rbp
	.seh_pushreg	rbp
	.cfi_def_cfa_offset 16
	.cfi_offset 6, -16
	mov	rbp, rsp
	.seh_setframe	rbp, 0
	.cfi_def_cfa_register 6
	sub	rsp, 48
	.seh_stackalloc	48
	.seh_endprologue
	mov	QWORD PTR 16[rbp], rcx
	mov	QWORD PTR 24[rbp], rdx
	.loc 11 225 2
	jmp	.L57
.L59:
	mov	rax, QWORD PTR 16[rbp]
	mov	QWORD PTR -8[rbp], rax
.LBB158:
.LBB159:
	.file 12 "C:/Qt/Tools/mingw1530_64/include/c++/15.3.0/bits/move.h"
	.loc 12 53 37
	mov	rax, QWORD PTR -8[rbp]
.LBE159:
.LBE158:
	.loc 11 226 17 discriminator 1
	mov	rcx, rax
	call	_ZSt8_DestroyI7MonsterEvPT_
	.loc 11 225 2 discriminator 2
	add	QWORD PTR 16[rbp], 16
.L57:
	.loc 11 225 17 discriminator 1
	mov	rax, QWORD PTR 16[rbp]
	cmp	rax, QWORD PTR 24[rbp]
	jne	.L59
	.loc 11 236 5
	nop
	nop
	add	rsp, 48
	pop	rbp
	.cfi_restore 6
	.cfi_def_cfa 7, 8
	ret
	.cfi_endproc
.LFE1777:
	.seh_endproc
	.section	.text$_ZSt3minIyERKT_S2_S2_,"x"
	.linkonce discard
	.globl	_ZSt3minIyERKT_S2_S2_
	.def	_ZSt3minIyERKT_S2_S2_;	.scl	2;	.type	32;	.endef
	.seh_proc	_ZSt3minIyERKT_S2_S2_
_ZSt3minIyERKT_S2_S2_:
.LFB1779:
	.file 13 "C:/Qt/Tools/mingw1530_64/include/c++/15.3.0/bits/stl_algobase.h"
	.loc 13 234 5
	.cfi_startproc
	push	rbp
	.seh_pushreg	rbp
	.cfi_def_cfa_offset 16
	.cfi_offset 6, -16
	mov	rbp, rsp
	.seh_setframe	rbp, 0
	.cfi_def_cfa_register 6
	.seh_endprologue
	mov	QWORD PTR 16[rbp], rcx
	mov	QWORD PTR 24[rbp], rdx
	.loc 13 239 15
	mov	rax, QWORD PTR 24[rbp]
	mov	rdx, QWORD PTR [rax]
	mov	rax, QWORD PTR 16[rbp]
	mov	rax, QWORD PTR [rax]
	.loc 13 239 7
	cmp	rdx, rax
	jnb	.L61
	.loc 13 240 9
	mov	rax, QWORD PTR 24[rbp]
	jmp	.L62
.L61:
	.loc 13 241 14
	mov	rax, QWORD PTR 16[rbp]
.L62:
	.loc 13 242 5
	pop	rbp
	.cfi_restore 6
	.cfi_def_cfa 7, 8
	ret
	.cfi_endproc
.LFE1779:
	.seh_endproc
	.section	.text$_ZNSt12_Vector_baseI7MonsterSaIS0_EE17_Vector_impl_dataC2Ev,"x"
	.linkonce discard
	.align 2
	.globl	_ZNSt12_Vector_baseI7MonsterSaIS0_EE17_Vector_impl_dataC2Ev
	.def	_ZNSt12_Vector_baseI7MonsterSaIS0_EE17_Vector_impl_dataC2Ev;	.scl	2;	.type	32;	.endef
	.seh_proc	_ZNSt12_Vector_baseI7MonsterSaIS0_EE17_Vector_impl_dataC2Ev
_ZNSt12_Vector_baseI7MonsterSaIS0_EE17_Vector_impl_dataC2Ev:
.LFB1784:
	.loc 7 105 2
	.cfi_startproc
	push	rbp
	.seh_pushreg	rbp
	.cfi_def_cfa_offset 16
	.cfi_offset 6, -16
	mov	rbp, rsp
	.seh_setframe	rbp, 0
	.cfi_def_cfa_register 6
	.seh_endprologue
	mov	QWORD PTR 16[rbp], rcx
.LBB160:
	.loc 7 106 4
	mov	rax, QWORD PTR 16[rbp]
	mov	QWORD PTR [rax], 0
	.loc 7 106 16
	mov	rax, QWORD PTR 16[rbp]
	mov	QWORD PTR 8[rax], 0
	.loc 7 106 29
	mov	rax, QWORD PTR 16[rbp]
	mov	QWORD PTR 16[rax], 0
.LBE160:
	.loc 7 107 4
	nop
	pop	rbp
	.cfi_restore 6
	.cfi_def_cfa 7, 8
	ret
	.cfi_endproc
.LFE1784:
	.seh_endproc
	.section	.text$_ZNSt12_Vector_baseI7MonsterSaIS0_EE11_M_allocateEy,"x"
	.linkonce discard
	.align 2
	.globl	_ZNSt12_Vector_baseI7MonsterSaIS0_EE11_M_allocateEy
	.def	_ZNSt12_Vector_baseI7MonsterSaIS0_EE11_M_allocateEy;	.scl	2;	.type	32;	.endef
	.seh_proc	_ZNSt12_Vector_baseI7MonsterSaIS0_EE11_M_allocateEy
_ZNSt12_Vector_baseI7MonsterSaIS0_EE11_M_allocateEy:
.LFB1786:
	.loc 7 384 7
	.cfi_startproc
	push	rbp
	.seh_pushreg	rbp
	.cfi_def_cfa_offset 16
	.cfi_offset 6, -16
	mov	rbp, rsp
	.seh_setframe	rbp, 0
	.cfi_def_cfa_register 6
	sub	rsp, 64
	.seh_stackalloc	64
	.seh_endprologue
	mov	QWORD PTR 16[rbp], rcx
	mov	QWORD PTR 24[rbp], rdx
	.loc 7 387 18
	cmp	QWORD PTR 24[rbp], 0
	je	.L65
	.loc 7 387 34 discriminator 1
	mov	rax, QWORD PTR 16[rbp]
	mov	QWORD PTR -8[rbp], rax
	mov	rax, QWORD PTR 24[rbp]
	mov	QWORD PTR -16[rbp], rax
	mov	rax, QWORD PTR -8[rbp]
	mov	QWORD PTR -24[rbp], rax
	mov	rax, QWORD PTR -16[rbp]
	mov	QWORD PTR -32[rbp], rax
.LBB161:
.LBB162:
.LBB163:
.LBB164:
.LBB165:
.LBB166:
	.loc 9 586 49
	mov	eax, 0
.LBE166:
.LBE165:
	.loc 6 196 2 discriminator 1
	test	al, al
	je	.L67
	.loc 6 198 32
	mov	rax, QWORD PTR -32[rbp]
	mov	ecx, 0
	mov	rdx, rax
	sal	rdx, 4
	shr	rax, 60
	test	rax, rax
	je	.L68
	mov	ecx, 1
.L68:
	mov	rax, rdx
	.loc 6 198 32 is_stmt 0 discriminator 1
	mov	QWORD PTR -32[rbp], rax
	mov	rax, rcx
	and	eax, 1
	.loc 6 198 6 is_stmt 1 discriminator 1
	test	al, al
	je	.L70
	.loc 6 199 41
	call	_ZSt28__throw_bad_array_new_lengthv
.L70:
	.loc 6 200 45
	mov	rax, QWORD PTR -32[rbp]
	mov	rcx, rax
	call	_Znwy
	.loc 6 200 50
	jmp	.L71
.L67:
	.loc 6 203 40
	mov	rdx, QWORD PTR -32[rbp]
	mov	rax, QWORD PTR -24[rbp]
	mov	r8d, 0
	mov	rcx, rax
	call	_ZNSt15__new_allocatorI7MonsterE8allocateEyPKv
	.loc 6 203 47
	nop
.L71:
.LBE164:
.LBE163:
	.loc 8 614 32
	nop
	jmp	.L73
.L65:
.LBE162:
.LBE161:
	.loc 7 387 58 discriminator 2
	mov	eax, 0
.L73:
	.loc 7 388 7
	add	rsp, 64
	pop	rbp
	.cfi_restore 6
	.cfi_def_cfa 7, 8
	ret
	.cfi_endproc
.LFE1786:
	.seh_endproc
	.section	.text$_ZSt25__uninitialized_default_nIP7MonsteryET_S2_T0_,"x"
	.linkonce discard
	.globl	_ZSt25__uninitialized_default_nIP7MonsteryET_S2_T0_
	.def	_ZSt25__uninitialized_default_nIP7MonsteryET_S2_T0_;	.scl	2;	.type	32;	.endef
	.seh_proc	_ZSt25__uninitialized_default_nIP7MonsteryET_S2_T0_
_ZSt25__uninitialized_default_nIP7MonsteryET_S2_T0_:
.LFB1788:
	.loc 10 958 5
	.cfi_startproc
	push	rbp
	.seh_pushreg	rbp
	.cfi_def_cfa_offset 16
	.cfi_offset 6, -16
	mov	rbp, rsp
	.seh_setframe	rbp, 0
	.cfi_def_cfa_register 6
	sub	rsp, 48
	.seh_stackalloc	48
	.seh_endprologue
	mov	QWORD PTR 16[rbp], rcx
	mov	QWORD PTR 24[rbp], rdx
	.loc 10 961 37
	call	_ZSt21is_constant_evaluatedv
	.loc 10 961 7 discriminator 1
	test	al, al
	je	.L76
	.loc 10 963 22
	mov	rdx, QWORD PTR 24[rbp]
	mov	rax, QWORD PTR 16[rbp]
	mov	rcx, rax
	call	_ZNSt27__uninitialized_default_n_1ILb0EE18__uninit_default_nIP7MonsteryEET_S4_T0_
	.loc 10 963 35
	jmp	.L77
.L76:
	.loc 10 969 22
	mov	BYTE PTR -1[rbp], 1
	.loc 10 974 20
	mov	rdx, QWORD PTR 24[rbp]
	mov	rax, QWORD PTR 16[rbp]
	mov	rcx, rax
	call	_ZNSt27__uninitialized_default_n_1ILb0EE18__uninit_default_nIP7MonsteryEET_S4_T0_
	.loc 10 974 33
	nop
.L77:
	.loc 10 975 5
	add	rsp, 48
	pop	rbp
	.cfi_restore 6
	.cfi_def_cfa 7, 8
	ret
	.cfi_endproc
.LFE1788:
	.seh_endproc
	.section	.text$_ZSt8_DestroyI7MonsterEvPT_,"x"
	.linkonce discard
	.globl	_ZSt8_DestroyI7MonsterEvPT_
	.def	_ZSt8_DestroyI7MonsterEvPT_;	.scl	2;	.type	32;	.endef
	.seh_proc	_ZSt8_DestroyI7MonsterEvPT_
_ZSt8_DestroyI7MonsterEvPT_:
.LFB1790:
	.loc 11 161 5
	.cfi_startproc
	push	rbp
	.seh_pushreg	rbp
	.cfi_def_cfa_offset 16
	.cfi_offset 6, -16
	mov	rbp, rsp
	.seh_setframe	rbp, 0
	.cfi_def_cfa_register 6
	sub	rsp, 32
	.seh_stackalloc	32
	.seh_endprologue
	mov	QWORD PTR 16[rbp], rcx
	.loc 11 164 22
	mov	rax, QWORD PTR 16[rbp]
	mov	rcx, rax
	call	_ZSt10destroy_atI7MonsterEvPT_
	.loc 11 168 5
	nop
	add	rsp, 32
	pop	rbp
	.cfi_restore 6
	.cfi_def_cfa 7, 8
	ret
	.cfi_endproc
.LFE1790:
	.seh_endproc
	.section	.text$_ZNSt19_UninitDestroyGuardIP7MonstervEC1ERS1_,"x"
	.linkonce discard
	.align 2
	.globl	_ZNSt19_UninitDestroyGuardIP7MonstervEC1ERS1_
	.def	_ZNSt19_UninitDestroyGuardIP7MonstervEC1ERS1_;	.scl	2;	.type	32;	.endef
	.seh_proc	_ZNSt19_UninitDestroyGuardIP7MonstervEC1ERS1_
_ZNSt19_UninitDestroyGuardIP7MonstervEC1ERS1_:
.LFB1796:
	.loc 10 113 7
	.cfi_startproc
	push	rbp
	.seh_pushreg	rbp
	.cfi_def_cfa_offset 16
	.cfi_offset 6, -16
	mov	rbp, rsp
	.seh_setframe	rbp, 0
	.cfi_def_cfa_register 6
	.seh_endprologue
	mov	QWORD PTR 16[rbp], rcx
	mov	QWORD PTR 24[rbp], rdx
.LBB167:
	.loc 10 114 9
	mov	rax, QWORD PTR 24[rbp]
	mov	rdx, QWORD PTR [rax]
	mov	rax, QWORD PTR 16[rbp]
	mov	QWORD PTR [rax], rdx
	.loc 10 114 28
	mov	rax, QWORD PTR 16[rbp]
	mov	rdx, QWORD PTR 24[rbp]
	mov	QWORD PTR 8[rax], rdx
.LBE167:
	.loc 10 115 9
	nop
	pop	rbp
	.cfi_restore 6
	.cfi_def_cfa 7, 8
	ret
	.cfi_endproc
.LFE1796:
	.seh_endproc
	.section	.text$_ZNSt27__uninitialized_default_n_1ILb0EE18__uninit_default_nIP7MonsteryEET_S4_T0_,"x"
	.linkonce discard
	.globl	_ZNSt27__uninitialized_default_n_1ILb0EE18__uninit_default_nIP7MonsteryEET_S4_T0_
	.def	_ZNSt27__uninitialized_default_n_1ILb0EE18__uninit_default_nIP7MonsteryEET_S4_T0_;	.scl	2;	.type	32;	.endef
	.seh_proc	_ZNSt27__uninitialized_default_n_1ILb0EE18__uninit_default_nIP7MonsteryEET_S4_T0_
_ZNSt27__uninitialized_default_n_1ILb0EE18__uninit_default_nIP7MonsteryEET_S4_T0_:
.LFB1793:
	.loc 10 899 9
	.cfi_startproc
	push	rbp
	.seh_pushreg	rbp
	.cfi_def_cfa_offset 16
	.cfi_offset 6, -16
	push	rbx
	.seh_pushreg	rbx
	.cfi_def_cfa_offset 24
	.cfi_offset 3, -24
	sub	rsp, 72
	.seh_stackalloc	72
	.cfi_def_cfa_offset 96
	lea	rbp, 64[rsp]
	.seh_setframe	rbp, 64
	.cfi_def_cfa 6, 32
	.seh_endprologue
	mov	QWORD PTR 32[rbp], rcx
	mov	QWORD PTR 40[rbp], rdx
	.loc 10 901 42
	lea	rax, -32[rbp]
	lea	rdx, 32[rbp]
	mov	rcx, rax
	call	_ZNSt19_UninitDestroyGuardIP7MonstervEC1ERS1_
	.loc 10 902 4
	jmp	.L81
.L83:
	.loc 10 903 21
	mov	rax, QWORD PTR 32[rbp]
	mov	QWORD PTR -8[rbp], rax
.LBB168:
.LBB169:
	.loc 12 53 37
	mov	rax, QWORD PTR -8[rbp]
.LBE169:
.LBE168:
	.loc 10 903 21 discriminator 1
	mov	rcx, rax
	call	_ZSt10_ConstructI7MonsterJEEvPT_DpOT0_
	.loc 10 902 4 discriminator 2
	sub	QWORD PTR 40[rbp], 1
	.loc 10 902 27 discriminator 2
	mov	rax, QWORD PTR 32[rbp]
	add	rax, 16
	mov	QWORD PTR 32[rbp], rax
.L81:
	.loc 10 902 15 discriminator 1
	cmp	QWORD PTR 40[rbp], 0
	jne	.L83
	.loc 10 904 19
	lea	rax, -32[rbp]
	mov	rcx, rax
	call	_ZNSt19_UninitDestroyGuardIP7MonstervE7releaseEv
	.loc 10 905 11
	mov	rbx, QWORD PTR 32[rbp]
	.loc 10 906 2
	lea	rax, -32[rbp]
	mov	rcx, rax
	call	_ZNSt19_UninitDestroyGuardIP7MonstervED1Ev
	.loc 10 905 11
	mov	rax, rbx
	.loc 10 906 2
	add	rsp, 72
	pop	rbx
	.cfi_restore 3
	pop	rbp
	.cfi_restore 6
	.cfi_def_cfa 7, -56
	ret
	.cfi_endproc
.LFE1793:
	.seh_endproc
	.section	.text$_ZN10GameObjectD2Ev,"x"
	.linkonce discard
	.align 2
	.globl	_ZN10GameObjectD2Ev
	.def	_ZN10GameObjectD2Ev;	.scl	2;	.type	32;	.endef
	.seh_proc	_ZN10GameObjectD2Ev
_ZN10GameObjectD2Ev:
.LFB1800:
	.loc 3 8 13
	.cfi_startproc
	push	rbp
	.seh_pushreg	rbp
	.cfi_def_cfa_offset 16
	.cfi_offset 6, -16
	mov	rbp, rsp
	.seh_setframe	rbp, 0
	.cfi_def_cfa_register 6
	.seh_endprologue
	mov	QWORD PTR 16[rbp], rcx
.LBB170:
	.loc 3 8 13
	lea	rdx, _ZTV10GameObject[rip+16]
	mov	rax, QWORD PTR 16[rbp]
	mov	QWORD PTR [rax], rdx
.LBE170:
	nop
	pop	rbp
	.cfi_restore 6
	.cfi_def_cfa 7, 8
	ret
	.cfi_endproc
.LFE1800:
	.seh_endproc
	.section	.text$_ZN7MonsterD1Ev,"x"
	.linkonce discard
	.align 2
	.globl	_ZN7MonsterD1Ev
	.def	_ZN7MonsterD1Ev;	.scl	2;	.type	32;	.endef
	.seh_proc	_ZN7MonsterD1Ev
_ZN7MonsterD1Ev:
.LFB1804:
	.loc 3 13 8
	.cfi_startproc
	push	rbp
	.seh_pushreg	rbp
	.cfi_def_cfa_offset 16
	.cfi_offset 6, -16
	mov	rbp, rsp
	.seh_setframe	rbp, 0
	.cfi_def_cfa_register 6
	sub	rsp, 32
	.seh_stackalloc	32
	.seh_endprologue
	mov	QWORD PTR 16[rbp], rcx
.LBB171:
	.loc 3 13 8
	lea	rdx, _ZTV7Monster[rip+16]
	mov	rax, QWORD PTR 16[rbp]
	mov	QWORD PTR [rax], rdx
	mov	rax, QWORD PTR 16[rbp]
	mov	rcx, rax
	call	_ZN10GameObjectD2Ev
.LBE171:
	nop
	add	rsp, 32
	pop	rbp
	.cfi_restore 6
	.cfi_def_cfa 7, 8
	ret
	.cfi_endproc
.LFE1804:
	.seh_endproc
	.section	.text$_ZN7MonsterD0Ev,"x"
	.linkonce discard
	.align 2
	.globl	_ZN7MonsterD0Ev
	.def	_ZN7MonsterD0Ev;	.scl	2;	.type	32;	.endef
	.seh_proc	_ZN7MonsterD0Ev
_ZN7MonsterD0Ev:
.LFB1805:
	.loc 3 13 8
	.cfi_startproc
	push	rbp
	.seh_pushreg	rbp
	.cfi_def_cfa_offset 16
	.cfi_offset 6, -16
	mov	rbp, rsp
	.seh_setframe	rbp, 0
	.cfi_def_cfa_register 6
	sub	rsp, 32
	.seh_stackalloc	32
	.seh_endprologue
	mov	QWORD PTR 16[rbp], rcx
	.loc 3 13 8
	mov	rax, QWORD PTR 16[rbp]
	mov	rcx, rax
	call	_ZN7MonsterD1Ev
	.loc 3 13 8 is_stmt 0 discriminator 1
	mov	rax, QWORD PTR 16[rbp]
	mov	edx, 16
	mov	rcx, rax
	call	_ZdlPvy
	nop
	.loc 3 13 8
	add	rsp, 32
	pop	rbp
	.cfi_restore 6
	.cfi_def_cfa 7, 8
	ret
	.cfi_endproc
.LFE1805:
	.seh_endproc
	.section	.text$_ZSt10destroy_atI7MonsterEvPT_,"x"
	.linkonce discard
	.globl	_ZSt10destroy_atI7MonsterEvPT_
	.def	_ZSt10destroy_atI7MonsterEvPT_;	.scl	2;	.type	32;	.endef
	.seh_proc	_ZSt10destroy_atI7MonsterEvPT_
_ZSt10destroy_atI7MonsterEvPT_:
.LFB1797:
	.loc 11 80 5 is_stmt 1
	.cfi_startproc
	push	rbp
	.seh_pushreg	rbp
	.cfi_def_cfa_offset 16
	.cfi_offset 6, -16
	mov	rbp, rsp
	.seh_setframe	rbp, 0
	.cfi_def_cfa_register 6
	sub	rsp, 32
	.seh_stackalloc	32
	.seh_endprologue
	mov	QWORD PTR 16[rbp], rcx
	.loc 11 88 18
	mov	rax, QWORD PTR 16[rbp]
	mov	rax, QWORD PTR [rax]
	mov	rdx, QWORD PTR [rax]
	mov	rax, QWORD PTR 16[rbp]
	mov	rcx, rax
	call	rdx
.LVL0:
	.loc 11 89 5
	nop
	add	rsp, 32
	pop	rbp
	.cfi_restore 6
	.cfi_def_cfa 7, 8
	ret
	.cfi_endproc
.LFE1797:
	.seh_endproc
	.section	.text$_ZNSt15__new_allocatorI7MonsterE10deallocateEPS0_y,"x"
	.linkonce discard
	.align 2
	.globl	_ZNSt15__new_allocatorI7MonsterE10deallocateEPS0_y
	.def	_ZNSt15__new_allocatorI7MonsterE10deallocateEPS0_y;	.scl	2;	.type	32;	.endef
	.seh_proc	_ZNSt15__new_allocatorI7MonsterE10deallocateEPS0_y
_ZNSt15__new_allocatorI7MonsterE10deallocateEPS0_y:
.LFB1807:
	.loc 5 156 7
	.cfi_startproc
	push	rbp
	.seh_pushreg	rbp
	.cfi_def_cfa_offset 16
	.cfi_offset 6, -16
	mov	rbp, rsp
	.seh_setframe	rbp, 0
	.cfi_def_cfa_register 6
	sub	rsp, 32
	.seh_stackalloc	32
	.seh_endprologue
	mov	QWORD PTR 16[rbp], rcx
	mov	QWORD PTR 24[rbp], rdx
	mov	QWORD PTR 32[rbp], r8
	.loc 5 172 59
	mov	rax, QWORD PTR 32[rbp]
	sal	rax, 4
	mov	rdx, rax
	mov	rax, QWORD PTR 24[rbp]
	mov	rcx, rax
	call	_ZdlPvy
	nop
	.loc 5 173 7
	add	rsp, 32
	pop	rbp
	.cfi_restore 6
	.cfi_def_cfa 7, 8
	ret
	.cfi_endproc
.LFE1807:
	.seh_endproc
	.section	.text$_ZNSt19_UninitDestroyGuardIP7MonstervED1Ev,"x"
	.linkonce discard
	.align 2
	.globl	_ZNSt19_UninitDestroyGuardIP7MonstervED1Ev
	.def	_ZNSt19_UninitDestroyGuardIP7MonstervED1Ev;	.scl	2;	.type	32;	.endef
	.seh_proc	_ZNSt19_UninitDestroyGuardIP7MonstervED1Ev
_ZNSt19_UninitDestroyGuardIP7MonstervED1Ev:
.LFB1810:
	.loc 10 118 7
	.cfi_startproc
	push	rbp
	.seh_pushreg	rbp
	.cfi_def_cfa_offset 16
	.cfi_offset 6, -16
	mov	rbp, rsp
	.seh_setframe	rbp, 0
	.cfi_def_cfa_register 6
	sub	rsp, 32
	.seh_stackalloc	32
	.seh_endprologue
	mov	QWORD PTR 16[rbp], rcx
.LBB172:
	.loc 10 120 23
	mov	rax, QWORD PTR 16[rbp]
	mov	rax, QWORD PTR 8[rax]
	.loc 10 120 30
	test	rax, rax
	setne	al
	.loc 10 120 22
	movzx	eax, al
	.loc 10 120 2 discriminator 1
	test	eax, eax
	je	.L93
	.loc 10 121 29
	mov	rax, QWORD PTR 16[rbp]
	mov	rax, QWORD PTR 8[rax]
	.loc 10 121 17
	mov	rdx, QWORD PTR [rax]
	.loc 10 121 18
	mov	rax, QWORD PTR 16[rbp]
	mov	rax, QWORD PTR [rax]
	.loc 10 121 17
	mov	rcx, rax
	call	_ZSt8_DestroyIP7MonsterEvT_S2_
.L93:
.LBE172:
	.loc 10 122 7
	nop
	add	rsp, 32
	pop	rbp
	.cfi_restore 6
	.cfi_def_cfa 7, 8
	ret
	.cfi_endproc
.LFE1810:
	.seh_handler	__gxx_personality_seh0, @unwind, @except
	.seh_handlerdata
.LLSDA1810:
	.byte	0xff
	.byte	0xff
	.byte	0x1
	.uleb128 .LLSDACSE1810-.LLSDACSB1810
.LLSDACSB1810:
.LLSDACSE1810:
	.section	.text$_ZNSt19_UninitDestroyGuardIP7MonstervED1Ev,"x"
	.linkonce discard
	.seh_endproc
	.section	.text$_ZN10GameObjectC2Ev,"x"
	.linkonce discard
	.align 2
	.globl	_ZN10GameObjectC2Ev
	.def	_ZN10GameObjectC2Ev;	.scl	2;	.type	32;	.endef
	.seh_proc	_ZN10GameObjectC2Ev
_ZN10GameObjectC2Ev:
.LFB1814:
	.loc 3 7 8
	.cfi_startproc
	push	rbp
	.seh_pushreg	rbp
	.cfi_def_cfa_offset 16
	.cfi_offset 6, -16
	mov	rbp, rsp
	.seh_setframe	rbp, 0
	.cfi_def_cfa_register 6
	.seh_endprologue
	mov	QWORD PTR 16[rbp], rcx
.LBB173:
	.loc 3 7 8
	lea	rdx, _ZTV10GameObject[rip+16]
	mov	rax, QWORD PTR 16[rbp]
	mov	QWORD PTR [rax], rdx
.LBE173:
	nop
	pop	rbp
	.cfi_restore 6
	.cfi_def_cfa 7, 8
	ret
	.cfi_endproc
.LFE1814:
	.seh_endproc
	.section	.text$_ZN7MonsterC1Ev,"x"
	.linkonce discard
	.align 2
	.globl	_ZN7MonsterC1Ev
	.def	_ZN7MonsterC1Ev;	.scl	2;	.type	32;	.endef
	.seh_proc	_ZN7MonsterC1Ev
_ZN7MonsterC1Ev:
.LFB1817:
	.loc 3 13 8
	.cfi_startproc
	push	rbp
	.seh_pushreg	rbp
	.cfi_def_cfa_offset 16
	.cfi_offset 6, -16
	mov	rbp, rsp
	.seh_setframe	rbp, 0
	.cfi_def_cfa_register 6
	sub	rsp, 32
	.seh_stackalloc	32
	.seh_endprologue
	mov	QWORD PTR 16[rbp], rcx
.LBB174:
	.loc 3 13 8
	mov	rax, QWORD PTR 16[rbp]
	mov	rcx, rax
	call	_ZN10GameObjectC2Ev
	.loc 3 13 8 is_stmt 0 discriminator 1
	lea	rdx, _ZTV7Monster[rip+16]
	mov	rax, QWORD PTR 16[rbp]
	mov	QWORD PTR [rax], rdx
.LBE174:
	.loc 3 13 8
	nop
	add	rsp, 32
	pop	rbp
	.cfi_restore 6
	.cfi_def_cfa 7, 8
	ret
	.cfi_endproc
.LFE1817:
	.seh_endproc
	.section	.text$_ZSt10_ConstructI7MonsterJEEvPT_DpOT0_,"x"
	.linkonce discard
	.globl	_ZSt10_ConstructI7MonsterJEEvPT_DpOT0_
	.def	_ZSt10_ConstructI7MonsterJEEvPT_DpOT0_;	.scl	2;	.type	32;	.endef
	.seh_proc	_ZSt10_ConstructI7MonsterJEEvPT_DpOT0_
_ZSt10_ConstructI7MonsterJEEvPT_DpOT0_:
.LFB1811:
	.loc 11 123 5 is_stmt 1
	.cfi_startproc
	push	rbp
	.seh_pushreg	rbp
	.cfi_def_cfa_offset 16
	.cfi_offset 6, -16
	push	rsi
	.seh_pushreg	rsi
	.cfi_def_cfa_offset 24
	.cfi_offset 4, -24
	push	rbx
	.seh_pushreg	rbx
	.cfi_def_cfa_offset 32
	.cfi_offset 3, -32
	sub	rsp, 32
	.seh_stackalloc	32
	.cfi_def_cfa_offset 64
	lea	rbp, 32[rsp]
	.seh_setframe	rbp, 32
	.cfi_def_cfa 6, 32
	.seh_endprologue
	mov	QWORD PTR 32[rbp], rcx
.LBB175:
.LBB176:
	.loc 9 586 49
	mov	eax, 0
.LBE176:
.LBE175:
	.loc 11 126 7 discriminator 1
	test	al, al
	je	.L98
	.loc 11 129 21
	mov	rax, QWORD PTR 32[rbp]
	mov	rcx, rax
	call	_ZSt12construct_atI7MonsterJEQaant20is_unbounded_array_vIT_ErqXgsnwcvPvLi0E_S1_pispcl7declvalIT0_EEEEEPS1_S4_DpOS3_
	.loc 11 130 4
	jmp	.L96
.L98:
	.loc 11 133 13
	mov	rsi, QWORD PTR 32[rbp]
	.loc 11 133 7
	mov	rdx, rsi
	mov	ecx, 16
	call	_ZnwyPv
	mov	rbx, rax
	.loc 11 133 7 is_stmt 0 discriminator 1
	mov	QWORD PTR [rbx], 0
	pxor	xmm0, xmm0
	movss	DWORD PTR 8[rbx], xmm0
	pxor	xmm0, xmm0
	movss	DWORD PTR 12[rbx], xmm0
	mov	rcx, rbx
	call	_ZN7MonsterC1Ev
	.loc 11 133 7 discriminator 2
	mov	eax, 0
	test	al, al
	je	.L96
	.loc 11 133 7 discriminator 3
	mov	rdx, rsi
	mov	rcx, rbx
	call	_ZdlPvS_
	nop
.L96:
	.loc 11 134 5 is_stmt 1
	add	rsp, 32
	pop	rbx
	.cfi_restore 3
	pop	rsi
	.cfi_restore 4
	pop	rbp
	.cfi_restore 6
	.cfi_def_cfa 7, -8
	ret
	.cfi_endproc
.LFE1811:
	.seh_endproc
	.section	.text$_ZNSt19_UninitDestroyGuardIP7MonstervE7releaseEv,"x"
	.linkonce discard
	.align 2
	.globl	_ZNSt19_UninitDestroyGuardIP7MonstervE7releaseEv
	.def	_ZNSt19_UninitDestroyGuardIP7MonstervE7releaseEv;	.scl	2;	.type	32;	.endef
	.seh_proc	_ZNSt19_UninitDestroyGuardIP7MonstervE7releaseEv
_ZNSt19_UninitDestroyGuardIP7MonstervE7releaseEv:
.LFB1818:
	.loc 10 125 12
	.cfi_startproc
	push	rbp
	.seh_pushreg	rbp
	.cfi_def_cfa_offset 16
	.cfi_offset 6, -16
	mov	rbp, rsp
	.seh_setframe	rbp, 0
	.cfi_def_cfa_register 6
	.seh_endprologue
	mov	QWORD PTR 16[rbp], rcx
	.loc 10 125 31
	mov	rax, QWORD PTR 16[rbp]
	mov	QWORD PTR 8[rax], 0
	.loc 10 125 36
	nop
	pop	rbp
	.cfi_restore 6
	.cfi_def_cfa 7, 8
	ret
	.cfi_endproc
.LFE1818:
	.seh_endproc
	.section	.text$_ZNSt15__new_allocatorI7MonsterE8allocateEyPKv,"x"
	.linkonce discard
	.align 2
	.globl	_ZNSt15__new_allocatorI7MonsterE8allocateEyPKv
	.def	_ZNSt15__new_allocatorI7MonsterE8allocateEyPKv;	.scl	2;	.type	32;	.endef
	.seh_proc	_ZNSt15__new_allocatorI7MonsterE8allocateEyPKv
_ZNSt15__new_allocatorI7MonsterE8allocateEyPKv:
.LFB1819:
	.loc 5 126 7
	.cfi_startproc
	push	rbp
	.seh_pushreg	rbp
	.cfi_def_cfa_offset 16
	.cfi_offset 6, -16
	mov	rbp, rsp
	.seh_setframe	rbp, 0
	.cfi_def_cfa_register 6
	sub	rsp, 48
	.seh_stackalloc	48
	.seh_endprologue
	mov	QWORD PTR 16[rbp], rcx
	mov	QWORD PTR 24[rbp], rdx
	mov	QWORD PTR 32[rbp], r8
	mov	rax, QWORD PTR 16[rbp]
	mov	QWORD PTR -8[rbp], rax
.LBB177:
.LBB178:
	.loc 5 233 50
	movabs	rax, 576460752303423487
.LBE178:
.LBE177:
	.loc 5 134 27 discriminator 1
	cmp	rax, QWORD PTR 24[rbp]
	setb	al
	.loc 5 134 22 discriminator 1
	movzx	eax, al
	.loc 5 134 22 is_stmt 0 discriminator 2
	test	eax, eax
	setne	al
	.loc 5 134 2 is_stmt 1 discriminator 2
	test	al, al
	je	.L103
	.loc 5 138 6
	movabs	rax, 1152921504606846975
	cmp	rax, QWORD PTR 24[rbp]
	jnb	.L104
	.loc 5 139 41
	call	_ZSt28__throw_bad_array_new_lengthv
.L104:
	.loc 5 140 28
	call	_ZSt17__throw_bad_allocv
.L103:
	.loc 5 151 66
	mov	rax, QWORD PTR 24[rbp]
	sal	rax, 4
	mov	rcx, rax
	call	_Znwy
	.loc 5 151 67
	nop
	.loc 5 152 7
	add	rsp, 48
	pop	rbp
	.cfi_restore 6
	.cfi_def_cfa 7, 8
	ret
	.cfi_endproc
.LFE1819:
	.seh_endproc
	.section	.text$_ZSt12construct_atI7MonsterJEQaant20is_unbounded_array_vIT_ErqXgsnwcvPvLi0E_S1_pispcl7declvalIT0_EEEEEPS1_S4_DpOS3_,"x"
	.linkonce discard
	.globl	_ZSt12construct_atI7MonsterJEQaant20is_unbounded_array_vIT_ErqXgsnwcvPvLi0E_S1_pispcl7declvalIT0_EEEEEPS1_S4_DpOS3_
	.def	_ZSt12construct_atI7MonsterJEQaant20is_unbounded_array_vIT_ErqXgsnwcvPvLi0E_S1_pispcl7declvalIT0_EEEEEPS1_S4_DpOS3_;	.scl	2;	.type	32;	.endef
	.seh_proc	_ZSt12construct_atI7MonsterJEQaant20is_unbounded_array_vIT_ErqXgsnwcvPvLi0E_S1_pispcl7declvalIT0_EEEEEPS1_S4_DpOS3_
_ZSt12construct_atI7MonsterJEQaant20is_unbounded_array_vIT_ErqXgsnwcvPvLi0E_S1_pispcl7declvalIT0_EEEEEPS1_S4_DpOS3_:
.LFB1820:
	.loc 11 96 5
	.cfi_startproc
	push	rbp
	.seh_pushreg	rbp
	.cfi_def_cfa_offset 16
	.cfi_offset 6, -16
	push	rsi
	.seh_pushreg	rsi
	.cfi_def_cfa_offset 24
	.cfi_offset 4, -24
	push	rbx
	.seh_pushreg	rbx
	.cfi_def_cfa_offset 32
	.cfi_offset 3, -32
	sub	rsp, 48
	.seh_stackalloc	48
	.cfi_def_cfa_offset 80
	lea	rbp, 48[rsp]
	.seh_setframe	rbp, 48
	.cfi_def_cfa 6, 32
	.seh_endprologue
	mov	QWORD PTR 32[rbp], rcx
	.loc 11 99 13
	mov	rax, QWORD PTR 32[rbp]
	mov	QWORD PTR -8[rbp], rax
	.loc 11 110 15
	mov	rsi, QWORD PTR -8[rbp]
	.loc 11 110 9
	mov	rdx, rsi
	mov	ecx, 16
	call	_ZnwyPv
	mov	rbx, rax
	.loc 11 110 9 is_stmt 0 discriminator 1
	mov	QWORD PTR [rbx], 0
	pxor	xmm0, xmm0
	movss	DWORD PTR 8[rbx], xmm0
	pxor	xmm0, xmm0
	movss	DWORD PTR 12[rbx], xmm0
	mov	rcx, rbx
	call	_ZN7MonsterC1Ev
	.loc 11 110 56 is_stmt 1 discriminator 2
	mov	eax, 0
	.loc 11 110 56 is_stmt 0 discriminator 3
	test	al, al
	je	.L108
	.loc 11 110 9 is_stmt 1 discriminator 4
	mov	rdx, rsi
	mov	rcx, rbx
	call	_ZdlPvS_
.L108:
	.loc 11 110 56 discriminator 8
	mov	rax, rbx
	.loc 11 111 5
	add	rsp, 48
	pop	rbx
	.cfi_restore 3
	pop	rsi
	.cfi_restore 4
	pop	rbp
	.cfi_restore 6
	.cfi_def_cfa 7, -24
	ret
	.cfi_endproc
.LFE1820:
	.seh_endproc
	.weak	_ZSt12construct_atI7MonsterJEEPT_S2_DpOT0_
	.def	_ZSt12construct_atI7MonsterJEEPT_S2_DpOT0_;	.scl	2;	.type	32;	.endef
	.set	_ZSt12construct_atI7MonsterJEEPT_S2_DpOT0_,_ZSt12construct_atI7MonsterJEQaant20is_unbounded_array_vIT_ErqXgsnwcvPvLi0E_S1_pispcl7declvalIT0_EEEEEPS1_S4_DpOS3_
	.globl	_ZTV7Monster
	.section	.rdata$_ZTV7Monster,"dr"
	.linkonce same_size
	.align 8
_ZTV7Monster:
	.quad	0
	.quad	_ZTI7Monster
	.quad	_ZN7MonsterD1Ev
	.quad	_ZN7MonsterD0Ev
	.quad	_ZN7Monster6updateEv
	.globl	_ZTV10GameObject
	.section	.rdata$_ZTV10GameObject,"dr"
	.linkonce same_size
	.align 8
_ZTV10GameObject:
	.quad	0
	.quad	_ZTI10GameObject
	.quad	0
	.quad	0
	.quad	__cxa_pure_virtual
	.globl	_ZTI7Monster
	.section	.rdata$_ZTI7Monster,"dr"
	.linkonce same_size
	.align 8
_ZTI7Monster:
	.quad	_ZTVN10__cxxabiv120__si_class_type_infoE+16
	.quad	_ZTS7Monster
	.quad	_ZTI10GameObject
	.globl	_ZTS7Monster
	.section	.rdata$_ZTS7Monster,"dr"
	.linkonce same_size
	.align 8
_ZTS7Monster:
	.ascii "7Monster\0"
	.globl	_ZTI10GameObject
	.section	.rdata$_ZTI10GameObject,"dr"
	.linkonce same_size
	.align 8
_ZTI10GameObject:
	.quad	_ZTVN10__cxxabiv117__class_type_infoE+16
	.quad	_ZTS10GameObject
	.globl	_ZTS10GameObject
	.section	.rdata$_ZTS10GameObject,"dr"
	.linkonce same_size
	.align 8
_ZTS10GameObject:
	.ascii "10GameObject\0"
	.section .rdata,"dr"
	.align 4
.LC0:
	.long	1065353216
	.weak	__cxa_pure_virtual
	.text
.Letext0:
	.file 14 "C:/Qt/Tools/mingw1530_64/include/c++/15.3.0/bits/utility.h"
	.file 15 "C:/Qt/Tools/mingw1530_64/include/c++/15.3.0/concepts"
	.file 16 "C:/Qt/Tools/mingw1530_64/include/c++/15.3.0/bits/iterator_concepts.h"
	.file 17 "C:/Qt/Tools/mingw1530_64/include/c++/15.3.0/compare"
	.file 18 "C:/Qt/Tools/mingw1530_64/include/c++/15.3.0/debug/debug.h"
	.file 19 "C:/Qt/Tools/mingw1530_64/include/c++/15.3.0/numbers"
	.file 20 "C:/Qt/Tools/mingw1530_64/include/c++/15.3.0/bits/memory_resource.h"
	.file 21 "C:/Qt/Tools/mingw1530_64/include/c++/15.3.0/cstddef"
	.file 22 "C:/Qt/Tools/mingw1530_64/include/c++/15.3.0/bits/vector.tcc"
	.file 23 "C:/Qt/Tools/mingw1530_64/include/c++/15.3.0/bits/stl_iterator_base_types.h"
	.file 24 "C:/Qt/Tools/mingw1530_64/include/c++/15.3.0/initializer_list"
	.file 25 "C:/Qt/Tools/mingw1530_64/include/c++/15.3.0/bits/functexcept.h"
	.file 26 "C:/Qt/Tools/mingw1530_64/include/c++/15.3.0/bits/predefined_ops.h"
	.file 27 "C:/Qt/Tools/mingw1530_64/include/c++/15.3.0/ext/alloc_traits.h"
	.file 28 "C:/Qt/Tools/mingw1530_64/include/c++/15.3.0/bits/ptr_traits.h"
	.file 29 "C:/Qt/Tools/mingw1530_64/x86_64-w64-mingw32/include/stddef.h"