	.file	"_ch141_template_inject.cpp"
	.intel_syntax noprefix
	.text
.Ltext0:
	.cfi_sections	.debug_frame
	.file 0 "C:/CodeLearnling/note/note/C++/CPP-Bible" "Examples/_ch141_template_inject.cpp"
	.section	.text$_ZNK9RealClock3nowEv,"x"
	.linkonce discard
	.align 2
	.globl	_ZNK9RealClock3nowEv
	.def	_ZNK9RealClock3nowEv;	.scl	2;	.type	32;	.endef
	.seh_proc	_ZNK9RealClock3nowEv
_ZNK9RealClock3nowEv:
.LFB4006:
	.file 1 "Examples/_ch141_template_inject.cpp"
	.loc 1 5 24
	.cfi_startproc
	push	rbp
	.seh_pushreg	rbp
	.cfi_def_cfa_offset 16
	.cfi_offset 6, -16
	mov	rbp, rsp
	.seh_setframe	rbp, 0
	.cfi_def_cfa_register 6
	.seh_endprologue
	mov	QWORD PTR 16[rbp], rcx
	.loc 1 5 45
	mov	eax, 100
	.loc 1 5 50
	pop	rbp
	.cfi_restore 6
	.cfi_def_cfa 7, 8
	ret
	.cfi_endproc
.LFE4006:
	.seh_endproc
	.section	.text$_ZNK9MockClock3nowEv,"x"
	.linkonce discard
	.align 2
	.globl	_ZNK9MockClock3nowEv
	.def	_ZNK9MockClock3nowEv;	.scl	2;	.type	32;	.endef
	.seh_proc	_ZNK9MockClock3nowEv
_ZNK9MockClock3nowEv:
.LFB4007:
	.loc 1 6 25
	.cfi_startproc
	push	rbp
	.seh_pushreg	rbp
	.cfi_def_cfa_offset 16
	.cfi_offset 6, -16
	mov	rbp, rsp
	.seh_setframe	rbp, 0
	.cfi_def_cfa_register 6
	.seh_endprologue
	mov	QWORD PTR 16[rbp], rcx
	.loc 1 6 46
	mov	eax, 0
	.loc 1 6 51
	pop	rbp
	.cfi_restore 6
	.cfi_def_cfa 7, 8
	ret
	.cfi_endproc
.LFE4007:
	.seh_endproc
	.section .rdata,"dr"
.LC0:
	.ascii " \0"
.LC1:
	.ascii "\12\0"
	.text
	.globl	main
	.def	main;	.scl	2;	.type	32;	.endef
	.seh_proc	main
main:
.LFB4009:
	.loc 1 15 12
	.cfi_startproc
	push	rbp
	.seh_pushreg	rbp
	.cfi_def_cfa_offset 16
	.cfi_offset 6, -16
	push	rbx
	.seh_pushreg	rbx
	.cfi_def_cfa_offset 24
	.cfi_offset 3, -24
	sub	rsp, 56
	.seh_stackalloc	56
	.cfi_def_cfa_offset 80
	lea	rbp, 48[rsp]
	.seh_setframe	rbp, 48
	.cfi_def_cfa 6, 32
	.seh_endprologue
	.loc 1 15 12
	call	__main
	.loc 1 18 25
	lea	rax, -1[rbp]
	mov	rcx, rax
	call	_ZNK9SchedulerI9RealClockE4tickEv
	mov	edx, eax
	.loc 1 18 25 is_stmt 0 discriminator 1
	mov	rax, QWORD PTR .refptr._ZSt4cout[rip]
	mov	rcx, rax
	call	_ZNSolsEi
	mov	rcx, rax
	.loc 1 18 30 is_stmt 1 discriminator 3
	lea	rax, .LC0[rip]
	mov	rdx, rax
	call	_ZStlsISt11char_traitsIcEERSt13basic_ostreamIcT_ES5_PKc
	mov	rbx, rax
	.loc 1 18 44 discriminator 5
	lea	rax, -2[rbp]
	mov	rcx, rax
	call	_ZNK9SchedulerI9MockClockE4tickEv
	.loc 1 18 44 is_stmt 0 discriminator 6
	mov	edx, eax
	mov	rcx, rbx
	call	_ZNSolsEi
	mov	rcx, rax
	.loc 1 18 49 is_stmt 1 discriminator 8
	lea	rax, .LC1[rip]
	mov	rdx, rax
	call	_ZStlsISt11char_traitsIcEERSt13basic_ostreamIcT_ES5_PKc
	.loc 1 19 1
	mov	eax, 0
	add	rsp, 56
	pop	rbx
	.cfi_restore 3
	pop	rbp
	.cfi_restore 6
	.cfi_def_cfa 7, -40
	ret
	.cfi_endproc
.LFE4009:
	.seh_endproc
	.section	.text$_ZNK9SchedulerI9RealClockE4tickEv,"x"
	.linkonce discard
	.align 2
	.globl	_ZNK9SchedulerI9RealClockE4tickEv
	.def	_ZNK9SchedulerI9RealClockE4tickEv;	.scl	2;	.type	32;	.endef
	.seh_proc	_ZNK9SchedulerI9RealClockE4tickEv
_ZNK9SchedulerI9RealClockE4tickEv:
.LFB4398:
	.loc 1 12 9
	.cfi_startproc
	push	rbp
	.seh_pushreg	rbp
	.cfi_def_cfa_offset 16
	.cfi_offset 6, -16
	mov	rbp, rsp
	.seh_setframe	rbp, 0
	.cfi_def_cfa_register 6
	sub	rsp, 32
	.seh_stackalloc	32
	.seh_endprologue
	mov	QWORD PTR 16[rbp], rcx
	.loc 1 12 41
	mov	rax, QWORD PTR 16[rbp]
	mov	rcx, rax
	call	_ZNK9RealClock3nowEv
	.loc 1 12 45
	add	rsp, 32
	pop	rbp
	.cfi_restore 6
	.cfi_def_cfa 7, 8
	ret
	.cfi_endproc
.LFE4398:
	.seh_endproc
	.section	.text$_ZNK9SchedulerI9MockClockE4tickEv,"x"
	.linkonce discard
	.align 2
	.globl	_ZNK9SchedulerI9MockClockE4tickEv
	.def	_ZNK9SchedulerI9MockClockE4tickEv;	.scl	2;	.type	32;	.endef
	.seh_proc	_ZNK9SchedulerI9MockClockE4tickEv
_ZNK9SchedulerI9MockClockE4tickEv:
.LFB4400:
	.loc 1 12 9
	.cfi_startproc
	push	rbp
	.seh_pushreg	rbp
	.cfi_def_cfa_offset 16
	.cfi_offset 6, -16
	mov	rbp, rsp
	.seh_setframe	rbp, 0
	.cfi_def_cfa_register 6
	sub	rsp, 32
	.seh_stackalloc	32
	.seh_endprologue
	mov	QWORD PTR 16[rbp], rcx
	.loc 1 12 41
	mov	rax, QWORD PTR 16[rbp]
	mov	rcx, rax
	call	_ZNK9MockClock3nowEv
	.loc 1 12 45
	add	rsp, 32
	pop	rbp
	.cfi_restore 6
	.cfi_def_cfa 7, 8
	ret
	.cfi_endproc
.LFE4400:
	.seh_endproc
	.text
.Letext0:
	.file 2 "C:/Qt/Tools/mingw1530_64/x86_64-w64-mingw32/include/corecrt.h"
	.file 3 "C:/Qt/Tools/mingw1530_64/x86_64-w64-mingw32/include/locale.h"
	.file 4 "C:/Qt/Tools/mingw1530_64/x86_64-w64-mingw32/include/stddef.h"
	.file 5 "C:/Qt/Tools/mingw1530_64/x86_64-w64-mingw32/include/wchar.h"
	.file 6 "C:/Qt/Tools/mingw1530_64/include/c++/15.3.0/cwchar"
	.file 7 "C:/Qt/Tools/mingw1530_64/include/c++/15.3.0/x86_64-w64-mingw32/bits/c++config.h"
	.file 8 "C:/Qt/Tools/mingw1530_64/include/c++/15.3.0/type_traits"
	.file 9 "C:/Qt/Tools/mingw1530_64/include/c++/15.3.0/bits/exception_ptr.h"
	.file 10 "C:/Qt/Tools/mingw1530_64/include/c++/15.3.0/concepts"
	.file 11 "C:/Qt/Tools/mingw1530_64/include/c++/15.3.0/bits/iterator_concepts.h"
	.file 12 "C:/Qt/Tools/mingw1530_64/include/c++/15.3.0/compare"
	.file 13 "C:/Qt/Tools/mingw1530_64/include/c++/15.3.0/span"
	.file 14 "C:/Qt/Tools/mingw1530_64/include/c++/15.3.0/bits/stl_iterator_base_types.h"
	.file 15 "C:/Qt/Tools/mingw1530_64/include/c++/15.3.0/bits/char_traits.h"
	.file 16 "C:/Qt/Tools/mingw1530_64/include/c++/15.3.0/clocale"
	.file 17 "C:/Qt/Tools/mingw1530_64/include/c++/15.3.0/debug/debug.h"
	.file 18 "C:/Qt/Tools/mingw1530_64/include/c++/15.3.0/numbers"
	.file 19 "C:/Qt/Tools/mingw1530_64/include/c++/15.3.0/cstdlib"
	.file 20 "C:/Qt/Tools/mingw1530_64/include/c++/15.3.0/cstdio"
	.file 21 "C:/Qt/Tools/mingw1530_64/include/c++/15.3.0/cstddef"
	.file 22 "C:/Qt/Tools/mingw1530_64/include/c++/15.3.0/bits/memory_resource.h"
	.file 23 "C:/Qt/Tools/mingw1530_64/include/c++/15.3.0/system_error"
	.file 24 "C:/Qt/Tools/mingw1530_64/include/c++/15.3.0/cwctype"
	.file 25 "C:/Qt/Tools/mingw1530_64/include/c++/15.3.0/charconv"
	.file 26 "C:/Qt/Tools/mingw1530_64/include/c++/15.3.0/x86_64-w64-mingw32/bits/error_constants.h"
	.file 27 "C:/Qt/Tools/mingw1530_64/include/c++/15.3.0/ctime"
	.file 28 "C:/Qt/Tools/mingw1530_64/include/c++/15.3.0/cstdint"
	.file 29 "C:/Qt/Tools/mingw1530_64/include/c++/15.3.0/bits/unicode.h"
	.file 30 "C:/Qt/Tools/mingw1530_64/include/c++/15.3.0/bits/stl_pair.h"
	.file 31 "C:/Qt/Tools/mingw1530_64/include/c++/15.3.0/bits/formatfwd.h"
	.file 32 "C:/Qt/Tools/mingw1530_64/include/c++/15.3.0/format"
	.file 33 "C:/Qt/Tools/mingw1530_64/include/c++/15.3.0/bits/stl_iterator.h"
	.file 34 "C:/Qt/Tools/mingw1530_64/include/c++/15.3.0/bits/ostream.h"
	.file 35 "C:/Qt/Tools/mingw1530_64/include/c++/15.3.0/iosfwd"
	.file 36 "C:/Qt/Tools/mingw1530_64/x86_64-w64-mingw32/include/swprintf.inl"
	.file 37 "C:/Qt/Tools/mingw1530_64/include/c++/15.3.0/bits/predefined_ops.h"
	.file 38 "C:/Qt/Tools/mingw1530_64/x86_64-w64-mingw32/include/stdio.h"
	.file 39 "C:/Qt/Tools/mingw1530_64/x86_64-w64-mingw32/include/time.h"
	.file 40 "C:/Qt/Tools/mingw1530_64/include/c++/15.3.0/bits/ptr_traits.h"
	.file 41 "C:/Qt/Tools/mingw1530_64/x86_64-w64-mingw32/include/stdlib.h"
	.file 42 "C:/Qt/Tools/mingw1530_64/x86_64-w64-mingw32/include/process.h"
	.file 43 "C:/Qt/Tools/mingw1530_64/x86_64-w64-mingw32/include/wctype.h"
	.file 44 "C:/Qt/Tools/mingw1530_64/x86_64-w64-mingw32/include/corecrt_wctype.h"
	.file 45 "C:/Qt/Tools/mingw1530_64/x86_64-w64-mingw32/include/stdint.h"
	.file 46 "C:/Qt/Tools/mingw1530_64/include/c++/15.3.0/bits/ranges_cmp.h"
	.file 47 "C:/Qt/Tools/mingw1530_64/include/c++/15.3.0/iostream"
	.section	.rdata$.refptr._ZSt4cout, "dr"
	.p2align	3, 0
	.globl	.refptr._ZSt4cout
	.linkonce	discard
.refptr._ZSt4cout:
	.quad	_ZSt4cout
