	.file	"_ch147_uninit.cpp"
	.intel_syntax noprefix
	.text
.Ltext0:
	.cfi_sections	.debug_frame
	.file 0 "C:/CodeLearnling/note/note/C++/CPP-Bible" "Examples/_ch147_uninit.cpp"
	.globl	_Z7computei
	.def	_Z7computei;	.scl	2;	.type	32;	.endef
	.seh_proc	_Z7computei
_Z7computei:
.LFB21:
	.file 1 "Examples/_ch147_uninit.cpp"
	.loc 1 2 23
	.cfi_startproc
	push	rbp
	.seh_pushreg	rbp
	.cfi_def_cfa_offset 16
	.cfi_offset 6, -16
	mov	rbp, rsp
	.seh_setframe	rbp, 0
	.cfi_def_cfa_register 6
	sub	rsp, 16
	.seh_stackalloc	16
	.seh_endprologue
	mov	DWORD PTR 16[rbp], ecx
	.loc 1 4 5
	cmp	DWORD PTR 16[rbp], 0
	jle	.L2
	.loc 1 4 26 discriminator 1
	mov	DWORD PTR -4[rbp], 1
.L2:
	.loc 1 5 12
	mov	eax, DWORD PTR -4[rbp]
	.loc 1 6 1
	add	rsp, 16
	pop	rbp
	.cfi_restore 6
	.cfi_def_cfa 7, 8
	ret
	.cfi_endproc
.LFE21:
	.seh_endproc
	.section .rdata,"dr"
.LC0:
	.ascii "%d\12\0"
	.text
	.globl	main
	.def	main;	.scl	2;	.type	32;	.endef
	.seh_proc	main
main:
.LFB22:
	.loc 1 7 12
	.cfi_startproc
	push	rbp
	.seh_pushreg	rbp
	.cfi_def_cfa_offset 16
	.cfi_offset 6, -16
	mov	rbp, rsp
	.seh_setframe	rbp, 0
	.cfi_def_cfa_register 6
	sub	rsp, 32
	.seh_stackalloc	32
	.seh_endprologue
	.loc 1 7 12
	call	__main
	.loc 1 7 25
	mov	ecx, 0
	call	_Z7computei
	mov	edx, eax
	.loc 1 7 25 is_stmt 0 discriminator 1
	lea	rax, .LC0[rip]
	mov	rcx, rax
	call	__mingw_printf
	.loc 1 7 47 is_stmt 1 discriminator 2
	mov	eax, 0
	.loc 1 7 47 is_stmt 0
	add	rsp, 32
	pop	rbp
	.cfi_restore 6
	.cfi_def_cfa 7, 8
	ret
	.cfi_endproc
.LFE22:
	.seh_endproc
.Letext0:
	.file 2 "C:/Qt/Tools/mingw1530_64/x86_64-w64-mingw32/include/stdio.h"
	.file 3 "C:/Qt/Tools/mingw1530_64/x86_64-w64-mingw32/include/corecrt.h"
	.file 4 "C:/Qt/Tools/mingw1530_64/include/c++/15.3.0/cstdio"
	.file 5 "C:/Qt/Tools/mingw1530_64/include/c++/15.3.0/x86_64-w64-mingw32/bits/c++config.h"