	.file	"_ch147_const.cpp"
	.intel_syntax noprefix
	.text
.Ltext0:
	.cfi_sections	.debug_frame
	.file 0 "C:/CodeLearnling/note/note/C++/CPP-Bible" "Examples/_ch147_const.cpp"
	.section	.text$_ZN3Vec3lenEv,"x"
	.linkonce discard
	.align 2
	.globl	_ZN3Vec3lenEv
	.def	_ZN3Vec3lenEv;	.scl	2;	.type	32;	.endef
	.seh_proc	_ZN3Vec3lenEv
_ZN3Vec3lenEv:
.LFB0:
	.file 1 "Examples/_ch147_const.cpp"
	.loc 1 1 37
	.cfi_startproc
	push	rbp
	.seh_pushreg	rbp
	.cfi_def_cfa_offset 16
	.cfi_offset 6, -16
	mov	rbp, rsp
	.seh_setframe	rbp, 0
	.cfi_def_cfa_register 6
	.seh_endprologue
	mov	QWORD PTR 16[rbp], rcx
	.loc 1 1 52
	mov	rax, QWORD PTR 16[rbp]
	movsd	xmm1, QWORD PTR [rax]
	.loc 1 1 54
	mov	rax, QWORD PTR 16[rbp]
	movsd	xmm0, QWORD PTR [rax]
	.loc 1 1 53
	mulsd	xmm1, xmm0
	.loc 1 1 56
	mov	rax, QWORD PTR 16[rbp]
	movsd	xmm2, QWORD PTR 8[rax]
	.loc 1 1 58
	mov	rax, QWORD PTR 16[rbp]
	movsd	xmm0, QWORD PTR 8[rax]
	.loc 1 1 57
	mulsd	xmm0, xmm2
	.loc 1 1 58
	addsd	xmm0, xmm1
	.loc 1 1 61
	pop	rbp
	.cfi_restore 6
	.cfi_def_cfa 7, 8
	ret
	.cfi_endproc
.LFE0:
	.seh_endproc
	.text
	.globl	main
	.def	main;	.scl	2;	.type	32;	.endef
	.seh_proc	main
main:
.LFB1:
	.loc 1 2 11
	.cfi_startproc
	push	rbp
	.seh_pushreg	rbp
	.cfi_def_cfa_offset 16
	.cfi_offset 6, -16
	mov	rbp, rsp
	.seh_setframe	rbp, 0
	.cfi_def_cfa_register 6
	sub	rsp, 48
	.seh_stackalloc	48
	.seh_endprologue
	.loc 1 2 11
	call	__main
	.loc 1 2 17
	pxor	xmm0, xmm0
	movsd	QWORD PTR -16[rbp], xmm0
	pxor	xmm0, xmm0
	movsd	QWORD PTR -8[rbp], xmm0
	.loc 1 2 31
	lea	rax, -16[rbp]
	mov	rcx, rax
	call	_ZN3Vec3lenEv
	.loc 1 2 35
	mov	eax, 0
	add	rsp, 48
	pop	rbp
	.cfi_restore 6
	.cfi_def_cfa 7, 8
	ret
	.cfi_endproc
.LFE1:
	.seh_endproc
.Letext0: