	.file	"_ch142_archetype.cpp"
	.intel_syntax noprefix
	.text
.Ltext0:
	.cfi_sections	.debug_frame
	.file 0 "C:/CodeLearnling/note/note/C++/CPP-Bible" "Examples/_ch142_archetype.cpp"
	.section	.text$_ZSt21is_constant_evaluatedv,"x"
	.linkonce discard
	.globl	_ZSt21is_constant_evaluatedv
	.def	_ZSt21is_constant_evaluatedv;	.scl	2;	.type	32;	.endef
	.seh_proc	_ZSt21is_constant_evaluatedv
_ZSt21is_constant_evaluatedv:
.LFB29:
	.file 1 "C:/Qt/Tools/mingw1530_64/include/c++/15.3.0/type_traits"
	.loc 1 4008 3
	.cfi_startproc
	push	rbp
	.seh_pushreg	rbp
	.cfi_def_cfa_offset 16
	.cfi_offset 6, -16
	mov	rbp, rsp
	.seh_setframe	rbp, 0
	.cfi_def_cfa_register 6
	.seh_endprologue
	.loc 1 4010 49
	mov	eax, 0
	.loc 1 4014 3
	pop	rbp
	.cfi_restore 6
	.cfi_def_cfa 7, 8
	ret
	.cfi_endproc
.LFE29:
	.seh_endproc
	.section	.text$_ZnwyPv,"x"
	.linkonce discard
	.globl	_ZnwyPv
	.def	_ZnwyPv;	.scl	2;	.type	32;	.endef
	.seh_proc	_ZnwyPv
_ZnwyPv:
.LFB234:
	.file 2 "C:/Qt/Tools/mingw1530_64/include/c++/15.3.0/new"
	.loc 2 208 1
	.cfi_startproc
	push	rbp
	.seh_pushreg	rbp
	.cfi_def_cfa_offset 16
	.cfi_offset 6, -16
	mov	rbp, rsp
	.seh_setframe	rbp, 0
	.cfi_def_cfa_register 6
	.seh_endprologue
	mov	QWORD PTR 16[rbp], rcx
	mov	QWORD PTR 24[rbp], rdx
	.loc 2 208 10
	mov	rax, QWORD PTR 24[rbp]
	.loc 2 208 15
	pop	rbp
	.cfi_restore 6
	.cfi_def_cfa 7, 8
	ret
	.cfi_endproc
.LFE234:
	.seh_endproc
	.section	.text$_ZdlPvS_,"x"
	.linkonce discard
	.globl	_ZdlPvS_
	.def	_ZdlPvS_;	.scl	2;	.type	32;	.endef
	.seh_proc	_ZdlPvS_
_ZdlPvS_:
.LFB236:
	.loc 2 219 1
	.cfi_startproc
	push	rbp
	.seh_pushreg	rbp
	.cfi_def_cfa_offset 16
	.cfi_offset 6, -16
	mov	rbp, rsp
	.seh_setframe	rbp, 0
	.cfi_def_cfa_register 6
	.seh_endprologue
	mov	QWORD PTR 16[rbp], rcx
	mov	QWORD PTR 24[rbp], rdx
	.loc 2 219 3
	nop
	pop	rbp
	.cfi_restore 6
	.cfi_def_cfa 7, 8
	ret
	.cfi_endproc
.LFE236:
	.seh_endproc
	.section	.text$_ZSt17__size_to_integery,"x"
	.linkonce discard
	.globl	_ZSt17__size_to_integery
	.def	_ZSt17__size_to_integery;	.scl	2;	.type	32;	.endef
	.seh_proc	_ZSt17__size_to_integery
_ZSt17__size_to_integery:
.LFB578:
	.file 3 "C:/Qt/Tools/mingw1530_64/include/c++/15.3.0/bits/stl_algobase.h"
	.loc 3 1028 45
	.cfi_startproc
	push	rbp
	.seh_pushreg	rbp
	.cfi_def_cfa_offset 16
	.cfi_offset 6, -16
	mov	rbp, rsp
	.seh_setframe	rbp, 0
	.cfi_def_cfa_register 6
	.seh_endprologue
	mov	QWORD PTR 16[rbp], rcx
	.loc 3 1028 54
	mov	rax, QWORD PTR 16[rbp]
	.loc 3 1028 59
	pop	rbp
	.cfi_restore 6
	.cfi_def_cfa 7, 8
	ret
	.cfi_endproc
.LFE578:
	.seh_endproc
	.section	.text$_ZNSt14_Bit_referenceC1EPmm,"x"
	.linkonce discard
	.align 2
	.globl	_ZNSt14_Bit_referenceC1EPmm
	.def	_ZNSt14_Bit_referenceC1EPmm;	.scl	2;	.type	32;	.endef
	.seh_proc	_ZNSt14_Bit_referenceC1EPmm
_ZNSt14_Bit_referenceC1EPmm:
.LFB1145:
	.file 4 "C:/Qt/Tools/mingw1530_64/include/c++/15.3.0/bits/stl_bvector.h"
	.loc 4 96 5
	.cfi_startproc
	push	rbp
	.seh_pushreg	rbp
	.cfi_def_cfa_offset 16
	.cfi_offset 6, -16
	mov	rbp, rsp
	.seh_setframe	rbp, 0
	.cfi_def_cfa_register 6
	.seh_endprologue
	mov	QWORD PTR 16[rbp], rcx
	mov	QWORD PTR 24[rbp], rdx
	mov	DWORD PTR 32[rbp], r8d
.LBB330:
	.loc 4 97 7
	mov	rax, QWORD PTR 16[rbp]
	mov	rdx, QWORD PTR 24[rbp]
	mov	QWORD PTR [rax], rdx
	.loc 4 97 18
	mov	rax, QWORD PTR 16[rbp]
	mov	edx, DWORD PTR 32[rbp]
	mov	DWORD PTR 8[rax], edx
.LBE330:
	.loc 4 97 33
	nop
	pop	rbp
	.cfi_restore 6
	.cfi_def_cfa 7, 8
	ret
	.cfi_endproc
.LFE1145:
	.seh_endproc
	.section	.text$_ZNKSt14_Bit_referencecvbEv,"x"
	.linkonce discard
	.align 2
	.globl	_ZNKSt14_Bit_referencecvbEv
	.def	_ZNKSt14_Bit_referencecvbEv;	.scl	2;	.type	32;	.endef
	.seh_proc	_ZNKSt14_Bit_referencecvbEv
_ZNKSt14_Bit_referencecvbEv:
.LFB1146:
	.loc 4 105 5
	.cfi_startproc
	push	rbp
	.seh_pushreg	rbp
	.cfi_def_cfa_offset 16
	.cfi_offset 6, -16
	mov	rbp, rsp
	.seh_setframe	rbp, 0
	.cfi_def_cfa_register 6
	.seh_endprologue
	mov	QWORD PTR 16[rbp], rcx
	.loc 4 106 18
	mov	rax, QWORD PTR 16[rbp]
	mov	rax, QWORD PTR [rax]
	.loc 4 106 17
	mov	edx, DWORD PTR [rax]
	.loc 4 106 25
	mov	rax, QWORD PTR 16[rbp]
	mov	eax, DWORD PTR 8[rax]
	.loc 4 106 23
	and	eax, edx
	.loc 4 106 32
	test	eax, eax
	setne	al
	.loc 4 106 35
	pop	rbp
	.cfi_restore 6
	.cfi_def_cfa 7, 8
	ret
	.cfi_endproc
.LFE1146:
	.seh_endproc
	.section	.text$_ZNSt14_Bit_referenceaSEb,"x"
	.linkonce discard
	.align 2
	.globl	_ZNSt14_Bit_referenceaSEb
	.def	_ZNSt14_Bit_referenceaSEb;	.scl	2;	.type	32;	.endef
	.seh_proc	_ZNSt14_Bit_referenceaSEb
_ZNSt14_Bit_referenceaSEb:
.LFB1147:
	.loc 4 110 5
	.cfi_startproc
	push	rbp
	.seh_pushreg	rbp
	.cfi_def_cfa_offset 16
	.cfi_offset 6, -16
	mov	rbp, rsp
	.seh_setframe	rbp, 0
	.cfi_def_cfa_register 6
	.seh_endprologue
	mov	QWORD PTR 16[rbp], rcx
	mov	eax, edx
	mov	BYTE PTR 24[rbp], al
	.loc 4 112 7
	cmp	BYTE PTR 24[rbp], 0
	je	.L12
	.loc 4 113 3
	mov	rax, QWORD PTR 16[rbp]
	mov	rax, QWORD PTR [rax]
	.loc 4 113 2
	mov	ecx, DWORD PTR [rax]
	.loc 4 113 11
	mov	rax, QWORD PTR 16[rbp]
	mov	edx, DWORD PTR 8[rax]
	.loc 4 113 3
	mov	rax, QWORD PTR 16[rbp]
	mov	rax, QWORD PTR [rax]
	.loc 4 113 8
	or	edx, ecx
	mov	DWORD PTR [rax], edx
	jmp	.L13
.L12:
	.loc 4 115 3
	mov	rax, QWORD PTR 16[rbp]
	mov	rax, QWORD PTR [rax]
	.loc 4 115 2
	mov	edx, DWORD PTR [rax]
	.loc 4 115 12
	mov	rax, QWORD PTR 16[rbp]
	mov	eax, DWORD PTR 8[rax]
	.loc 4 115 11
	not	eax
	mov	ecx, eax
	.loc 4 115 3
	mov	rax, QWORD PTR 16[rbp]
	mov	rax, QWORD PTR [rax]
	.loc 4 115 8
	and	edx, ecx
	mov	DWORD PTR [rax], edx
.L13:
	.loc 4 116 15
	mov	rax, QWORD PTR 16[rbp]
	.loc 4 117 5
	pop	rbp
	.cfi_restore 6
	.cfi_def_cfa 7, 8
	ret
	.cfi_endproc
.LFE1147:
	.seh_endproc
	.section	.text$_ZNSt14_Bit_referenceaSERKS_,"x"
	.linkonce discard
	.align 2
	.globl	_ZNSt14_Bit_referenceaSERKS_
	.def	_ZNSt14_Bit_referenceaSERKS_;	.scl	2;	.type	32;	.endef
	.seh_proc	_ZNSt14_Bit_referenceaSERKS_
_ZNSt14_Bit_referenceaSERKS_:
.LFB1149:
	.loc 4 133 5
	.cfi_startproc
	push	rbp
	.seh_pushreg	rbp
	.cfi_def_cfa_offset 16
	.cfi_offset 6, -16
	mov	rbp, rsp
	.seh_setframe	rbp, 0
	.cfi_def_cfa_register 6
	sub	rsp, 32
	.seh_stackalloc	32
	.seh_endprologue
	mov	QWORD PTR 16[rbp], rcx
	mov	QWORD PTR 24[rbp], rdx
	.loc 4 134 22
	mov	rax, QWORD PTR 24[rbp]
	mov	rcx, rax
	call	_ZNKSt14_Bit_referencecvbEv
	.loc 4 134 30 discriminator 1
	movzx	edx, al
	mov	rax, QWORD PTR 16[rbp]
	mov	rcx, rax
	call	_ZNSt14_Bit_referenceaSEb
	.loc 4 134 33
	add	rsp, 32
	pop	rbp
	.cfi_restore 6
	.cfi_def_cfa 7, 8
	ret
	.cfi_endproc
.LFE1149:
	.seh_endproc
	.section	.text$_ZNSt18_Bit_iterator_baseC2EPmj,"x"
	.linkonce discard
	.align 2
	.globl	_ZNSt18_Bit_iterator_baseC2EPmj
	.def	_ZNSt18_Bit_iterator_baseC2EPmj;	.scl	2;	.type	32;	.endef
	.seh_proc	_ZNSt18_Bit_iterator_baseC2EPmj
_ZNSt18_Bit_iterator_baseC2EPmj:
.LFB1158:
	.loc 4 201 5
	.cfi_startproc
	push	rbp
	.seh_pushreg	rbp
	.cfi_def_cfa_offset 16
	.cfi_offset 6, -16
	mov	rbp, rsp
	.seh_setframe	rbp, 0
	.cfi_def_cfa_register 6
	.seh_endprologue
	mov	QWORD PTR 16[rbp], rcx
	mov	QWORD PTR 24[rbp], rdx
	mov	DWORD PTR 32[rbp], r8d
.LBB331:
	.loc 4 202 7
	mov	rax, QWORD PTR 16[rbp]
	mov	rdx, QWORD PTR 24[rbp]
	mov	QWORD PTR [rax], rdx
	.loc 4 202 18
	mov	rax, QWORD PTR 16[rbp]
	mov	edx, DWORD PTR 32[rbp]
	mov	DWORD PTR 8[rax], edx
.LBE331:
	.loc 4 202 35
	nop
	pop	rbp
	.cfi_restore 6
	.cfi_def_cfa 7, 8
	ret
	.cfi_endproc
.LFE1158:
	.seh_endproc
	.section	.text$_ZNSt18_Bit_iterator_base10_M_bump_upEv,"x"
	.linkonce discard
	.align 2
	.globl	_ZNSt18_Bit_iterator_base10_M_bump_upEv
	.def	_ZNSt18_Bit_iterator_base10_M_bump_upEv;	.scl	2;	.type	32;	.endef
	.seh_proc	_ZNSt18_Bit_iterator_base10_M_bump_upEv
_ZNSt18_Bit_iterator_base10_M_bump_upEv:
.LFB1160:
	.loc 4 206 5
	.cfi_startproc
	push	rbp
	.seh_pushreg	rbp
	.cfi_def_cfa_offset 16
	.cfi_offset 6, -16
	mov	rbp, rsp
	.seh_setframe	rbp, 0
	.cfi_def_cfa_register 6
	sub	rsp, 16
	.seh_stackalloc	16
	.seh_endprologue
	mov	QWORD PTR 16[rbp], rcx
	mov	rax, QWORD PTR 16[rbp]
	mov	QWORD PTR -8[rbp], rax
.LBB332:
.LBB333:
	.loc 4 195 20
	mov	rax, QWORD PTR -8[rbp]
	mov	eax, DWORD PTR 8[rax]
	mov	DWORD PTR -12[rbp], eax
	.loc 4 196 7
	cmp	DWORD PTR -12[rbp], 31
	.loc 4 198 5
	nop
.LBE333:
.LBE332:
	.loc 4 209 11
	mov	rax, QWORD PTR 16[rbp]
	mov	eax, DWORD PTR 8[rax]
	.loc 4 209 20
	lea	ecx, 1[rax]
	mov	rdx, QWORD PTR 16[rbp]
	mov	DWORD PTR 8[rdx], ecx
	.loc 4 209 23
	cmp	eax, 31
	sete	al
	.loc 4 209 7
	test	al, al
	je	.L22
	.loc 4 211 14
	mov	rax, QWORD PTR 16[rbp]
	mov	DWORD PTR 8[rax], 0
	.loc 4 212 6
	mov	rax, QWORD PTR 16[rbp]
	mov	rax, QWORD PTR [rax]
	.loc 4 212 4
	lea	rdx, 4[rax]
	mov	rax, QWORD PTR 16[rbp]
	mov	QWORD PTR [rax], rdx
.L22:
	.loc 4 214 5
	nop
	add	rsp, 16
	pop	rbp
	.cfi_restore 6
	.cfi_def_cfa 7, 8
	ret
	.cfi_endproc
.LFE1160:
	.seh_endproc
	.section	.text$_ZNSt18_Bit_iterator_base12_M_bump_downEv,"x"
	.linkonce discard
	.align 2
	.globl	_ZNSt18_Bit_iterator_base12_M_bump_downEv
	.def	_ZNSt18_Bit_iterator_base12_M_bump_downEv;	.scl	2;	.type	32;	.endef
	.seh_proc	_ZNSt18_Bit_iterator_base12_M_bump_downEv
_ZNSt18_Bit_iterator_base12_M_bump_downEv:
.LFB1161:
	.loc 4 218 5
	.cfi_startproc
	push	rbp
	.seh_pushreg	rbp
	.cfi_def_cfa_offset 16
	.cfi_offset 6, -16
	mov	rbp, rsp
	.seh_setframe	rbp, 0
	.cfi_def_cfa_register 6
	sub	rsp, 16
	.seh_stackalloc	16
	.seh_endprologue
	mov	QWORD PTR 16[rbp], rcx
	mov	rax, QWORD PTR 16[rbp]
	mov	QWORD PTR -8[rbp], rax
.LBB334:
.LBB335:
	.loc 4 195 20
	mov	rax, QWORD PTR -8[rbp]
	mov	eax, DWORD PTR 8[rax]
	mov	DWORD PTR -12[rbp], eax
	.loc 4 196 7
	cmp	DWORD PTR -12[rbp], 31
	.loc 4 198 5
	nop
.LBE335:
.LBE334:
	.loc 4 221 11
	mov	rax, QWORD PTR 16[rbp]
	mov	eax, DWORD PTR 8[rax]
	.loc 4 221 20
	lea	ecx, -1[rax]
	mov	rdx, QWORD PTR 16[rbp]
	mov	DWORD PTR 8[rdx], ecx
	.loc 4 221 23
	test	eax, eax
	sete	al
	.loc 4 221 7
	test	al, al
	je	.L27
	.loc 4 223 14
	mov	rax, QWORD PTR 16[rbp]
	mov	DWORD PTR 8[rax], 31
	.loc 4 224 6
	mov	rax, QWORD PTR 16[rbp]
	mov	rax, QWORD PTR [rax]
	.loc 4 224 4
	lea	rdx, -4[rax]
	mov	rax, QWORD PTR 16[rbp]
	mov	QWORD PTR [rax], rdx
.L27:
	.loc 4 226 5
	nop
	add	rsp, 16
	pop	rbp
	.cfi_restore 6
	.cfi_def_cfa 7, 8
	ret
	.cfi_endproc
.LFE1161:
	.seh_endproc
	.section	.text$_ZNSt18_Bit_iterator_base7_M_incrEx,"x"
	.linkonce discard
	.align 2
	.globl	_ZNSt18_Bit_iterator_base7_M_incrEx
	.def	_ZNSt18_Bit_iterator_base7_M_incrEx;	.scl	2;	.type	32;	.endef
	.seh_proc	_ZNSt18_Bit_iterator_base7_M_incrEx
_ZNSt18_Bit_iterator_base7_M_incrEx:
.LFB1162:
	.loc 4 230 5
	.cfi_startproc
	push	rbp
	.seh_pushreg	rbp
	.cfi_def_cfa_offset 16
	.cfi_offset 6, -16
	mov	rbp, rsp
	.seh_setframe	rbp, 0
	.cfi_def_cfa_register 6
	sub	rsp, 32
	.seh_stackalloc	32
	.seh_endprologue
	mov	QWORD PTR 16[rbp], rcx
	mov	QWORD PTR 24[rbp], rdx
	mov	rax, QWORD PTR 16[rbp]
	mov	QWORD PTR -16[rbp], rax
.LBB336:
.LBB337:
	.loc 4 195 20
	mov	rax, QWORD PTR -16[rbp]
	mov	eax, DWORD PTR 8[rax]
	mov	DWORD PTR -20[rbp], eax
	.loc 4 196 7
	cmp	DWORD PTR -20[rbp], 31
	.loc 4 198 5
	nop
.LBE337:
.LBE336:
	.loc 4 233 35
	mov	rax, QWORD PTR 16[rbp]
	mov	eax, DWORD PTR 8[rax]
	mov	edx, eax
	.loc 4 233 23
	mov	rax, QWORD PTR 24[rbp]
	add	rax, rdx
	mov	QWORD PTR -8[rbp], rax
	.loc 4 234 7
	mov	rax, QWORD PTR 16[rbp]
	mov	rdx, QWORD PTR [rax]
	.loc 4 234 19
	mov	rax, QWORD PTR -8[rbp]
	lea	rcx, 31[rax]
	test	rax, rax
	cmovs	rax, rcx
	sar	rax, 5
	.loc 4 234 12
	sal	rax, 2
	add	rdx, rax
	mov	rax, QWORD PTR 16[rbp]
	mov	QWORD PTR [rax], rdx
	.loc 4 235 11
	mov	rdx, QWORD PTR -8[rbp]
	mov	rax, rdx
	sar	rax, 63
	shr	rax, 59
	add	rdx, rax
	and	edx, 31
	sub	rdx, rax
	mov	QWORD PTR -8[rbp], rdx
	.loc 4 236 7
	cmp	QWORD PTR -8[rbp], 0
	jns	.L30
	.loc 4 238 8
	add	QWORD PTR -8[rbp], 32
	.loc 4 239 6
	mov	rax, QWORD PTR 16[rbp]
	mov	rax, QWORD PTR [rax]
	.loc 4 239 4
	lea	rdx, -4[rax]
	mov	rax, QWORD PTR 16[rbp]
	mov	QWORD PTR [rax], rdx
.L30:
	.loc 4 241 17
	mov	rax, QWORD PTR -8[rbp]
	mov	edx, eax
	mov	rax, QWORD PTR 16[rbp]
	mov	DWORD PTR 8[rax], edx
	.loc 4 242 5
	nop
	add	rsp, 32
	pop	rbp
	.cfi_restore 6
	.cfi_def_cfa 7, 8
	ret
	.cfi_endproc
.LFE1162:
	.seh_endproc
	.section	.text$_ZSteqRKSt18_Bit_iterator_baseS1_,"x"
	.linkonce discard
	.globl	_ZSteqRKSt18_Bit_iterator_baseS1_
	.def	_ZSteqRKSt18_Bit_iterator_baseS1_;	.scl	2;	.type	32;	.endef
	.seh_proc	_ZSteqRKSt18_Bit_iterator_baseS1_
_ZSteqRKSt18_Bit_iterator_baseS1_:
.LFB1163:
	.loc 4 246 5
	.cfi_startproc
	push	rbp
	.seh_pushreg	rbp
	.cfi_def_cfa_offset 16
	.cfi_offset 6, -16
	mov	rbp, rsp
	.seh_setframe	rbp, 0
	.cfi_def_cfa_register 6
	sub	rsp, 32
	.seh_stackalloc	32
	.seh_endprologue
	mov	QWORD PTR 16[rbp], rcx
	mov	QWORD PTR 24[rbp], rdx
	mov	rax, QWORD PTR 16[rbp]
	mov	QWORD PTR -24[rbp], rax
.LBB338:
.LBB339:
	.loc 4 195 20
	mov	rax, QWORD PTR -24[rbp]
	mov	eax, DWORD PTR 8[rax]
	mov	DWORD PTR -28[rbp], eax
	.loc 4 196 7
	cmp	DWORD PTR -28[rbp], 31
	.loc 4 198 5
	nop
	mov	rax, QWORD PTR 24[rbp]
	mov	QWORD PTR -8[rbp], rax
.LBE339:
.LBE338:
.LBB340:
.LBB341:
	.loc 4 195 20
	mov	rax, QWORD PTR -8[rbp]
	mov	eax, DWORD PTR 8[rax]
	mov	DWORD PTR -12[rbp], eax
	.loc 4 196 7
	cmp	DWORD PTR -12[rbp], 31
	.loc 4 198 5
	nop
.LBE341:
.LBE340:
	.loc 4 250 18
	mov	rax, QWORD PTR 16[rbp]
	mov	rdx, QWORD PTR [rax]
	.loc 4 250 30
	mov	rax, QWORD PTR 24[rbp]
	mov	rax, QWORD PTR [rax]
	.loc 4 250 35
	cmp	rdx, rax
	jne	.L35
	.loc 4 250 42 discriminator 1
	mov	rax, QWORD PTR 16[rbp]
	mov	edx, DWORD PTR 8[rax]
	.loc 4 250 59 discriminator 1
	mov	rax, QWORD PTR 24[rbp]
	mov	eax, DWORD PTR 8[rax]
	.loc 4 250 35 discriminator 1
	cmp	edx, eax
	jne	.L35
	.loc 4 250 35 is_stmt 0 discriminator 3
	mov	eax, 1
	.loc 4 250 35
	jmp	.L36
.L35:
	.loc 4 250 35 discriminator 4
	mov	eax, 0
.L36:
	.loc 4 251 5 is_stmt 1
	add	rsp, 32
	pop	rbp
	.cfi_restore 6
	.cfi_def_cfa 7, 8
	ret
	.cfi_endproc
.LFE1163:
	.seh_endproc
	.section	.text$_ZStmiRKSt18_Bit_iterator_baseS1_,"x"
	.linkonce discard
	.globl	_ZStmiRKSt18_Bit_iterator_baseS1_
	.def	_ZStmiRKSt18_Bit_iterator_baseS1_;	.scl	2;	.type	32;	.endef
	.seh_proc	_ZStmiRKSt18_Bit_iterator_baseS1_
_ZStmiRKSt18_Bit_iterator_baseS1_:
.LFB1165:
	.loc 4 298 5
	.cfi_startproc
	push	rbp
	.seh_pushreg	rbp
	.cfi_def_cfa_offset 16
	.cfi_offset 6, -16
	mov	rbp, rsp
	.seh_setframe	rbp, 0
	.cfi_def_cfa_register 6
	sub	rsp, 32
	.seh_stackalloc	32
	.seh_endprologue
	mov	QWORD PTR 16[rbp], rcx
	mov	QWORD PTR 24[rbp], rdx
	mov	rax, QWORD PTR 16[rbp]
	mov	QWORD PTR -24[rbp], rax
.LBB342:
.LBB343:
	.loc 4 195 20
	mov	rax, QWORD PTR -24[rbp]
	mov	eax, DWORD PTR 8[rax]
	mov	DWORD PTR -28[rbp], eax
	.loc 4 196 7
	cmp	DWORD PTR -28[rbp], 31
	.loc 4 198 5
	nop
	mov	rax, QWORD PTR 24[rbp]
	mov	QWORD PTR -8[rbp], rax
.LBE343:
.LBE342:
.LBB344:
.LBB345:
	.loc 4 195 20
	mov	rax, QWORD PTR -8[rbp]
	mov	eax, DWORD PTR 8[rax]
	mov	DWORD PTR -12[rbp], eax
	.loc 4 196 7
	cmp	DWORD PTR -12[rbp], 31
	.loc 4 198 5
	nop
.LBE345:
.LBE344:
	.loc 4 302 39
	mov	rax, QWORD PTR 16[rbp]
	mov	rdx, QWORD PTR [rax]
	.loc 4 302 50
	mov	rax, QWORD PTR 24[rbp]
	mov	rax, QWORD PTR [rax]
	.loc 4 302 44
	sub	rdx, rax
	.loc 4 302 32
	sal	rdx, 3
	.loc 4 303 14
	mov	rax, QWORD PTR 16[rbp]
	mov	eax, DWORD PTR 8[rax]
	mov	eax, eax
	.loc 4 303 8
	add	rdx, rax
	.loc 4 303 30
	mov	rax, QWORD PTR 24[rbp]
	mov	eax, DWORD PTR 8[rax]
	mov	ecx, eax
	.loc 4 303 39
	mov	rax, rdx
	sub	rax, rcx
	.loc 4 304 5
	add	rsp, 32
	pop	rbp
	.cfi_restore 6
	.cfi_def_cfa 7, 8
	ret
	.cfi_endproc
.LFE1165:
	.seh_endproc
	.section	.text$_ZNSt13_Bit_iteratorC1Ev,"x"
	.linkonce discard
	.align 2
	.globl	_ZNSt13_Bit_iteratorC1Ev
	.def	_ZNSt13_Bit_iteratorC1Ev;	.scl	2;	.type	32;	.endef
	.seh_proc	_ZNSt13_Bit_iteratorC1Ev
_ZNSt13_Bit_iteratorC1Ev:
.LFB1168:
	.loc 4 319 5
	.cfi_startproc
	push	rbp
	.seh_pushreg	rbp
	.cfi_def_cfa_offset 16
	.cfi_offset 6, -16
	mov	rbp, rsp
	.seh_setframe	rbp, 0
	.cfi_def_cfa_register 6
	sub	rsp, 32
	.seh_stackalloc	32
	.seh_endprologue
	mov	QWORD PTR 16[rbp], rcx
.LBB346:
	.loc 4 319 46
	mov	rax, QWORD PTR 16[rbp]
	mov	r8d, 0
	mov	edx, 0
	mov	rcx, rax
	call	_ZNSt18_Bit_iterator_baseC2EPmj
.LBE346:
	.loc 4 319 50
	nop
	add	rsp, 32
	pop	rbp
	.cfi_restore 6
	.cfi_def_cfa 7, 8
	ret
	.cfi_endproc
.LFE1168:
	.seh_endproc
	.section	.text$_ZNSt13_Bit_iteratorC1EPmj,"x"
	.linkonce discard
	.align 2
	.globl	_ZNSt13_Bit_iteratorC1EPmj
	.def	_ZNSt13_Bit_iteratorC1EPmj;	.scl	2;	.type	32;	.endef
	.seh_proc	_ZNSt13_Bit_iteratorC1EPmj
_ZNSt13_Bit_iteratorC1EPmj:
.LFB1171:
	.loc 4 322 5
	.cfi_startproc
	push	rbp
	.seh_pushreg	rbp
	.cfi_def_cfa_offset 16
	.cfi_offset 6, -16
	mov	rbp, rsp
	.seh_setframe	rbp, 0
	.cfi_def_cfa_register 6
	sub	rsp, 32
	.seh_stackalloc	32
	.seh_endprologue
	mov	QWORD PTR 16[rbp], rcx
	mov	QWORD PTR 24[rbp], rdx
	mov	DWORD PTR 32[rbp], r8d
.LBB347:
	.loc 4 323 34
	mov	rax, QWORD PTR 16[rbp]
	mov	ecx, DWORD PTR 32[rbp]
	mov	rdx, QWORD PTR 24[rbp]
	mov	r8d, ecx
	mov	rcx, rax
	call	_ZNSt18_Bit_iterator_baseC2EPmj
.LBE347:
	.loc 4 323 38
	nop
	add	rsp, 32
	pop	rbp
	.cfi_restore 6
	.cfi_def_cfa 7, 8
	ret
	.cfi_endproc
.LFE1171:
	.seh_endproc
	.section	.text$_ZNKSt13_Bit_iteratordeEv,"x"
	.linkonce discard
	.align 2
	.globl	_ZNKSt13_Bit_iteratordeEv
	.def	_ZNKSt13_Bit_iteratordeEv;	.scl	2;	.type	32;	.endef
	.seh_proc	_ZNKSt13_Bit_iteratordeEv
_ZNKSt13_Bit_iteratordeEv:
.LFB1173:
	.loc 4 332 5
	.cfi_startproc
	push	rbp
	.seh_pushreg	rbp
	.cfi_def_cfa_offset 16
	.cfi_offset 6, -16
	mov	rbp, rsp
	.seh_setframe	rbp, 0
	.cfi_def_cfa_register 6
	sub	rsp, 48
	.seh_stackalloc	48
	.seh_endprologue
	mov	QWORD PTR 16[rbp], rcx
	mov	QWORD PTR 24[rbp], rdx
	.loc 4 334 27
	mov	rax, QWORD PTR 24[rbp]
	mov	QWORD PTR -8[rbp], rax
.LBB348:
.LBB349:
	.loc 4 195 20
	mov	rax, QWORD PTR -8[rbp]
	mov	eax, DWORD PTR 8[rax]
	mov	DWORD PTR -12[rbp], eax
	.loc 4 196 7
	cmp	DWORD PTR -12[rbp], 31
	.loc 4 198 5
	nop
.LBE349:
.LBE348:
	.loc 4 335 37
	mov	rax, QWORD PTR 24[rbp]
	mov	eax, DWORD PTR 8[rax]
	.loc 4 335 46
	mov	edx, 1
	mov	ecx, eax
	sal	edx, cl
	mov	ecx, edx
	.loc 4 335 24
	mov	rax, QWORD PTR 24[rbp]
	mov	rdx, QWORD PTR [rax]
	.loc 4 335 46
	mov	rax, QWORD PTR 16[rbp]
	mov	r8d, ecx
	mov	rcx, rax
	call	_ZNSt14_Bit_referenceC1EPmm
	.loc 4 336 5
	mov	rax, QWORD PTR 16[rbp]
	add	rsp, 48
	pop	rbp
	.cfi_restore 6
	.cfi_def_cfa 7, 8
	ret
	.cfi_endproc
.LFE1173:
	.seh_endproc
	.section	.text$_ZNSt13_Bit_iteratorppEv,"x"
	.linkonce discard
	.align 2
	.globl	_ZNSt13_Bit_iteratorppEv
	.def	_ZNSt13_Bit_iteratorppEv;	.scl	2;	.type	32;	.endef
	.seh_proc	_ZNSt13_Bit_iteratorppEv
_ZNSt13_Bit_iteratorppEv:
.LFB1174:
	.loc 4 340 5
	.cfi_startproc
	push	rbp
	.seh_pushreg	rbp
	.cfi_def_cfa_offset 16
	.cfi_offset 6, -16
	mov	rbp, rsp
	.seh_setframe	rbp, 0
	.cfi_def_cfa_register 6
	sub	rsp, 32
	.seh_stackalloc	32
	.seh_endprologue
	mov	QWORD PTR 16[rbp], rcx
	.loc 4 342 17
	mov	rax, QWORD PTR 16[rbp]
	mov	rcx, rax
	call	_ZNSt18_Bit_iterator_base10_M_bump_upEv
	.loc 4 343 15
	mov	rax, QWORD PTR 16[rbp]
	.loc 4 344 5
	add	rsp, 32
	pop	rbp
	.cfi_restore 6
	.cfi_def_cfa 7, 8
	ret
	.cfi_endproc
.LFE1174:
	.seh_endproc
	.section	.text$_ZNSt13_Bit_iteratormmEv,"x"
	.linkonce discard
	.align 2
	.globl	_ZNSt13_Bit_iteratormmEv
	.def	_ZNSt13_Bit_iteratormmEv;	.scl	2;	.type	32;	.endef
	.seh_proc	_ZNSt13_Bit_iteratormmEv
_ZNSt13_Bit_iteratormmEv:
.LFB1176:
	.loc 4 357 5
	.cfi_startproc
	push	rbp
	.seh_pushreg	rbp
	.cfi_def_cfa_offset 16
	.cfi_offset 6, -16
	mov	rbp, rsp
	.seh_setframe	rbp, 0
	.cfi_def_cfa_register 6
	sub	rsp, 32
	.seh_stackalloc	32
	.seh_endprologue
	mov	QWORD PTR 16[rbp], rcx
	.loc 4 359 19
	mov	rax, QWORD PTR 16[rbp]
	mov	rcx, rax
	call	_ZNSt18_Bit_iterator_base12_M_bump_downEv
	.loc 4 360 15
	mov	rax, QWORD PTR 16[rbp]
	.loc 4 361 5
	add	rsp, 32
	pop	rbp
	.cfi_restore 6
	.cfi_def_cfa 7, 8
	ret
	.cfi_endproc
.LFE1176:
	.seh_endproc
	.section	.text$_ZNSt13_Bit_iteratorpLEx,"x"
	.linkonce discard
	.align 2
	.globl	_ZNSt13_Bit_iteratorpLEx
	.def	_ZNSt13_Bit_iteratorpLEx;	.scl	2;	.type	32;	.endef
	.seh_proc	_ZNSt13_Bit_iteratorpLEx
_ZNSt13_Bit_iteratorpLEx:
.LFB1178:
	.loc 4 374 5
	.cfi_startproc
	push	rbp
	.seh_pushreg	rbp
	.cfi_def_cfa_offset 16
	.cfi_offset 6, -16
	mov	rbp, rsp
	.seh_setframe	rbp, 0
	.cfi_def_cfa_register 6
	sub	rsp, 32
	.seh_stackalloc	32
	.seh_endprologue
	mov	QWORD PTR 16[rbp], rcx
	mov	QWORD PTR 24[rbp], rdx
	.loc 4 376 14
	mov	rax, QWORD PTR 16[rbp]
	mov	rdx, QWORD PTR 24[rbp]
	mov	rcx, rax
	call	_ZNSt18_Bit_iterator_base7_M_incrEx
	.loc 4 377 15
	mov	rax, QWORD PTR 16[rbp]
	.loc 4 378 5
	add	rsp, 32
	pop	rbp
	.cfi_restore 6
	.cfi_def_cfa 7, 8
	ret
	.cfi_endproc
.LFE1178:
	.seh_endproc
	.section	.text$_ZStplRKSt13_Bit_iteratorx,"x"
	.linkonce discard
	.globl	_ZStplRKSt13_Bit_iteratorx
	.def	_ZStplRKSt13_Bit_iteratorx;	.scl	2;	.type	32;	.endef
	.seh_proc	_ZStplRKSt13_Bit_iteratorx
_ZStplRKSt13_Bit_iteratorx:
.LFB1181:
	.loc 4 395 5
	.cfi_startproc
	push	rbp
	.seh_pushreg	rbp
	.cfi_def_cfa_offset 16
	.cfi_offset 6, -16
	mov	rbp, rsp
	.seh_setframe	rbp, 0
	.cfi_def_cfa_register 6
	sub	rsp, 32
	.seh_stackalloc	32
	.seh_endprologue
	mov	QWORD PTR 16[rbp], rcx
	mov	QWORD PTR 24[rbp], rdx
	mov	QWORD PTR 32[rbp], r8
	.loc 4 397 16
	mov	rcx, QWORD PTR 16[rbp]
	mov	rax, QWORD PTR 24[rbp]
	mov	rdx, QWORD PTR 8[rax]
	mov	rax, QWORD PTR [rax]
	mov	QWORD PTR [rcx], rax
	mov	QWORD PTR 8[rcx], rdx
	.loc 4 398 16
	mov	rdx, QWORD PTR 32[rbp]
	mov	rax, QWORD PTR 16[rbp]
	mov	rcx, rax
	call	_ZNSt13_Bit_iteratorpLEx
	.loc 4 399 14
	nop
	.loc 4 400 5
	mov	rax, QWORD PTR 16[rbp]
	add	rsp, 32
	pop	rbp
	.cfi_restore 6
	.cfi_def_cfa 7, 8
	ret
	.cfi_endproc
.LFE1181:
	.seh_endproc
	.section	.text$_ZNSt19_Bit_const_iteratorC1EPmj,"x"
	.linkonce discard
	.align 2
	.globl	_ZNSt19_Bit_const_iteratorC1EPmj
	.def	_ZNSt19_Bit_const_iteratorC1EPmj;	.scl	2;	.type	32;	.endef
	.seh_proc	_ZNSt19_Bit_const_iteratorC1EPmj
_ZNSt19_Bit_const_iteratorC1EPmj:
.LFB1189:
	.loc 4 432 5
	.cfi_startproc
	push	rbp
	.seh_pushreg	rbp
	.cfi_def_cfa_offset 16
	.cfi_offset 6, -16
	mov	rbp, rsp
	.seh_setframe	rbp, 0
	.cfi_def_cfa_register 6
	sub	rsp, 32
	.seh_stackalloc	32
	.seh_endprologue
	mov	QWORD PTR 16[rbp], rcx
	mov	QWORD PTR 24[rbp], rdx
	mov	DWORD PTR 32[rbp], r8d
.LBB350:
	.loc 4 433 34
	mov	rax, QWORD PTR 16[rbp]
	mov	ecx, DWORD PTR 32[rbp]
	mov	rdx, QWORD PTR 24[rbp]
	mov	r8d, ecx
	mov	rcx, rax
	call	_ZNSt18_Bit_iterator_baseC2EPmj
.LBE350:
	.loc 4 433 38
	nop
	add	rsp, 32
	pop	rbp
	.cfi_restore 6
	.cfi_def_cfa 7, 8
	ret
	.cfi_endproc
.LFE1189:
	.seh_endproc
	.section	.text$_ZNSt19_Bit_const_iteratorC1ERKSt13_Bit_iterator,"x"
	.linkonce discard
	.align 2
	.globl	_ZNSt19_Bit_const_iteratorC1ERKSt13_Bit_iterator
	.def	_ZNSt19_Bit_const_iteratorC1ERKSt13_Bit_iterator;	.scl	2;	.type	32;	.endef
	.seh_proc	_ZNSt19_Bit_const_iteratorC1ERKSt13_Bit_iterator
_ZNSt19_Bit_const_iteratorC1ERKSt13_Bit_iterator:
.LFB1192:
	.loc 4 436 5
	.cfi_startproc
	push	rbp
	.seh_pushreg	rbp
	.cfi_def_cfa_offset 16
	.cfi_offset 6, -16
	mov	rbp, rsp
	.seh_setframe	rbp, 0
	.cfi_def_cfa_register 6
	sub	rsp, 32
	.seh_stackalloc	32
	.seh_endprologue
	mov	QWORD PTR 16[rbp], rcx
	mov	QWORD PTR 24[rbp], rdx
.LBB351:
	.loc 4 437 49
	mov	rax, QWORD PTR 16[rbp]
	.loc 4 437 40
	mov	rdx, QWORD PTR 24[rbp]
	mov	ecx, DWORD PTR 8[rdx]
	.loc 4 437 30
	mov	rdx, QWORD PTR 24[rbp]
	mov	rdx, QWORD PTR [rdx]
	.loc 4 437 49
	mov	r8d, ecx
	mov	rcx, rax
	call	_ZNSt18_Bit_iterator_baseC2EPmj
.LBE351:
	.loc 4 437 53
	nop
	add	rsp, 32
	pop	rbp
	.cfi_restore 6
	.cfi_def_cfa 7, 8
	ret
	.cfi_endproc
.LFE1192:
	.seh_endproc
	.section	.text$_ZNKSt19_Bit_const_iterator13_M_const_castEv,"x"
	.linkonce discard
	.align 2
	.globl	_ZNKSt19_Bit_const_iterator13_M_const_castEv
	.def	_ZNKSt19_Bit_const_iterator13_M_const_castEv;	.scl	2;	.type	32;	.endef
	.seh_proc	_ZNKSt19_Bit_const_iterator13_M_const_castEv
_ZNKSt19_Bit_const_iterator13_M_const_castEv:
.LFB1193:
	.loc 4 441 5
	.cfi_startproc
	push	rbp
	.seh_pushreg	rbp
	.cfi_def_cfa_offset 16
	.cfi_offset 6, -16
	mov	rbp, rsp
	.seh_setframe	rbp, 0
	.cfi_def_cfa_register 6
	sub	rsp, 32
	.seh_stackalloc	32
	.seh_endprologue
	mov	QWORD PTR 16[rbp], rcx
	mov	QWORD PTR 24[rbp], rdx
	.loc 4 442 34
	mov	rax, QWORD PTR 24[rbp]
	mov	ecx, DWORD PTR 8[rax]
	.loc 4 442 28
	mov	rax, QWORD PTR 24[rbp]
	mov	rdx, QWORD PTR [rax]
	.loc 4 442 43
	mov	rax, QWORD PTR 16[rbp]
	mov	r8d, ecx
	mov	rcx, rax
	call	_ZNSt13_Bit_iteratorC1EPmj
	.loc 4 442 46
	mov	rax, QWORD PTR 16[rbp]
	add	rsp, 32
	pop	rbp
	.cfi_restore 6
	.cfi_def_cfa 7, 8
	ret
	.cfi_endproc
.LFE1193:
	.seh_endproc
	.section	.text$_ZNKSt19_Bit_const_iteratordeEv,"x"
	.linkonce discard
	.align 2
	.globl	_ZNKSt19_Bit_const_iteratordeEv
	.def	_ZNKSt19_Bit_const_iteratordeEv;	.scl	2;	.type	32;	.endef
	.seh_proc	_ZNKSt19_Bit_const_iteratordeEv
_ZNKSt19_Bit_const_iteratordeEv:
.LFB1194:
	.loc 4 446 5
	.cfi_startproc
	push	rbp
	.seh_pushreg	rbp
	.cfi_def_cfa_offset 16
	.cfi_offset 6, -16
	mov	rbp, rsp
	.seh_setframe	rbp, 0
	.cfi_def_cfa_register 6
	sub	rsp, 64
	.seh_stackalloc	64
	.seh_endprologue
	mov	QWORD PTR 16[rbp], rcx
	.loc 4 448 27
	mov	rax, QWORD PTR 16[rbp]
	mov	QWORD PTR -8[rbp], rax
.LBB352:
.LBB353:
	.loc 4 195 20
	mov	rax, QWORD PTR -8[rbp]
	mov	eax, DWORD PTR 8[rax]
	mov	DWORD PTR -12[rbp], eax
	.loc 4 196 7
	cmp	DWORD PTR -12[rbp], 31
	.loc 4 198 5
	nop
.LBE353:
.LBE352:
	.loc 4 449 42
	mov	rax, QWORD PTR 16[rbp]
	mov	eax, DWORD PTR 8[rax]
	.loc 4 449 51
	mov	edx, 1
	mov	ecx, eax
	sal	edx, cl
	mov	ecx, edx
	.loc 4 449 29
	mov	rax, QWORD PTR 16[rbp]
	mov	rdx, QWORD PTR [rax]
	.loc 4 449 51
	lea	rax, -32[rbp]
	mov	r8d, ecx
	mov	rcx, rax
	call	_ZNSt14_Bit_referenceC1EPmm
	.loc 4 449 14 discriminator 1
	lea	rax, -32[rbp]
	mov	rcx, rax
	call	_ZNKSt14_Bit_referencecvbEv
	.loc 4 450 5
	add	rsp, 64
	pop	rbp
	.cfi_restore 6
	.cfi_def_cfa 7, 8
	ret
	.cfi_endproc
.LFE1194:
	.seh_endproc
	.section	.text$_ZNSt19_Bit_const_iteratorppEv,"x"
	.linkonce discard
	.align 2
	.globl	_ZNSt19_Bit_const_iteratorppEv
	.def	_ZNSt19_Bit_const_iteratorppEv;	.scl	2;	.type	32;	.endef
	.seh_proc	_ZNSt19_Bit_const_iteratorppEv
_ZNSt19_Bit_const_iteratorppEv:
.LFB1195:
	.loc 4 454 5
	.cfi_startproc
	push	rbp
	.seh_pushreg	rbp
	.cfi_def_cfa_offset 16
	.cfi_offset 6, -16
	mov	rbp, rsp
	.seh_setframe	rbp, 0
	.cfi_def_cfa_register 6
	sub	rsp, 32
	.seh_stackalloc	32
	.seh_endprologue
	mov	QWORD PTR 16[rbp], rcx
	.loc 4 456 17
	mov	rax, QWORD PTR 16[rbp]
	mov	rcx, rax
	call	_ZNSt18_Bit_iterator_base10_M_bump_upEv
	.loc 4 457 15
	mov	rax, QWORD PTR 16[rbp]
	.loc 4 458 5
	add	rsp, 32
	pop	rbp
	.cfi_restore 6
	.cfi_def_cfa 7, 8
	ret
	.cfi_endproc
.LFE1195:
	.seh_endproc
	.section	.text$_ZSt14__fill_bvectorPmjjb,"x"
	.linkonce discard
	.globl	_ZSt14__fill_bvectorPmjjb
	.def	_ZSt14__fill_bvectorPmjjb;	.scl	2;	.type	32;	.endef
	.seh_proc	_ZSt14__fill_bvectorPmjjb
_ZSt14__fill_bvectorPmjjb:
.LFB1306:
	.loc 4 1777 3
	.cfi_startproc
	push	rbp
	.seh_pushreg	rbp
	.cfi_def_cfa_offset 16
	.cfi_offset 6, -16
	mov	rbp, rsp
	.seh_setframe	rbp, 0
	.cfi_def_cfa_register 6
	sub	rsp, 16
	.seh_stackalloc	16
	.seh_endprologue
	mov	QWORD PTR 16[rbp], rcx
	mov	DWORD PTR 24[rbp], edx
	mov	DWORD PTR 32[rbp], r8d
	mov	eax, r9d
	mov	BYTE PTR 40[rbp], al
	.loc 4 1778 21
	mov	eax, DWORD PTR 24[rbp]
	mov	edx, -1
	mov	ecx, eax
	sal	edx, cl
	mov	eax, edx
	mov	DWORD PTR -4[rbp], eax
	.loc 4 1779 52
	mov	eax, 32
	sub	eax, DWORD PTR 32[rbp]
	.loc 4 1779 21
	mov	edx, -1
	mov	ecx, eax
	shr	edx, cl
	mov	eax, edx
	mov	DWORD PTR -8[rbp], eax
	.loc 4 1780 21
	mov	eax, DWORD PTR -4[rbp]
	and	eax, DWORD PTR -8[rbp]
	mov	DWORD PTR -12[rbp], eax
	.loc 4 1782 5
	cmp	BYTE PTR 40[rbp], 0
	je	.L71
	.loc 4 1783 7
	mov	rax, QWORD PTR 16[rbp]
	mov	eax, DWORD PTR [rax]
	.loc 4 1783 12
	or	eax, DWORD PTR -12[rbp]
	mov	edx, eax
	mov	rax, QWORD PTR 16[rbp]
	mov	DWORD PTR [rax], edx
	.loc 4 1786 3
	jmp	.L73
.L71:
	.loc 4 1785 7
	mov	rax, QWORD PTR 16[rbp]
	mov	eax, DWORD PTR [rax]
	.loc 4 1785 15
	mov	edx, DWORD PTR -12[rbp]
	not	edx
	.loc 4 1785 12
	and	edx, eax
	mov	rax, QWORD PTR 16[rbp]
	mov	DWORD PTR [rax], edx
.L73:
	.loc 4 1786 3
	nop
	add	rsp, 16
	pop	rbp
	.cfi_restore 6
	.cfi_def_cfa 7, 8
	ret
	.cfi_endproc
.LFE1306:
	.seh_endproc
	.section	.text$_ZSt16__fill_bvector_nPmyb,"x"
	.linkonce discard
	.globl	_ZSt16__fill_bvector_nPmyb
	.def	_ZSt16__fill_bvector_nPmyb;	.scl	2;	.type	32;	.endef
	.seh_proc	_ZSt16__fill_bvector_nPmyb
_ZSt16__fill_bvector_nPmyb:
.LFB1307:
	.loc 4 1793 3
	.cfi_startproc
	push	rbp
	.seh_pushreg	rbp
	.cfi_def_cfa_offset 16
	.cfi_offset 6, -16
	mov	rbp, rsp
	.seh_setframe	rbp, 0
	.cfi_def_cfa_register 6
	sub	rsp, 48
	.seh_stackalloc	48
	.seh_endprologue
	mov	QWORD PTR 16[rbp], rcx
	mov	QWORD PTR 24[rbp], rdx
	mov	eax, r8d
	mov	BYTE PTR 32[rbp], al
.LBB354:
	.loc 4 1795 35
	call	_ZSt21is_constant_evaluatedv
	.loc 4 1795 5 discriminator 1
	test	al, al
	je	.L75
.LBB355:
.LBB356:
	.loc 4 1797 19
	mov	QWORD PTR -8[rbp], 0
	.loc 4 1797 7
	jmp	.L76
.L79:
	.loc 4 1798 17
	cmp	BYTE PTR 32[rbp], 0
	je	.L77
	.loc 4 1798 17 is_stmt 0 discriminator 1
	mov	ecx, -1
	jmp	.L78
.L77:
	.loc 4 1798 17 discriminator 2
	mov	ecx, 0
.L78:
	.loc 4 1798 9 is_stmt 1 discriminator 4
	mov	rax, QWORD PTR -8[rbp]
	lea	rdx, 0[0+rax*4]
	mov	rax, QWORD PTR 16[rbp]
	add	rax, rdx
	.loc 4 1798 11 discriminator 4
	mov	DWORD PTR [rax], ecx
	.loc 4 1797 7 discriminator 2
	add	QWORD PTR -8[rbp], 1
.L76:
	.loc 4 1797 32 discriminator 1
	mov	rax, QWORD PTR -8[rbp]
	cmp	rax, QWORD PTR 24[rbp]
	jb	.L79
.LBE356:
	.loc 4 1799 7
	jmp	.L74
.L75:
.LBE355:
.LBE354:
	.loc 4 1802 21
	mov	rax, QWORD PTR 24[rbp]
	lea	rcx, 0[0+rax*4]
	cmp	BYTE PTR 32[rbp], 0
	je	.L81
	.loc 4 1802 21 is_stmt 0 discriminator 1
	mov	edx, -1
	jmp	.L82
.L81:
	.loc 4 1802 21 discriminator 2
	mov	edx, 0
.L82:
	.loc 4 1802 21 discriminator 4
	mov	rax, QWORD PTR 16[rbp]
	mov	r8, rcx
	mov	rcx, rax
	call	memset
	nop
.L74:
	.loc 4 1803 3 is_stmt 1
	add	rsp, 48
	pop	rbp
	.cfi_restore 6
	.cfi_def_cfa 7, 8
	ret
	.cfi_endproc
.LFE1307:
	.seh_endproc
	.section	.text$_ZSt9__fill_a1St13_Bit_iteratorS_RKb,"x"
	.linkonce discard
	.globl	_ZSt9__fill_a1St13_Bit_iteratorS_RKb
	.def	_ZSt9__fill_a1St13_Bit_iteratorS_RKb;	.scl	2;	.type	32;	.endef
	.seh_proc	_ZSt9__fill_a1St13_Bit_iteratorS_RKb
_ZSt9__fill_a1St13_Bit_iteratorS_RKb:
.LFB1308:
	.loc 4 1810 3
	.cfi_startproc
	push	rbp
	.seh_pushreg	rbp
	.cfi_def_cfa_offset 16
	.cfi_offset 6, -16
	push	rsi
	.seh_pushreg	rsi
	.cfi_def_cfa_offset 24
	.cfi_offset 4, -24
	push	rbx
	.seh_pushreg	rbx
	.cfi_def_cfa_offset 32
	.cfi_offset 3, -32
	sub	rsp, 48
	.seh_stackalloc	48
	.cfi_def_cfa_offset 80
	lea	rbp, 48[rsp]
	.seh_setframe	rbp, 48
	.cfi_def_cfa 6, 32
	.seh_endprologue
	mov	rbx, rcx
	mov	rsi, rdx
	mov	QWORD PTR 48[rbp], r8
.LBB357:
	.loc 4 1811 17
	mov	rdx, QWORD PTR [rbx]
	.loc 4 1811 32
	mov	rax, QWORD PTR [rsi]
	.loc 4 1811 5
	cmp	rdx, rax
	je	.L84
.LBB358:
	.loc 4 1813 13
	mov	rax, QWORD PTR [rbx]
	mov	QWORD PTR -8[rbp], rax
	.loc 4 1814 14
	mov	eax, DWORD PTR 8[rbx]
	.loc 4 1814 2
	test	eax, eax
	je	.L85
	.loc 4 1815 64
	mov	rax, QWORD PTR 48[rbp]
	movzx	eax, BYTE PTR [rax]
	.loc 4 1815 18
	movzx	r8d, al
	mov	edx, DWORD PTR 8[rbx]
	mov	rax, QWORD PTR -8[rbp]
	lea	rcx, 4[rax]
	mov	QWORD PTR -8[rbp], rcx
	mov	r9d, r8d
	mov	r8d, 32
	mov	rcx, rax
	call	_ZSt14__fill_bvectorPmjjb
.L85:
	.loc 4 1817 55
	mov	rax, QWORD PTR 48[rbp]
	movzx	eax, BYTE PTR [rax]
	.loc 4 1817 18
	movzx	edx, al
	.loc 4 1817 37
	mov	rax, QWORD PTR [rsi]
	.loc 4 1817 42
	sub	rax, QWORD PTR -8[rbp]
	sar	rax, 2
	.loc 4 1817 18
	mov	rcx, rax
	mov	rax, QWORD PTR -8[rbp]
	mov	r8d, edx
	mov	rdx, rcx
	mov	rcx, rax
	call	_ZSt16__fill_bvector_nPmyb
	.loc 4 1819 13
	mov	eax, DWORD PTR 8[rsi]
	.loc 4 1819 2
	test	eax, eax
	je	.L87
	.loc 4 1820 53
	mov	rax, QWORD PTR 48[rbp]
	movzx	eax, BYTE PTR [rax]
	.loc 4 1820 18
	movzx	ecx, al
	mov	edx, DWORD PTR 8[rsi]
	mov	rax, QWORD PTR [rsi]
	mov	r9d, ecx
	mov	r8d, edx
	mov	edx, 0
	mov	rcx, rax
	call	_ZSt14__fill_bvectorPmjjb
.LBE358:
.LBE357:
	.loc 4 1824 3
	jmp	.L87
.L84:
.LBB359:
	.loc 4 1822 22
	mov	edx, DWORD PTR 8[rbx]
	.loc 4 1822 42
	mov	eax, DWORD PTR 8[rsi]
	.loc 4 1822 10
	cmp	edx, eax
	je	.L87
	.loc 4 1823 73
	mov	rax, QWORD PTR 48[rbp]
	movzx	eax, BYTE PTR [rax]
	.loc 4 1823 21
	movzx	r8d, al
	mov	ecx, DWORD PTR 8[rsi]
	mov	edx, DWORD PTR 8[rbx]
	mov	rax, QWORD PTR [rbx]
	mov	r9d, r8d
	mov	r8d, ecx
	mov	rcx, rax
	call	_ZSt14__fill_bvectorPmjjb
.L87:
.LBE359:
	.loc 4 1824 3
	nop
	add	rsp, 48
	pop	rbx
	.cfi_restore 3
	pop	rsi
	.cfi_restore 4
	pop	rbp
	.cfi_restore 6
	.cfi_def_cfa 7, -24
	ret
	.cfi_endproc
.LFE1308:
	.seh_endproc
	.section	.text$_Z8row_sizeyy,"x"
	.linkonce discard
	.globl	_Z8row_sizeyy
	.def	_Z8row_sizeyy;	.scl	2;	.type	32;	.endef
	.seh_proc	_Z8row_sizeyy
_Z8row_sizeyy:
.LFB1719:
	.file 5 "Examples/_ch142_archetype.cpp"
	.loc 5 15 66
	.cfi_startproc
	push	rbp
	.seh_pushreg	rbp
	.cfi_def_cfa_offset 16
	.cfi_offset 6, -16
	mov	rbp, rsp
	.seh_setframe	rbp, 0
	.cfi_def_cfa_register 6
	.seh_endprologue
	mov	QWORD PTR 16[rbp], rcx
	mov	QWORD PTR 24[rbp], rdx
	.loc 5 16 18
	mov	rdx, QWORD PTR 16[rbp]
	mov	rax, QWORD PTR 24[rbp]
	add	rax, rdx
	.loc 5 17 1
	pop	rbp
	.cfi_restore 6
	.cfi_def_cfa 7, 8
	ret
	.cfi_endproc
.LFE1719:
	.seh_endproc
	.section	.text$_ZNSt12_Vector_baseIcSaIcEE12_Vector_implD1Ev,"x"
	.linkonce discard
	.align 2
	.globl	_ZNSt12_Vector_baseIcSaIcEE12_Vector_implD1Ev
	.def	_ZNSt12_Vector_baseIcSaIcEE12_Vector_implD1Ev;	.scl	2;	.type	32;	.endef
	.seh_proc	_ZNSt12_Vector_baseIcSaIcEE12_Vector_implD1Ev
_ZNSt12_Vector_baseIcSaIcEE12_Vector_implD1Ev:
.LFB1728:
	.file 6 "C:/Qt/Tools/mingw1530_64/include/c++/15.3.0/bits/stl_vector.h"
	.loc 6 139 14
	.cfi_startproc
	push	rbp
	.seh_pushreg	rbp
	.cfi_def_cfa_offset 16
	.cfi_offset 6, -16
	mov	rbp, rsp
	.seh_setframe	rbp, 0
	.cfi_def_cfa_register 6
	sub	rsp, 16
	.seh_stackalloc	16
	.seh_endprologue
	mov	QWORD PTR 16[rbp], rcx
	mov	rax, QWORD PTR 16[rbp]
	mov	QWORD PTR -8[rbp], rax
.LBB360:
.LBB361:
.LBB362:
	.file 7 "C:/Qt/Tools/mingw1530_64/include/c++/15.3.0/bits/allocator.h"
	.loc 7 189 39
	nop
.LBE362:
.LBE361:
.LBE360:
	.loc 6 139 14
	nop
	add	rsp, 16
	pop	rbp
	.cfi_restore 6
	.cfi_def_cfa 7, 8
	ret
	.cfi_endproc
.LFE1728:
	.seh_endproc
	.section	.text$_ZNSt12_Vector_baseIcSaIcEEC2Ev,"x"
	.linkonce discard
	.align 2
	.globl	_ZNSt12_Vector_baseIcSaIcEEC2Ev
	.def	_ZNSt12_Vector_baseIcSaIcEEC2Ev;	.scl	2;	.type	32;	.endef
	.seh_proc	_ZNSt12_Vector_baseIcSaIcEEC2Ev
_ZNSt12_Vector_baseIcSaIcEEC2Ev:
.LFB1729:
	.loc 6 321 7
	.cfi_startproc
	push	rbp
	.seh_pushreg	rbp
	.cfi_def_cfa_offset 16
	.cfi_offset 6, -16
	mov	rbp, rsp
	.seh_setframe	rbp, 0
	.cfi_def_cfa_register 6
	sub	rsp, 32
	.seh_stackalloc	32
	.seh_endprologue
	mov	QWORD PTR 16[rbp], rcx
.LBB363:
	.loc 6 321 7
	mov	rax, QWORD PTR 16[rbp]
	mov	rcx, rax
	call	_ZNSt12_Vector_baseIcSaIcEE12_Vector_implC1EvQ26is_default_constructible_vIN9__gnu_cxx14__alloc_traitsIT0_NS5_10value_typeEE6rebindIT_E5otherEE
.LBE363:
	nop
	add	rsp, 32
	pop	rbp
	.cfi_restore 6
	.cfi_def_cfa 7, 8
	ret
	.cfi_endproc
.LFE1729:
	.seh_endproc
	.section	.text$_ZNSt6vectorIcSaIcEEC1Ev,"x"
	.linkonce discard
	.align 2
	.globl	_ZNSt6vectorIcSaIcEEC1Ev
	.def	_ZNSt6vectorIcSaIcEEC1Ev;	.scl	2;	.type	32;	.endef
	.seh_proc	_ZNSt6vectorIcSaIcEEC1Ev
_ZNSt6vectorIcSaIcEEC1Ev:
.LFB1732:
	.loc 6 561 7
	.cfi_startproc
	push	rbp
	.seh_pushreg	rbp
	.cfi_def_cfa_offset 16
	.cfi_offset 6, -16
	mov	rbp, rsp
	.seh_setframe	rbp, 0
	.cfi_def_cfa_register 6
	sub	rsp, 32
	.seh_stackalloc	32
	.seh_endprologue
	mov	QWORD PTR 16[rbp], rcx
.LBB364:
	.loc 6 561 7
	mov	rax, QWORD PTR 16[rbp]
	mov	rcx, rax
	call	_ZNSt12_Vector_baseIcSaIcEEC2Ev
.LBE364:
	nop
	add	rsp, 32
	pop	rbp
	.cfi_restore 6
	.cfi_def_cfa 7, 8
	ret
	.cfi_endproc
.LFE1732:
	.seh_endproc
	.section	.text$_ZNSt13_Bvector_baseISaIbEE13_Bvector_implD1Ev,"x"
	.linkonce discard
	.align 2
	.globl	_ZNSt13_Bvector_baseISaIbEE13_Bvector_implD1Ev
	.def	_ZNSt13_Bvector_baseISaIbEE13_Bvector_implD1Ev;	.scl	2;	.type	32;	.endef
	.seh_proc	_ZNSt13_Bvector_baseISaIbEE13_Bvector_implD1Ev
_ZNSt13_Bvector_baseISaIbEE13_Bvector_implD1Ev:
.LFB1737:
	.loc 4 596 14
	.cfi_startproc
	push	rbp
	.seh_pushreg	rbp
	.cfi_def_cfa_offset 16
	.cfi_offset 6, -16
	mov	rbp, rsp
	.seh_setframe	rbp, 0
	.cfi_def_cfa_register 6
	sub	rsp, 16
	.seh_stackalloc	16
	.seh_endprologue
	mov	QWORD PTR 16[rbp], rcx
	mov	rax, QWORD PTR 16[rbp]
	mov	QWORD PTR -8[rbp], rax
.LBB365:
.LBB366:
.LBB367:
	.loc 7 189 39
	nop
.LBE367:
.LBE366:
.LBE365:
	.loc 4 596 14
	nop
	add	rsp, 16
	pop	rbp
	.cfi_restore 6
	.cfi_def_cfa 7, 8
	ret
	.cfi_endproc
.LFE1737:
	.seh_endproc
	.section	.text$_ZNSt13_Bvector_baseISaIbEEC2Ev,"x"
	.linkonce discard
	.align 2
	.globl	_ZNSt13_Bvector_baseISaIbEEC2Ev
	.def	_ZNSt13_Bvector_baseISaIbEEC2Ev;	.scl	2;	.type	32;	.endef
	.seh_proc	_ZNSt13_Bvector_baseISaIbEEC2Ev
_ZNSt13_Bvector_baseISaIbEEC2Ev:
.LFB1738:
	.loc 4 656 7
	.cfi_startproc
	push	rbp
	.seh_pushreg	rbp
	.cfi_def_cfa_offset 16
	.cfi_offset 6, -16
	mov	rbp, rsp
	.seh_setframe	rbp, 0
	.cfi_def_cfa_register 6
	sub	rsp, 32
	.seh_stackalloc	32
	.seh_endprologue
	mov	QWORD PTR 16[rbp], rcx
.LBB368:
	.loc 4 656 7
	mov	rax, QWORD PTR 16[rbp]
	mov	rcx, rax
	call	_ZNSt13_Bvector_baseISaIbEE13_Bvector_implC1EvQ26is_default_constructible_vIN9__gnu_cxx14__alloc_traitsIT_NS5_10value_typeEE6rebindImE5otherEE
.LBE368:
	nop
	add	rsp, 32
	pop	rbp
	.cfi_restore 6
	.cfi_def_cfa 7, 8
	ret
	.cfi_endproc
.LFE1738:
	.seh_endproc
	.section	.text$_ZNSt6vectorIbSaIbEEC1Ev,"x"
	.linkonce discard
	.align 2
	.globl	_ZNSt6vectorIbSaIbEEC1Ev
	.def	_ZNSt6vectorIbSaIbEEC1Ev;	.scl	2;	.type	32;	.endef
	.seh_proc	_ZNSt6vectorIbSaIbEEC1Ev
_ZNSt6vectorIbSaIbEEC1Ev:
.LFB1741:
	.loc 4 787 7
	.cfi_startproc
	push	rbp
	.seh_pushreg	rbp
	.cfi_def_cfa_offset 16
	.cfi_offset 6, -16
	mov	rbp, rsp
	.seh_setframe	rbp, 0
	.cfi_def_cfa_register 6
	sub	rsp, 32
	.seh_stackalloc	32
	.seh_endprologue
	mov	QWORD PTR 16[rbp], rcx
.LBB369:
	.loc 4 787 7
	mov	rax, QWORD PTR 16[rbp]
	mov	rcx, rax
	call	_ZNSt13_Bvector_baseISaIbEEC2Ev
.LBE369:
	nop
	add	rsp, 32
	pop	rbp
	.cfi_restore 6
	.cfi_def_cfa 7, 8
	ret
	.cfi_endproc
.LFE1741:
	.seh_endproc
	.section	.text$_ZN9ArchetypeC1Ev,"x"
	.linkonce discard
	.align 2
	.globl	_ZN9ArchetypeC1Ev
	.def	_ZN9ArchetypeC1Ev;	.scl	2;	.type	32;	.endef
	.seh_proc	_ZN9ArchetypeC1Ev
_ZN9ArchetypeC1Ev:
.LFB1743:
	.loc 5 8 8
	.cfi_startproc
	push	rbp
	.seh_pushreg	rbp
	.cfi_def_cfa_offset 16
	.cfi_offset 6, -16
	mov	rbp, rsp
	.seh_setframe	rbp, 0
	.cfi_def_cfa_register 6
	sub	rsp, 32
	.seh_stackalloc	32
	.seh_endprologue
	mov	QWORD PTR 16[rbp], rcx
.LBB370:
	.loc 5 8 8
	mov	rax, QWORD PTR 16[rbp]
	add	rax, 8
	mov	rcx, rax
	call	_ZNSt6vectorIcSaIcEEC1Ev
	.loc 5 8 8 is_stmt 0 discriminator 1
	mov	rax, QWORD PTR 16[rbp]
	add	rax, 32
	mov	rcx, rax
	call	_ZNSt6vectorIbSaIbEEC1Ev
.LBE370:
	.loc 5 8 8
	nop
	add	rsp, 32
	pop	rbp
	.cfi_restore 6
	.cfi_def_cfa 7, 8
	ret
	.cfi_endproc
.LFE1743:
	.seh_endproc
	.section	.text$_ZNSt12_Vector_baseIcSaIcEE12_Vector_implC1EvQ26is_default_constructible_vIN9__gnu_cxx14__alloc_traitsIT0_NS5_10value_typeEE6rebindIT_E5otherEE,"x"
	.linkonce discard
	.align 2
	.globl	_ZNSt12_Vector_baseIcSaIcEE12_Vector_implC1EvQ26is_default_constructible_vIN9__gnu_cxx14__alloc_traitsIT0_NS5_10value_typeEE6rebindIT_E5otherEE
	.def	_ZNSt12_Vector_baseIcSaIcEE12_Vector_implC1EvQ26is_default_constructible_vIN9__gnu_cxx14__alloc_traitsIT0_NS5_10value_typeEE6rebindIT_E5otherEE;	.scl	2;	.type	32;	.endef
	.seh_proc	_ZNSt12_Vector_baseIcSaIcEE12_Vector_implC1EvQ26is_default_constructible_vIN9__gnu_cxx14__alloc_traitsIT0_NS5_10value_typeEE6rebindIT_E5otherEE
_ZNSt12_Vector_baseIcSaIcEE12_Vector_implC1EvQ26is_default_constructible_vIN9__gnu_cxx14__alloc_traitsIT0_NS5_10value_typeEE6rebindIT_E5otherEE:
.LFB1746:
	.loc 6 143 2 is_stmt 1
	.cfi_startproc
	push	rbp
	.seh_pushreg	rbp
	.cfi_def_cfa_offset 16
	.cfi_offset 6, -16
	mov	rbp, rsp
	.seh_setframe	rbp, 0
	.cfi_def_cfa_register 6
	sub	rsp, 48
	.seh_stackalloc	48
	.seh_endprologue
	mov	QWORD PTR 16[rbp], rcx
	mov	rax, QWORD PTR 16[rbp]
	mov	QWORD PTR -8[rbp], rax
	mov	rax, QWORD PTR -8[rbp]
	mov	QWORD PTR -16[rbp], rax
.LBB371:
.LBB372:
.LBB373:
.LBB374:
.LBB375:
.LBB376:
	.file 8 "C:/Qt/Tools/mingw1530_64/include/c++/15.3.0/bits/new_allocator.h"
	.loc 8 88 49
	nop
.LBE376:
.LBE375:
.LBE374:
	.loc 7 168 38
	nop
.LBE373:
.LBE372:
	.loc 6 148 19 discriminator 1
	mov	rax, QWORD PTR 16[rbp]
	mov	rcx, rax
	call	_ZNSt12_Vector_baseIcSaIcEE17_Vector_impl_dataC2Ev
.LBE371:
	.loc 6 149 4
	nop
	add	rsp, 48
	pop	rbp
	.cfi_restore 6
	.cfi_def_cfa 7, 8
	ret
	.cfi_endproc
.LFE1746:
	.seh_endproc
	.weak	_ZNSt12_Vector_baseIcSaIcEE12_Vector_implC1Ev
	.def	_ZNSt12_Vector_baseIcSaIcEE12_Vector_implC1Ev;	.scl	2;	.type	32;	.endef
	.set	_ZNSt12_Vector_baseIcSaIcEE12_Vector_implC1Ev,_ZNSt12_Vector_baseIcSaIcEE12_Vector_implC1EvQ26is_default_constructible_vIN9__gnu_cxx14__alloc_traitsIT0_NS5_10value_typeEE6rebindIT_E5otherEE
	.section	.text$_ZNSt12_Vector_baseIcSaIcEE17_Vector_impl_dataC2Ev,"x"
	.linkonce discard
	.align 2
	.globl	_ZNSt12_Vector_baseIcSaIcEE17_Vector_impl_dataC2Ev
	.def	_ZNSt12_Vector_baseIcSaIcEE17_Vector_impl_dataC2Ev;	.scl	2;	.type	32;	.endef
	.seh_proc	_ZNSt12_Vector_baseIcSaIcEE17_Vector_impl_dataC2Ev
_ZNSt12_Vector_baseIcSaIcEE17_Vector_impl_dataC2Ev:
.LFB1754:
	.loc 6 105 2
	.cfi_startproc
	push	rbp
	.seh_pushreg	rbp
	.cfi_def_cfa_offset 16
	.cfi_offset 6, -16
	mov	rbp, rsp
	.seh_setframe	rbp, 0
	.cfi_def_cfa_register 6
	.seh_endprologue
	mov	QWORD PTR 16[rbp], rcx
.LBB377:
	.loc 6 106 4
	mov	rax, QWORD PTR 16[rbp]
	mov	QWORD PTR [rax], 0
	.loc 6 106 16
	mov	rax, QWORD PTR 16[rbp]
	mov	QWORD PTR 8[rax], 0
	.loc 6 106 29
	mov	rax, QWORD PTR 16[rbp]
	mov	QWORD PTR 16[rax], 0
.LBE377:
	.loc 6 107 4
	nop
	pop	rbp
	.cfi_restore 6
	.cfi_def_cfa 7, 8
	ret
	.cfi_endproc
.LFE1754:
	.seh_endproc
	.section	.text$_ZNSt13_Bvector_baseISaIbEE13_Bvector_implC1EvQ26is_default_constructible_vIN9__gnu_cxx14__alloc_traitsIT_NS5_10value_typeEE6rebindImE5otherEE,"x"
	.linkonce discard
	.align 2
	.globl	_ZNSt13_Bvector_baseISaIbEE13_Bvector_implC1EvQ26is_default_constructible_vIN9__gnu_cxx14__alloc_traitsIT_NS5_10value_typeEE6rebindImE5otherEE
	.def	_ZNSt13_Bvector_baseISaIbEE13_Bvector_implC1EvQ26is_default_constructible_vIN9__gnu_cxx14__alloc_traitsIT_NS5_10value_typeEE6rebindImE5otherEE;	.scl	2;	.type	32;	.endef
	.seh_proc	_ZNSt13_Bvector_baseISaIbEE13_Bvector_implC1EvQ26is_default_constructible_vIN9__gnu_cxx14__alloc_traitsIT_NS5_10value_typeEE6rebindImE5otherEE
_ZNSt13_Bvector_baseISaIbEE13_Bvector_implC1EvQ26is_default_constructible_vIN9__gnu_cxx14__alloc_traitsIT_NS5_10value_typeEE6rebindImE5otherEE:
.LFB1758:
	.loc 4 600 2
	.cfi_startproc
	push	rbp
	.seh_pushreg	rbp
	.cfi_def_cfa_offset 16
	.cfi_offset 6, -16
	mov	rbp, rsp
	.seh_setframe	rbp, 0
	.cfi_def_cfa_register 6
	sub	rsp, 48
	.seh_stackalloc	48
	.seh_endprologue
	mov	QWORD PTR 16[rbp], rcx
	mov	rax, QWORD PTR 16[rbp]
	mov	QWORD PTR -8[rbp], rax
	mov	rax, QWORD PTR -8[rbp]
	mov	QWORD PTR -16[rbp], rax
.LBB378:
.LBB379:
.LBB380:
.LBB381:
.LBB382:
.LBB383:
	.loc 8 88 49
	nop
.LBE383:
.LBE382:
.LBE381:
	.loc 7 168 38
	nop
.LBE380:
.LBE379:
	.loc 4 605 20 discriminator 1
	mov	rax, QWORD PTR 16[rbp]
	mov	rcx, rax
	call	_ZNSt13_Bvector_baseISaIbEE18_Bvector_impl_dataC2Ev
.LBE378:
	.loc 4 606 4
	nop
	add	rsp, 48
	pop	rbp
	.cfi_restore 6
	.cfi_def_cfa 7, 8
	ret
	.cfi_endproc
.LFE1758:
	.seh_endproc
	.weak	_ZNSt13_Bvector_baseISaIbEE13_Bvector_implC1Ev
	.def	_ZNSt13_Bvector_baseISaIbEE13_Bvector_implC1Ev;	.scl	2;	.type	32;	.endef
	.set	_ZNSt13_Bvector_baseISaIbEE13_Bvector_implC1Ev,_ZNSt13_Bvector_baseISaIbEE13_Bvector_implC1EvQ26is_default_constructible_vIN9__gnu_cxx14__alloc_traitsIT_NS5_10value_typeEE6rebindImE5otherEE
	.section	.text$_ZNSt13_Bvector_baseISaIbEE18_Bvector_impl_dataC2Ev,"x"
	.linkonce discard
	.align 2
	.globl	_ZNSt13_Bvector_baseISaIbEE18_Bvector_impl_dataC2Ev
	.def	_ZNSt13_Bvector_baseISaIbEE18_Bvector_impl_dataC2Ev;	.scl	2;	.type	32;	.endef
	.seh_proc	_ZNSt13_Bvector_baseISaIbEE18_Bvector_impl_dataC2Ev
_ZNSt13_Bvector_baseISaIbEE18_Bvector_impl_dataC2Ev:
.LFB1766:
	.loc 4 557 2
	.cfi_startproc
	push	rbp
	.seh_pushreg	rbp
	.cfi_def_cfa_offset 16
	.cfi_offset 6, -16
	mov	rbp, rsp
	.seh_setframe	rbp, 0
	.cfi_def_cfa_register 6
	sub	rsp, 32
	.seh_stackalloc	32
	.seh_endprologue
	mov	QWORD PTR 16[rbp], rcx
.LBB384:
	.loc 4 558 4
	mov	rax, QWORD PTR 16[rbp]
	mov	rcx, rax
	call	_ZNSt13_Bit_iteratorC1Ev
	.loc 4 558 16 discriminator 1
	mov	rax, QWORD PTR 16[rbp]
	add	rax, 16
	mov	rcx, rax
	call	_ZNSt13_Bit_iteratorC1Ev
	.loc 4 558 29 discriminator 2
	mov	rax, QWORD PTR 16[rbp]
	mov	QWORD PTR 32[rax], 0
.LBE384:
	.loc 4 559 4
	nop
	add	rsp, 32
	pop	rbp
	.cfi_restore 6
	.cfi_def_cfa 7, 8
	ret
	.cfi_endproc
.LFE1766:
	.seh_endproc
	.section	.text$_ZNSt13_Bvector_baseISaIbEE18_Bvector_impl_dataC1Ev,"x"
	.linkonce discard
	.align 2
	.globl	_ZNSt13_Bvector_baseISaIbEE18_Bvector_impl_dataC1Ev
	.def	_ZNSt13_Bvector_baseISaIbEE18_Bvector_impl_dataC1Ev;	.scl	2;	.type	32;	.endef
	.seh_proc	_ZNSt13_Bvector_baseISaIbEE18_Bvector_impl_dataC1Ev
_ZNSt13_Bvector_baseISaIbEE18_Bvector_impl_dataC1Ev:
.LFB1767:
	.loc 4 557 2
	.cfi_startproc
	push	rbp
	.seh_pushreg	rbp
	.cfi_def_cfa_offset 16
	.cfi_offset 6, -16
	mov	rbp, rsp
	.seh_setframe	rbp, 0
	.cfi_def_cfa_register 6
	sub	rsp, 32
	.seh_stackalloc	32
	.seh_endprologue
	mov	QWORD PTR 16[rbp], rcx
.LBB385:
	.loc 4 558 4
	mov	rax, QWORD PTR 16[rbp]
	mov	rcx, rax
	call	_ZNSt13_Bit_iteratorC1Ev
	.loc 4 558 16 discriminator 1
	mov	rax, QWORD PTR 16[rbp]
	add	rax, 16
	mov	rcx, rax
	call	_ZNSt13_Bit_iteratorC1Ev
	.loc 4 558 29 discriminator 2
	mov	rax, QWORD PTR 16[rbp]
	mov	QWORD PTR 32[rax], 0
.LBE385:
	.loc 4 559 4
	nop
	add	rsp, 32
	pop	rbp
	.cfi_restore 6
	.cfi_def_cfa 7, 8
	ret
	.cfi_endproc
.LFE1767:
	.seh_endproc
	.section	.text$_ZN9ArchetypeD1Ev,"x"
	.linkonce discard
	.align 2
	.globl	_ZN9ArchetypeD1Ev
	.def	_ZN9ArchetypeD1Ev;	.scl	2;	.type	32;	.endef
	.seh_proc	_ZN9ArchetypeD1Ev
_ZN9ArchetypeD1Ev:
.LFB1770:
	.loc 5 8 8
	.cfi_startproc
	push	rbp
	.seh_pushreg	rbp
	.cfi_def_cfa_offset 16
	.cfi_offset 6, -16
	mov	rbp, rsp
	.seh_setframe	rbp, 0
	.cfi_def_cfa_register 6
	sub	rsp, 32
	.seh_stackalloc	32
	.seh_endprologue
	mov	QWORD PTR 16[rbp], rcx
.LBB386:
	.loc 5 8 8
	mov	rax, QWORD PTR 16[rbp]
	add	rax, 32
	mov	rcx, rax
	call	_ZNSt6vectorIbSaIbEED1Ev
	.loc 5 8 8 is_stmt 0 discriminator 1
	mov	rax, QWORD PTR 16[rbp]
	add	rax, 8
	mov	rcx, rax
	call	_ZNSt6vectorIcSaIcEED1Ev
.LBE386:
	.loc 5 8 8
	nop
	add	rsp, 32
	pop	rbp
	.cfi_restore 6
	.cfi_def_cfa 7, 8
	ret
	.cfi_endproc
.LFE1770:
	.seh_endproc
	.text
	.globl	main
	.def	main;	.scl	2;	.type	32;	.endef
	.seh_proc	main
main:
.LFB1720:
	.loc 5 19 12 is_stmt 1
	.cfi_startproc
	push	rbp
	.seh_pushreg	rbp
	.cfi_def_cfa_offset 16
	.cfi_offset 6, -16
	push	rbx
	.seh_pushreg	rbx
	.cfi_def_cfa_offset 24
	.cfi_offset 3, -24
	sub	rsp, 120
	.seh_stackalloc	120
	.cfi_def_cfa_offset 144
	lea	rbp, 112[rsp]
	.seh_setframe	rbp, 112
	.cfi_def_cfa 6, 32
	.seh_endprologue
	.loc 5 19 12
	call	__main
	.loc 5 20 15
	lea	rax, -80[rbp]
	mov	rcx, rax
	call	_ZN9ArchetypeC1Ev
	.loc 5 21 29
	mov	edx, 12
	mov	ecx, 12
	call	_Z8row_sizeyy
	.loc 5 21 19 discriminator 1
	mov	QWORD PTR -80[rbp], rax
	.loc 5 22 23
	mov	rax, QWORD PTR -80[rbp]
	.loc 5 22 20
	sal	rax, 6
	mov	rdx, rax
	lea	rax, -80[rbp]
	add	rax, 8
	mov	rcx, rax
.LEHB0:
	call	_ZNSt6vectorIcSaIcEE6resizeEy
	.loc 5 23 24
	mov	BYTE PTR -1[rbp], 0
	.loc 5 23 19
	lea	rdx, -1[rbp]
	lea	rax, -80[rbp]
	add	rax, 32
	mov	r8, rdx
	mov	edx, 64
	mov	rcx, rax
	call	_ZNSt6vectorIbSaIbEE6assignEyRKb
.LEHE0:
	.loc 5 24 19
	mov	rax, QWORD PTR -80[rbp]
	mov	ebx, eax
	.loc 5 25 1
	lea	rax, -80[rbp]
	mov	rcx, rax
	call	_ZN9ArchetypeD1Ev
	mov	eax, ebx
	jmp	.L107
.L106:
	mov	rbx, rax
	lea	rax, -80[rbp]
	mov	rcx, rax
	call	_ZN9ArchetypeD1Ev
	mov	rax, rbx
	mov	rcx, rax
.LEHB1:
	call	_Unwind_Resume
.LEHE1:
.L107:
	add	rsp, 120
	pop	rbx
	.cfi_restore 3
	pop	rbp
	.cfi_restore 6
	.cfi_def_cfa 7, -104
	ret
	.cfi_endproc
.LFE1720:
	.seh_handler	__gxx_personality_seh0, @unwind, @except
	.seh_handlerdata
.LLSDA1720:
	.byte	0xff
	.byte	0xff
	.byte	0x1
	.uleb128 .LLSDACSE1720-.LLSDACSB1720
.LLSDACSB1720:
	.uleb128 .LEHB0-.LFB1720
	.uleb128 .LEHE0-.LEHB0
	.uleb128 .L106-.LFB1720
	.uleb128 0
	.uleb128 .LEHB1-.LFB1720
	.uleb128 .LEHE1-.LEHB1
	.uleb128 0
	.uleb128 0
.LLSDACSE1720:
	.text
	.seh_endproc
	.section	.text$_ZNSt12_Vector_baseIcSaIcEED2Ev,"x"
	.linkonce discard
	.align 2
	.globl	_ZNSt12_Vector_baseIcSaIcEED2Ev
	.def	_ZNSt12_Vector_baseIcSaIcEED2Ev;	.scl	2;	.type	32;	.endef
	.seh_proc	_ZNSt12_Vector_baseIcSaIcEED2Ev
_ZNSt12_Vector_baseIcSaIcEED2Ev:
.LFB1780:
	.loc 6 373 7
	.cfi_startproc
	push	rbp
	.seh_pushreg	rbp
	.cfi_def_cfa_offset 16
	.cfi_offset 6, -16
	mov	rbp, rsp
	.seh_setframe	rbp, 0
	.cfi_def_cfa_register 6
	sub	rsp, 32
	.seh_stackalloc	32
	.seh_endprologue
	mov	QWORD PTR 16[rbp], rcx
.LBB387:
	.loc 6 376 17
	mov	rax, QWORD PTR 16[rbp]
	mov	rdx, QWORD PTR 16[rax]
	.loc 6 376 45
	mov	rax, QWORD PTR 16[rbp]
	mov	rax, QWORD PTR [rax]
	.loc 6 376 35
	sub	rdx, rax
	.loc 6 375 15
	mov	rcx, rdx
	mov	rax, QWORD PTR 16[rbp]
	mov	rdx, QWORD PTR [rax]
	mov	rax, QWORD PTR 16[rbp]
	mov	r8, rcx
	mov	rcx, rax
	call	_ZNSt12_Vector_baseIcSaIcEE13_M_deallocateEPcy
	.loc 6 377 7
	mov	rax, QWORD PTR 16[rbp]
	mov	rcx, rax
	call	_ZNSt12_Vector_baseIcSaIcEE12_Vector_implD1Ev
.LBE387:
	nop
	add	rsp, 32
	pop	rbp
	.cfi_restore 6
	.cfi_def_cfa 7, 8
	ret
	.cfi_endproc
.LFE1780:
	.seh_handler	__gxx_personality_seh0, @unwind, @except
	.seh_handlerdata
.LLSDA1780:
	.byte	0xff
	.byte	0xff
	.byte	0x1
	.uleb128 .LLSDACSE1780-.LLSDACSB1780
.LLSDACSB1780:
.LLSDACSE1780:
	.section	.text$_ZNSt12_Vector_baseIcSaIcEED2Ev,"x"
	.linkonce discard
	.seh_endproc
	.section	.text$_ZNSt6vectorIcSaIcEED1Ev,"x"
	.linkonce discard
	.align 2
	.globl	_ZNSt6vectorIcSaIcEED1Ev
	.def	_ZNSt6vectorIcSaIcEED1Ev;	.scl	2;	.type	32;	.endef
	.seh_proc	_ZNSt6vectorIcSaIcEED1Ev
_ZNSt6vectorIcSaIcEED1Ev:
.LFB1784:
	.loc 6 800 7
	.cfi_startproc
	push	rbp
	.seh_pushreg	rbp
	.cfi_def_cfa_offset 16
	.cfi_offset 6, -16
	mov	rbp, rsp
	.seh_setframe	rbp, 0
	.cfi_def_cfa_register 6
	sub	rsp, 64
	.seh_stackalloc	64
	.seh_endprologue
	mov	QWORD PTR 16[rbp], rcx
.LBB388:
	.loc 6 803 28
	mov	rax, QWORD PTR 16[rbp]
	mov	rcx, rax
	call	_ZNSt12_Vector_baseIcSaIcEE19_M_get_Tp_allocatorEv
	.loc 6 802 54
	mov	rdx, QWORD PTR 16[rbp]
	mov	rdx, QWORD PTR 8[rdx]
	.loc 6 802 30
	mov	rcx, QWORD PTR 16[rbp]
	mov	rcx, QWORD PTR [rcx]
	mov	QWORD PTR -8[rbp], rcx
	mov	QWORD PTR -16[rbp], rdx
	mov	QWORD PTR -24[rbp], rax
.LBB389:
.LBB390:
	.file 9 "C:/Qt/Tools/mingw1530_64/include/c++/15.3.0/bits/alloc_traits.h"
	.loc 9 1045 20
	mov	rdx, QWORD PTR -16[rbp]
	mov	rax, QWORD PTR -8[rbp]
	mov	rcx, rax
	call	_ZSt8_DestroyIPcEvT_S1_
	.loc 9 1046 5
	nop
.LBE390:
.LBE389:
	.loc 6 805 7
	mov	rax, QWORD PTR 16[rbp]
	mov	rcx, rax
	call	_ZNSt12_Vector_baseIcSaIcEED2Ev
.LBE388:
	nop
	add	rsp, 64
	pop	rbp
	.cfi_restore 6
	.cfi_def_cfa 7, 8
	ret
	.cfi_endproc
.LFE1784:
	.seh_handler	__gxx_personality_seh0, @unwind, @except
	.seh_handlerdata
.LLSDA1784:
	.byte	0xff
	.byte	0xff
	.byte	0x1
	.uleb128 .LLSDACSE1784-.LLSDACSB1784
.LLSDACSB1784:
.LLSDACSE1784:
	.section	.text$_ZNSt6vectorIcSaIcEED1Ev,"x"
	.linkonce discard
	.seh_endproc
	.section	.text$_ZNSt13_Bvector_baseISaIbEED2Ev,"x"
	.linkonce discard
	.align 2
	.globl	_ZNSt13_Bvector_baseISaIbEED2Ev
	.def	_ZNSt13_Bvector_baseISaIbEED2Ev;	.scl	2;	.type	32;	.endef
	.seh_proc	_ZNSt13_Bvector_baseISaIbEED2Ev
_ZNSt13_Bvector_baseISaIbEED2Ev:
.LFB1789:
	.loc 4 675 7
	.cfi_startproc
	push	rbp
	.seh_pushreg	rbp
	.cfi_def_cfa_offset 16
	.cfi_offset 6, -16
	mov	rbp, rsp
	.seh_setframe	rbp, 0
	.cfi_def_cfa_register 6
	sub	rsp, 32
	.seh_stackalloc	32
	.seh_endprologue
	mov	QWORD PTR 16[rbp], rcx
.LBB391:
	.loc 4 676 28
	mov	rax, QWORD PTR 16[rbp]
	mov	rcx, rax
	call	_ZNSt13_Bvector_baseISaIbEE13_M_deallocateEv
	.loc 4 676 32 discriminator 1
	mov	rax, QWORD PTR 16[rbp]
	mov	rcx, rax
	call	_ZNSt13_Bvector_baseISaIbEE13_Bvector_implD1Ev
.LBE391:
	.loc 4 676 32 is_stmt 0
	nop
	add	rsp, 32
	pop	rbp
	.cfi_restore 6
	.cfi_def_cfa 7, 8
	ret
	.cfi_endproc
.LFE1789:
	.seh_handler	__gxx_personality_seh0, @unwind, @except
	.seh_handlerdata
.LLSDA1789:
	.byte	0xff
	.byte	0xff
	.byte	0x1
	.uleb128 .LLSDACSE1789-.LLSDACSB1789
.LLSDACSB1789:
.LLSDACSE1789:
	.section	.text$_ZNSt13_Bvector_baseISaIbEED2Ev,"x"
	.linkonce discard
	.seh_endproc
	.section	.text$_ZNSt6vectorIbSaIbEED1Ev,"x"
	.linkonce discard
	.align 2
	.globl	_ZNSt6vectorIbSaIbEED1Ev
	.def	_ZNSt6vectorIbSaIbEED1Ev;	.scl	2;	.type	32;	.endef
	.seh_proc	_ZNSt6vectorIbSaIbEED1Ev
_ZNSt6vectorIbSaIbEED1Ev:
.LFB1793:
	.loc 4 926 7 is_stmt 1
	.cfi_startproc
	push	rbp
	.seh_pushreg	rbp
	.cfi_def_cfa_offset 16
	.cfi_offset 6, -16
	mov	rbp, rsp
	.seh_setframe	rbp, 0
	.cfi_def_cfa_register 6
	sub	rsp, 32
	.seh_stackalloc	32
	.seh_endprologue
	mov	QWORD PTR 16[rbp], rcx
.LBB392:
	.loc 4 926 37
	mov	rax, QWORD PTR 16[rbp]
	mov	rcx, rax
	call	_ZNSt13_Bvector_baseISaIbEED2Ev
.LBE392:
	nop
	add	rsp, 32
	pop	rbp
	.cfi_restore 6
	.cfi_def_cfa 7, 8
	ret
	.cfi_endproc
.LFE1793:
	.seh_endproc
	.section	.text$_ZNSt6vectorIcSaIcEE6resizeEy,"x"
	.linkonce discard
	.align 2
	.globl	_ZNSt6vectorIcSaIcEE6resizeEy
	.def	_ZNSt6vectorIcSaIcEE6resizeEy;	.scl	2;	.type	32;	.endef
	.seh_proc	_ZNSt6vectorIcSaIcEE6resizeEy
_ZNSt6vectorIcSaIcEE6resizeEy:
.LFB1794:
	.loc 6 1143 7
	.cfi_startproc
	push	rbp
	.seh_pushreg	rbp
	.cfi_def_cfa_offset 16
	.cfi_offset 6, -16
	mov	rbp, rsp
	.seh_setframe	rbp, 0
	.cfi_def_cfa_register 6
	sub	rsp, 32
	.seh_stackalloc	32
	.seh_endprologue
	mov	QWORD PTR 16[rbp], rcx
	mov	QWORD PTR 24[rbp], rdx
	.loc 6 1145 23
	mov	rax, QWORD PTR 16[rbp]
	mov	rcx, rax
	call	_ZNKSt6vectorIcSaIcEE4sizeEv
	.loc 6 1145 17 discriminator 1
	cmp	rax, QWORD PTR 24[rbp]
	setb	al
	.loc 6 1145 2 discriminator 1
	test	al, al
	je	.L113
	.loc 6 1146 39
	mov	rax, QWORD PTR 16[rbp]
	mov	rcx, rax
	call	_ZNKSt6vectorIcSaIcEE4sizeEv
	.loc 6 1146 21 discriminator 1
	mov	rdx, QWORD PTR 24[rbp]
	sub	rdx, rax
	mov	rax, QWORD PTR 16[rbp]
	mov	rcx, rax
	call	_ZNSt6vectorIcSaIcEE17_M_default_appendEy
	.loc 6 1149 7
	jmp	.L115
.L113:
	.loc 6 1147 28
	mov	rax, QWORD PTR 16[rbp]
	mov	rcx, rax
	call	_ZNKSt6vectorIcSaIcEE4sizeEv
	.loc 6 1147 22 discriminator 1
	cmp	QWORD PTR 24[rbp], rax
	setb	al
	.loc 6 1147 7 discriminator 1
	test	al, al
	je	.L115
	.loc 6 1148 34
	mov	rax, QWORD PTR 16[rbp]
	mov	rdx, QWORD PTR [rax]
	.loc 6 1148 19
	mov	rax, QWORD PTR 24[rbp]
	add	rdx, rax
	mov	rax, QWORD PTR 16[rbp]
	mov	rcx, rax
	call	_ZNSt6vectorIcSaIcEE15_M_erase_at_endEPc
.L115:
	.loc 6 1149 7
	nop
	add	rsp, 32
	pop	rbp
	.cfi_restore 6
	.cfi_def_cfa 7, 8
	ret
	.cfi_endproc
.LFE1794:
	.seh_endproc
	.section	.text$_ZNSt6vectorIbSaIbEE6assignEyRKb,"x"
	.linkonce discard
	.align 2
	.globl	_ZNSt6vectorIbSaIbEE6assignEyRKb
	.def	_ZNSt6vectorIbSaIbEE6assignEyRKb;	.scl	2;	.type	32;	.endef
	.seh_proc	_ZNSt6vectorIbSaIbEE6assignEyRKb
_ZNSt6vectorIbSaIbEE6assignEyRKb:
.LFB1795:
	.loc 4 1001 7
	.cfi_startproc
	push	rbp
	.seh_pushreg	rbp
	.cfi_def_cfa_offset 16
	.cfi_offset 6, -16
	mov	rbp, rsp
	.seh_setframe	rbp, 0
	.cfi_def_cfa_register 6
	sub	rsp, 32
	.seh_stackalloc	32
	.seh_endprologue
	mov	QWORD PTR 16[rbp], rcx
	mov	QWORD PTR 24[rbp], rdx
	mov	QWORD PTR 32[rbp], r8
	.loc 4 1002 23
	mov	rax, QWORD PTR 32[rbp]
	movzx	eax, BYTE PTR [rax]
	movzx	ecx, al
	mov	rdx, QWORD PTR 24[rbp]
	mov	rax, QWORD PTR 16[rbp]
	mov	r8d, ecx
	mov	rcx, rax
	call	_ZNSt6vectorIbSaIbEE14_M_fill_assignEyb
	.loc 4 1002 35
	nop
	add	rsp, 32
	pop	rbp
	.cfi_restore 6
	.cfi_def_cfa 7, 8
	ret
	.cfi_endproc
.LFE1795:
	.seh_endproc
	.section	.text$_ZNSt12_Vector_baseIcSaIcEE13_M_deallocateEPcy,"x"
	.linkonce discard
	.align 2
	.globl	_ZNSt12_Vector_baseIcSaIcEE13_M_deallocateEPcy
	.def	_ZNSt12_Vector_baseIcSaIcEE13_M_deallocateEPcy;	.scl	2;	.type	32;	.endef
	.seh_proc	_ZNSt12_Vector_baseIcSaIcEE13_M_deallocateEPcy
_ZNSt12_Vector_baseIcSaIcEE13_M_deallocateEPcy:
.LFB1796:
	.loc 6 392 7
	.cfi_startproc
	push	rbp
	.seh_pushreg	rbp
	.cfi_def_cfa_offset 16
	.cfi_offset 6, -16
	mov	rbp, rsp
	.seh_setframe	rbp, 0
	.cfi_def_cfa_register 6
	sub	rsp, 80
	.seh_stackalloc	80
	.seh_endprologue
	mov	QWORD PTR 16[rbp], rcx
	mov	QWORD PTR 24[rbp], rdx
	mov	QWORD PTR 32[rbp], r8
	.loc 6 395 2
	cmp	QWORD PTR 24[rbp], 0
	je	.L122
	.loc 6 396 20
	mov	rax, QWORD PTR 16[rbp]
	mov	QWORD PTR -8[rbp], rax
	mov	rax, QWORD PTR 24[rbp]
	mov	QWORD PTR -16[rbp], rax
	mov	rax, QWORD PTR 32[rbp]
	mov	QWORD PTR -24[rbp], rax
	mov	rax, QWORD PTR -8[rbp]
	mov	QWORD PTR -32[rbp], rax
	mov	rax, QWORD PTR -16[rbp]
	mov	QWORD PTR -40[rbp], rax
	mov	rax, QWORD PTR -24[rbp]
	mov	QWORD PTR -48[rbp], rax
.LBB393:
.LBB394:
.LBB395:
.LBB396:
.LBB397:
.LBB398:
	.file 10 "C:/Qt/Tools/mingw1530_64/include/c++/15.3.0/x86_64-w64-mingw32/bits/c++config.h"
	.loc 10 586 49
	mov	eax, 0
.LBE398:
.LBE397:
	.loc 7 210 2 discriminator 1
	test	al, al
	je	.L120
	.loc 7 212 23
	mov	rax, QWORD PTR -40[rbp]
	mov	rcx, rax
	call	_ZdlPv
	.loc 7 213 6
	jmp	.L121
.L120:
	.loc 7 215 35
	mov	rcx, QWORD PTR -48[rbp]
	mov	rdx, QWORD PTR -40[rbp]
	mov	rax, QWORD PTR -32[rbp]
	mov	r8, rcx
	mov	rcx, rax
	call	_ZNSt15__new_allocatorIcE10deallocateEPcy
.L121:
.LBE396:
.LBE395:
	.loc 9 649 35
	nop
.L122:
.LBE394:
.LBE393:
	.loc 6 397 7
	nop
	add	rsp, 80
	pop	rbp
	.cfi_restore 6
	.cfi_def_cfa 7, 8
	ret
	.cfi_endproc
.LFE1796:
	.seh_endproc
	.section	.text$_ZNSt12_Vector_baseIcSaIcEE19_M_get_Tp_allocatorEv,"x"
	.linkonce discard
	.align 2
	.globl	_ZNSt12_Vector_baseIcSaIcEE19_M_get_Tp_allocatorEv
	.def	_ZNSt12_Vector_baseIcSaIcEE19_M_get_Tp_allocatorEv;	.scl	2;	.type	32;	.endef
	.seh_proc	_ZNSt12_Vector_baseIcSaIcEE19_M_get_Tp_allocatorEv
_ZNSt12_Vector_baseIcSaIcEE19_M_get_Tp_allocatorEv:
.LFB1797:
	.loc 6 307 7
	.cfi_startproc
	push	rbp
	.seh_pushreg	rbp
	.cfi_def_cfa_offset 16
	.cfi_offset 6, -16
	mov	rbp, rsp
	.seh_setframe	rbp, 0
	.cfi_def_cfa_register 6
	.seh_endprologue
	mov	QWORD PTR 16[rbp], rcx
	.loc 6 308 22
	mov	rax, QWORD PTR 16[rbp]
	.loc 6 308 31
	pop	rbp
	.cfi_restore 6
	.cfi_def_cfa 7, 8
	ret
	.cfi_endproc
.LFE1797:
	.seh_endproc
	.section	.text$_ZNSt13_Bvector_baseISaIbEE13_M_deallocateEv,"x"
	.linkonce discard
	.align 2
	.globl	_ZNSt13_Bvector_baseISaIbEE13_M_deallocateEv
	.def	_ZNSt13_Bvector_baseISaIbEE13_M_deallocateEv;	.scl	2;	.type	32;	.endef
	.seh_proc	_ZNSt13_Bvector_baseISaIbEE13_M_deallocateEv
_ZNSt13_Bvector_baseISaIbEE13_M_deallocateEv:
.LFB1799:
	.loc 4 699 7
	.cfi_startproc
	push	rbp
	.seh_pushreg	rbp
	.cfi_def_cfa_offset 16
	.cfi_offset 6, -16
	mov	rbp, rsp
	.seh_setframe	rbp, 0
	.cfi_def_cfa_register 6
	sub	rsp, 96
	.seh_stackalloc	96
	.seh_endprologue
	mov	QWORD PTR 16[rbp], rcx
.LBB399:
	.loc 4 701 23
	mov	rax, QWORD PTR 16[rbp]
	mov	rax, QWORD PTR [rax]
	.loc 4 701 2
	test	rax, rax
	je	.L130
.LBB400:
	.loc 4 703 44
	mov	rax, QWORD PTR 16[rbp]
	mov	rcx, rax
	call	_ZNKSt13_Bvector_baseISaIbEE13_Bvector_impl11_M_end_addrEv
	mov	rdx, rax
	.loc 4 703 66 discriminator 1
	mov	rax, QWORD PTR 16[rbp]
	mov	rax, QWORD PTR [rax]
	.loc 4 703 47 discriminator 1
	sub	rdx, rax
	mov	rax, rdx
	sar	rax, 2
	.loc 4 703 19 discriminator 1
	mov	QWORD PTR -8[rbp], rax
	.loc 4 705 16
	mov	rax, QWORD PTR 16[rbp]
	mov	rax, QWORD PTR 32[rax]
	.loc 4 705 34
	mov	rdx, QWORD PTR -8[rbp]
	sal	rdx, 2
	neg	rdx
	.loc 4 704 35
	add	rdx, rax
	.loc 4 704 36
	mov	rax, QWORD PTR 16[rbp]
	mov	QWORD PTR -16[rbp], rax
	mov	QWORD PTR -24[rbp], rdx
	mov	rax, QWORD PTR -8[rbp]
	mov	QWORD PTR -32[rbp], rax
	mov	rax, QWORD PTR -16[rbp]
	mov	QWORD PTR -40[rbp], rax
	mov	rax, QWORD PTR -24[rbp]
	mov	QWORD PTR -48[rbp], rax
	mov	rax, QWORD PTR -32[rbp]
	mov	QWORD PTR -56[rbp], rax
.LBB401:
.LBB402:
.LBB403:
.LBB404:
.LBB405:
.LBB406:
	.loc 10 586 49
	mov	eax, 0
.LBE406:
.LBE405:
	.loc 7 210 2 discriminator 1
	test	al, al
	je	.L128
	.loc 7 212 23
	mov	rax, QWORD PTR -48[rbp]
	mov	rcx, rax
	call	_ZdlPv
	.loc 7 213 6
	jmp	.L129
.L128:
	.loc 7 215 35
	mov	rcx, QWORD PTR -56[rbp]
	mov	rdx, QWORD PTR -48[rbp]
	mov	rax, QWORD PTR -40[rbp]
	mov	r8, rcx
	mov	rcx, rax
	call	_ZNSt15__new_allocatorImE10deallocateEPmy
.L129:
.LBE404:
.LBE403:
	.loc 9 649 35
	nop
.LBE402:
.LBE401:
	.loc 4 707 22
	mov	rax, QWORD PTR 16[rbp]
	mov	rcx, rax
	call	_ZNSt13_Bvector_baseISaIbEE18_Bvector_impl_data8_M_resetEv
.L130:
.LBE400:
.LBE399:
	.loc 4 709 7
	nop
	add	rsp, 96
	pop	rbp
	.cfi_restore 6
	.cfi_def_cfa 7, 8
	ret
	.cfi_endproc
.LFE1799:
	.seh_endproc
	.section	.text$_ZNKSt6vectorIcSaIcEE4sizeEv,"x"
	.linkonce discard
	.align 2
	.globl	_ZNKSt6vectorIcSaIcEE4sizeEv
	.def	_ZNKSt6vectorIcSaIcEE4sizeEv;	.scl	2;	.type	32;	.endef
	.seh_proc	_ZNKSt6vectorIcSaIcEE4sizeEv
_ZNKSt6vectorIcSaIcEE4sizeEv:
.LFB1800:
	.loc 6 1117 7
	.cfi_startproc
	push	rbp
	.seh_pushreg	rbp
	.cfi_def_cfa_offset 16
	.cfi_offset 6, -16
	mov	rbp, rsp
	.seh_setframe	rbp, 0
	.cfi_def_cfa_register 6
	sub	rsp, 16
	.seh_stackalloc	16
	.seh_endprologue
	mov	QWORD PTR 16[rbp], rcx
	.loc 6 1119 34
	mov	rax, QWORD PTR 16[rbp]
	mov	rdx, QWORD PTR 8[rax]
	.loc 6 1119 60
	mov	rax, QWORD PTR 16[rbp]
	mov	rax, QWORD PTR [rax]
	.loc 6 1119 12
	sub	rdx, rax
	mov	QWORD PTR -8[rbp], rdx
	.loc 6 1120 2
	cmp	QWORD PTR -8[rbp], 0
	.loc 6 1122 24
	mov	rax, QWORD PTR -8[rbp]
	.loc 6 1123 7
	add	rsp, 16
	pop	rbp
	.cfi_restore 6
	.cfi_def_cfa 7, 8
	ret
	.cfi_endproc
.LFE1800:
	.seh_endproc
	.section	.text$_ZSt3maxIyERKT_S2_S2_,"x"
	.linkonce discard
	.globl	_ZSt3maxIyERKT_S2_S2_
	.def	_ZSt3maxIyERKT_S2_S2_;	.scl	2;	.type	32;	.endef
	.seh_proc	_ZSt3maxIyERKT_S2_S2_
_ZSt3maxIyERKT_S2_S2_:
.LFB1803:
	.loc 3 258 5
	.cfi_startproc
	push	rbp
	.seh_pushreg	rbp
	.cfi_def_cfa_offset 16
	.cfi_offset 6, -16
	mov	rbp, rsp
	.seh_setframe	rbp, 0
	.cfi_def_cfa_register 6
	.seh_endprologue
	mov	QWORD PTR 16[rbp], rcx
	mov	QWORD PTR 24[rbp], rdx
	.loc 3 263 15
	mov	rax, QWORD PTR 16[rbp]
	mov	rdx, QWORD PTR [rax]
	mov	rax, QWORD PTR 24[rbp]
	mov	rax, QWORD PTR [rax]
	.loc 3 263 7
	cmp	rdx, rax
	jnb	.L135
	.loc 3 264 9
	mov	rax, QWORD PTR 24[rbp]
	jmp	.L136
.L135:
	.loc 3 265 14
	mov	rax, QWORD PTR 16[rbp]
.L136:
	.loc 3 266 5
	pop	rbp
	.cfi_restore 6
	.cfi_def_cfa 7, 8
	ret
	.cfi_endproc
.LFE1803:
	.seh_endproc
	.section	.text$_ZNKSt6vectorIcSaIcEE12_M_check_lenEyPKc,"x"
	.linkonce discard
	.align 2
	.globl	_ZNKSt6vectorIcSaIcEE12_M_check_lenEyPKc
	.def	_ZNKSt6vectorIcSaIcEE12_M_check_lenEyPKc;	.scl	2;	.type	32;	.endef
	.seh_proc	_ZNKSt6vectorIcSaIcEE12_M_check_lenEyPKc
_ZNKSt6vectorIcSaIcEE12_M_check_lenEyPKc:
.LFB1802:
	.loc 6 2202 7
	.cfi_startproc
	push	rbp
	.seh_pushreg	rbp
	.cfi_def_cfa_offset 16
	.cfi_offset 6, -16
	push	rbx
	.seh_pushreg	rbx
	.cfi_def_cfa_offset 24
	.cfi_offset 3, -24
	sub	rsp, 56
	.seh_stackalloc	56
	.cfi_def_cfa_offset 80
	lea	rbp, 48[rsp]
	.seh_setframe	rbp, 48
	.cfi_def_cfa 6, 32
	.seh_endprologue
	mov	QWORD PTR 32[rbp], rcx
	mov	QWORD PTR 40[rbp], rdx
	mov	QWORD PTR 48[rbp], r8
	.loc 6 2204 14
	mov	rax, QWORD PTR 32[rbp]
	mov	rcx, rax
	call	_ZNKSt6vectorIcSaIcEE8max_sizeEv
	mov	rbx, rax
	.loc 6 2204 23 discriminator 1
	mov	rax, QWORD PTR 32[rbp]
	mov	rcx, rax
	call	_ZNKSt6vectorIcSaIcEE4sizeEv
	.loc 6 2204 17 discriminator 2
	sub	rbx, rax
	mov	rdx, rbx
	.loc 6 2204 26 discriminator 2
	mov	rax, QWORD PTR 40[rbp]
	cmp	rdx, rax
	setb	al
	.loc 6 2204 2 discriminator 2
	test	al, al
	je	.L138
	.loc 6 2205 24
	mov	rax, QWORD PTR 48[rbp]
	mov	rcx, rax
	call	_ZSt20__throw_length_errorPKc
.L138:
	.loc 6 2207 30
	mov	rax, QWORD PTR 32[rbp]
	mov	rcx, rax
	call	_ZNKSt6vectorIcSaIcEE4sizeEv
	mov	rbx, rax
	.loc 6 2207 50 discriminator 1
	mov	rax, QWORD PTR 32[rbp]
	mov	rcx, rax
	call	_ZNKSt6vectorIcSaIcEE4sizeEv
	.loc 6 2207 50 is_stmt 0 discriminator 2
	mov	QWORD PTR -16[rbp], rax
	.loc 6 2207 45 is_stmt 1 discriminator 2
	lea	rdx, 40[rbp]
	lea	rax, -16[rbp]
	mov	rcx, rax
	call	_ZSt3maxIyERKT_S2_S2_
	.loc 6 2207 33 discriminator 3
	mov	rax, QWORD PTR [rax]
	.loc 6 2207 18 discriminator 3
	add	rax, rbx
	mov	QWORD PTR -8[rbp], rax
	.loc 6 2208 22
	mov	rax, QWORD PTR 32[rbp]
	mov	rcx, rax
	call	_ZNKSt6vectorIcSaIcEE4sizeEv
	.loc 6 2208 48 discriminator 1
	cmp	QWORD PTR -8[rbp], rax
	jb	.L139
	.loc 6 2208 44 discriminator 3
	mov	rax, QWORD PTR 32[rbp]
	mov	rcx, rax
	call	_ZNKSt6vectorIcSaIcEE8max_sizeEv
	.loc 6 2208 25 discriminator 4
	cmp	rax, QWORD PTR -8[rbp]
	jnb	.L140
.L139:
	.loc 6 2208 58 discriminator 5
	mov	rax, QWORD PTR 32[rbp]
	mov	rcx, rax
	call	_ZNKSt6vectorIcSaIcEE8max_sizeEv
	.loc 6 2208 63
	jmp	.L142
.L140:
	.loc 6 2208 63 is_stmt 0 discriminator 6
	mov	rax, QWORD PTR -8[rbp]
.L142:
	.loc 6 2209 7 is_stmt 1
	add	rsp, 56
	pop	rbx
	.cfi_restore 3
	pop	rbp
	.cfi_restore 6
	.cfi_def_cfa 7, -40
	ret
	.cfi_endproc
.LFE1802:
	.seh_endproc
	.section .rdata,"dr"
.LC0:
	.ascii "vector::_M_default_append\0"
	.section	.text$_ZNSt6vectorIcSaIcEE17_M_default_appendEy,"x"
	.linkonce discard
	.align 2
	.globl	_ZNSt6vectorIcSaIcEE17_M_default_appendEy
	.def	_ZNSt6vectorIcSaIcEE17_M_default_appendEy;	.scl	2;	.type	32;	.endef
	.seh_proc	_ZNSt6vectorIcSaIcEE17_M_default_appendEy
_ZNSt6vectorIcSaIcEE17_M_default_appendEy:
.LFB1801:
	.file 11 "C:/Qt/Tools/mingw1530_64/include/c++/15.3.0/bits/vector.tcc"
	.loc 11 813 5
	.cfi_startproc
	push	rbp
	.seh_pushreg	rbp
	.cfi_def_cfa_offset 16
	.cfi_offset 6, -16
	push	rbx
	.seh_pushreg	rbx
	.cfi_def_cfa_offset 24
	.cfi_offset 3, -24
	sub	rsp, 120
	.seh_stackalloc	120
	.cfi_def_cfa_offset 144
	lea	rbp, 112[rsp]
	.seh_setframe	rbp, 112
	.cfi_def_cfa 6, 32
	.seh_endprologue
	mov	QWORD PTR 32[rbp], rcx
	mov	QWORD PTR 40[rbp], rdx
.LBB407:
	.loc 11 816 7
	cmp	QWORD PTR 40[rbp], 0
	je	.L153
.LBB408:
	.loc 11 818 33
	mov	rax, QWORD PTR 32[rbp]
	mov	rcx, rax
	call	_ZNKSt6vectorIcSaIcEE4sizeEv
	mov	QWORD PTR -8[rbp], rax
	.loc 11 819 49
	mov	rax, QWORD PTR 32[rbp]
	mov	rdx, QWORD PTR 16[rax]
	.loc 11 820 23
	mov	rax, QWORD PTR 32[rbp]
	mov	rax, QWORD PTR 8[rax]
	.loc 11 820 7
	sub	rdx, rax
	.loc 11 819 14
	mov	QWORD PTR -16[rbp], rdx
	.loc 11 822 25
	mov	rax, QWORD PTR 32[rbp]
	mov	rcx, rax
	call	_ZNKSt6vectorIcSaIcEE8max_sizeEv
	.loc 11 822 28 discriminator 1
	cmp	rax, QWORD PTR -8[rbp]
	jb	.L145
	.loc 11 822 50 discriminator 3
	mov	rax, QWORD PTR 32[rbp]
	mov	rcx, rax
	call	_ZNKSt6vectorIcSaIcEE8max_sizeEv
	.loc 11 822 53 discriminator 4
	sub	rax, QWORD PTR -8[rbp]
	.loc 11 822 28 discriminator 4
	cmp	rax, QWORD PTR -16[rbp]
	jnb	.L146
.L145:
	.loc 11 822 28 is_stmt 0 discriminator 5
	mov	eax, 1
	.loc 11 822 28
	jmp	.L147
.L146:
	.loc 11 822 28 discriminator 6
	mov	eax, 0
.L147:
	.loc 11 822 4 is_stmt 1 discriminator 8
	test	al, al
.LBB409:
	.loc 11 825 4
	mov	rax, QWORD PTR -16[rbp]
	cmp	rax, QWORD PTR 40[rbp]
	jb	.L149
	.loc 11 827 27
	mov	rax, QWORD PTR 32[rbp]
	mov	rax, QWORD PTR 8[rax]
	.loc 11 827 8
	test	rax, rax
	.loc 11 833 32
	mov	rax, QWORD PTR 32[rbp]
	mov	rcx, rax
	call	_ZNSt12_Vector_baseIcSaIcEE19_M_get_Tp_allocatorEv
	mov	rcx, rax
	.loc 11 832 50
	mov	rax, QWORD PTR 32[rbp]
	mov	rax, QWORD PTR 8[rax]
	.loc 11 832 35
	mov	rdx, QWORD PTR 40[rbp]
	mov	r8, rcx
	mov	rcx, rax
.LEHB2:
	call	_ZSt27__uninitialized_default_n_aIPcycET_S1_T0_RSaIT1_E
	.loc 11 831 32
	mov	rdx, QWORD PTR 32[rbp]
	mov	QWORD PTR 8[rdx], rax
.LBE409:
.LBE408:
.LBE407:
	.loc 11 900 5
	jmp	.L153
.L149:
.LBB418:
.LBB416:
.LBB414:
.LBB410:
	.loc 11 840 16
	mov	rax, QWORD PTR 32[rbp]
	mov	rax, QWORD PTR [rax]
	mov	QWORD PTR -24[rbp], rax
	.loc 11 841 16
	mov	rax, QWORD PTR 32[rbp]
	mov	rax, QWORD PTR 8[rax]
	mov	QWORD PTR -32[rbp], rax
	.loc 11 844 15
	lea	rcx, .LC0[rip]
	mov	rdx, QWORD PTR 40[rbp]
	mov	rax, QWORD PTR 32[rbp]
	mov	r8, rcx
	mov	rcx, rax
	call	_ZNKSt6vectorIcSaIcEE12_M_check_lenEyPKc
	.loc 11 844 15 is_stmt 0 discriminator 1
	mov	QWORD PTR -40[rbp], rax
	.loc 11 845 45 is_stmt 1
	mov	rax, QWORD PTR 32[rbp]
	mov	rdx, QWORD PTR -40[rbp]
	mov	rcx, rax
	call	_ZNSt12_Vector_baseIcSaIcEE11_M_allocateEy
.LEHE2:
	.loc 11 845 45 is_stmt 0 discriminator 1
	mov	QWORD PTR -48[rbp], rax
.LBB411:
	.loc 11 848 16 is_stmt 1
	mov	r8, QWORD PTR 32[rbp]
	mov	rcx, QWORD PTR -40[rbp]
	mov	rdx, QWORD PTR -48[rbp]
	lea	rax, -80[rbp]
	mov	r9, r8
	mov	r8, rcx
	mov	rcx, rax
	call	_ZNSt6vectorIcSaIcEE12_Guard_allocC1EPcyRSt12_Vector_baseIcS0_E
	.loc 11 851 27
	mov	rax, QWORD PTR 32[rbp]
	mov	rcx, rax
	call	_ZNSt12_Vector_baseIcSaIcEE19_M_get_Tp_allocatorEv
	mov	rdx, rax
	.loc 11 850 35
	mov	rcx, QWORD PTR -48[rbp]
	mov	rax, QWORD PTR -8[rbp]
	add	rcx, rax
	mov	rax, QWORD PTR 40[rbp]
	mov	r8, rdx
	mov	rdx, rax
.LEHB3:
	call	_ZSt27__uninitialized_default_n_aIPcycET_S1_T0_RSaIT1_E
.LEHE3:
	.loc 11 856 37
	mov	rax, QWORD PTR 32[rbp]
	mov	rcx, rax
	call	_ZNSt12_Vector_baseIcSaIcEE19_M_get_Tp_allocatorEv
	mov	rcx, rax
	.loc 11 855 18
	mov	r8, QWORD PTR -48[rbp]
	mov	rdx, QWORD PTR -32[rbp]
	mov	rax, QWORD PTR -24[rbp]
	mov	r9, rcx
	mov	rcx, rax
	call	_ZNSt6vectorIcSaIcEE11_S_relocateEPcS2_S2_RS0_
	.loc 11 889 22
	mov	rax, QWORD PTR -24[rbp]
	mov	QWORD PTR -80[rbp], rax
	.loc 11 890 34
	mov	rax, QWORD PTR 32[rbp]
	mov	rax, QWORD PTR 16[rax]
	.loc 11 890 52
	sub	rax, QWORD PTR -24[rbp]
	.loc 11 890 18
	mov	QWORD PTR -72[rbp], rax
	.loc 11 891 8
	lea	rax, -80[rbp]
	mov	rcx, rax
	call	_ZNSt6vectorIcSaIcEE12_Guard_allocD1Ev
.LBE411:
	.loc 11 895 31
	mov	rax, QWORD PTR 32[rbp]
	mov	rdx, QWORD PTR -48[rbp]
	mov	QWORD PTR [rax], rdx
	.loc 11 896 55
	mov	rdx, QWORD PTR -8[rbp]
	mov	rax, QWORD PTR 40[rbp]
	add	rdx, rax
	mov	rax, QWORD PTR -48[rbp]
	add	rdx, rax
	.loc 11 896 32
	mov	rax, QWORD PTR 32[rbp]
	mov	QWORD PTR 8[rax], rdx
	.loc 11 897 54
	mov	rdx, QWORD PTR -48[rbp]
	mov	rax, QWORD PTR -40[rbp]
	add	rdx, rax
	.loc 11 897 40
	mov	rax, QWORD PTR 32[rbp]
	mov	QWORD PTR 16[rax], rdx
.LBE410:
.LBE414:
.LBE416:
.LBE418:
	.loc 11 900 5
	jmp	.L153
.L152:
.LBB419:
.LBB417:
.LBB415:
.LBB413:
.LBB412:
	.loc 11 891 8
	mov	rbx, rax
	lea	rax, -80[rbp]
	mov	rcx, rax
	call	_ZNSt6vectorIcSaIcEE12_Guard_allocD1Ev
	mov	rax, rbx
	mov	rcx, rax
.LEHB4:
	call	_Unwind_Resume
.LEHE4:
.L153:
.LBE412:
.LBE413:
.LBE415:
.LBE417:
.LBE419:
	.loc 11 900 5
	nop
	add	rsp, 120
	pop	rbx
	.cfi_restore 3
	pop	rbp
	.cfi_restore 6
	.cfi_def_cfa 7, -104
	ret
	.cfi_endproc
.LFE1801:
	.seh_handler	__gxx_personality_seh0, @unwind, @except
	.seh_handlerdata
.LLSDA1801:
	.byte	0xff
	.byte	0xff
	.byte	0x1
	.uleb128 .LLSDACSE1801-.LLSDACSB1801
.LLSDACSB1801:
	.uleb128 .LEHB2-.LFB1801
	.uleb128 .LEHE2-.LEHB2
	.uleb128 0
	.uleb128 0
	.uleb128 .LEHB3-.LFB1801
	.uleb128 .LEHE3-.LEHB3
	.uleb128 .L152-.LFB1801
	.uleb128 0
	.uleb128 .LEHB4-.LFB1801
	.uleb128 .LEHE4-.LEHB4
	.uleb128 0
	.uleb128 0
.LLSDACSE1801:
	.section	.text$_ZNSt6vectorIcSaIcEE17_M_default_appendEy,"x"
	.linkonce discard
	.seh_endproc
	.section	.text$_ZNSt6vectorIcSaIcEE15_M_erase_at_endEPc,"x"
	.linkonce discard
	.align 2
	.globl	_ZNSt6vectorIcSaIcEE15_M_erase_at_endEPc
	.def	_ZNSt6vectorIcSaIcEE15_M_erase_at_endEPc;	.scl	2;	.type	32;	.endef
	.seh_proc	_ZNSt6vectorIcSaIcEE15_M_erase_at_endEPc
_ZNSt6vectorIcSaIcEE15_M_erase_at_endEPc:
.LFB1808:
	.loc 6 2239 7
	.cfi_startproc
	push	rbp
	.seh_pushreg	rbp
	.cfi_def_cfa_offset 16
	.cfi_offset 6, -16
	mov	rbp, rsp
	.seh_setframe	rbp, 0
	.cfi_def_cfa_register 6
	sub	rsp, 64
	.seh_stackalloc	64
	.seh_endprologue
	mov	QWORD PTR 16[rbp], rcx
	mov	QWORD PTR 24[rbp], rdx
.LBB420:
	.loc 6 2241 36
	mov	rax, QWORD PTR 16[rbp]
	mov	rax, QWORD PTR 8[rax]
	.loc 6 2241 46
	sub	rax, QWORD PTR 24[rbp]
	.loc 6 2241 16
	mov	QWORD PTR -8[rbp], rax
	.loc 6 2241 2
	cmp	QWORD PTR -8[rbp], 0
	je	.L156
	.loc 6 2244 25
	mov	rax, QWORD PTR 16[rbp]
	mov	rcx, rax
	call	_ZNSt12_Vector_baseIcSaIcEE19_M_get_Tp_allocatorEv
	.loc 6 2243 41
	mov	rdx, QWORD PTR 16[rbp]
	mov	rdx, QWORD PTR 8[rdx]
	mov	rcx, QWORD PTR 24[rbp]
	mov	QWORD PTR -16[rbp], rcx
	mov	QWORD PTR -24[rbp], rdx
	mov	QWORD PTR -32[rbp], rax
.LBB421:
.LBB422:
	.loc 9 1045 20
	mov	rdx, QWORD PTR -24[rbp]
	mov	rax, QWORD PTR -16[rbp]
	mov	rcx, rax
	call	_ZSt8_DestroyIPcEvT_S1_
	.loc 9 1046 5
	nop
.LBE422:
.LBE421:
	.loc 6 2245 30
	mov	rax, QWORD PTR 16[rbp]
	mov	rdx, QWORD PTR 24[rbp]
	mov	QWORD PTR 8[rax], rdx
.L156:
.LBE420:
	.loc 6 2248 7
	nop
	add	rsp, 64
	pop	rbp
	.cfi_restore 6
	.cfi_def_cfa 7, 8
	ret
	.cfi_endproc
.LFE1808:
	.seh_handler	__gxx_personality_seh0, @unwind, @except
	.seh_handlerdata
.LLSDA1808:
	.byte	0xff
	.byte	0xff
	.byte	0x1
	.uleb128 .LLSDACSE1808-.LLSDACSB1808
.LLSDACSB1808:
.LLSDACSE1808:
	.section	.text$_ZNSt6vectorIcSaIcEE15_M_erase_at_endEPc,"x"
	.linkonce discard
	.seh_endproc
	.section	.text$_ZNSt6vectorIbSaIbEE14_M_fill_assignEyb,"x"
	.linkonce discard
	.align 2
	.globl	_ZNSt6vectorIbSaIbEE14_M_fill_assignEyb
	.def	_ZNSt6vectorIbSaIbEE14_M_fill_assignEyb;	.scl	2;	.type	32;	.endef
	.seh_proc	_ZNSt6vectorIbSaIbEE14_M_fill_assignEyb
_ZNSt6vectorIbSaIbEE14_M_fill_assignEyb:
.LFB1809:
	.loc 4 1641 7
	.cfi_startproc
	push	rbp
	.seh_pushreg	rbp
	.cfi_def_cfa_offset 16
	.cfi_offset 6, -16
	push	rbx
	.seh_pushreg	rbx
	.cfi_def_cfa_offset 24
	.cfi_offset 3, -24
	sub	rsp, 152
	.seh_stackalloc	152
	.cfi_def_cfa_offset 176
	lea	rbp, 144[rsp]
	.seh_setframe	rbp, 144
	.cfi_def_cfa 6, 32
	.seh_endprologue
	mov	QWORD PTR 32[rbp], rcx
	mov	QWORD PTR 40[rbp], rdx
	mov	eax, r8d
	mov	BYTE PTR 48[rbp], al
	.loc 4 1643 16
	mov	rax, QWORD PTR 32[rbp]
	mov	rcx, rax
	call	_ZNKSt6vectorIbSaIbEE4sizeEv
	.loc 4 1643 10 discriminator 1
	cmp	rax, QWORD PTR 40[rbp]
	setb	al
	.loc 4 1643 2 discriminator 1
	test	al, al
	je	.L158
	.loc 4 1645 25
	movzx	eax, BYTE PTR 48[rbp]
	movzx	edx, al
	mov	rax, QWORD PTR 32[rbp]
	mov	rcx, rax
	call	_ZNSt6vectorIbSaIbEE19_M_initialize_valueEb
	.loc 4 1646 30
	mov	rax, QWORD PTR 32[rbp]
	mov	rcx, rax
	call	_ZNKSt6vectorIbSaIbEE4sizeEv
	.loc 4 1646 12 discriminator 1
	mov	rdx, QWORD PTR 40[rbp]
	mov	rbx, rdx
	sub	rbx, rax
	.loc 4 1646 16 discriminator 1
	lea	rax, -48[rbp]
	mov	rdx, QWORD PTR 32[rbp]
	mov	rcx, rax
	call	_ZNSt6vectorIbSaIbEE3endEv
	.loc 4 1646 16 is_stmt 0 discriminator 2
	lea	rdx, -48[rbp]
	lea	rax, -64[rbp]
	mov	rcx, rax
	call	_ZNSt19_Bit_const_iteratorC1ERKSt13_Bit_iterator
	.loc 4 1646 12 is_stmt 1 discriminator 3
	lea	rcx, -80[rbp]
	mov	rax, QWORD PTR -64[rbp]
	mov	rdx, QWORD PTR -56[rbp]
	mov	QWORD PTR -96[rbp], rax
	mov	QWORD PTR -88[rbp], rdx
	lea	r8, -96[rbp]
	mov	rax, QWORD PTR 32[rbp]
	lea	rdx, 48[rbp]
	mov	QWORD PTR 32[rsp], rdx
	mov	r9, rbx
	mov	rdx, rax
	call	_ZNSt6vectorIbSaIbEE6insertESt19_Bit_const_iteratoryRKb
	.loc 4 1653 7
	jmp	.L160
.L158:
	.loc 4 1650 21
	mov	rbx, QWORD PTR 40[rbp]
	.loc 4 1650 27
	lea	rax, -32[rbp]
	mov	rdx, QWORD PTR 32[rbp]
	mov	rcx, rax
	call	_ZNSt6vectorIbSaIbEE5beginEv
	.loc 4 1650 21 discriminator 1
	lea	rax, -16[rbp]
	lea	rdx, -32[rbp]
	mov	r8, rbx
	mov	rcx, rax
	call	_ZStplRKSt13_Bit_iteratorx
	.loc 4 1650 21 is_stmt 0 discriminator 2
	mov	rax, QWORD PTR -16[rbp]
	mov	rdx, QWORD PTR -8[rbp]
	mov	QWORD PTR -96[rbp], rax
	mov	QWORD PTR -88[rbp], rdx
	lea	rdx, -96[rbp]
	mov	rax, QWORD PTR 32[rbp]
	mov	rcx, rax
	call	_ZNSt6vectorIbSaIbEE15_M_erase_at_endESt13_Bit_iterator
	.loc 4 1651 25 is_stmt 1
	movzx	eax, BYTE PTR 48[rbp]
	movzx	edx, al
	mov	rax, QWORD PTR 32[rbp]
	mov	rcx, rax
	call	_ZNSt6vectorIbSaIbEE19_M_initialize_valueEb
.L160:
	.loc 4 1653 7
	nop
	add	rsp, 152
	pop	rbx
	.cfi_restore 3
	pop	rbp
	.cfi_restore 6
	.cfi_def_cfa 7, -136
	ret
	.cfi_endproc
.LFE1809:
	.seh_endproc
	.section	.text$_ZSt8_DestroyIPcEvT_S1_,"x"
	.linkonce discard
	.globl	_ZSt8_DestroyIPcEvT_S1_
	.def	_ZSt8_DestroyIPcEvT_S1_;	.scl	2;	.type	32;	.endef
	.seh_proc	_ZSt8_DestroyIPcEvT_S1_
_ZSt8_DestroyIPcEvT_S1_:
.LFB1811:
	.file 12 "C:/Qt/Tools/mingw1530_64/include/c++/15.3.0/bits/stl_construct.h"
	.loc 12 219 5
	.cfi_startproc
	push	rbp
	.seh_pushreg	rbp
	.cfi_def_cfa_offset 16
	.cfi_offset 6, -16
	mov	rbp, rsp
	.seh_setframe	rbp, 0
	.cfi_def_cfa_register 6
	sub	rsp, 48
	.seh_stackalloc	48
	.seh_endprologue
	mov	QWORD PTR 16[rbp], rcx
	mov	QWORD PTR 24[rbp], rdx
.LBB423:
.LBB424:
	.loc 10 586 49
	mov	eax, 0
.LBE424:
.LBE423:
	.loc 12 228 12 discriminator 1
	test	al, al
	je	.L167
	.loc 12 229 2
	jmp	.L164
.L166:
	mov	rax, QWORD PTR 16[rbp]
	mov	QWORD PTR -8[rbp], rax
.LBB425:
.LBB426:
	.file 13 "C:/Qt/Tools/mingw1530_64/include/c++/15.3.0/bits/move.h"
	.loc 13 53 37
	mov	rax, QWORD PTR -8[rbp]
.LBE426:
.LBE425:
	.loc 12 230 19 discriminator 1
	mov	rcx, rax
	call	_ZSt10destroy_atIcEvPT_
	.loc 12 229 2 discriminator 2
	add	QWORD PTR 16[rbp], 1
.L164:
	.loc 12 229 17 discriminator 1
	mov	rax, QWORD PTR 16[rbp]
	cmp	rax, QWORD PTR 24[rbp]
	jne	.L166
.L167:
	.loc 12 236 5
	nop
	add	rsp, 48
	pop	rbp
	.cfi_restore 6
	.cfi_def_cfa 7, 8
	ret
	.cfi_endproc
.LFE1811:
	.seh_endproc
	.section	.text$_ZNKSt13_Bvector_baseISaIbEE13_Bvector_impl11_M_end_addrEv,"x"
	.linkonce discard
	.align 2
	.globl	_ZNKSt13_Bvector_baseISaIbEE13_Bvector_impl11_M_end_addrEv
	.def	_ZNKSt13_Bvector_baseISaIbEE13_Bvector_impl11_M_end_addrEv;	.scl	2;	.type	32;	.endef
	.seh_proc	_ZNKSt13_Bvector_baseISaIbEE13_Bvector_impl11_M_end_addrEv
_ZNKSt13_Bvector_baseISaIbEE13_Bvector_impl11_M_end_addrEv:
.LFB1812:
	.loc 4 629 2
	.cfi_startproc
	push	rbp
	.seh_pushreg	rbp
	.cfi_def_cfa_offset 16
	.cfi_offset 6, -16
	mov	rbp, rsp
	.seh_setframe	rbp, 0
	.cfi_def_cfa_register 6
	sub	rsp, 16
	.seh_stackalloc	16
	.seh_endprologue
	mov	QWORD PTR 16[rbp], rcx
	.loc 4 631 14
	mov	rax, QWORD PTR 16[rbp]
	mov	rax, QWORD PTR 32[rax]
	.loc 4 631 4
	test	rax, rax
	je	.L169
	.loc 4 632 36
	mov	rax, QWORD PTR 16[rbp]
	mov	rax, QWORD PTR 32[rax]
	.loc 4 632 29
	sub	rax, 4
	mov	QWORD PTR -8[rbp], rax
.LBB427:
.LBB428:
	.loc 13 53 37
	mov	rax, QWORD PTR -8[rbp]
.LBE428:
.LBE427:
	.loc 4 632 61 discriminator 1
	add	rax, 4
	.loc 4 632 61 is_stmt 0
	jmp	.L171
.L169:
	.loc 4 633 11 is_stmt 1
	mov	eax, 0
.L171:
	.loc 4 634 2
	add	rsp, 16
	pop	rbp
	.cfi_restore 6
	.cfi_def_cfa 7, 8
	ret
	.cfi_endproc
.LFE1812:
	.seh_endproc
	.section	.text$_ZNSt13_Bvector_baseISaIbEE18_Bvector_impl_data8_M_resetEv,"x"
	.linkonce discard
	.align 2
	.globl	_ZNSt13_Bvector_baseISaIbEE18_Bvector_impl_data8_M_resetEv
	.def	_ZNSt13_Bvector_baseISaIbEE18_Bvector_impl_data8_M_resetEv;	.scl	2;	.type	32;	.endef
	.seh_proc	_ZNSt13_Bvector_baseISaIbEE18_Bvector_impl_data8_M_resetEv
_ZNSt13_Bvector_baseISaIbEE18_Bvector_impl_data8_M_resetEv:
.LFB1814:
	.loc 4 583 2
	.cfi_startproc
	push	rbp
	.seh_pushreg	rbp
	.cfi_def_cfa_offset 16
	.cfi_offset 6, -16
	push	rbx
	.seh_pushreg	rbx
	.cfi_def_cfa_offset 24
	.cfi_offset 3, -24
	sub	rsp, 88
	.seh_stackalloc	88
	.cfi_def_cfa_offset 112
	lea	rbp, 80[rsp]
	.seh_setframe	rbp, 80
	.cfi_def_cfa 6, 32
	.seh_endprologue
	mov	QWORD PTR 32[rbp], rcx
	.loc 4 584 12
	lea	rax, -48[rbp]
	mov	rcx, rax
	call	_ZNSt13_Bvector_baseISaIbEE18_Bvector_impl_dataC1Ev
	.loc 4 584 12 is_stmt 0 discriminator 1
	lea	rdx, -48[rbp]
	.loc 4 584 4 is_stmt 1 discriminator 1
	mov	rax, QWORD PTR 32[rbp]
	mov	rcx, QWORD PTR [rdx]
	mov	rbx, QWORD PTR 8[rdx]
	mov	QWORD PTR [rax], rcx
	mov	QWORD PTR 8[rax], rbx
	mov	rcx, QWORD PTR 16[rdx]
	mov	rbx, QWORD PTR 24[rdx]
	mov	QWORD PTR 16[rax], rcx
	mov	QWORD PTR 24[rax], rbx
	mov	rdx, QWORD PTR 32[rdx]
	mov	QWORD PTR 32[rax], rdx
	.loc 4 584 34
	nop
	add	rsp, 88
	pop	rbx
	.cfi_restore 3
	pop	rbp
	.cfi_restore 6
	.cfi_def_cfa 7, -72
	ret
	.cfi_endproc
.LFE1814:
	.seh_endproc
	.section	.text$_ZNKSt6vectorIcSaIcEE8max_sizeEv,"x"
	.linkonce discard
	.align 2
	.globl	_ZNKSt6vectorIcSaIcEE8max_sizeEv
	.def	_ZNKSt6vectorIcSaIcEE8max_sizeEv;	.scl	2;	.type	32;	.endef
	.seh_proc	_ZNKSt6vectorIcSaIcEE8max_sizeEv
_ZNKSt6vectorIcSaIcEE8max_sizeEv:
.LFB1815:
	.loc 6 1128 7
	.cfi_startproc
	push	rbp
	.seh_pushreg	rbp
	.cfi_def_cfa_offset 16
	.cfi_offset 6, -16
	mov	rbp, rsp
	.seh_setframe	rbp, 0
	.cfi_def_cfa_register 6
	sub	rsp, 32
	.seh_stackalloc	32
	.seh_endprologue
	mov	QWORD PTR 16[rbp], rcx
	.loc 6 1129 47
	mov	rax, QWORD PTR 16[rbp]
	mov	rcx, rax
	call	_ZNKSt12_Vector_baseIcSaIcEE19_M_get_Tp_allocatorEv
	.loc 6 1129 27 discriminator 1
	mov	rcx, rax
	call	_ZNSt6vectorIcSaIcEE11_S_max_sizeERKS0_
	.loc 6 1129 52
	add	rsp, 32
	pop	rbp
	.cfi_restore 6
	.cfi_def_cfa 7, 8
	ret
	.cfi_endproc
.LFE1815:
	.seh_endproc
	.section	.text$_ZSt27__uninitialized_default_n_aIPcycET_S1_T0_RSaIT1_E,"x"
	.linkonce discard
	.globl	_ZSt27__uninitialized_default_n_aIPcycET_S1_T0_RSaIT1_E
	.def	_ZSt27__uninitialized_default_n_aIPcycET_S1_T0_RSaIT1_E;	.scl	2;	.type	32;	.endef
	.seh_proc	_ZSt27__uninitialized_default_n_aIPcycET_S1_T0_RSaIT1_E
_ZSt27__uninitialized_default_n_aIPcycET_S1_T0_RSaIT1_E:
.LFB1816:
	.file 14 "C:/Qt/Tools/mingw1530_64/include/c++/15.3.0/bits/stl_uninitialized.h"
	.loc 14 1027 5
	.cfi_startproc
	push	rbp
	.seh_pushreg	rbp
	.cfi_def_cfa_offset 16
	.cfi_offset 6, -16
	mov	rbp, rsp
	.seh_setframe	rbp, 0
	.cfi_def_cfa_register 6
	sub	rsp, 32
	.seh_stackalloc	32
	.seh_endprologue
	mov	QWORD PTR 16[rbp], rcx
	mov	QWORD PTR 24[rbp], rdx
	mov	QWORD PTR 32[rbp], r8
	.loc 14 1029 44
	mov	rdx, QWORD PTR 24[rbp]
	mov	rax, QWORD PTR 16[rbp]
	mov	rcx, rax
	call	_ZSt25__uninitialized_default_nIPcyET_S1_T0_
	.loc 14 1029 60
	add	rsp, 32
	pop	rbp
	.cfi_restore 6
	.cfi_def_cfa 7, 8
	ret
	.cfi_endproc
.LFE1816:
	.seh_endproc
	.section	.text$_ZNSt12_Vector_baseIcSaIcEE11_M_allocateEy,"x"
	.linkonce discard
	.align 2
	.globl	_ZNSt12_Vector_baseIcSaIcEE11_M_allocateEy
	.def	_ZNSt12_Vector_baseIcSaIcEE11_M_allocateEy;	.scl	2;	.type	32;	.endef
	.seh_proc	_ZNSt12_Vector_baseIcSaIcEE11_M_allocateEy
_ZNSt12_Vector_baseIcSaIcEE11_M_allocateEy:
.LFB1817:
	.loc 6 384 7
	.cfi_startproc
	push	rbp
	.seh_pushreg	rbp
	.cfi_def_cfa_offset 16
	.cfi_offset 6, -16
	mov	rbp, rsp
	.seh_setframe	rbp, 0
	.cfi_def_cfa_register 6
	sub	rsp, 64
	.seh_stackalloc	64
	.seh_endprologue
	mov	QWORD PTR 16[rbp], rcx
	mov	QWORD PTR 24[rbp], rdx
	.loc 6 387 18
	cmp	QWORD PTR 24[rbp], 0
	je	.L178
	.loc 6 387 34 discriminator 1
	mov	rax, QWORD PTR 16[rbp]
	mov	QWORD PTR -8[rbp], rax
	mov	rax, QWORD PTR 24[rbp]
	mov	QWORD PTR -16[rbp], rax
	mov	rax, QWORD PTR -8[rbp]
	mov	QWORD PTR -24[rbp], rax
	mov	rax, QWORD PTR -16[rbp]
	mov	QWORD PTR -32[rbp], rax
.LBB429:
.LBB430:
.LBB431:
.LBB432:
.LBB433:
.LBB434:
	.loc 10 586 49
	mov	eax, 0
.LBE434:
.LBE433:
	.loc 7 196 2 discriminator 1
	test	al, al
	je	.L180
	.loc 7 198 32
	mov	rax, QWORD PTR -32[rbp]
	mov	QWORD PTR -32[rbp], rax
	mov	eax, 0
	and	eax, 1
	.loc 7 198 6
	test	al, al
	je	.L181
	.loc 7 199 41
	call	_ZSt28__throw_bad_array_new_lengthv
.L181:
	.loc 7 200 45
	mov	rax, QWORD PTR -32[rbp]
	mov	rcx, rax
	call	_Znwy
	.loc 7 200 50
	jmp	.L182
.L180:
	.loc 7 203 40
	mov	rdx, QWORD PTR -32[rbp]
	mov	rax, QWORD PTR -24[rbp]
	mov	r8d, 0
	mov	rcx, rax
	call	_ZNSt15__new_allocatorIcE8allocateEyPKv
	.loc 7 203 47
	nop
.L182:
.LBE432:
.LBE431:
	.loc 9 614 32
	nop
	jmp	.L184
.L178:
.LBE430:
.LBE429:
	.loc 6 387 58 discriminator 2
	mov	eax, 0
.L184:
	.loc 6 388 7
	add	rsp, 64
	pop	rbp
	.cfi_restore 6
	.cfi_def_cfa 7, 8
	ret
	.cfi_endproc
.LFE1817:
	.seh_endproc
	.section	.text$_ZNSt6vectorIcSaIcEE12_Guard_allocC1EPcyRSt12_Vector_baseIcS0_E,"x"
	.linkonce discard
	.align 2
	.globl	_ZNSt6vectorIcSaIcEE12_Guard_allocC1EPcyRSt12_Vector_baseIcS0_E
	.def	_ZNSt6vectorIcSaIcEE12_Guard_allocC1EPcyRSt12_Vector_baseIcS0_E;	.scl	2;	.type	32;	.endef
	.seh_proc	_ZNSt6vectorIcSaIcEE12_Guard_allocC1EPcyRSt12_Vector_baseIcS0_E
_ZNSt6vectorIcSaIcEE12_Guard_allocC1EPcyRSt12_Vector_baseIcS0_E:
.LFB1820:
	.loc 6 1875 2
	.cfi_startproc
	push	rbp
	.seh_pushreg	rbp
	.cfi_def_cfa_offset 16
	.cfi_offset 6, -16
	mov	rbp, rsp
	.seh_setframe	rbp, 0
	.cfi_def_cfa_register 6
	.seh_endprologue
	mov	QWORD PTR 16[rbp], rcx
	mov	QWORD PTR 24[rbp], rdx
	mov	QWORD PTR 32[rbp], r8
	mov	QWORD PTR 40[rbp], r9
.LBB435:
	.loc 6 1876 4
	mov	rax, QWORD PTR 16[rbp]
	mov	rdx, QWORD PTR 24[rbp]
	mov	QWORD PTR [rax], rdx
	.loc 6 1876 21
	mov	rax, QWORD PTR 16[rbp]
	mov	rdx, QWORD PTR 32[rbp]
	mov	QWORD PTR 8[rax], rdx
	.loc 6 1876 34
	mov	rax, QWORD PTR 16[rbp]
	mov	rdx, QWORD PTR 40[rbp]
	mov	QWORD PTR 16[rax], rdx
.LBE435:
	.loc 6 1877 4
	nop
	pop	rbp
	.cfi_restore 6
	.cfi_def_cfa 7, 8
	ret
	.cfi_endproc
.LFE1820:
	.seh_endproc
	.section	.text$_ZNSt6vectorIcSaIcEE12_Guard_allocD1Ev,"x"
	.linkonce discard
	.align 2
	.globl	_ZNSt6vectorIcSaIcEE12_Guard_allocD1Ev
	.def	_ZNSt6vectorIcSaIcEE12_Guard_allocD1Ev;	.scl	2;	.type	32;	.endef
	.seh_proc	_ZNSt6vectorIcSaIcEE12_Guard_allocD1Ev
_ZNSt6vectorIcSaIcEE12_Guard_allocD1Ev:
.LFB1823:
	.loc 6 1880 2
	.cfi_startproc
	push	rbp
	.seh_pushreg	rbp
	.cfi_def_cfa_offset 16
	.cfi_offset 6, -16
	mov	rbp, rsp
	.seh_setframe	rbp, 0
	.cfi_def_cfa_register 6
	sub	rsp, 32
	.seh_stackalloc	32
	.seh_endprologue
	mov	QWORD PTR 16[rbp], rcx
.LBB436:
	.loc 6 1882 8
	mov	rax, QWORD PTR 16[rbp]
	mov	rax, QWORD PTR [rax]
	.loc 6 1882 4
	test	rax, rax
	je	.L189
	.loc 6 1883 6
	mov	rax, QWORD PTR 16[rbp]
	mov	rax, QWORD PTR 16[rax]
	.loc 6 1883 40
	mov	rdx, QWORD PTR 16[rbp]
	mov	rcx, QWORD PTR 8[rdx]
	.loc 6 1883 28
	mov	rdx, QWORD PTR 16[rbp]
	mov	rdx, QWORD PTR [rdx]
	.loc 6 1883 27
	mov	r8, rcx
	mov	rcx, rax
	call	_ZNSt12_Vector_baseIcSaIcEE13_M_deallocateEPcy
.L189:
.LBE436:
	.loc 6 1884 2
	nop
	add	rsp, 32
	pop	rbp
	.cfi_restore 6
	.cfi_def_cfa 7, 8
	ret
	.cfi_endproc
.LFE1823:
	.seh_endproc
	.section	.text$_ZNSt6vectorIcSaIcEE11_S_relocateEPcS2_S2_RS0_,"x"
	.linkonce discard
	.globl	_ZNSt6vectorIcSaIcEE11_S_relocateEPcS2_S2_RS0_
	.def	_ZNSt6vectorIcSaIcEE11_S_relocateEPcS2_S2_RS0_;	.scl	2;	.type	32;	.endef
	.seh_proc	_ZNSt6vectorIcSaIcEE11_S_relocateEPcS2_S2_RS0_
_ZNSt6vectorIcSaIcEE11_S_relocateEPcS2_S2_RS0_:
.LFB1824:
	.loc 6 534 7
	.cfi_startproc
	push	rbp
	.seh_pushreg	rbp
	.cfi_def_cfa_offset 16
	.cfi_offset 6, -16
	mov	rbp, rsp
	.seh_setframe	rbp, 0
	.cfi_def_cfa_register 6
	sub	rsp, 32
	.seh_stackalloc	32
	.seh_endprologue
	mov	QWORD PTR 16[rbp], rcx
	mov	QWORD PTR 24[rbp], rdx
	mov	QWORD PTR 32[rbp], r8
	mov	QWORD PTR 40[rbp], r9
	.loc 6 539 26
	mov	r8, QWORD PTR 40[rbp]
	mov	rcx, QWORD PTR 32[rbp]
	mov	rdx, QWORD PTR 24[rbp]
	mov	rax, QWORD PTR 16[rbp]
	mov	r9, r8
	mov	r8, rcx
	mov	rcx, rax
	call	_ZSt12__relocate_aIPcS0_SaIcEET0_T_S3_S2_RT1_
	.loc 6 544 7
	add	rsp, 32
	pop	rbp
	.cfi_restore 6
	.cfi_def_cfa 7, 8
	ret
	.cfi_endproc
.LFE1824:
	.seh_endproc
	.section	.text$_ZNKSt6vectorIbSaIbEE4sizeEv,"x"
	.linkonce discard
	.align 2
	.globl	_ZNKSt6vectorIbSaIbEE4sizeEv
	.def	_ZNKSt6vectorIbSaIbEE4sizeEv;	.scl	2;	.type	32;	.endef
	.seh_proc	_ZNKSt6vectorIbSaIbEE4sizeEv
_ZNKSt6vectorIbSaIbEE4sizeEv:
.LFB1825:
	.loc 4 1127 7
	.cfi_startproc
	push	rbp
	.seh_pushreg	rbp
	.cfi_def_cfa_offset 16
	.cfi_offset 6, -16
	mov	rbp, rsp
	.seh_setframe	rbp, 0
	.cfi_def_cfa_register 6
	sub	rsp, 64
	.seh_stackalloc	64
	.seh_endprologue
	mov	QWORD PTR 16[rbp], rcx
	.loc 4 1128 39
	lea	rax, -32[rbp]
	mov	rdx, QWORD PTR 16[rbp]
	mov	rcx, rax
	call	_ZNKSt6vectorIbSaIbEE5beginEv
	.loc 4 1128 29 discriminator 1
	lea	rax, -16[rbp]
	mov	rdx, QWORD PTR 16[rbp]
	mov	rcx, rax
	call	_ZNKSt6vectorIbSaIbEE3endEv
	.loc 4 1128 32 discriminator 2
	lea	rdx, -32[rbp]
	lea	rax, -16[rbp]
	mov	rcx, rax
	call	_ZStmiRKSt18_Bit_iterator_baseS1_
	.loc 4 1128 44
	add	rsp, 64
	pop	rbp
	.cfi_restore 6
	.cfi_def_cfa 7, 8
	ret
	.cfi_endproc
.LFE1825:
	.seh_endproc
	.section	.text$_ZNSt6vectorIbSaIbEE19_M_initialize_valueEb,"x"
	.linkonce discard
	.align 2
	.globl	_ZNSt6vectorIbSaIbEE19_M_initialize_valueEb
	.def	_ZNSt6vectorIbSaIbEE19_M_initialize_valueEb;	.scl	2;	.type	32;	.endef
	.seh_proc	_ZNSt6vectorIbSaIbEE19_M_initialize_valueEb
_ZNSt6vectorIbSaIbEE19_M_initialize_valueEb:
.LFB1826:
	.loc 4 1568 7
	.cfi_startproc
	push	rbp
	.seh_pushreg	rbp
	.cfi_def_cfa_offset 16
	.cfi_offset 6, -16
	push	rbx
	.seh_pushreg	rbx
	.cfi_def_cfa_offset 24
	.cfi_offset 3, -24
	sub	rsp, 56
	.seh_stackalloc	56
	.cfi_def_cfa_offset 80
	lea	rbp, 48[rsp]
	.seh_setframe	rbp, 48
	.cfi_def_cfa 6, 32
	.seh_endprologue
	mov	QWORD PTR 32[rbp], rcx
	mov	eax, edx
	mov	BYTE PTR 40[rbp], al
.LBB437:
	.loc 4 1570 17
	mov	rax, QWORD PTR 32[rbp]
	mov	rax, QWORD PTR [rax]
	mov	QWORD PTR -8[rbp], rax
	.loc 4 1570 2
	cmp	QWORD PTR -8[rbp], 0
	je	.L196
	.loc 4 1571 20
	movzx	ebx, BYTE PTR 40[rbp]
	.loc 4 1571 51
	mov	rax, QWORD PTR 32[rbp]
	mov	rcx, rax
	call	_ZNKSt13_Bvector_baseISaIbEE13_Bvector_impl11_M_end_addrEv
	.loc 4 1571 54 discriminator 1
	sub	rax, QWORD PTR -8[rbp]
	sar	rax, 2
	.loc 4 1571 20 discriminator 1
	mov	rdx, rax
	mov	rax, QWORD PTR -8[rbp]
	mov	r8d, ebx
	mov	rcx, rax
	call	_ZSt16__fill_bvector_nPmyb
.L196:
.LBE437:
	.loc 4 1572 7
	nop
	add	rsp, 56
	pop	rbx
	.cfi_restore 3
	pop	rbp
	.cfi_restore 6
	.cfi_def_cfa 7, -40
	ret
	.cfi_endproc
.LFE1826:
	.seh_endproc
	.section	.text$_ZNSt6vectorIbSaIbEE3endEv,"x"
	.linkonce discard
	.align 2
	.globl	_ZNSt6vectorIbSaIbEE3endEv
	.def	_ZNSt6vectorIbSaIbEE3endEv;	.scl	2;	.type	32;	.endef
	.seh_proc	_ZNSt6vectorIbSaIbEE3endEv
_ZNSt6vectorIbSaIbEE3endEv:
.LFB1827:
	.loc 4 1075 7
	.cfi_startproc
	push	rbp
	.seh_pushreg	rbp
	.cfi_def_cfa_offset 16
	.cfi_offset 6, -16
	mov	rbp, rsp
	.seh_setframe	rbp, 0
	.cfi_def_cfa_register 6
	.seh_endprologue
	mov	QWORD PTR 16[rbp], rcx
	mov	QWORD PTR 24[rbp], rdx
	.loc 4 1076 30
	mov	rcx, QWORD PTR 16[rbp]
	mov	rax, QWORD PTR 24[rbp]
	mov	rdx, QWORD PTR 24[rax]
	mov	rax, QWORD PTR 16[rax]
	mov	QWORD PTR [rcx], rax
	mov	QWORD PTR 8[rcx], rdx
	.loc 4 1076 41
	mov	rax, QWORD PTR 16[rbp]
	pop	rbp
	.cfi_restore 6
	.cfi_def_cfa 7, 8
	ret
	.cfi_endproc
.LFE1827:
	.seh_endproc
	.section	.text$_ZNSt6vectorIbSaIbEE6insertESt19_Bit_const_iteratoryRKb,"x"
	.linkonce discard
	.align 2
	.globl	_ZNSt6vectorIbSaIbEE6insertESt19_Bit_const_iteratoryRKb
	.def	_ZNSt6vectorIbSaIbEE6insertESt19_Bit_const_iteratoryRKb;	.scl	2;	.type	32;	.endef
	.seh_proc	_ZNSt6vectorIbSaIbEE6insertESt19_Bit_const_iteratoryRKb
_ZNSt6vectorIbSaIbEE6insertESt19_Bit_const_iteratoryRKb:
.LFB1828:
	.loc 4 1331 7
	.cfi_startproc
	push	rbp
	.seh_pushreg	rbp
	.cfi_def_cfa_offset 16
	.cfi_offset 6, -16
	push	rsi
	.seh_pushreg	rsi
	.cfi_def_cfa_offset 24
	.cfi_offset 4, -24
	push	rbx
	.seh_pushreg	rbx
	.cfi_def_cfa_offset 32
	.cfi_offset 3, -32
	sub	rsp, 112
	.seh_stackalloc	112
	.cfi_def_cfa_offset 144
	lea	rbp, 112[rsp]
	.seh_setframe	rbp, 112
	.cfi_def_cfa 6, 32
	.seh_endprologue
	mov	QWORD PTR 32[rbp], rcx
	mov	QWORD PTR 40[rbp], rdx
	mov	rbx, r8
	mov	QWORD PTR 56[rbp], r9
	.loc 4 1333 48
	lea	rax, -64[rbp]
	mov	rdx, QWORD PTR 40[rbp]
	mov	rcx, rax
	call	_ZNKSt6vectorIbSaIbEE6cbeginEv
	.loc 4 1333 40 discriminator 1
	lea	rax, -64[rbp]
	mov	rdx, rax
	mov	rcx, rbx
	call	_ZStmiRKSt18_Bit_iterator_baseS1_
	mov	QWORD PTR -8[rbp], rax
	.loc 4 1334 16
	mov	rax, QWORD PTR 64[rbp]
	movzx	eax, BYTE PTR [rax]
	movzx	esi, al
	lea	rax, -48[rbp]
	mov	rdx, rbx
	mov	rcx, rax
	call	_ZNKSt19_Bit_const_iterator13_M_const_castEv
	.loc 4 1334 16 is_stmt 0 discriminator 1
	mov	rax, QWORD PTR -48[rbp]
	mov	rdx, QWORD PTR -40[rbp]
	mov	QWORD PTR -80[rbp], rax
	mov	QWORD PTR -72[rbp], rdx
	mov	rcx, QWORD PTR 56[rbp]
	lea	rdx, -80[rbp]
	mov	rax, QWORD PTR 40[rbp]
	mov	r9d, esi
	mov	r8, rcx
	mov	rcx, rax
	call	_ZNSt6vectorIbSaIbEE14_M_fill_insertESt13_Bit_iteratoryb
	.loc 4 1335 14 is_stmt 1
	lea	rax, -32[rbp]
	mov	rdx, QWORD PTR 40[rbp]
	mov	rcx, rax
	call	_ZNSt6vectorIbSaIbEE5beginEv
	.loc 4 1335 17 discriminator 1
	mov	rax, QWORD PTR 32[rbp]
	mov	rcx, QWORD PTR -8[rbp]
	lea	rdx, -32[rbp]
	mov	r8, rcx
	mov	rcx, rax
	call	_ZStplRKSt13_Bit_iteratorx
	.loc 4 1335 19
	nop
	.loc 4 1336 7
	mov	rax, QWORD PTR 32[rbp]
	add	rsp, 112
	pop	rbx
	.cfi_restore 3
	pop	rsi
	.cfi_restore 4
	pop	rbp
	.cfi_restore 6
	.cfi_def_cfa 7, -88
	ret
	.cfi_endproc
.LFE1828:
	.seh_endproc
	.section	.text$_ZNSt6vectorIbSaIbEE15_M_erase_at_endESt13_Bit_iterator,"x"
	.linkonce discard
	.align 2
	.globl	_ZNSt6vectorIbSaIbEE15_M_erase_at_endESt13_Bit_iterator
	.def	_ZNSt6vectorIbSaIbEE15_M_erase_at_endESt13_Bit_iterator;	.scl	2;	.type	32;	.endef
	.seh_proc	_ZNSt6vectorIbSaIbEE15_M_erase_at_endESt13_Bit_iterator
_ZNSt6vectorIbSaIbEE15_M_erase_at_endESt13_Bit_iterator:
.LFB1829:
	.loc 4 1746 7
	.cfi_startproc
	push	rbp
	.seh_pushreg	rbp
	.cfi_def_cfa_offset 16
	.cfi_offset 6, -16
	push	rbx
	.seh_pushreg	rbx
	.cfi_def_cfa_offset 24
	.cfi_offset 3, -24
	lea	rbp, [rsp]
	.seh_setframe	rbp, 0
	.cfi_def_cfa_register 6
	.seh_endprologue
	mov	QWORD PTR 24[rbp], rcx
	mov	rbx, rdx
	.loc 4 1747 9
	mov	rax, QWORD PTR 24[rbp]
	mov	rdx, QWORD PTR [rbx]
	mov	QWORD PTR 16[rax], rdx
	mov	edx, DWORD PTR 8[rbx]
	mov	DWORD PTR 24[rax], edx
	.loc 4 1747 42
	nop
	pop	rbx
	.cfi_restore 3
	pop	rbp
	.cfi_restore 6
	.cfi_def_cfa 7, 16
	ret
	.cfi_endproc
.LFE1829:
	.seh_endproc
	.section	.text$_ZNSt6vectorIbSaIbEE5beginEv,"x"
	.linkonce discard
	.align 2
	.globl	_ZNSt6vectorIbSaIbEE5beginEv
	.def	_ZNSt6vectorIbSaIbEE5beginEv;	.scl	2;	.type	32;	.endef
	.seh_proc	_ZNSt6vectorIbSaIbEE5beginEv
_ZNSt6vectorIbSaIbEE5beginEv:
.LFB1830:
	.loc 4 1065 7
	.cfi_startproc
	push	rbp
	.seh_pushreg	rbp
	.cfi_def_cfa_offset 16
	.cfi_offset 6, -16
	mov	rbp, rsp
	.seh_setframe	rbp, 0
	.cfi_def_cfa_register 6
	sub	rsp, 32
	.seh_stackalloc	32
	.seh_endprologue
	mov	QWORD PTR 16[rbp], rcx
	mov	QWORD PTR 24[rbp], rdx
	.loc 4 1066 55
	mov	rax, QWORD PTR 24[rbp]
	mov	rdx, QWORD PTR [rax]
	mov	rax, QWORD PTR 16[rbp]
	mov	r8d, 0
	mov	rcx, rax
	call	_ZNSt13_Bit_iteratorC1EPmj
	.loc 4 1066 58
	mov	rax, QWORD PTR 16[rbp]
	add	rsp, 32
	pop	rbp
	.cfi_restore 6
	.cfi_def_cfa 7, 8
	ret
	.cfi_endproc
.LFE1830:
	.seh_endproc
	.section	.text$_ZSt10destroy_atIcEvPT_,"x"
	.linkonce discard
	.globl	_ZSt10destroy_atIcEvPT_
	.def	_ZSt10destroy_atIcEvPT_;	.scl	2;	.type	32;	.endef
	.seh_proc	_ZSt10destroy_atIcEvPT_
_ZSt10destroy_atIcEvPT_:
.LFB1833:
	.loc 12 80 5
	.cfi_startproc
	push	rbp
	.seh_pushreg	rbp
	.cfi_def_cfa_offset 16
	.cfi_offset 6, -16
	mov	rbp, rsp
	.seh_setframe	rbp, 0
	.cfi_def_cfa_register 6
	.seh_endprologue
	mov	QWORD PTR 16[rbp], rcx
	.loc 12 89 5
	nop
	pop	rbp
	.cfi_restore 6
	.cfi_def_cfa 7, 8
	ret
	.cfi_endproc
.LFE1833:
	.seh_endproc
	.section	.text$_ZNSt6vectorIcSaIcEE11_S_max_sizeERKS0_,"x"
	.linkonce discard
	.globl	_ZNSt6vectorIcSaIcEE11_S_max_sizeERKS0_
	.def	_ZNSt6vectorIcSaIcEE11_S_max_sizeERKS0_;	.scl	2;	.type	32;	.endef
	.seh_proc	_ZNSt6vectorIcSaIcEE11_S_max_sizeERKS0_
_ZNSt6vectorIcSaIcEE11_S_max_sizeERKS0_:
.LFB1836:
	.loc 6 2222 7
	.cfi_startproc
	push	rbp
	.seh_pushreg	rbp
	.cfi_def_cfa_offset 16
	.cfi_offset 6, -16
	mov	rbp, rsp
	.seh_setframe	rbp, 0
	.cfi_def_cfa_register 6
	sub	rsp, 48
	.seh_stackalloc	48
	.seh_endprologue
	mov	QWORD PTR 16[rbp], rcx
	.loc 6 2227 15
	movabs	rax, 9223372036854775807
	mov	QWORD PTR -8[rbp], rax
	.loc 6 2229 15
	mov	QWORD PTR -16[rbp], -1
	.loc 6 2230 19
	lea	rdx, -16[rbp]
	lea	rax, -8[rbp]
	mov	rcx, rax
	call	_ZSt3minIyERKT_S2_S2_
	.loc 6 2230 41 discriminator 1
	mov	rax, QWORD PTR [rax]
	.loc 6 2231 7
	add	rsp, 48
	pop	rbp
	.cfi_restore 6
	.cfi_def_cfa 7, 8
	ret
	.cfi_endproc
.LFE1836:
	.seh_endproc
	.section	.text$_ZNKSt12_Vector_baseIcSaIcEE19_M_get_Tp_allocatorEv,"x"
	.linkonce discard
	.align 2
	.globl	_ZNKSt12_Vector_baseIcSaIcEE19_M_get_Tp_allocatorEv
	.def	_ZNKSt12_Vector_baseIcSaIcEE19_M_get_Tp_allocatorEv;	.scl	2;	.type	32;	.endef
	.seh_proc	_ZNKSt12_Vector_baseIcSaIcEE19_M_get_Tp_allocatorEv
_ZNKSt12_Vector_baseIcSaIcEE19_M_get_Tp_allocatorEv:
.LFB1838:
	.loc 6 312 7
	.cfi_startproc
	push	rbp
	.seh_pushreg	rbp
	.cfi_def_cfa_offset 16
	.cfi_offset 6, -16
	mov	rbp, rsp
	.seh_setframe	rbp, 0
	.cfi_def_cfa_register 6
	.seh_endprologue
	mov	QWORD PTR 16[rbp], rcx
	.loc 6 313 22
	mov	rax, QWORD PTR 16[rbp]
	.loc 6 313 31
	pop	rbp
	.cfi_restore 6
	.cfi_def_cfa 7, 8
	ret
	.cfi_endproc
.LFE1838:
	.seh_endproc
	.section	.text$_ZSt25__uninitialized_default_nIPcyET_S1_T0_,"x"
	.linkonce discard
	.globl	_ZSt25__uninitialized_default_nIPcyET_S1_T0_
	.def	_ZSt25__uninitialized_default_nIPcyET_S1_T0_;	.scl	2;	.type	32;	.endef
	.seh_proc	_ZSt25__uninitialized_default_nIPcyET_S1_T0_
_ZSt25__uninitialized_default_nIPcyET_S1_T0_:
.LFB1839:
	.loc 14 958 5
	.cfi_startproc
	push	rbp
	.seh_pushreg	rbp
	.cfi_def_cfa_offset 16
	.cfi_offset 6, -16
	mov	rbp, rsp
	.seh_setframe	rbp, 0
	.cfi_def_cfa_register 6
	sub	rsp, 48
	.seh_stackalloc	48
	.seh_endprologue
	mov	QWORD PTR 16[rbp], rcx
	mov	QWORD PTR 24[rbp], rdx
	.loc 14 961 37
	call	_ZSt21is_constant_evaluatedv
	.loc 14 961 7 discriminator 1
	test	al, al
	je	.L210
	.loc 14 963 22
	mov	rdx, QWORD PTR 24[rbp]
	mov	rax, QWORD PTR 16[rbp]
	mov	rcx, rax
	call	_ZNSt27__uninitialized_default_n_1ILb0EE18__uninit_default_nIPcyEET_S3_T0_
	.loc 14 963 35
	jmp	.L211
.L210:
	.loc 14 969 22
	mov	BYTE PTR -1[rbp], 1
	.loc 14 974 20
	mov	rdx, QWORD PTR 24[rbp]
	mov	rax, QWORD PTR 16[rbp]
	mov	rcx, rax
	call	_ZNSt27__uninitialized_default_n_1ILb1EE18__uninit_default_nIPcyEET_S3_T0_
	.loc 14 974 33
	nop
.L211:
	.loc 14 975 5
	add	rsp, 48
	pop	rbp
	.cfi_restore 6
	.cfi_def_cfa 7, 8
	ret
	.cfi_endproc
.LFE1839:
	.seh_endproc
	.section	.text$_ZSt12__relocate_aIPcS0_SaIcEET0_T_S3_S2_RT1_,"x"
	.linkonce discard
	.globl	_ZSt12__relocate_aIPcS0_SaIcEET0_T_S3_S2_RT1_
	.def	_ZSt12__relocate_aIPcS0_SaIcEET0_T_S3_S2_RT1_;	.scl	2;	.type	32;	.endef
	.seh_proc	_ZSt12__relocate_aIPcS0_SaIcEET0_T_S3_S2_RT1_
_ZSt12__relocate_aIPcS0_SaIcEET0_T_S3_S2_RT1_:
.LFB1841:
	.loc 14 1380 5
	.cfi_startproc
	push	rbp
	.seh_pushreg	rbp
	.cfi_def_cfa_offset 16
	.cfi_offset 6, -16
	mov	rbp, rsp
	.seh_setframe	rbp, 0
	.cfi_def_cfa_register 6
	sub	rsp, 64
	.seh_stackalloc	64
	.seh_endprologue
	mov	QWORD PTR 16[rbp], rcx
	mov	QWORD PTR 24[rbp], rdx
	mov	QWORD PTR 32[rbp], r8
	mov	QWORD PTR 40[rbp], r9
	mov	rax, QWORD PTR 32[rbp]
	mov	QWORD PTR -24[rbp], rax
.LBB438:
.LBB439:
	.file 15 "C:/Qt/Tools/mingw1530_64/include/c++/15.3.0/bits/stl_iterator.h"
	.loc 15 3011 14
	mov	rcx, QWORD PTR -24[rbp]
	mov	rax, QWORD PTR 24[rbp]
	mov	QWORD PTR -16[rbp], rax
.LBE439:
.LBE438:
.LBB440:
.LBB441:
	mov	rdx, QWORD PTR -16[rbp]
	mov	rax, QWORD PTR 16[rbp]
	mov	QWORD PTR -8[rbp], rax
.LBE441:
.LBE440:
.LBB442:
.LBB443:
	mov	rax, QWORD PTR -8[rbp]
.LBE443:
.LBE442:
	.loc 14 1386 33 discriminator 3
	mov	r8, QWORD PTR 40[rbp]
	mov	r9, r8
	mov	r8, rcx
	mov	rcx, rax
	call	_ZSt14__relocate_a_1IccENSt9enable_ifIXsrSt24__is_bitwise_relocatableIT_vE5valueEPS2_E4typeES4_S4_S4_RSaIT0_E
	.loc 14 1389 5
	add	rsp, 64
	pop	rbp
	.cfi_restore 6
	.cfi_def_cfa 7, 8
	ret
	.cfi_endproc
.LFE1841:
	.seh_endproc
	.section	.text$_ZNKSt6vectorIbSaIbEE3endEv,"x"
	.linkonce discard
	.align 2
	.globl	_ZNKSt6vectorIbSaIbEE3endEv
	.def	_ZNKSt6vectorIbSaIbEE3endEv;	.scl	2;	.type	32;	.endef
	.seh_proc	_ZNKSt6vectorIbSaIbEE3endEv
_ZNKSt6vectorIbSaIbEE3endEv:
.LFB1842:
	.loc 4 1080 7
	.cfi_startproc
	push	rbp
	.seh_pushreg	rbp
	.cfi_def_cfa_offset 16
	.cfi_offset 6, -16
	mov	rbp, rsp
	.seh_setframe	rbp, 0
	.cfi_def_cfa_register 6
	sub	rsp, 32
	.seh_stackalloc	32
	.seh_endprologue
	mov	QWORD PTR 16[rbp], rcx
	mov	QWORD PTR 24[rbp], rdx
	.loc 4 1081 30
	mov	rax, QWORD PTR 24[rbp]
	lea	rdx, 16[rax]
	mov	rax, QWORD PTR 16[rbp]
	mov	rcx, rax
	call	_ZNSt19_Bit_const_iteratorC1ERKSt13_Bit_iterator
	.loc 4 1081 41
	mov	rax, QWORD PTR 16[rbp]
	add	rsp, 32
	pop	rbp
	.cfi_restore 6
	.cfi_def_cfa 7, 8
	ret
	.cfi_endproc
.LFE1842:
	.seh_endproc
	.section	.text$_ZNKSt6vectorIbSaIbEE5beginEv,"x"
	.linkonce discard
	.align 2
	.globl	_ZNKSt6vectorIbSaIbEE5beginEv
	.def	_ZNKSt6vectorIbSaIbEE5beginEv;	.scl	2;	.type	32;	.endef
	.seh_proc	_ZNKSt6vectorIbSaIbEE5beginEv
_ZNKSt6vectorIbSaIbEE5beginEv:
.LFB1843:
	.loc 4 1070 7
	.cfi_startproc
	push	rbp
	.seh_pushreg	rbp
	.cfi_def_cfa_offset 16
	.cfi_offset 6, -16
	mov	rbp, rsp
	.seh_setframe	rbp, 0
	.cfi_def_cfa_register 6
	sub	rsp, 32
	.seh_stackalloc	32
	.seh_endprologue
	mov	QWORD PTR 16[rbp], rcx
	mov	QWORD PTR 24[rbp], rdx
	.loc 4 1071 54
	mov	rax, QWORD PTR 24[rbp]
	mov	rdx, QWORD PTR [rax]
	.loc 4 1071 61
	mov	rax, QWORD PTR 16[rbp]
	mov	r8d, 0
	mov	rcx, rax
	call	_ZNSt19_Bit_const_iteratorC1EPmj
	.loc 4 1071 64
	mov	rax, QWORD PTR 16[rbp]
	add	rsp, 32
	pop	rbp
	.cfi_restore 6
	.cfi_def_cfa 7, 8
	ret
	.cfi_endproc
.LFE1843:
	.seh_endproc
	.section	.text$_ZNKSt6vectorIbSaIbEE6cbeginEv,"x"
	.linkonce discard
	.align 2
	.globl	_ZNKSt6vectorIbSaIbEE6cbeginEv
	.def	_ZNKSt6vectorIbSaIbEE6cbeginEv;	.scl	2;	.type	32;	.endef
	.seh_proc	_ZNKSt6vectorIbSaIbEE6cbeginEv
_ZNKSt6vectorIbSaIbEE6cbeginEv:
.LFB1844:
	.loc 4 1106 7
	.cfi_startproc
	push	rbp
	.seh_pushreg	rbp
	.cfi_def_cfa_offset 16
	.cfi_offset 6, -16
	mov	rbp, rsp
	.seh_setframe	rbp, 0
	.cfi_def_cfa_register 6
	sub	rsp, 32
	.seh_stackalloc	32
	.seh_endprologue
	mov	QWORD PTR 16[rbp], rcx
	mov	QWORD PTR 24[rbp], rdx
	.loc 4 1107 54
	mov	rax, QWORD PTR 24[rbp]
	mov	rdx, QWORD PTR [rax]
	.loc 4 1107 61
	mov	rax, QWORD PTR 16[rbp]
	mov	r8d, 0
	mov	rcx, rax
	call	_ZNSt19_Bit_const_iteratorC1EPmj
	.loc 4 1107 64
	mov	rax, QWORD PTR 16[rbp]
	add	rsp, 32
	pop	rbp
	.cfi_restore 6
	.cfi_def_cfa 7, 8
	ret
	.cfi_endproc
.LFE1844:
	.seh_endproc
	.section	.text$_ZNKSt6vectorIbSaIbEE12_M_check_lenEyPKc,"x"
	.linkonce discard
	.align 2
	.globl	_ZNKSt6vectorIbSaIbEE12_M_check_lenEyPKc
	.def	_ZNKSt6vectorIbSaIbEE12_M_check_lenEyPKc;	.scl	2;	.type	32;	.endef
	.seh_proc	_ZNKSt6vectorIbSaIbEE12_M_check_lenEyPKc
_ZNKSt6vectorIbSaIbEE12_M_check_lenEyPKc:
.LFB1846:
	.loc 4 1735 7
	.cfi_startproc
	push	rbp
	.seh_pushreg	rbp
	.cfi_def_cfa_offset 16
	.cfi_offset 6, -16
	push	rbx
	.seh_pushreg	rbx
	.cfi_def_cfa_offset 24
	.cfi_offset 3, -24
	sub	rsp, 56
	.seh_stackalloc	56
	.cfi_def_cfa_offset 80
	lea	rbp, 48[rsp]
	.seh_setframe	rbp, 48
	.cfi_def_cfa 6, 32
	.seh_endprologue
	mov	QWORD PTR 32[rbp], rcx
	mov	QWORD PTR 40[rbp], rdx
	mov	QWORD PTR 48[rbp], r8
	.loc 4 1737 14
	mov	rax, QWORD PTR 32[rbp]
	mov	rcx, rax
	call	_ZNKSt6vectorIbSaIbEE8max_sizeEv
	mov	rbx, rax
	.loc 4 1737 23 discriminator 1
	mov	rax, QWORD PTR 32[rbp]
	mov	rcx, rax
	call	_ZNKSt6vectorIbSaIbEE4sizeEv
	.loc 4 1737 17 discriminator 2
	sub	rbx, rax
	mov	rdx, rbx
	.loc 4 1737 26 discriminator 2
	mov	rax, QWORD PTR 40[rbp]
	cmp	rdx, rax
	setb	al
	.loc 4 1737 2 discriminator 2
	test	al, al
	je	.L224
	.loc 4 1738 24
	mov	rax, QWORD PTR 48[rbp]
	mov	rcx, rax
	call	_ZSt20__throw_length_errorPKc
.L224:
	.loc 4 1740 30
	mov	rax, QWORD PTR 32[rbp]
	mov	rcx, rax
	call	_ZNKSt6vectorIbSaIbEE4sizeEv
	mov	rbx, rax
	.loc 4 1740 48 discriminator 1
	mov	rax, QWORD PTR 32[rbp]
	mov	rcx, rax
	call	_ZNKSt6vectorIbSaIbEE4sizeEv
	.loc 4 1740 48 is_stmt 0 discriminator 2
	mov	QWORD PTR -16[rbp], rax
	.loc 4 1740 43 is_stmt 1 discriminator 2
	lea	rdx, 40[rbp]
	lea	rax, -16[rbp]
	mov	rcx, rax
	call	_ZSt3maxIyERKT_S2_S2_
	.loc 4 1740 33 discriminator 3
	mov	rax, QWORD PTR [rax]
	.loc 4 1740 18 discriminator 3
	add	rax, rbx
	mov	QWORD PTR -8[rbp], rax
	.loc 4 1741 22
	mov	rax, QWORD PTR 32[rbp]
	mov	rcx, rax
	call	_ZNKSt6vectorIbSaIbEE4sizeEv
	.loc 4 1741 48 discriminator 1
	cmp	QWORD PTR -8[rbp], rax
	jb	.L225
	.loc 4 1741 44 discriminator 3
	mov	rax, QWORD PTR 32[rbp]
	mov	rcx, rax
	call	_ZNKSt6vectorIbSaIbEE8max_sizeEv
	.loc 4 1741 25 discriminator 4
	cmp	rax, QWORD PTR -8[rbp]
	jnb	.L226
.L225:
	.loc 4 1741 58 discriminator 5
	mov	rax, QWORD PTR 32[rbp]
	mov	rcx, rax
	call	_ZNKSt6vectorIbSaIbEE8max_sizeEv
	.loc 4 1741 63
	jmp	.L228
.L226:
	.loc 4 1741 63 is_stmt 0 discriminator 6
	mov	rax, QWORD PTR -8[rbp]
.L228:
	.loc 4 1742 7 is_stmt 1
	add	rsp, 56
	pop	rbx
	.cfi_restore 3
	pop	rbp
	.cfi_restore 6
	.cfi_def_cfa 7, -40
	ret
	.cfi_endproc
.LFE1846:
	.seh_endproc
	.section .rdata,"dr"
.LC1:
	.ascii "vector<bool>::_M_fill_insert\0"
	.section	.text$_ZNSt6vectorIbSaIbEE14_M_fill_insertESt13_Bit_iteratoryb,"x"
	.linkonce discard
	.align 2
	.globl	_ZNSt6vectorIbSaIbEE14_M_fill_insertESt13_Bit_iteratoryb
	.def	_ZNSt6vectorIbSaIbEE14_M_fill_insertESt13_Bit_iteratoryb;	.scl	2;	.type	32;	.endef
	.seh_proc	_ZNSt6vectorIbSaIbEE14_M_fill_insertESt13_Bit_iteratoryb
_ZNSt6vectorIbSaIbEE14_M_fill_insertESt13_Bit_iteratoryb:
.LFB1845:
	.loc 11 1186 5
	.cfi_startproc
	push	rbp
	.seh_pushreg	rbp
	.cfi_def_cfa_offset 16
	.cfi_offset 6, -16
	push	rsi
	.seh_pushreg	rsi
	.cfi_def_cfa_offset 24
	.cfi_offset 4, -24
	push	rbx
	.seh_pushreg	rbx
	.cfi_def_cfa_offset 32
	.cfi_offset 3, -32
	sub	rsp, 784
	.seh_stackalloc	784
	.cfi_def_cfa_offset 816
	lea	rbp, 128[rsp]
	.seh_setframe	rbp, 128
	.cfi_def_cfa 6, 688
	.seh_endprologue
	mov	QWORD PTR 688[rbp], rcx
	mov	rbx, rdx
	mov	QWORD PTR 704[rbp], r8
	mov	eax, r9d
	mov	BYTE PTR 712[rbp], al
	.loc 11 1189 7
	cmp	QWORD PTR 704[rbp], 0
	je	.L241
.LBB444:
	.loc 11 1191 19
	mov	rax, QWORD PTR 688[rbp]
	mov	rcx, rax
	call	_ZNKSt6vectorIbSaIbEE8capacityEv
	mov	rsi, rax
	.loc 11 1191 28 discriminator 1
	mov	rax, QWORD PTR 688[rbp]
	mov	rcx, rax
	call	_ZNKSt6vectorIbSaIbEE4sizeEv
	.loc 11 1191 22 discriminator 2
	sub	rsi, rax
	mov	rdx, rsi
	.loc 11 1191 31 discriminator 2
	cmp	rdx, QWORD PTR 704[rbp]
	setnb	al
	.loc 11 1191 7 discriminator 2
	test	al, al
	je	.L232
	.loc 11 1193 22
	mov	rcx, QWORD PTR 704[rbp]
	.loc 11 1194 23
	mov	rax, QWORD PTR 688[rbp]
	lea	rdx, 16[rax]
	.loc 11 1193 22
	lea	rax, 400[rbp]
	mov	r8, rcx
	mov	rcx, rax
	call	_ZStplRKSt13_Bit_iteratorx
	.loc 11 1193 22 is_stmt 0 discriminator 1
	lea	rax, 416[rbp]
	mov	rdx, QWORD PTR 688[rbp]
	mov	rcx, rax
	call	_ZNSt6vectorIbSaIbEE3endEv
	mov	rax, QWORD PTR [rbx]
	mov	rdx, QWORD PTR 8[rbx]
	mov	QWORD PTR 304[rbp], rax
	mov	QWORD PTR 312[rbp], rdx
	mov	rax, QWORD PTR 416[rbp]
	mov	rdx, QWORD PTR 424[rbp]
	mov	QWORD PTR 288[rbp], rax
	mov	QWORD PTR 296[rbp], rdx
	mov	rax, QWORD PTR 400[rbp]
	mov	rdx, QWORD PTR 408[rbp]
	mov	QWORD PTR 272[rbp], rax
	mov	QWORD PTR 280[rbp], rdx
.LBB445:
.LBB446:
	.loc 3 847 7 is_stmt 1
	lea	rcx, 592[rbp]
	mov	rax, QWORD PTR 288[rbp]
	mov	rdx, QWORD PTR 296[rbp]
	mov	QWORD PTR -48[rbp], rax
	mov	QWORD PTR -40[rbp], rdx
	lea	rax, -48[rbp]
	mov	rdx, rax
	call	_ZSt12__miter_baseISt13_Bit_iteratorET_S1_
	.loc 3 847 7 is_stmt 0 discriminator 1
	lea	rcx, 576[rbp]
	mov	rax, QWORD PTR 304[rbp]
	mov	rdx, QWORD PTR 312[rbp]
	mov	QWORD PTR -48[rbp], rax
	mov	QWORD PTR -40[rbp], rdx
	lea	rax, -48[rbp]
	mov	rdx, rax
	call	_ZSt12__miter_baseISt13_Bit_iteratorET_S1_
	mov	rax, QWORD PTR 576[rbp]
	mov	rdx, QWORD PTR 584[rbp]
	mov	QWORD PTR 256[rbp], rax
	mov	QWORD PTR 264[rbp], rdx
	mov	rax, QWORD PTR 592[rbp]
	mov	rdx, QWORD PTR 600[rbp]
	mov	QWORD PTR 240[rbp], rax
	mov	QWORD PTR 248[rbp], rdx
	mov	rax, QWORD PTR 272[rbp]
	mov	rdx, QWORD PTR 280[rbp]
	mov	QWORD PTR 224[rbp], rax
	mov	QWORD PTR 232[rbp], rdx
	mov	rax, QWORD PTR 224[rbp]
	mov	rdx, QWORD PTR 232[rbp]
	mov	QWORD PTR 208[rbp], rax
	mov	QWORD PTR 216[rbp], rdx
.LBB447:
.LBB448:
.LBB449:
.LBB450:
	.loc 15 3011 14 is_stmt 1
	mov	rax, QWORD PTR 208[rbp]
	mov	rdx, QWORD PTR 216[rbp]
	mov	QWORD PTR 512[rbp], rax
	mov	QWORD PTR 520[rbp], rdx
	mov	rax, QWORD PTR 240[rbp]
	mov	rdx, QWORD PTR 248[rbp]
	mov	QWORD PTR 192[rbp], rax
	mov	QWORD PTR 200[rbp], rdx
.LBE450:
.LBE449:
.LBB451:
.LBB452:
	mov	rax, QWORD PTR 192[rbp]
	mov	rdx, QWORD PTR 200[rbp]
	mov	QWORD PTR 528[rbp], rax
	mov	QWORD PTR 536[rbp], rdx
	mov	rax, QWORD PTR 256[rbp]
	mov	rdx, QWORD PTR 264[rbp]
	mov	QWORD PTR 176[rbp], rax
	mov	QWORD PTR 184[rbp], rdx
.LBE452:
.LBE451:
.LBB453:
.LBB454:
	mov	rax, QWORD PTR 176[rbp]
	mov	rdx, QWORD PTR 184[rbp]
	mov	QWORD PTR 544[rbp], rax
	mov	QWORD PTR 552[rbp], rdx
	mov	rax, QWORD PTR 544[rbp]
	mov	rdx, QWORD PTR 552[rbp]
	mov	QWORD PTR 160[rbp], rax
	mov	QWORD PTR 168[rbp], rdx
	mov	rax, QWORD PTR 528[rbp]
	mov	rdx, QWORD PTR 536[rbp]
	mov	QWORD PTR 144[rbp], rax
	mov	QWORD PTR 152[rbp], rdx
	mov	rax, QWORD PTR 512[rbp]
	mov	rdx, QWORD PTR 520[rbp]
	mov	QWORD PTR 128[rbp], rax
	mov	QWORD PTR 136[rbp], rdx
.LBE454:
.LBE453:
.LBB455:
.LBB456:
	.loc 3 753 51
	lea	rcx, 560[rbp]
	mov	rax, QWORD PTR 160[rbp]
	mov	rdx, QWORD PTR 168[rbp]
	mov	QWORD PTR -48[rbp], rax
	mov	QWORD PTR -40[rbp], rdx
	mov	rax, QWORD PTR 144[rbp]
	mov	rdx, QWORD PTR 152[rbp]
	mov	QWORD PTR -64[rbp], rax
	mov	QWORD PTR -56[rbp], rdx
	mov	rax, QWORD PTR 128[rbp]
	mov	rdx, QWORD PTR 136[rbp]
	mov	QWORD PTR -80[rbp], rax
	mov	QWORD PTR -72[rbp], rdx
	lea	r8, -80[rbp]
	lea	rdx, -64[rbp]
	lea	rax, -48[rbp]
	mov	r9, r8
	mov	r8, rdx
	mov	rdx, rax
	call	_ZSt23__copy_move_backward_a2ILb0ESt13_Bit_iteratorS0_ET1_T0_S2_S1_
	.loc 3 753 77
	nop
	mov	rax, QWORD PTR 560[rbp]
	mov	rdx, QWORD PTR 568[rbp]
	mov	QWORD PTR 112[rbp], rax
	mov	QWORD PTR 120[rbp], rdx
.LBE456:
.LBE455:
.LBB457:
.LBB458:
	.loc 15 3082 14
	mov	rax, QWORD PTR 112[rbp]
	mov	rdx, QWORD PTR 120[rbp]
	mov	QWORD PTR 384[rbp], rax
	mov	QWORD PTR 392[rbp], rdx
.LBE458:
.LBE457:
	.loc 3 786 34
	nop
.LBE448:
.LBE447:
	.loc 3 847 71
	nop
.LBE446:
.LBE445:
	.loc 11 1195 13
	mov	rdx, QWORD PTR 704[rbp]
	lea	rax, 432[rbp]
	mov	r8, rdx
	mov	rdx, rbx
	mov	rcx, rax
	call	_ZStplRKSt13_Bit_iteratorx
	mov	rax, QWORD PTR [rbx]
	mov	rdx, QWORD PTR 8[rbx]
	mov	QWORD PTR 368[rbp], rax
	mov	QWORD PTR 376[rbp], rdx
	mov	rax, QWORD PTR 432[rbp]
	mov	rdx, QWORD PTR 440[rbp]
	mov	QWORD PTR 352[rbp], rax
	mov	QWORD PTR 360[rbp], rdx
	mov	rax, QWORD PTR 368[rbp]
	mov	rdx, QWORD PTR 376[rbp]
	mov	QWORD PTR 336[rbp], rax
	mov	QWORD PTR 344[rbp], rdx
	mov	rax, QWORD PTR 352[rbp]
	mov	rdx, QWORD PTR 360[rbp]
	mov	QWORD PTR 320[rbp], rax
	mov	QWORD PTR 328[rbp], rdx
	lea	rax, 712[rbp]
	mov	QWORD PTR 632[rbp], rax
.LBB459:
.LBB460:
.LBB461:
.LBB462:
	.loc 3 979 21
	mov	rax, QWORD PTR 336[rbp]
	mov	rdx, QWORD PTR 344[rbp]
	mov	QWORD PTR -80[rbp], rax
	mov	QWORD PTR -72[rbp], rdx
	mov	rax, QWORD PTR 320[rbp]
	mov	rdx, QWORD PTR 328[rbp]
	mov	QWORD PTR -64[rbp], rax
	mov	QWORD PTR -56[rbp], rdx
	mov	rcx, QWORD PTR 632[rbp]
	lea	rdx, -64[rbp]
	lea	rax, -80[rbp]
	mov	r8, rcx
	mov	rcx, rax
	call	_ZSt9__fill_a1St13_Bit_iteratorS_RKb
	.loc 3 979 49
	nop
.LBE462:
.LBE461:
	.loc 3 1012 5
	nop
.LBE460:
.LBE459:
	.loc 11 1196 28
	mov	rax, QWORD PTR 704[rbp]
	mov	rdx, QWORD PTR 688[rbp]
	lea	rcx, 16[rdx]
	mov	rdx, rax
	call	_ZNSt13_Bit_iteratorpLEx
	jmp	.L229
.L232:
.LBB463:
	.loc 11 1201 18
	lea	rcx, .LC1[rip]
	mov	rdx, QWORD PTR 704[rbp]
	mov	rax, QWORD PTR 688[rbp]
	mov	r8, rcx
	mov	rcx, rax
	call	_ZNKSt6vectorIbSaIbEE12_M_check_lenEyPKc
	.loc 11 1201 18 is_stmt 0 discriminator 2
	mov	QWORD PTR 648[rbp], rax
	.loc 11 1202 28 is_stmt 1
	lea	rax, 96[rbp]
	mov	rdx, QWORD PTR 688[rbp]
	mov	rcx, rax
	call	_ZNSt6vectorIbSaIbEE5beginEv
	.loc 11 1202 43 discriminator 1
	lea	rax, 80[rbp]
	mov	rdx, QWORD PTR 688[rbp]
	mov	rcx, rax
	call	_ZNSt6vectorIbSaIbEE3endEv
	.loc 11 1203 40
	mov	rax, QWORD PTR 688[rbp]
	mov	rdx, QWORD PTR 648[rbp]
	mov	rcx, rax
	call	_ZNSt13_Bvector_baseISaIbEE11_M_allocateEy
	.loc 11 1203 40 is_stmt 0 discriminator 2
	mov	QWORD PTR 640[rbp], rax
	mov	rax, QWORD PTR 640[rbp]
	mov	QWORD PTR 624[rbp], rax
.LBB464:
.LBB465:
	.loc 13 53 37 is_stmt 1
	mov	rdx, QWORD PTR 624[rbp]
.LBE465:
.LBE464:
	.loc 11 1204 13 discriminator 1
	lea	rax, 64[rbp]
	mov	r8d, 0
	mov	rcx, rax
	call	_ZNSt13_Bit_iteratorC1EPmj
	.loc 11 1205 44
	lea	rax, 448[rbp]
	mov	rdx, rbx
	mov	rcx, rax
	call	_ZNSt19_Bit_const_iteratorC1ERKSt13_Bit_iterator
	.loc 11 1205 35 discriminator 1
	lea	rdx, 96[rbp]
	lea	rax, 464[rbp]
	mov	rcx, rax
	call	_ZNSt19_Bit_const_iteratorC1ERKSt13_Bit_iterator
	.loc 11 1205 34 discriminator 2
	lea	rcx, 48[rbp]
	mov	rax, QWORD PTR 464[rbp]
	mov	rdx, QWORD PTR 472[rbp]
	mov	QWORD PTR -80[rbp], rax
	mov	QWORD PTR -72[rbp], rdx
	mov	rax, QWORD PTR 448[rbp]
	mov	rdx, QWORD PTR 456[rbp]
	mov	QWORD PTR -64[rbp], rax
	mov	QWORD PTR -56[rbp], rdx
	mov	rax, QWORD PTR 64[rbp]
	mov	rdx, QWORD PTR 72[rbp]
	mov	QWORD PTR -48[rbp], rax
	mov	QWORD PTR -40[rbp], rdx
	lea	r9, -64[rbp]
	lea	r8, -80[rbp]
	mov	rax, QWORD PTR 688[rbp]
	lea	rdx, -48[rbp]
	mov	QWORD PTR 32[rsp], rdx
	mov	rdx, rax
	call	_ZNSt6vectorIbSaIbEE15_M_copy_alignedESt19_Bit_const_iteratorS2_St13_Bit_iterator
	.loc 11 1206 13
	mov	rcx, QWORD PTR 704[rbp]
	lea	rax, 480[rbp]
	lea	rdx, 48[rbp]
	mov	r8, rcx
	mov	rcx, rax
	call	_ZStplRKSt13_Bit_iteratorx
	mov	rax, QWORD PTR 48[rbp]
	mov	rdx, QWORD PTR 56[rbp]
	mov	QWORD PTR 16[rbp], rax
	mov	QWORD PTR 24[rbp], rdx
	mov	rax, QWORD PTR 480[rbp]
	mov	rdx, QWORD PTR 488[rbp]
	mov	QWORD PTR 0[rbp], rax
	mov	QWORD PTR 8[rbp], rdx
	mov	rax, QWORD PTR 16[rbp]
	mov	rdx, QWORD PTR 24[rbp]
	mov	QWORD PTR -16[rbp], rax
	mov	QWORD PTR -8[rbp], rdx
	mov	rax, QWORD PTR 0[rbp]
	mov	rdx, QWORD PTR 8[rbp]
	mov	QWORD PTR -32[rbp], rax
	mov	QWORD PTR -24[rbp], rdx
	lea	rax, 712[rbp]
	mov	QWORD PTR 616[rbp], rax
.LBB466:
.LBB467:
.LBB468:
.LBB469:
	.loc 3 979 21
	mov	rax, QWORD PTR -16[rbp]
	mov	rdx, QWORD PTR -8[rbp]
	mov	QWORD PTR -80[rbp], rax
	mov	QWORD PTR -72[rbp], rdx
	mov	rax, QWORD PTR -32[rbp]
	mov	rdx, QWORD PTR -24[rbp]
	mov	QWORD PTR -64[rbp], rax
	mov	QWORD PTR -56[rbp], rdx
	mov	rcx, QWORD PTR 616[rbp]
	lea	rdx, -64[rbp]
	lea	rax, -80[rbp]
	mov	r8, rcx
	mov	rcx, rax
	call	_ZSt9__fill_a1St13_Bit_iteratorS_RKb
	.loc 3 979 49
	nop
.LBE469:
.LBE468:
	.loc 3 1012 5
	nop
.LBE467:
.LBE466:
	.loc 11 1207 33
	mov	rcx, QWORD PTR 704[rbp]
	lea	rax, 496[rbp]
	lea	rdx, 48[rbp]
	mov	r8, rcx
	mov	rcx, rax
	call	_ZStplRKSt13_Bit_iteratorx
	.loc 11 1207 33 is_stmt 0 discriminator 1
	lea	rcx, 32[rbp]
	mov	rax, QWORD PTR [rbx]
	mov	rdx, QWORD PTR 8[rbx]
	mov	QWORD PTR -80[rbp], rax
	mov	QWORD PTR -72[rbp], rdx
	mov	rax, QWORD PTR 80[rbp]
	mov	rdx, QWORD PTR 88[rbp]
	mov	QWORD PTR -64[rbp], rax
	mov	QWORD PTR -56[rbp], rdx
	mov	rax, QWORD PTR 496[rbp]
	mov	rdx, QWORD PTR 504[rbp]
	mov	QWORD PTR -48[rbp], rax
	mov	QWORD PTR -40[rbp], rdx
	lea	r8, -48[rbp]
	lea	rdx, -64[rbp]
	lea	rax, -80[rbp]
	mov	r9, r8
	mov	r8, rdx
	mov	rdx, rax
	call	_ZSt4copyISt13_Bit_iteratorS0_ET0_T_S2_S1_
	.loc 11 1209 23 is_stmt 1
	mov	rax, QWORD PTR 688[rbp]
	mov	rcx, rax
	call	_ZNSt13_Bvector_baseISaIbEE13_M_deallocateEv
	.loc 11 1210 52
	mov	rax, QWORD PTR 648[rbp]
	mov	rcx, rax
	call	_ZNSt13_Bvector_baseISaIbEE8_S_nwordEy
	.loc 11 1210 42 discriminator 1
	lea	rdx, 0[0+rax*4]
	mov	rax, QWORD PTR 640[rbp]
	add	rdx, rax
	.loc 11 1210 36 discriminator 1
	mov	rax, QWORD PTR 688[rbp]
	mov	QWORD PTR 32[rax], rdx
	.loc 11 1211 4
	mov	rax, QWORD PTR 688[rbp]
	mov	rdx, QWORD PTR 64[rbp]
	mov	QWORD PTR [rax], rdx
	mov	edx, DWORD PTR 72[rbp]
	mov	DWORD PTR 8[rax], edx
	.loc 11 1212 4
	mov	rax, QWORD PTR 688[rbp]
	mov	rdx, QWORD PTR 32[rbp]
	mov	QWORD PTR 16[rax], rdx
	mov	edx, DWORD PTR 40[rbp]
	mov	DWORD PTR 24[rax], edx
	jmp	.L229
.L241:
.LBE463:
.LBE444:
	.loc 11 1190 2
	nop
.L229:
	.loc 11 1214 5
	add	rsp, 784
	pop	rbx
	.cfi_restore 3
	pop	rsi
	.cfi_restore 4
	pop	rbp
	.cfi_restore 6
	.cfi_def_cfa 7, -760
	ret
	.cfi_endproc
.LFE1845:
	.seh_endproc
	.section	.text$_ZNSt15__new_allocatorIcE10deallocateEPcy,"x"
	.linkonce discard
	.align 2
	.globl	_ZNSt15__new_allocatorIcE10deallocateEPcy
	.def	_ZNSt15__new_allocatorIcE10deallocateEPcy;	.scl	2;	.type	32;	.endef
	.seh_proc	_ZNSt15__new_allocatorIcE10deallocateEPcy
_ZNSt15__new_allocatorIcE10deallocateEPcy:
.LFB1847:
	.loc 8 156 7
	.cfi_startproc
	push	rbp
	.seh_pushreg	rbp
	.cfi_def_cfa_offset 16
	.cfi_offset 6, -16
	mov	rbp, rsp
	.seh_setframe	rbp, 0
	.cfi_def_cfa_register 6
	sub	rsp, 32
	.seh_stackalloc	32
	.seh_endprologue
	mov	QWORD PTR 16[rbp], rcx
	mov	QWORD PTR 24[rbp], rdx
	mov	QWORD PTR 32[rbp], r8
	.loc 8 172 59
	mov	rdx, QWORD PTR 32[rbp]
	mov	rax, QWORD PTR 24[rbp]
	mov	rcx, rax
	call	_ZdlPvy
	nop
	.loc 8 173 7
	add	rsp, 32
	pop	rbp
	.cfi_restore 6
	.cfi_def_cfa 7, 8
	ret
	.cfi_endproc
.LFE1847:
	.seh_endproc
	.section	.text$_ZNSt15__new_allocatorImE10deallocateEPmy,"x"
	.linkonce discard
	.align 2
	.globl	_ZNSt15__new_allocatorImE10deallocateEPmy
	.def	_ZNSt15__new_allocatorImE10deallocateEPmy;	.scl	2;	.type	32;	.endef
	.seh_proc	_ZNSt15__new_allocatorImE10deallocateEPmy
_ZNSt15__new_allocatorImE10deallocateEPmy:
.LFB1848:
	.loc 8 156 7
	.cfi_startproc
	push	rbp
	.seh_pushreg	rbp
	.cfi_def_cfa_offset 16
	.cfi_offset 6, -16
	mov	rbp, rsp
	.seh_setframe	rbp, 0
	.cfi_def_cfa_register 6
	sub	rsp, 32
	.seh_stackalloc	32
	.seh_endprologue
	mov	QWORD PTR 16[rbp], rcx
	mov	QWORD PTR 24[rbp], rdx
	mov	QWORD PTR 32[rbp], r8
	.loc 8 172 59
	mov	rax, QWORD PTR 32[rbp]
	lea	rdx, 0[0+rax*4]
	mov	rax, QWORD PTR 24[rbp]
	mov	rcx, rax
	call	_ZdlPvy
	nop
	.loc 8 173 7
	add	rsp, 32
	pop	rbp
	.cfi_restore 6
	.cfi_def_cfa 7, 8
	ret
	.cfi_endproc
.LFE1848:
	.seh_endproc
	.section	.text$_ZSt3minIyERKT_S2_S2_,"x"
	.linkonce discard
	.globl	_ZSt3minIyERKT_S2_S2_
	.def	_ZSt3minIyERKT_S2_S2_;	.scl	2;	.type	32;	.endef
	.seh_proc	_ZSt3minIyERKT_S2_S2_
_ZSt3minIyERKT_S2_S2_:
.LFB1849:
	.loc 3 234 5
	.cfi_startproc
	push	rbp
	.seh_pushreg	rbp
	.cfi_def_cfa_offset 16
	.cfi_offset 6, -16
	mov	rbp, rsp
	.seh_setframe	rbp, 0
	.cfi_def_cfa_register 6
	.seh_endprologue
	mov	QWORD PTR 16[rbp], rcx
	mov	QWORD PTR 24[rbp], rdx
	.loc 3 239 15
	mov	rax, QWORD PTR 24[rbp]
	mov	rdx, QWORD PTR [rax]
	mov	rax, QWORD PTR 16[rbp]
	mov	rax, QWORD PTR [rax]
	.loc 3 239 7
	cmp	rdx, rax
	jnb	.L247
	.loc 3 240 9
	mov	rax, QWORD PTR 24[rbp]
	jmp	.L248
.L247:
	.loc 3 241 14
	mov	rax, QWORD PTR 16[rbp]
.L248:
	.loc 3 242 5
	pop	rbp
	.cfi_restore 6
	.cfi_def_cfa 7, 8
	ret
	.cfi_endproc
.LFE1849:
	.seh_endproc
	.section	.text$_ZNSt19_UninitDestroyGuardIPcvEC1ERS0_,"x"
	.linkonce discard
	.align 2
	.globl	_ZNSt19_UninitDestroyGuardIPcvEC1ERS0_
	.def	_ZNSt19_UninitDestroyGuardIPcvEC1ERS0_;	.scl	2;	.type	32;	.endef
	.seh_proc	_ZNSt19_UninitDestroyGuardIPcvEC1ERS0_
_ZNSt19_UninitDestroyGuardIPcvEC1ERS0_:
.LFB1853:
	.loc 14 113 7
	.cfi_startproc
	push	rbp
	.seh_pushreg	rbp
	.cfi_def_cfa_offset 16
	.cfi_offset 6, -16
	mov	rbp, rsp
	.seh_setframe	rbp, 0
	.cfi_def_cfa_register 6
	.seh_endprologue
	mov	QWORD PTR 16[rbp], rcx
	mov	QWORD PTR 24[rbp], rdx
.LBB470:
	.loc 14 114 9
	mov	rax, QWORD PTR 24[rbp]
	mov	rdx, QWORD PTR [rax]
	mov	rax, QWORD PTR 16[rbp]
	mov	QWORD PTR [rax], rdx
	.loc 14 114 28
	mov	rax, QWORD PTR 16[rbp]
	mov	rdx, QWORD PTR 24[rbp]
	mov	QWORD PTR 8[rax], rdx
.LBE470:
	.loc 14 115 9
	nop
	pop	rbp
	.cfi_restore 6
	.cfi_def_cfa 7, 8
	ret
	.cfi_endproc
.LFE1853:
	.seh_endproc
	.section	.text$_ZNSt27__uninitialized_default_n_1ILb0EE18__uninit_default_nIPcyEET_S3_T0_,"x"
	.linkonce discard
	.globl	_ZNSt27__uninitialized_default_n_1ILb0EE18__uninit_default_nIPcyEET_S3_T0_
	.def	_ZNSt27__uninitialized_default_n_1ILb0EE18__uninit_default_nIPcyEET_S3_T0_;	.scl	2;	.type	32;	.endef
	.seh_proc	_ZNSt27__uninitialized_default_n_1ILb0EE18__uninit_default_nIPcyEET_S3_T0_
_ZNSt27__uninitialized_default_n_1ILb0EE18__uninit_default_nIPcyEET_S3_T0_:
.LFB1850:
	.loc 14 899 9
	.cfi_startproc
	push	rbp
	.seh_pushreg	rbp
	.cfi_def_cfa_offset 16
	.cfi_offset 6, -16
	push	rbx
	.seh_pushreg	rbx
	.cfi_def_cfa_offset 24
	.cfi_offset 3, -24
	sub	rsp, 72
	.seh_stackalloc	72
	.cfi_def_cfa_offset 96
	lea	rbp, 64[rsp]
	.seh_setframe	rbp, 64
	.cfi_def_cfa 6, 32
	.seh_endprologue
	mov	QWORD PTR 32[rbp], rcx
	mov	QWORD PTR 40[rbp], rdx
	.loc 14 901 42
	lea	rax, -32[rbp]
	lea	rdx, 32[rbp]
	mov	rcx, rax
	call	_ZNSt19_UninitDestroyGuardIPcvEC1ERS0_
	.loc 14 902 4
	jmp	.L251
.L253:
	.loc 14 903 21
	mov	rax, QWORD PTR 32[rbp]
	mov	QWORD PTR -8[rbp], rax
.LBB471:
.LBB472:
	.loc 13 53 37
	mov	rax, QWORD PTR -8[rbp]
.LBE472:
.LBE471:
	.loc 14 903 21 discriminator 1
	mov	rcx, rax
	call	_ZSt10_ConstructIcJEEvPT_DpOT0_
	.loc 14 902 4 discriminator 2
	sub	QWORD PTR 40[rbp], 1
	.loc 14 902 27 discriminator 2
	mov	rax, QWORD PTR 32[rbp]
	add	rax, 1
	mov	QWORD PTR 32[rbp], rax
.L251:
	.loc 14 902 15 discriminator 1
	cmp	QWORD PTR 40[rbp], 0
	jne	.L253
	.loc 14 904 19
	lea	rax, -32[rbp]
	mov	rcx, rax
	call	_ZNSt19_UninitDestroyGuardIPcvE7releaseEv
	.loc 14 905 11
	mov	rbx, QWORD PTR 32[rbp]
	.loc 14 906 2
	lea	rax, -32[rbp]
	mov	rcx, rax
	call	_ZNSt19_UninitDestroyGuardIPcvED1Ev
	.loc 14 905 11
	mov	rax, rbx
	.loc 14 906 2
	add	rsp, 72
	pop	rbx
	.cfi_restore 3
	pop	rbp
	.cfi_restore 6
	.cfi_def_cfa 7, -56
	ret
	.cfi_endproc
.LFE1850:
	.seh_endproc
	.section	.text$_ZNSt27__uninitialized_default_n_1ILb1EE18__uninit_default_nIPcyEET_S3_T0_,"x"
	.linkonce discard
	.globl	_ZNSt27__uninitialized_default_n_1ILb1EE18__uninit_default_nIPcyEET_S3_T0_
	.def	_ZNSt27__uninitialized_default_n_1ILb1EE18__uninit_default_nIPcyEET_S3_T0_;	.scl	2;	.type	32;	.endef
	.seh_proc	_ZNSt27__uninitialized_default_n_1ILb1EE18__uninit_default_nIPcyEET_S3_T0_
_ZNSt27__uninitialized_default_n_1ILb1EE18__uninit_default_nIPcyEET_S3_T0_:
.LFB1854:
	.loc 14 915 9
	.cfi_startproc
	push	rbp
	.seh_pushreg	rbp
	.cfi_def_cfa_offset 16
	.cfi_offset 6, -16
	mov	rbp, rsp
	.seh_setframe	rbp, 0
	.cfi_def_cfa_register 6
	add	rsp, -128
	.seh_stackalloc	128
	.seh_endprologue
	mov	QWORD PTR 16[rbp], rcx
	mov	QWORD PTR 24[rbp], rdx
.LBB473:
	.loc 14 917 4
	cmp	QWORD PTR 24[rbp], 0
	je	.L256
	mov	rax, QWORD PTR 16[rbp]
	mov	QWORD PTR -80[rbp], rax
.LBB474:
.LBB475:
.LBB476:
	.loc 13 53 37
	mov	rax, QWORD PTR -80[rbp]
.LBE476:
.LBE475:
	.loc 14 920 21
	mov	QWORD PTR -8[rbp], rax
	.loc 14 921 23
	mov	rax, QWORD PTR -8[rbp]
	mov	rcx, rax
	call	_ZSt10_ConstructIcJEEvPT_DpOT0_
	.loc 14 922 8
	add	QWORD PTR 16[rbp], 1
	.loc 14 923 29
	mov	rax, QWORD PTR 24[rbp]
	lea	rdx, -1[rax]
	mov	rax, QWORD PTR 16[rbp]
	mov	QWORD PTR -88[rbp], rax
	mov	QWORD PTR -16[rbp], rdx
	mov	rax, QWORD PTR -8[rbp]
	mov	QWORD PTR -24[rbp], rax
.LBB477:
.LBB478:
.LBB479:
.LBB480:
	.file 16 "C:/Qt/Tools/mingw1530_64/include/c++/15.3.0/bits/stl_iterator_base_types.h"
	.loc 16 242 65
	nop
.LBE480:
.LBE479:
	.loc 3 1178 29
	mov	rax, QWORD PTR -16[rbp]
	mov	rcx, rax
	call	_ZSt17__size_to_integery
	.loc 3 1178 29 is_stmt 0 discriminator 1
	mov	rdx, QWORD PTR -88[rbp]
	mov	QWORD PTR -32[rbp], rdx
	mov	QWORD PTR -40[rbp], rax
	mov	rax, QWORD PTR -24[rbp]
	mov	QWORD PTR -48[rbp], rax
.LBB481:
.LBB482:
	.loc 3 1143 7 is_stmt 1
	cmp	QWORD PTR -40[rbp], 0
	jne	.L259
	.loc 3 1144 9
	mov	rax, QWORD PTR -32[rbp]
	jmp	.L260
.L259:
	.loc 3 1148 20
	mov	rdx, QWORD PTR -32[rbp]
	mov	rax, QWORD PTR -40[rbp]
	add	rdx, rax
	mov	rax, QWORD PTR -32[rbp]
	mov	QWORD PTR -56[rbp], rax
	mov	QWORD PTR -64[rbp], rdx
	mov	rax, QWORD PTR -48[rbp]
	mov	QWORD PTR -72[rbp], rax
.LBB483:
.LBB484:
	.loc 3 979 21
	mov	rcx, QWORD PTR -72[rbp]
	mov	rdx, QWORD PTR -64[rbp]
	mov	rax, QWORD PTR -56[rbp]
	mov	r8, rcx
	mov	rcx, rax
	call	_ZSt9__fill_a1IccEN9__gnu_cxx11__enable_ifIXaasrSt9__is_byteIT_E7__valueoosrSt10__are_sameIS3_T0_E7__valuesrSt20__memcpyable_integerIS6_E7__widthEvE6__typeEPS3_SC_RKS6_
	.loc 3 979 49
	nop
.LBE484:
.LBE483:
	.loc 3 1149 24
	mov	rdx, QWORD PTR -32[rbp]
	mov	rax, QWORD PTR -40[rbp]
	add	rax, rdx
.L260:
.LBE482:
.LBE481:
	.loc 3 1179 44
	nop
.LBE478:
.LBE477:
	.loc 14 923 29 discriminator 1
	mov	QWORD PTR 16[rbp], rax
.L256:
.LBE474:
.LBE473:
	.loc 14 925 11
	mov	rax, QWORD PTR 16[rbp]
	.loc 14 926 2
	sub	rsp, -128
	pop	rbp
	.cfi_restore 6
	.cfi_def_cfa 7, 8
	ret
	.cfi_endproc
.LFE1854:
	.seh_endproc
	.section	.text$_ZSt14__relocate_a_1IccENSt9enable_ifIXsrSt24__is_bitwise_relocatableIT_vE5valueEPS2_E4typeES4_S4_S4_RSaIT0_E,"x"
	.linkonce discard
	.globl	_ZSt14__relocate_a_1IccENSt9enable_ifIXsrSt24__is_bitwise_relocatableIT_vE5valueEPS2_E4typeES4_S4_S4_RSaIT0_E
	.def	_ZSt14__relocate_a_1IccENSt9enable_ifIXsrSt24__is_bitwise_relocatableIT_vE5valueEPS2_E4typeES4_S4_S4_RSaIT0_E;	.scl	2;	.type	32;	.endef
	.seh_proc	_ZSt14__relocate_a_1IccENSt9enable_ifIXsrSt24__is_bitwise_relocatableIT_vE5valueEPS2_E4typeES4_S4_S4_RSaIT0_E
_ZSt14__relocate_a_1IccENSt9enable_ifIXsrSt24__is_bitwise_relocatableIT_vE5valueEPS2_E4typeES4_S4_S4_RSaIT0_E:
.LFB1857:
	.loc 14 1353 5
	.cfi_startproc
	push	rbp
	.seh_pushreg	rbp
	.cfi_def_cfa_offset 16
	.cfi_offset 6, -16
	mov	rbp, rsp
	.seh_setframe	rbp, 0
	.cfi_def_cfa_register 6
	sub	rsp, 48
	.seh_stackalloc	48
	.seh_endprologue
	mov	QWORD PTR 16[rbp], rcx
	mov	QWORD PTR 24[rbp], rdx
	mov	QWORD PTR 32[rbp], r8
	mov	QWORD PTR 40[rbp], r9
	.loc 14 1357 17
	mov	rax, QWORD PTR 24[rbp]
	sub	rax, QWORD PTR 16[rbp]
	mov	QWORD PTR -8[rbp], rax
.LBB485:
	.loc 14 1358 7
	cmp	QWORD PTR -8[rbp], 0
	jle	.L264
.LBB486:
.LBB487:
	.loc 14 1361 34
	call	_ZSt21is_constant_evaluatedv
	.loc 14 1361 4 discriminator 1
	test	al, al
	je	.L265
.LBB488:
.LBB489:
.LBB490:
.LBB491:
	.loc 15 1059 9
	mov	rax, QWORD PTR 32[rbp]
	mov	QWORD PTR -16[rbp], rax
.LBE491:
	.loc 15 1059 27
	nop
.LBE490:
.LBE489:
	.loc 14 1366 35
	mov	r8, QWORD PTR 40[rbp]
	mov	rcx, QWORD PTR -16[rbp]
	mov	rdx, QWORD PTR 24[rbp]
	mov	rax, QWORD PTR 16[rbp]
	mov	r9, r8
	mov	r8, rcx
	mov	rcx, rax
	call	_ZSt14__relocate_a_1IPcN9__gnu_cxx17__normal_iteratorIS0_vEESaIcEET0_T_S6_S5_RT1_
	mov	QWORD PTR -16[rbp], rax
.LBB492:
.LBB493:
	.loc 15 1166 16
	lea	rax, -16[rbp]
.LBE493:
.LBE492:
	.loc 14 1367 26 discriminator 1
	mov	rax, QWORD PTR [rax]
	.loc 14 1367 26 is_stmt 0
	jmp	.L267
.L265:
.LBE488:
.LBE487:
	.loc 14 1370 20 is_stmt 1
	mov	rax, QWORD PTR -8[rbp]
	mov	rcx, QWORD PTR 32[rbp]
	mov	rdx, QWORD PTR 16[rbp]
	mov	r8, rax
	call	memcpy
.L264:
.LBE486:
.LBE485:
	.loc 14 1372 23
	mov	rdx, QWORD PTR 32[rbp]
	.loc 14 1372 25
	mov	rax, QWORD PTR -8[rbp]
	add	rax, rdx
.L267:
	.loc 14 1373 5
	add	rsp, 48
	pop	rbp
	.cfi_restore 6
	.cfi_def_cfa 7, 8
	ret
	.cfi_endproc
.LFE1857:
	.seh_endproc
	.section	.text$_ZNKSt6vectorIbSaIbEE8capacityEv,"x"
	.linkonce discard
	.align 2
	.globl	_ZNKSt6vectorIbSaIbEE8capacityEv
	.def	_ZNKSt6vectorIbSaIbEE8capacityEv;	.scl	2;	.type	32;	.endef
	.seh_proc	_ZNKSt6vectorIbSaIbEE8capacityEv
_ZNKSt6vectorIbSaIbEE8capacityEv:
.LFB1861:
	.loc 4 1145 7
	.cfi_startproc
	push	rbp
	.seh_pushreg	rbp
	.cfi_def_cfa_offset 16
	.cfi_offset 6, -16
	mov	rbp, rsp
	.seh_setframe	rbp, 0
	.cfi_def_cfa_register 6
	sub	rsp, 64
	.seh_stackalloc	64
	.seh_endprologue
	mov	QWORD PTR 16[rbp], rcx
	.loc 4 1147 12
	lea	rax, -32[rbp]
	mov	rdx, QWORD PTR 16[rbp]
	mov	rcx, rax
	call	_ZNKSt6vectorIbSaIbEE5beginEv
	.loc 4 1146 26
	mov	rax, QWORD PTR 16[rbp]
	mov	rcx, rax
	call	_ZNKSt13_Bvector_baseISaIbEE13_Bvector_impl11_M_end_addrEv
	mov	rdx, rax
	.loc 4 1146 26 is_stmt 0 discriminator 1
	lea	rax, -16[rbp]
	mov	r8d, 0
	mov	rcx, rax
	call	_ZNSt19_Bit_const_iteratorC1EPmj
	.loc 4 1147 5 is_stmt 1
	lea	rdx, -32[rbp]
	lea	rax, -16[rbp]
	mov	rcx, rax
	call	_ZStmiRKSt18_Bit_iterator_baseS1_
	.loc 4 1147 17
	add	rsp, 64
	pop	rbp
	.cfi_restore 6
	.cfi_def_cfa 7, 8
	ret
	.cfi_endproc
.LFE1861:
	.seh_endproc
	.section	.text$_ZNKSt6vectorIbSaIbEE8max_sizeEv,"x"
	.linkonce discard
	.align 2
	.globl	_ZNKSt6vectorIbSaIbEE8max_sizeEv
	.def	_ZNKSt6vectorIbSaIbEE8max_sizeEv;	.scl	2;	.type	32;	.endef
	.seh_proc	_ZNKSt6vectorIbSaIbEE8max_sizeEv
_ZNKSt6vectorIbSaIbEE8max_sizeEv:
.LFB1864:
	.loc 4 1132 7
	.cfi_startproc
	push	rbp
	.seh_pushreg	rbp
	.cfi_def_cfa_offset 16
	.cfi_offset 6, -16
	mov	rbp, rsp
	.seh_setframe	rbp, 0
	.cfi_def_cfa_register 6
	sub	rsp, 16
	.seh_stackalloc	16
	.seh_endprologue
	mov	QWORD PTR 16[rbp], rcx
	.loc 4 1134 18
	movabs	rax, 9223372036854775776
	mov	QWORD PTR -8[rbp], rax
	.loc 4 1137 18
	movabs	rax, 4611686018427387903
	mov	QWORD PTR -16[rbp], rax
	.loc 4 1140 41
	movabs	rax, 9223372036854775776
	.loc 4 1141 7
	add	rsp, 16
	pop	rbp
	.cfi_restore 6
	.cfi_def_cfa 7, 8
	ret
	.cfi_endproc
.LFE1864:
	.seh_endproc
	.section	.text$_ZNSt13_Bvector_baseISaIbEE11_M_allocateEy,"x"
	.linkonce discard
	.align 2
	.globl	_ZNSt13_Bvector_baseISaIbEE11_M_allocateEy
	.def	_ZNSt13_Bvector_baseISaIbEE11_M_allocateEy;	.scl	2;	.type	32;	.endef
	.seh_proc	_ZNSt13_Bvector_baseISaIbEE11_M_allocateEy
_ZNSt13_Bvector_baseISaIbEE11_M_allocateEy:
.LFB1867:
	.loc 4 683 7
	.cfi_startproc
	push	rbp
	.seh_pushreg	rbp
	.cfi_def_cfa_offset 16
	.cfi_offset 6, -16
	mov	rbp, rsp
	.seh_setframe	rbp, 0
	.cfi_def_cfa_register 6
	sub	rsp, 96
	.seh_stackalloc	96
	.seh_endprologue
	mov	QWORD PTR 16[rbp], rcx
	mov	QWORD PTR 24[rbp], rdx
	.loc 4 685 48
	mov	rax, QWORD PTR 24[rbp]
	mov	rcx, rax
	call	_ZNSt13_Bvector_baseISaIbEE8_S_nwordEy
	.loc 4 685 49 discriminator 1
	mov	rdx, QWORD PTR 16[rbp]
	mov	QWORD PTR -24[rbp], rdx
	mov	QWORD PTR -32[rbp], rax
	mov	rax, QWORD PTR -24[rbp]
	mov	QWORD PTR -40[rbp], rax
	mov	rax, QWORD PTR -32[rbp]
	mov	QWORD PTR -56[rbp], rax
.LBB494:
.LBB495:
.LBB496:
.LBB497:
.LBB498:
.LBB499:
	.loc 10 586 49
	mov	eax, 0
.LBE499:
.LBE498:
	.loc 7 196 2 discriminator 1
	test	al, al
	je	.L274
	.loc 7 198 32
	mov	rax, QWORD PTR -56[rbp]
	mov	ecx, 0
	lea	rdx, 0[0+rax*4]
	shr	rax, 62
	test	rax, rax
	je	.L275
	mov	ecx, 1
.L275:
	mov	rax, rdx
	.loc 7 198 32 is_stmt 0 discriminator 1
	mov	QWORD PTR -56[rbp], rax
	mov	rax, rcx
	and	eax, 1
	.loc 7 198 6 is_stmt 1 discriminator 1
	test	al, al
	je	.L277
	.loc 7 199 41
	call	_ZSt28__throw_bad_array_new_lengthv
.L277:
	.loc 7 200 45
	mov	rax, QWORD PTR -56[rbp]
	mov	rcx, rax
	call	_Znwy
	.loc 7 200 50
	jmp	.L278
.L274:
	.loc 7 203 40
	mov	rdx, QWORD PTR -56[rbp]
	mov	rax, QWORD PTR -40[rbp]
	mov	r8d, 0
	mov	rcx, rax
	call	_ZNSt15__new_allocatorImE8allocateEyPKv
	.loc 7 203 47
	nop
.L278:
.LBE497:
.LBE496:
	.loc 9 614 32
	nop
.LBE495:
.LBE494:
	.loc 4 685 48 discriminator 2
	mov	QWORD PTR -16[rbp], rax
.LBB500:
	.loc 4 687 32
	call	_ZSt21is_constant_evaluatedv
	.loc 4 687 2 discriminator 1
	test	al, al
	je	.L280
.LBB501:
	.loc 4 689 20
	mov	rax, QWORD PTR 24[rbp]
	mov	rcx, rax
	call	_ZNSt13_Bvector_baseISaIbEE8_S_nwordEy
	mov	QWORD PTR 24[rbp], rax
.LBB502:
	.loc 4 690 18
	mov	QWORD PTR -8[rbp], 0
	.loc 4 690 6
	jmp	.L281
.L283:
	mov	rax, QWORD PTR -16[rbp]
	mov	QWORD PTR -48[rbp], rax
.LBB503:
.LBB504:
	.file 17 "C:/Qt/Tools/mingw1530_64/include/c++/15.3.0/bits/ptr_traits.h"
	.loc 17 236 14
	mov	rax, QWORD PTR -48[rbp]
.LBE504:
.LBE503:
	.loc 4 691 47 discriminator 1
	mov	rdx, QWORD PTR -8[rbp]
	sal	rdx, 2
	.loc 4 691 25 discriminator 1
	add	rax, rdx
	mov	rcx, rax
	call	_ZSt12construct_atImJEQaant20is_unbounded_array_vIT_ErqXgsnwcvPvLi0E_S0_pispcl7declvalIT0_EEEEEPS0_S3_DpOS2_
	.loc 4 690 6 discriminator 3
	add	QWORD PTR -8[rbp], 1
.L281:
	.loc 4 690 31 discriminator 1
	mov	rax, QWORD PTR -8[rbp]
	cmp	rax, QWORD PTR 24[rbp]
	jb	.L283
.L280:
.LBE502:
.LBE501:
.LBE500:
	.loc 4 694 9
	mov	rax, QWORD PTR -16[rbp]
	.loc 4 695 7
	add	rsp, 96
	pop	rbp
	.cfi_restore 6
	.cfi_def_cfa 7, 8
	ret
	.cfi_endproc
.LFE1867:
	.seh_endproc
	.section	.text$_ZNSt6vectorIbSaIbEE15_M_copy_alignedESt19_Bit_const_iteratorS2_St13_Bit_iterator,"x"
	.linkonce discard
	.align 2
	.globl	_ZNSt6vectorIbSaIbEE15_M_copy_alignedESt19_Bit_const_iteratorS2_St13_Bit_iterator
	.def	_ZNSt6vectorIbSaIbEE15_M_copy_alignedESt19_Bit_const_iteratorS2_St13_Bit_iterator;	.scl	2;	.type	32;	.endef
	.seh_proc	_ZNSt6vectorIbSaIbEE15_M_copy_alignedESt19_Bit_const_iteratorS2_St13_Bit_iterator
_ZNSt6vectorIbSaIbEE15_M_copy_alignedESt19_Bit_const_iteratorS2_St13_Bit_iterator:
.LFB1868:
	.loc 4 1544 7
	.cfi_startproc
	push	rbp
	.seh_pushreg	rbp
	.cfi_def_cfa_offset 16
	.cfi_offset 6, -16
	push	rdi
	.seh_pushreg	rdi
	.cfi_def_cfa_offset 24
	.cfi_offset 5, -24
	push	rsi
	.seh_pushreg	rsi
	.cfi_def_cfa_offset 32
	.cfi_offset 4, -32
	push	rbx
	.seh_pushreg	rbx
	.cfi_def_cfa_offset 40
	.cfi_offset 3, -40
	sub	rsp, 136
	.seh_stackalloc	136
	.cfi_def_cfa_offset 176
	lea	rbp, 128[rsp]
	.seh_setframe	rbp, 128
	.cfi_def_cfa 6, 48
	.seh_endprologue
	mov	QWORD PTR 48[rbp], rcx
	mov	QWORD PTR 56[rbp], rdx
	mov	rsi, r8
	mov	rbx, r9
	mov	rdi, QWORD PTR 80[rbp]
	.loc 4 1547 65
	mov	rcx, QWORD PTR [rdi]
	.loc 4 1547 50
	mov	rdx, QWORD PTR [rbx]
	.loc 4 1547 37
	mov	rax, QWORD PTR [rsi]
	.loc 4 1547 28
	mov	r8, rcx
	mov	rcx, rax
	call	_ZSt4copyIPmS0_ET0_T_S2_S1_
	.loc 4 1547 28 is_stmt 0 discriminator 1
	mov	QWORD PTR -8[rbp], rax
	.loc 4 1549 5 is_stmt 1
	mov	rdx, QWORD PTR -8[rbp]
	lea	rax, -48[rbp]
	mov	r8d, 0
	mov	rcx, rax
	call	_ZNSt13_Bit_iteratorC1EPmj
	.loc 4 1548 19
	mov	rdx, QWORD PTR [rbx]
	lea	rax, -32[rbp]
	mov	r8d, 0
	mov	rcx, rax
	call	_ZNSt19_Bit_const_iteratorC1EPmj
	.loc 4 1548 18 discriminator 1
	mov	rcx, QWORD PTR 48[rbp]
	mov	rax, QWORD PTR -32[rbp]
	mov	rdx, QWORD PTR -24[rbp]
	mov	QWORD PTR -64[rbp], rax
	mov	QWORD PTR -56[rbp], rdx
	mov	rax, QWORD PTR [rbx]
	mov	rdx, QWORD PTR 8[rbx]
	mov	QWORD PTR -80[rbp], rax
	mov	QWORD PTR -72[rbp], rdx
	mov	rax, QWORD PTR -48[rbp]
	mov	rdx, QWORD PTR -40[rbp]
	mov	QWORD PTR -96[rbp], rax
	mov	QWORD PTR -88[rbp], rdx
	lea	r8, -96[rbp]
	lea	rdx, -80[rbp]
	lea	rax, -64[rbp]
	mov	r9, r8
	mov	r8, rdx
	mov	rdx, rax
	call	_ZSt4copyISt19_Bit_const_iteratorSt13_Bit_iteratorET0_T_S3_S2_
	.loc 4 1549 21
	nop
	.loc 4 1550 7
	mov	rax, QWORD PTR 48[rbp]
	add	rsp, 136
	pop	rbx
	.cfi_restore 3
	pop	rsi
	.cfi_restore 4
	pop	rdi
	.cfi_restore 5
	pop	rbp
	.cfi_restore 6
	.cfi_def_cfa 7, -104
	ret
	.cfi_endproc
.LFE1868:
	.seh_endproc
	.section	.text$_ZSt4copyISt13_Bit_iteratorS0_ET0_T_S2_S1_,"x"
	.linkonce discard
	.globl	_ZSt4copyISt13_Bit_iteratorS0_ET0_T_S2_S1_
	.def	_ZSt4copyISt13_Bit_iteratorS0_ET0_T_S2_S1_;	.scl	2;	.type	32;	.endef
	.seh_proc	_ZSt4copyISt13_Bit_iteratorS0_ET0_T_S2_S1_
_ZSt4copyISt13_Bit_iteratorS0_ET0_T_S2_S1_:
.LFB1869:
	.loc 3 633 5
	.cfi_startproc
	push	rbp
	.seh_pushreg	rbp
	.cfi_def_cfa_offset 16
	.cfi_offset 6, -16
	push	rdi
	.seh_pushreg	rdi
	.cfi_def_cfa_offset 24
	.cfi_offset 5, -24
	push	rsi
	.seh_pushreg	rsi
	.cfi_def_cfa_offset 32
	.cfi_offset 4, -32
	push	rbx
	.seh_pushreg	rbx
	.cfi_def_cfa_offset 40
	.cfi_offset 3, -40
	sub	rsp, 344
	.seh_stackalloc	344
	.cfi_def_cfa_offset 384
	lea	rbp, 128[rsp]
	.seh_setframe	rbp, 128
	.cfi_def_cfa 6, 256
	.seh_endprologue
	mov	QWORD PTR 256[rbp], rcx
	mov	rbx, rdx
	mov	rdi, r8
	mov	rsi, r9
	.loc 3 642 7
	lea	rcx, 112[rbp]
	mov	rax, QWORD PTR [rdi]
	mov	rdx, QWORD PTR 8[rdi]
	mov	QWORD PTR -64[rbp], rax
	mov	QWORD PTR -56[rbp], rdx
	lea	rax, -64[rbp]
	mov	rdx, rax
	call	_ZSt12__miter_baseISt13_Bit_iteratorET_S1_
	.loc 3 642 7 is_stmt 0 discriminator 1
	lea	rcx, 128[rbp]
	mov	rax, QWORD PTR [rbx]
	mov	rdx, QWORD PTR 8[rbx]
	mov	QWORD PTR -64[rbp], rax
	mov	QWORD PTR -56[rbp], rdx
	lea	rax, -64[rbp]
	mov	rdx, rax
	call	_ZSt12__miter_baseISt13_Bit_iteratorET_S1_
	mov	rax, QWORD PTR 128[rbp]
	mov	rdx, QWORD PTR 136[rbp]
	mov	QWORD PTR 96[rbp], rax
	mov	QWORD PTR 104[rbp], rdx
	mov	rax, QWORD PTR 112[rbp]
	mov	rdx, QWORD PTR 120[rbp]
	mov	QWORD PTR 80[rbp], rax
	mov	QWORD PTR 88[rbp], rdx
	mov	rax, QWORD PTR [rsi]
	mov	rdx, QWORD PTR 8[rsi]
	mov	QWORD PTR 64[rbp], rax
	mov	QWORD PTR 72[rbp], rdx
	mov	rax, QWORD PTR 64[rbp]
	mov	rdx, QWORD PTR 72[rbp]
	mov	QWORD PTR 48[rbp], rax
	mov	QWORD PTR 56[rbp], rdx
.LBB505:
.LBB506:
.LBB507:
.LBB508:
	.loc 15 3011 14 is_stmt 1
	mov	rax, QWORD PTR 48[rbp]
	mov	rdx, QWORD PTR 56[rbp]
	mov	QWORD PTR 192[rbp], rax
	mov	QWORD PTR 200[rbp], rdx
	mov	rax, QWORD PTR 80[rbp]
	mov	rdx, QWORD PTR 88[rbp]
	mov	QWORD PTR 32[rbp], rax
	mov	QWORD PTR 40[rbp], rdx
.LBE508:
.LBE507:
.LBB509:
.LBB510:
	mov	rax, QWORD PTR 32[rbp]
	mov	rdx, QWORD PTR 40[rbp]
	mov	QWORD PTR 176[rbp], rax
	mov	QWORD PTR 184[rbp], rdx
	mov	rax, QWORD PTR 96[rbp]
	mov	rdx, QWORD PTR 104[rbp]
	mov	QWORD PTR 16[rbp], rax
	mov	QWORD PTR 24[rbp], rdx
.LBE510:
.LBE509:
.LBB511:
.LBB512:
	mov	rax, QWORD PTR 16[rbp]
	mov	rdx, QWORD PTR 24[rbp]
	mov	QWORD PTR 160[rbp], rax
	mov	QWORD PTR 168[rbp], rdx
	mov	rax, QWORD PTR 160[rbp]
	mov	rdx, QWORD PTR 168[rbp]
	mov	QWORD PTR 0[rbp], rax
	mov	QWORD PTR 8[rbp], rdx
	mov	rax, QWORD PTR 176[rbp]
	mov	rdx, QWORD PTR 184[rbp]
	mov	QWORD PTR -16[rbp], rax
	mov	QWORD PTR -8[rbp], rdx
	mov	rax, QWORD PTR 192[rbp]
	mov	rdx, QWORD PTR 200[rbp]
	mov	QWORD PTR -32[rbp], rax
	mov	QWORD PTR -24[rbp], rdx
.LBE512:
.LBE511:
.LBB513:
.LBB514:
	.loc 3 492 42
	lea	rcx, 144[rbp]
	mov	rax, QWORD PTR 0[rbp]
	mov	rdx, QWORD PTR 8[rbp]
	mov	QWORD PTR -64[rbp], rax
	mov	QWORD PTR -56[rbp], rdx
	mov	rax, QWORD PTR -16[rbp]
	mov	rdx, QWORD PTR -8[rbp]
	mov	QWORD PTR -80[rbp], rax
	mov	QWORD PTR -72[rbp], rdx
	mov	rax, QWORD PTR -32[rbp]
	mov	rdx, QWORD PTR -24[rbp]
	mov	QWORD PTR -96[rbp], rax
	mov	QWORD PTR -88[rbp], rdx
	lea	r8, -96[rbp]
	lea	rdx, -80[rbp]
	lea	rax, -64[rbp]
	mov	r9, r8
	mov	r8, rdx
	mov	rdx, rax
	call	_ZSt14__copy_move_a2ILb0ESt13_Bit_iteratorS0_S0_ET2_T0_T1_S1_
	.loc 3 492 68
	nop
	mov	rax, QWORD PTR 144[rbp]
	mov	rdx, QWORD PTR 152[rbp]
	mov	QWORD PTR -48[rbp], rax
	mov	QWORD PTR -40[rbp], rdx
.LBE514:
.LBE513:
.LBB515:
.LBB516:
	.loc 15 3082 14
	mov	rcx, QWORD PTR 256[rbp]
	mov	rax, QWORD PTR -48[rbp]
	mov	rdx, QWORD PTR -40[rbp]
	mov	QWORD PTR [rcx], rax
	mov	QWORD PTR 8[rcx], rdx
.LBE516:
.LBE515:
	.loc 3 503 39
	nop
.LBE506:
.LBE505:
	.loc 3 642 71
	nop
	.loc 3 643 5
	mov	rax, QWORD PTR 256[rbp]
	add	rsp, 344
	pop	rbx
	.cfi_restore 3
	pop	rsi
	.cfi_restore 4
	pop	rdi
	.cfi_restore 5
	pop	rbp
	.cfi_restore 6
	.cfi_def_cfa 7, -312
	ret
	.cfi_endproc
.LFE1869:
	.seh_endproc
	.section	.text$_ZNSt13_Bvector_baseISaIbEE8_S_nwordEy,"x"
	.linkonce discard
	.globl	_ZNSt13_Bvector_baseISaIbEE8_S_nwordEy
	.def	_ZNSt13_Bvector_baseISaIbEE8_S_nwordEy;	.scl	2;	.type	32;	.endef
	.seh_proc	_ZNSt13_Bvector_baseISaIbEE8_S_nwordEy
_ZNSt13_Bvector_baseISaIbEE8_S_nwordEy:
.LFB1870:
	.loc 4 720 7
	.cfi_startproc
	push	rbp
	.seh_pushreg	rbp
	.cfi_def_cfa_offset 16
	.cfi_offset 6, -16
	mov	rbp, rsp
	.seh_setframe	rbp, 0
	.cfi_def_cfa_register 6
	.seh_endprologue
	mov	QWORD PTR 16[rbp], rcx
	.loc 4 721 40
	mov	rax, QWORD PTR 16[rbp]
	add	rax, 31
	.loc 4 721 62
	shr	rax, 5
	.loc 4 721 65
	pop	rbp
	.cfi_restore 6
	.cfi_def_cfa 7, 8
	ret
	.cfi_endproc
.LFE1870:
	.seh_endproc
	.section	.text$_ZNSt19_UninitDestroyGuardIPcvED1Ev,"x"
	.linkonce discard
	.align 2
	.globl	_ZNSt19_UninitDestroyGuardIPcvED1Ev
	.def	_ZNSt19_UninitDestroyGuardIPcvED1Ev;	.scl	2;	.type	32;	.endef
	.seh_proc	_ZNSt19_UninitDestroyGuardIPcvED1Ev
_ZNSt19_UninitDestroyGuardIPcvED1Ev:
.LFB1873:
	.loc 14 118 7
	.cfi_startproc
	push	rbp
	.seh_pushreg	rbp
	.cfi_def_cfa_offset 16
	.cfi_offset 6, -16
	mov	rbp, rsp
	.seh_setframe	rbp, 0
	.cfi_def_cfa_register 6
	sub	rsp, 32
	.seh_stackalloc	32
	.seh_endprologue
	mov	QWORD PTR 16[rbp], rcx
.LBB517:
	.loc 14 120 23
	mov	rax, QWORD PTR 16[rbp]
	mov	rax, QWORD PTR 8[rax]
	.loc 14 120 30
	test	rax, rax
	setne	al
	.loc 14 120 22
	movzx	eax, al
	.loc 14 120 2 discriminator 1
	test	eax, eax
	je	.L299
	.loc 14 121 29
	mov	rax, QWORD PTR 16[rbp]
	mov	rax, QWORD PTR 8[rax]
	.loc 14 121 17
	mov	rdx, QWORD PTR [rax]
	.loc 14 121 18
	mov	rax, QWORD PTR 16[rbp]
	mov	rax, QWORD PTR [rax]
	.loc 14 121 17
	mov	rcx, rax
	call	_ZSt8_DestroyIPcEvT_S1_
.L299:
.LBE517:
	.loc 14 122 7
	nop
	add	rsp, 32
	pop	rbp
	.cfi_restore 6
	.cfi_def_cfa 7, 8
	ret
	.cfi_endproc
.LFE1873:
	.seh_endproc
	.section	.text$_ZSt10_ConstructIcJEEvPT_DpOT0_,"x"
	.linkonce discard
	.globl	_ZSt10_ConstructIcJEEvPT_DpOT0_
	.def	_ZSt10_ConstructIcJEEvPT_DpOT0_;	.scl	2;	.type	32;	.endef
	.seh_proc	_ZSt10_ConstructIcJEEvPT_DpOT0_
_ZSt10_ConstructIcJEEvPT_DpOT0_:
.LFB1874:
	.loc 12 123 5
	.cfi_startproc
	push	rbp
	.seh_pushreg	rbp
	.cfi_def_cfa_offset 16
	.cfi_offset 6, -16
	push	rbx
	.seh_pushreg	rbx
	.cfi_def_cfa_offset 24
	.cfi_offset 3, -24
	sub	rsp, 40
	.seh_stackalloc	40
	.cfi_def_cfa_offset 64
	lea	rbp, 32[rsp]
	.seh_setframe	rbp, 32
	.cfi_def_cfa 6, 32
	.seh_endprologue
	mov	QWORD PTR 32[rbp], rcx
.LBB518:
.LBB519:
	.loc 10 586 49
	mov	eax, 0
.LBE519:
.LBE518:
	.loc 12 126 7 discriminator 1
	test	al, al
	je	.L302
	.loc 12 129 21
	mov	rax, QWORD PTR 32[rbp]
	mov	rcx, rax
	call	_ZSt12construct_atIcJEQaant20is_unbounded_array_vIT_ErqXgsnwcvPvLi0E_S0_pispcl7declvalIT0_EEEEEPS0_S3_DpOS2_
	.loc 12 130 4
	jmp	.L300
.L302:
	.loc 12 133 13
	mov	rbx, QWORD PTR 32[rbp]
	.loc 12 133 7
	mov	rdx, rbx
	mov	ecx, 1
	call	_ZnwyPv
	.loc 12 133 7 is_stmt 0 discriminator 1
	mov	BYTE PTR [rax], 0
	mov	edx, 0
	test	dl, dl
	je	.L300
	.loc 12 133 7 discriminator 2
	mov	rdx, rbx
	mov	rcx, rax
	call	_ZdlPvS_
	nop
.L300:
	.loc 12 134 5 is_stmt 1
	add	rsp, 40
	pop	rbx
	.cfi_restore 3
	pop	rbp
	.cfi_restore 6
	.cfi_def_cfa 7, -24
	ret
	.cfi_endproc
.LFE1874:
	.seh_endproc
	.section	.text$_ZNSt19_UninitDestroyGuardIPcvE7releaseEv,"x"
	.linkonce discard
	.align 2
	.globl	_ZNSt19_UninitDestroyGuardIPcvE7releaseEv
	.def	_ZNSt19_UninitDestroyGuardIPcvE7releaseEv;	.scl	2;	.type	32;	.endef
	.seh_proc	_ZNSt19_UninitDestroyGuardIPcvE7releaseEv
_ZNSt19_UninitDestroyGuardIPcvE7releaseEv:
.LFB1875:
	.loc 14 125 12
	.cfi_startproc
	push	rbp
	.seh_pushreg	rbp
	.cfi_def_cfa_offset 16
	.cfi_offset 6, -16
	mov	rbp, rsp
	.seh_setframe	rbp, 0
	.cfi_def_cfa_register 6
	.seh_endprologue
	mov	QWORD PTR 16[rbp], rcx
	.loc 14 125 31
	mov	rax, QWORD PTR 16[rbp]
	mov	QWORD PTR 8[rax], 0
	.loc 14 125 36
	nop
	pop	rbp
	.cfi_restore 6
	.cfi_def_cfa 7, 8
	ret
	.cfi_endproc
.LFE1875:
	.seh_endproc
	.section	.text$_ZNSt15__new_allocatorIcE8allocateEyPKv,"x"
	.linkonce discard
	.align 2
	.globl	_ZNSt15__new_allocatorIcE8allocateEyPKv
	.def	_ZNSt15__new_allocatorIcE8allocateEyPKv;	.scl	2;	.type	32;	.endef
	.seh_proc	_ZNSt15__new_allocatorIcE8allocateEyPKv
_ZNSt15__new_allocatorIcE8allocateEyPKv:
.LFB1877:
	.loc 8 126 7
	.cfi_startproc
	push	rbp
	.seh_pushreg	rbp
	.cfi_def_cfa_offset 16
	.cfi_offset 6, -16
	mov	rbp, rsp
	.seh_setframe	rbp, 0
	.cfi_def_cfa_register 6
	sub	rsp, 48
	.seh_stackalloc	48
	.seh_endprologue
	mov	QWORD PTR 16[rbp], rcx
	mov	QWORD PTR 24[rbp], rdx
	mov	QWORD PTR 32[rbp], r8
	mov	rax, QWORD PTR 16[rbp]
	mov	QWORD PTR -8[rbp], rax
.LBB520:
.LBB521:
	.loc 8 233 50
	movabs	rax, 9223372036854775807
.LBE521:
.LBE520:
	.loc 8 134 27 discriminator 1
	cmp	rax, QWORD PTR 24[rbp]
	setb	al
	.loc 8 134 22 discriminator 1
	movzx	eax, al
	.loc 8 134 22 is_stmt 0 discriminator 2
	test	eax, eax
	setne	al
	.loc 8 134 2 is_stmt 1 discriminator 2
	test	al, al
	je	.L307
	.loc 8 140 28
	call	_ZSt17__throw_bad_allocv
.L307:
	.loc 8 151 66
	mov	rax, QWORD PTR 24[rbp]
	mov	rcx, rax
	call	_Znwy
	.loc 8 151 67
	nop
	.loc 8 152 7
	add	rsp, 48
	pop	rbp
	.cfi_restore 6
	.cfi_def_cfa 7, 8
	ret
	.cfi_endproc
.LFE1877:
	.seh_endproc
	.section	.text$_ZSt14__relocate_a_1IPcN9__gnu_cxx17__normal_iteratorIS0_vEESaIcEET0_T_S6_S5_RT1_,"x"
	.linkonce discard
	.globl	_ZSt14__relocate_a_1IPcN9__gnu_cxx17__normal_iteratorIS0_vEESaIcEET0_T_S6_S5_RT1_
	.def	_ZSt14__relocate_a_1IPcN9__gnu_cxx17__normal_iteratorIS0_vEESaIcEET0_T_S6_S5_RT1_;	.scl	2;	.type	32;	.endef
	.seh_proc	_ZSt14__relocate_a_1IPcN9__gnu_cxx17__normal_iteratorIS0_vEESaIcEET0_T_S6_S5_RT1_
_ZSt14__relocate_a_1IPcN9__gnu_cxx17__normal_iteratorIS0_vEESaIcEET0_T_S6_S5_RT1_:
.LFB1878:
	.loc 14 1330 5
	.cfi_startproc
	push	rbp
	.seh_pushreg	rbp
	.cfi_def_cfa_offset 16
	.cfi_offset 6, -16
	mov	rbp, rsp
	.seh_setframe	rbp, 0
	.cfi_def_cfa_register 6
	sub	rsp, 64
	.seh_stackalloc	64
	.seh_endprologue
	mov	QWORD PTR 16[rbp], rcx
	mov	QWORD PTR 24[rbp], rdx
	mov	QWORD PTR 32[rbp], r8
	mov	QWORD PTR 40[rbp], r9
	.loc 14 1342 24
	mov	rax, QWORD PTR 32[rbp]
	mov	QWORD PTR -24[rbp], rax
	.loc 14 1343 7
	jmp	.L310
.L315:
	mov	rax, QWORD PTR 16[rbp]
	mov	QWORD PTR -16[rbp], rax
.LBB522:
.LBB523:
	.loc 13 53 37
	mov	rdx, QWORD PTR -16[rbp]
.LBE523:
.LBE522:
.LBB524:
.LBB525:
	.loc 15 1090 17
	mov	rax, QWORD PTR -24[rbp]
	mov	QWORD PTR -8[rbp], rax
.LBE525:
.LBE524:
.LBB526:
.LBB527:
	.loc 13 53 37
	mov	rax, QWORD PTR -8[rbp]
.LBE527:
.LBE526:
	.loc 14 1344 26 discriminator 3
	mov	rcx, QWORD PTR 40[rbp]
	mov	r8, rcx
	mov	rcx, rax
	call	_ZSt19__relocate_object_aIccSaIcEEvPT_PT0_RT1_
	.loc 14 1343 7 discriminator 3
	add	QWORD PTR 16[rbp], 1
.LBB528:
.LBB529:
	.loc 15 1103 4
	mov	rax, QWORD PTR -24[rbp]
	.loc 15 1103 2
	add	rax, 1
	mov	QWORD PTR -24[rbp], rax
	.loc 15 1104 10
	nop
.L310:
.LBE529:
.LBE528:
	.loc 14 1343 22 discriminator 2
	mov	rax, QWORD PTR 16[rbp]
	cmp	rax, QWORD PTR 24[rbp]
	jne	.L315
	.loc 14 1346 14
	mov	rax, QWORD PTR -24[rbp]
	.loc 14 1347 5
	add	rsp, 64
	pop	rbp
	.cfi_restore 6
	.cfi_def_cfa 7, 8
	ret
	.cfi_endproc
.LFE1878:
	.seh_endproc
	.section	.text$_ZSt12__miter_baseISt13_Bit_iteratorET_S1_,"x"
	.linkonce discard
	.globl	_ZSt12__miter_baseISt13_Bit_iteratorET_S1_
	.def	_ZSt12__miter_baseISt13_Bit_iteratorET_S1_;	.scl	2;	.type	32;	.endef
	.seh_proc	_ZSt12__miter_baseISt13_Bit_iteratorET_S1_
_ZSt12__miter_baseISt13_Bit_iteratorET_S1_:
.LFB1880:
	.file 18 "C:/Qt/Tools/mingw1530_64/include/c++/15.3.0/bits/cpp_type_traits.h"
	.loc 18 705 5
	.cfi_startproc
	push	rbp
	.seh_pushreg	rbp
	.cfi_def_cfa_offset 16
	.cfi_offset 6, -16
	push	rbx
	.seh_pushreg	rbx
	.cfi_def_cfa_offset 24
	.cfi_offset 3, -24
	lea	rbp, [rsp]
	.seh_setframe	rbp, 0
	.cfi_def_cfa_register 6
	.seh_endprologue
	mov	QWORD PTR 24[rbp], rcx
	mov	rbx, rdx
	.loc 18 706 14
	mov	rcx, QWORD PTR 24[rbp]
	mov	rax, QWORD PTR [rbx]
	mov	rdx, QWORD PTR 8[rbx]
	mov	QWORD PTR [rcx], rax
	mov	QWORD PTR 8[rcx], rdx
	.loc 18 706 20
	mov	rax, QWORD PTR 24[rbp]
	pop	rbx
	.cfi_restore 3
	pop	rbp
	.cfi_restore 6
	.cfi_def_cfa 7, 16
	ret
	.cfi_endproc
.LFE1880:
	.seh_endproc
	.section	.text$_ZSt12construct_atImJEQaant20is_unbounded_array_vIT_ErqXgsnwcvPvLi0E_S0_pispcl7declvalIT0_EEEEEPS0_S3_DpOS2_,"x"
	.linkonce discard
	.globl	_ZSt12construct_atImJEQaant20is_unbounded_array_vIT_ErqXgsnwcvPvLi0E_S0_pispcl7declvalIT0_EEEEEPS0_S3_DpOS2_
	.def	_ZSt12construct_atImJEQaant20is_unbounded_array_vIT_ErqXgsnwcvPvLi0E_S0_pispcl7declvalIT0_EEEEEPS0_S3_DpOS2_;	.scl	2;	.type	32;	.endef
	.seh_proc	_ZSt12construct_atImJEQaant20is_unbounded_array_vIT_ErqXgsnwcvPvLi0E_S0_pispcl7declvalIT0_EEEEEPS0_S3_DpOS2_
_ZSt12construct_atImJEQaant20is_unbounded_array_vIT_ErqXgsnwcvPvLi0E_S0_pispcl7declvalIT0_EEEEEPS0_S3_DpOS2_:
.LFB1885:
	.loc 12 96 5
	.cfi_startproc
	push	rbp
	.seh_pushreg	rbp
	.cfi_def_cfa_offset 16
	.cfi_offset 6, -16
	push	rsi
	.seh_pushreg	rsi
	.cfi_def_cfa_offset 24
	.cfi_offset 4, -24
	push	rbx
	.seh_pushreg	rbx
	.cfi_def_cfa_offset 32
	.cfi_offset 3, -32
	sub	rsp, 48
	.seh_stackalloc	48
	.cfi_def_cfa_offset 80
	lea	rbp, 48[rsp]
	.seh_setframe	rbp, 48
	.cfi_def_cfa 6, 32
	.seh_endprologue
	mov	QWORD PTR 32[rbp], rcx
	.loc 12 99 13
	mov	rax, QWORD PTR 32[rbp]
	mov	QWORD PTR -8[rbp], rax
	.loc 12 110 15
	mov	rsi, QWORD PTR -8[rbp]
	.loc 12 110 9
	mov	rdx, rsi
	mov	ecx, 4
	call	_ZnwyPv
	mov	rbx, rax
	.loc 12 110 9 is_stmt 0 discriminator 1
	mov	DWORD PTR [rbx], 0
	.loc 12 110 56 is_stmt 1 discriminator 1
	mov	eax, 0
	.loc 12 110 56 is_stmt 0 discriminator 2
	test	al, al
	je	.L321
	.loc 12 110 9 is_stmt 1 discriminator 3
	mov	rdx, rsi
	mov	rcx, rbx
	call	_ZdlPvS_
.L321:
	.loc 12 110 56 discriminator 7
	mov	rax, rbx
	.loc 12 111 5
	add	rsp, 48
	pop	rbx
	.cfi_restore 3
	pop	rsi
	.cfi_restore 4
	pop	rbp
	.cfi_restore 6
	.cfi_def_cfa 7, -24
	ret
	.cfi_endproc
.LFE1885:
	.seh_endproc
	.weak	_ZSt12construct_atImJEEPT_S1_DpOT0_
	.def	_ZSt12construct_atImJEEPT_S1_DpOT0_;	.scl	2;	.type	32;	.endef
	.set	_ZSt12construct_atImJEEPT_S1_DpOT0_,_ZSt12construct_atImJEQaant20is_unbounded_array_vIT_ErqXgsnwcvPvLi0E_S0_pispcl7declvalIT0_EEEEEPS0_S3_DpOS2_
	.section	.text$_ZSt4copyIPmS0_ET0_T_S2_S1_,"x"
	.linkonce discard
	.globl	_ZSt4copyIPmS0_ET0_T_S2_S1_
	.def	_ZSt4copyIPmS0_ET0_T_S2_S1_;	.scl	2;	.type	32;	.endef
	.seh_proc	_ZSt4copyIPmS0_ET0_T_S2_S1_
_ZSt4copyIPmS0_ET0_T_S2_S1_:
.LFB1886:
	.loc 3 633 5
	.cfi_startproc
	push	rbp
	.seh_pushreg	rbp
	.cfi_def_cfa_offset 16
	.cfi_offset 6, -16
	push	rbx
	.seh_pushreg	rbx
	.cfi_def_cfa_offset 24
	.cfi_offset 3, -24
	sub	rsp, 120
	.seh_stackalloc	120
	.cfi_def_cfa_offset 144
	lea	rbp, 112[rsp]
	.seh_setframe	rbp, 112
	.cfi_def_cfa 6, 32
	.seh_endprologue
	mov	QWORD PTR 32[rbp], rcx
	mov	QWORD PTR 40[rbp], rdx
	mov	QWORD PTR 48[rbp], r8
	.loc 3 642 7
	mov	rax, QWORD PTR 40[rbp]
	mov	rcx, rax
	call	_ZSt12__miter_baseIPmET_S1_
	mov	rbx, rax
	.loc 3 642 7 is_stmt 0 discriminator 1
	mov	rax, QWORD PTR 32[rbp]
	mov	rcx, rax
	call	_ZSt12__miter_baseIPmET_S1_
	mov	QWORD PTR -8[rbp], rax
	mov	QWORD PTR -16[rbp], rbx
	mov	rax, QWORD PTR 48[rbp]
	mov	QWORD PTR -80[rbp], rax
.LBB530:
.LBB531:
	.loc 3 500 31 is_stmt 1
	mov	rax, QWORD PTR -80[rbp]
	mov	QWORD PTR -24[rbp], rax
.LBB532:
.LBB533:
	.loc 15 3011 14
	mov	rax, QWORD PTR -24[rbp]
	mov	rdx, QWORD PTR -16[rbp]
	mov	QWORD PTR -32[rbp], rdx
.LBE533:
.LBE532:
.LBB534:
.LBB535:
	mov	rdx, QWORD PTR -32[rbp]
	mov	rcx, QWORD PTR -8[rbp]
	mov	QWORD PTR -40[rbp], rcx
.LBE535:
.LBE534:
.LBB536:
.LBB537:
	mov	rcx, QWORD PTR -40[rbp]
	mov	QWORD PTR -48[rbp], rcx
	mov	QWORD PTR -56[rbp], rdx
	mov	QWORD PTR -64[rbp], rax
.LBE537:
.LBE536:
.LBB538:
.LBB539:
	.loc 3 492 42
	mov	rcx, QWORD PTR -64[rbp]
	mov	rdx, QWORD PTR -56[rbp]
	mov	rax, QWORD PTR -48[rbp]
	mov	r8, rcx
	mov	rcx, rax
	call	_ZSt14__copy_move_a2ILb0EPmS0_S0_ET2_T0_T1_S1_
	.loc 3 492 68
	nop
	mov	QWORD PTR -72[rbp], rax
.LBE539:
.LBE538:
.LBB540:
.LBB541:
	.loc 15 3082 14
	mov	rax, QWORD PTR -72[rbp]
.LBE541:
.LBE540:
	.loc 3 503 39
	nop
.LBE531:
.LBE530:
	.loc 3 643 5
	add	rsp, 120
	pop	rbx
	.cfi_restore 3
	pop	rbp
	.cfi_restore 6
	.cfi_def_cfa 7, -104
	ret
	.cfi_endproc
.LFE1886:
	.seh_endproc
	.section	.text$_ZSt4copyISt19_Bit_const_iteratorSt13_Bit_iteratorET0_T_S3_S2_,"x"
	.linkonce discard
	.globl	_ZSt4copyISt19_Bit_const_iteratorSt13_Bit_iteratorET0_T_S3_S2_
	.def	_ZSt4copyISt19_Bit_const_iteratorSt13_Bit_iteratorET0_T_S3_S2_;	.scl	2;	.type	32;	.endef
	.seh_proc	_ZSt4copyISt19_Bit_const_iteratorSt13_Bit_iteratorET0_T_S3_S2_
_ZSt4copyISt19_Bit_const_iteratorSt13_Bit_iteratorET0_T_S3_S2_:
.LFB1887:
	.loc 3 633 5
	.cfi_startproc
	push	rbp
	.seh_pushreg	rbp
	.cfi_def_cfa_offset 16
	.cfi_offset 6, -16
	push	rdi
	.seh_pushreg	rdi
	.cfi_def_cfa_offset 24
	.cfi_offset 5, -24
	push	rsi
	.seh_pushreg	rsi
	.cfi_def_cfa_offset 32
	.cfi_offset 4, -32
	push	rbx
	.seh_pushreg	rbx
	.cfi_def_cfa_offset 40
	.cfi_offset 3, -40
	sub	rsp, 344
	.seh_stackalloc	344
	.cfi_def_cfa_offset 384
	lea	rbp, 128[rsp]
	.seh_setframe	rbp, 128
	.cfi_def_cfa 6, 256
	.seh_endprologue
	mov	QWORD PTR 256[rbp], rcx
	mov	rbx, rdx
	mov	rdi, r8
	mov	rsi, r9
	.loc 3 642 7
	lea	rcx, 112[rbp]
	mov	rax, QWORD PTR [rdi]
	mov	rdx, QWORD PTR 8[rdi]
	mov	QWORD PTR -64[rbp], rax
	mov	QWORD PTR -56[rbp], rdx
	lea	rax, -64[rbp]
	mov	rdx, rax
	call	_ZSt12__miter_baseISt19_Bit_const_iteratorET_S1_
	.loc 3 642 7 is_stmt 0 discriminator 1
	lea	rcx, 128[rbp]
	mov	rax, QWORD PTR [rbx]
	mov	rdx, QWORD PTR 8[rbx]
	mov	QWORD PTR -64[rbp], rax
	mov	QWORD PTR -56[rbp], rdx
	lea	rax, -64[rbp]
	mov	rdx, rax
	call	_ZSt12__miter_baseISt19_Bit_const_iteratorET_S1_
	mov	rax, QWORD PTR 128[rbp]
	mov	rdx, QWORD PTR 136[rbp]
	mov	QWORD PTR 96[rbp], rax
	mov	QWORD PTR 104[rbp], rdx
	mov	rax, QWORD PTR 112[rbp]
	mov	rdx, QWORD PTR 120[rbp]
	mov	QWORD PTR 80[rbp], rax
	mov	QWORD PTR 88[rbp], rdx
	mov	rax, QWORD PTR [rsi]
	mov	rdx, QWORD PTR 8[rsi]
	mov	QWORD PTR 64[rbp], rax
	mov	QWORD PTR 72[rbp], rdx
	mov	rax, QWORD PTR 64[rbp]
	mov	rdx, QWORD PTR 72[rbp]
	mov	QWORD PTR 48[rbp], rax
	mov	QWORD PTR 56[rbp], rdx
.LBB542:
.LBB543:
.LBB544:
.LBB545:
	.loc 15 3011 14 is_stmt 1
	mov	rax, QWORD PTR 48[rbp]
	mov	rdx, QWORD PTR 56[rbp]
	mov	QWORD PTR 192[rbp], rax
	mov	QWORD PTR 200[rbp], rdx
	mov	rax, QWORD PTR 80[rbp]
	mov	rdx, QWORD PTR 88[rbp]
	mov	QWORD PTR 32[rbp], rax
	mov	QWORD PTR 40[rbp], rdx
.LBE545:
.LBE544:
.LBB546:
.LBB547:
	mov	rax, QWORD PTR 32[rbp]
	mov	rdx, QWORD PTR 40[rbp]
	mov	QWORD PTR 176[rbp], rax
	mov	QWORD PTR 184[rbp], rdx
	mov	rax, QWORD PTR 96[rbp]
	mov	rdx, QWORD PTR 104[rbp]
	mov	QWORD PTR 16[rbp], rax
	mov	QWORD PTR 24[rbp], rdx
.LBE547:
.LBE546:
.LBB548:
.LBB549:
	mov	rax, QWORD PTR 16[rbp]
	mov	rdx, QWORD PTR 24[rbp]
	mov	QWORD PTR 160[rbp], rax
	mov	QWORD PTR 168[rbp], rdx
	mov	rax, QWORD PTR 160[rbp]
	mov	rdx, QWORD PTR 168[rbp]
	mov	QWORD PTR 0[rbp], rax
	mov	QWORD PTR 8[rbp], rdx
	mov	rax, QWORD PTR 176[rbp]
	mov	rdx, QWORD PTR 184[rbp]
	mov	QWORD PTR -16[rbp], rax
	mov	QWORD PTR -8[rbp], rdx
	mov	rax, QWORD PTR 192[rbp]
	mov	rdx, QWORD PTR 200[rbp]
	mov	QWORD PTR -32[rbp], rax
	mov	QWORD PTR -24[rbp], rdx
.LBE549:
.LBE548:
.LBB550:
.LBB551:
	.loc 3 492 42
	lea	rcx, 144[rbp]
	mov	rax, QWORD PTR 0[rbp]
	mov	rdx, QWORD PTR 8[rbp]
	mov	QWORD PTR -64[rbp], rax
	mov	QWORD PTR -56[rbp], rdx
	mov	rax, QWORD PTR -16[rbp]
	mov	rdx, QWORD PTR -8[rbp]
	mov	QWORD PTR -80[rbp], rax
	mov	QWORD PTR -72[rbp], rdx
	mov	rax, QWORD PTR -32[rbp]
	mov	rdx, QWORD PTR -24[rbp]
	mov	QWORD PTR -96[rbp], rax
	mov	QWORD PTR -88[rbp], rdx
	lea	r8, -96[rbp]
	lea	rdx, -80[rbp]
	lea	rax, -64[rbp]
	mov	r9, r8
	mov	r8, rdx
	mov	rdx, rax
	call	_ZSt14__copy_move_a2ILb0ESt19_Bit_const_iteratorS0_St13_Bit_iteratorET2_T0_T1_S2_
	.loc 3 492 68
	nop
	mov	rax, QWORD PTR 144[rbp]
	mov	rdx, QWORD PTR 152[rbp]
	mov	QWORD PTR -48[rbp], rax
	mov	QWORD PTR -40[rbp], rdx
.LBE551:
.LBE550:
.LBB552:
.LBB553:
	.loc 15 3082 14
	mov	rcx, QWORD PTR 256[rbp]
	mov	rax, QWORD PTR -48[rbp]
	mov	rdx, QWORD PTR -40[rbp]
	mov	QWORD PTR [rcx], rax
	mov	QWORD PTR 8[rcx], rdx
.LBE553:
.LBE552:
	.loc 3 503 39
	nop
.LBE543:
.LBE542:
	.loc 3 642 71
	nop
	.loc 3 643 5
	mov	rax, QWORD PTR 256[rbp]
	add	rsp, 344
	pop	rbx
	.cfi_restore 3
	pop	rsi
	.cfi_restore 4
	pop	rdi
	.cfi_restore 5
	pop	rbp
	.cfi_restore 6
	.cfi_def_cfa 7, -312
	ret
	.cfi_endproc
.LFE1887:
	.seh_endproc
	.section	.text$_ZSt12construct_atIcJEQaant20is_unbounded_array_vIT_ErqXgsnwcvPvLi0E_S0_pispcl7declvalIT0_EEEEEPS0_S3_DpOS2_,"x"
	.linkonce discard
	.globl	_ZSt12construct_atIcJEQaant20is_unbounded_array_vIT_ErqXgsnwcvPvLi0E_S0_pispcl7declvalIT0_EEEEEPS0_S3_DpOS2_
	.def	_ZSt12construct_atIcJEQaant20is_unbounded_array_vIT_ErqXgsnwcvPvLi0E_S0_pispcl7declvalIT0_EEEEEPS0_S3_DpOS2_;	.scl	2;	.type	32;	.endef
	.seh_proc	_ZSt12construct_atIcJEQaant20is_unbounded_array_vIT_ErqXgsnwcvPvLi0E_S0_pispcl7declvalIT0_EEEEEPS0_S3_DpOS2_
_ZSt12construct_atIcJEQaant20is_unbounded_array_vIT_ErqXgsnwcvPvLi0E_S0_pispcl7declvalIT0_EEEEEPS0_S3_DpOS2_:
.LFB1889:
	.loc 12 96 5
	.cfi_startproc
	push	rbp
	.seh_pushreg	rbp
	.cfi_def_cfa_offset 16
	.cfi_offset 6, -16
	push	rsi
	.seh_pushreg	rsi
	.cfi_def_cfa_offset 24
	.cfi_offset 4, -24
	push	rbx
	.seh_pushreg	rbx
	.cfi_def_cfa_offset 32
	.cfi_offset 3, -32
	sub	rsp, 48
	.seh_stackalloc	48
	.cfi_def_cfa_offset 80
	lea	rbp, 48[rsp]
	.seh_setframe	rbp, 48
	.cfi_def_cfa 6, 32
	.seh_endprologue
	mov	QWORD PTR 32[rbp], rcx
	.loc 12 99 13
	mov	rax, QWORD PTR 32[rbp]
	mov	QWORD PTR -8[rbp], rax
	.loc 12 110 15
	mov	rsi, QWORD PTR -8[rbp]
	.loc 12 110 9
	mov	rdx, rsi
	mov	ecx, 1
	call	_ZnwyPv
	mov	rbx, rax
	.loc 12 110 9 is_stmt 0 discriminator 1
	mov	BYTE PTR [rbx], 0
	.loc 12 110 56 is_stmt 1 discriminator 1
	mov	eax, 0
	.loc 12 110 56 is_stmt 0 discriminator 2
	test	al, al
	je	.L340
	.loc 12 110 9 is_stmt 1 discriminator 3
	mov	rdx, rsi
	mov	rcx, rbx
	call	_ZdlPvS_
.L340:
	.loc 12 110 56 discriminator 7
	mov	rax, rbx
	.loc 12 111 5
	add	rsp, 48
	pop	rbx
	.cfi_restore 3
	pop	rsi
	.cfi_restore 4
	pop	rbp
	.cfi_restore 6
	.cfi_def_cfa 7, -24
	ret
	.cfi_endproc
.LFE1889:
	.seh_endproc
	.weak	_ZSt12construct_atIcJEEPT_S1_DpOT0_
	.def	_ZSt12construct_atIcJEEPT_S1_DpOT0_;	.scl	2;	.type	32;	.endef
	.set	_ZSt12construct_atIcJEEPT_S1_DpOT0_,_ZSt12construct_atIcJEQaant20is_unbounded_array_vIT_ErqXgsnwcvPvLi0E_S0_pispcl7declvalIT0_EEEEEPS0_S3_DpOS2_
	.section	.text$_ZSt19__relocate_object_aIccSaIcEEvPT_PT0_RT1_,"x"
	.linkonce discard
	.globl	_ZSt19__relocate_object_aIccSaIcEEvPT_PT0_RT1_
	.def	_ZSt19__relocate_object_aIccSaIcEEvPT_PT0_RT1_;	.scl	2;	.type	32;	.endef
	.seh_proc	_ZSt19__relocate_object_aIccSaIcEEvPT_PT0_RT1_
_ZSt19__relocate_object_aIccSaIcEEvPT_PT0_RT1_:
.LFB1895:
	.loc 14 1307 5
	.cfi_startproc
	push	rbp
	.seh_pushreg	rbp
	.cfi_def_cfa_offset 16
	.cfi_offset 6, -16
	mov	rbp, rsp
	.seh_setframe	rbp, 0
	.cfi_def_cfa_register 6
	sub	rsp, 96
	.seh_stackalloc	96
	.seh_endprologue
	mov	QWORD PTR 16[rbp], rcx
	mov	QWORD PTR 24[rbp], rdx
	mov	QWORD PTR 32[rbp], r8
	mov	rax, QWORD PTR 24[rbp]
	mov	QWORD PTR -64[rbp], rax
.LBB554:
.LBB555:
	.loc 13 139 74
	mov	rax, QWORD PTR -64[rbp]
	mov	rdx, QWORD PTR 16[rbp]
	mov	QWORD PTR -32[rbp], rdx
	mov	QWORD PTR -40[rbp], rax
	mov	rax, QWORD PTR 32[rbp]
	mov	QWORD PTR -48[rbp], rax
	mov	rax, QWORD PTR -40[rbp]
	mov	QWORD PTR -56[rbp], rax
.LBE555:
.LBE554:
.LBB556:
.LBB557:
.LBB558:
.LBB559:
	.loc 13 73 36
	mov	rdx, QWORD PTR -56[rbp]
.LBE559:
.LBE558:
	.loc 9 676 21 discriminator 1
	mov	rax, QWORD PTR -32[rbp]
	mov	rcx, rax
	call	_ZSt12construct_atIcJcEQaant20is_unbounded_array_vIT_ErqXgsnwcvPvLi0E_S0_pispcl7declvalIT0_EEEEEPS0_S3_DpOS2_
	.loc 9 680 2
	nop
	mov	rax, QWORD PTR 24[rbp]
	mov	QWORD PTR -24[rbp], rax
.LBE557:
.LBE556:
.LBB560:
.LBB561:
	.loc 13 53 37
	mov	rax, QWORD PTR -24[rbp]
	mov	QWORD PTR -8[rbp], rax
	mov	rax, QWORD PTR 32[rbp]
	mov	QWORD PTR -16[rbp], rax
.LBE561:
.LBE560:
.LBB562:
.LBB563:
	.loc 9 698 19
	mov	rax, QWORD PTR -8[rbp]
	mov	rcx, rax
	call	_ZSt10destroy_atIcEvPT_
	.loc 9 700 2
	nop
.LBE563:
.LBE562:
	.loc 14 1317 5
	nop
	add	rsp, 96
	pop	rbp
	.cfi_restore 6
	.cfi_def_cfa 7, 8
	ret
	.cfi_endproc
.LFE1895:
	.seh_endproc
	.section	.text$_ZSt12__miter_baseIPmET_S1_,"x"
	.linkonce discard
	.globl	_ZSt12__miter_baseIPmET_S1_
	.def	_ZSt12__miter_baseIPmET_S1_;	.scl	2;	.type	32;	.endef
	.seh_proc	_ZSt12__miter_baseIPmET_S1_
_ZSt12__miter_baseIPmET_S1_:
.LFB1900:
	.loc 18 705 5
	.cfi_startproc
	push	rbp
	.seh_pushreg	rbp
	.cfi_def_cfa_offset 16
	.cfi_offset 6, -16
	mov	rbp, rsp
	.seh_setframe	rbp, 0
	.cfi_def_cfa_register 6
	.seh_endprologue
	mov	QWORD PTR 16[rbp], rcx
	.loc 18 706 14
	mov	rax, QWORD PTR 16[rbp]
	.loc 18 706 20
	pop	rbp
	.cfi_restore 6
	.cfi_def_cfa 7, 8
	ret
	.cfi_endproc
.LFE1900:
	.seh_endproc
	.section	.text$_ZSt12__miter_baseISt19_Bit_const_iteratorET_S1_,"x"
	.linkonce discard
	.globl	_ZSt12__miter_baseISt19_Bit_const_iteratorET_S1_
	.def	_ZSt12__miter_baseISt19_Bit_const_iteratorET_S1_;	.scl	2;	.type	32;	.endef
	.seh_proc	_ZSt12__miter_baseISt19_Bit_const_iteratorET_S1_
_ZSt12__miter_baseISt19_Bit_const_iteratorET_S1_:
.LFB1903:
	.loc 18 705 5
	.cfi_startproc
	push	rbp
	.seh_pushreg	rbp
	.cfi_def_cfa_offset 16
	.cfi_offset 6, -16
	push	rbx
	.seh_pushreg	rbx
	.cfi_def_cfa_offset 24
	.cfi_offset 3, -24
	lea	rbp, [rsp]
	.seh_setframe	rbp, 0
	.cfi_def_cfa_register 6
	.seh_endprologue
	mov	QWORD PTR 24[rbp], rcx
	mov	rbx, rdx
	.loc 18 706 14
	mov	rcx, QWORD PTR 24[rbp]
	mov	rax, QWORD PTR [rbx]
	mov	rdx, QWORD PTR 8[rbx]
	mov	QWORD PTR [rcx], rax
	mov	QWORD PTR 8[rcx], rdx
	.loc 18 706 20
	mov	rax, QWORD PTR 24[rbp]
	pop	rbx
	.cfi_restore 3
	pop	rbp
	.cfi_restore 6
	.cfi_def_cfa 7, 16
	ret
	.cfi_endproc
.LFE1903:
	.seh_endproc
	.section	.text$_ZSt23__copy_move_backward_a2ILb0ESt13_Bit_iteratorS0_ET1_T0_S2_S1_,"x"
	.linkonce discard
	.globl	_ZSt23__copy_move_backward_a2ILb0ESt13_Bit_iteratorS0_ET1_T0_S2_S1_
	.def	_ZSt23__copy_move_backward_a2ILb0ESt13_Bit_iteratorS0_ET1_T0_S2_S1_;	.scl	2;	.type	32;	.endef
	.seh_proc	_ZSt23__copy_move_backward_a2ILb0ESt13_Bit_iteratorS0_ET1_T0_S2_S1_
_ZSt23__copy_move_backward_a2ILb0ESt13_Bit_iteratorS0_ET1_T0_S2_S1_:
.LFB1910:
	.loc 3 688 5
	.cfi_startproc
	push	rbp
	.seh_pushreg	rbp
	.cfi_def_cfa_offset 16
	.cfi_offset 6, -16
	push	rdi
	.seh_pushreg	rdi
	.cfi_def_cfa_offset 24
	.cfi_offset 5, -24
	push	rsi
	.seh_pushreg	rsi
	.cfi_def_cfa_offset 32
	.cfi_offset 4, -32
	push	rbx
	.seh_pushreg	rbx
	.cfi_def_cfa_offset 40
	.cfi_offset 3, -40
	sub	rsp, 72
	.seh_stackalloc	72
	.cfi_def_cfa_offset 112
	lea	rbp, 64[rsp]
	.seh_setframe	rbp, 64
	.cfi_def_cfa 6, 48
	.seh_endprologue
	mov	QWORD PTR 48[rbp], rcx
	mov	rdi, rdx
	mov	rsi, r8
	mov	rbx, r9
	.loc 3 735 7
	jmp	.L350
.L351:
	.loc 3 737 4
	mov	rcx, rsi
	call	_ZNSt13_Bit_iteratormmEv
	.loc 3 738 4
	mov	rcx, rbx
	call	_ZNSt13_Bit_iteratormmEv
.LBB564:
.LBB565:
	.loc 3 407 11
	lea	rax, -16[rbp]
	mov	rdx, rsi
	mov	rcx, rax
	call	_ZNKSt13_Bit_iteratordeEv
	.loc 3 407 2 discriminator 1
	lea	rax, -32[rbp]
	mov	rdx, rbx
	mov	rcx, rax
	call	_ZNKSt13_Bit_iteratordeEv
	.loc 3 407 9 discriminator 2
	lea	rdx, -16[rbp]
	lea	rax, -32[rbp]
	mov	rcx, rax
	call	_ZNSt14_Bit_referenceaSERKS_
	.loc 3 408 5
	nop
.L350:
.LBE565:
.LBE564:
	.loc 3 735 22
	mov	rdx, rsi
	mov	rcx, rdi
	call	_ZSteqRKSt18_Bit_iterator_baseS1_
	.loc 3 735 22 is_stmt 0 discriminator 1
	xor	eax, 1
	test	al, al
	jne	.L351
	.loc 3 741 14 is_stmt 1
	mov	rcx, QWORD PTR 48[rbp]
	mov	rax, QWORD PTR [rbx]
	mov	rdx, QWORD PTR 8[rbx]
	mov	QWORD PTR [rcx], rax
	mov	QWORD PTR 8[rcx], rdx
	.loc 3 742 5
	mov	rax, QWORD PTR 48[rbp]
	add	rsp, 72
	pop	rbx
	.cfi_restore 3
	pop	rsi
	.cfi_restore 4
	pop	rdi
	.cfi_restore 5
	pop	rbp
	.cfi_restore 6
	.cfi_def_cfa 7, -40
	ret
	.cfi_endproc
.LFE1910:
	.seh_endproc
	.section	.text$_ZNSt15__new_allocatorImE8allocateEyPKv,"x"
	.linkonce discard
	.align 2
	.globl	_ZNSt15__new_allocatorImE8allocateEyPKv
	.def	_ZNSt15__new_allocatorImE8allocateEyPKv;	.scl	2;	.type	32;	.endef
	.seh_proc	_ZNSt15__new_allocatorImE8allocateEyPKv
_ZNSt15__new_allocatorImE8allocateEyPKv:
.LFB1911:
	.loc 8 126 7
	.cfi_startproc
	push	rbp
	.seh_pushreg	rbp
	.cfi_def_cfa_offset 16
	.cfi_offset 6, -16
	mov	rbp, rsp
	.seh_setframe	rbp, 0
	.cfi_def_cfa_register 6
	sub	rsp, 48
	.seh_stackalloc	48
	.seh_endprologue
	mov	QWORD PTR 16[rbp], rcx
	mov	QWORD PTR 24[rbp], rdx
	mov	QWORD PTR 32[rbp], r8
	mov	rax, QWORD PTR 16[rbp]
	mov	QWORD PTR -8[rbp], rax
.LBB566:
.LBB567:
	.loc 8 233 50
	movabs	rax, 2305843009213693951
.LBE567:
.LBE566:
	.loc 8 134 27 discriminator 1
	cmp	rax, QWORD PTR 24[rbp]
	setb	al
	.loc 8 134 22 discriminator 1
	movzx	eax, al
	.loc 8 134 22 is_stmt 0 discriminator 2
	test	eax, eax
	setne	al
	.loc 8 134 2 is_stmt 1 discriminator 2
	test	al, al
	je	.L355
	.loc 8 138 6
	movabs	rax, 4611686018427387903
	cmp	rax, QWORD PTR 24[rbp]
	jnb	.L356
	.loc 8 139 41
	call	_ZSt28__throw_bad_array_new_lengthv
.L356:
	.loc 8 140 28
	call	_ZSt17__throw_bad_allocv
.L355:
	.loc 8 151 66
	mov	rax, QWORD PTR 24[rbp]
	sal	rax, 2
	mov	rcx, rax
	call	_Znwy
	.loc 8 151 67
	nop
	.loc 8 152 7
	add	rsp, 48
	pop	rbp
	.cfi_restore 6
	.cfi_def_cfa 7, 8
	ret
	.cfi_endproc
.LFE1911:
	.seh_endproc
	.section	.text$_ZSt14__copy_move_a2ILb0ESt13_Bit_iteratorS0_S0_ET2_T0_T1_S1_,"x"
	.linkonce discard
	.globl	_ZSt14__copy_move_a2ILb0ESt13_Bit_iteratorS0_S0_ET2_T0_T1_S1_
	.def	_ZSt14__copy_move_a2ILb0ESt13_Bit_iteratorS0_S0_ET2_T0_T1_S1_;	.scl	2;	.type	32;	.endef
	.seh_proc	_ZSt14__copy_move_a2ILb0ESt13_Bit_iteratorS0_S0_ET2_T0_T1_S1_
_ZSt14__copy_move_a2ILb0ESt13_Bit_iteratorS0_S0_ET2_T0_T1_S1_:
.LFB1917:
	.loc 3 413 5
	.cfi_startproc
	push	rbp
	.seh_pushreg	rbp
	.cfi_def_cfa_offset 16
	.cfi_offset 6, -16
	push	rdi
	.seh_pushreg	rdi
	.cfi_def_cfa_offset 24
	.cfi_offset 5, -24
	push	rsi
	.seh_pushreg	rsi
	.cfi_def_cfa_offset 32
	.cfi_offset 4, -32
	push	rbx
	.seh_pushreg	rbx
	.cfi_def_cfa_offset 40
	.cfi_offset 3, -40
	sub	rsp, 72
	.seh_stackalloc	72
	.cfi_def_cfa_offset 112
	lea	rbp, 64[rsp]
	.seh_setframe	rbp, 64
	.cfi_def_cfa 6, 48
	.seh_endprologue
	mov	QWORD PTR 48[rbp], rcx
	mov	rbx, rdx
	mov	rdi, r8
	mov	rsi, r9
	.loc 3 461 7
	jmp	.L359
.L360:
.LBB568:
.LBB569:
	.loc 3 407 11
	lea	rax, -16[rbp]
	mov	rdx, rbx
	mov	rcx, rax
	call	_ZNKSt13_Bit_iteratordeEv
	.loc 3 407 2 discriminator 1
	lea	rax, -32[rbp]
	mov	rdx, rsi
	mov	rcx, rax
	call	_ZNKSt13_Bit_iteratordeEv
	.loc 3 407 9 discriminator 2
	lea	rdx, -16[rbp]
	lea	rax, -32[rbp]
	mov	rcx, rax
	call	_ZNSt14_Bit_referenceaSERKS_
	.loc 3 408 5
	nop
.LBE569:
.LBE568:
	.loc 3 461 33 discriminator 5
	mov	rcx, rsi
	call	_ZNSt13_Bit_iteratorppEv
	.loc 3 461 51 discriminator 5
	mov	rcx, rbx
	call	_ZNSt13_Bit_iteratorppEv
.L359:
	.loc 3 461 22 discriminator 3
	mov	rdx, rdi
	mov	rcx, rbx
	call	_ZSteqRKSt18_Bit_iterator_baseS1_
	.loc 3 461 22 is_stmt 0 discriminator 4
	xor	eax, 1
	test	al, al
	jne	.L360
	.loc 3 463 14 is_stmt 1
	mov	rcx, QWORD PTR 48[rbp]
	mov	rax, QWORD PTR [rsi]
	mov	rdx, QWORD PTR 8[rsi]
	mov	QWORD PTR [rcx], rax
	mov	QWORD PTR 8[rcx], rdx
	.loc 3 464 5
	mov	rax, QWORD PTR 48[rbp]
	add	rsp, 72
	pop	rbx
	.cfi_restore 3
	pop	rsi
	.cfi_restore 4
	pop	rdi
	.cfi_restore 5
	pop	rbp
	.cfi_restore 6
	.cfi_def_cfa 7, -40
	ret
	.cfi_endproc
.LFE1917:
	.seh_endproc
	.section	.text$_ZSt9__fill_a1IccEN9__gnu_cxx11__enable_ifIXaasrSt9__is_byteIT_E7__valueoosrSt10__are_sameIS3_T0_E7__valuesrSt20__memcpyable_integerIS6_E7__widthEvE6__typeEPS3_SC_RKS6_,"x"
	.linkonce discard
	.globl	_ZSt9__fill_a1IccEN9__gnu_cxx11__enable_ifIXaasrSt9__is_byteIT_E7__valueoosrSt10__are_sameIS3_T0_E7__valuesrSt20__memcpyable_integerIS6_E7__widthEvE6__typeEPS3_SC_RKS6_
	.def	_ZSt9__fill_a1IccEN9__gnu_cxx11__enable_ifIXaasrSt9__is_byteIT_E7__valueoosrSt10__are_sameIS3_T0_E7__valuesrSt20__memcpyable_integerIS6_E7__widthEvE6__typeEPS3_SC_RKS6_;	.scl	2;	.type	32;	.endef
	.seh_proc	_ZSt9__fill_a1IccEN9__gnu_cxx11__enable_ifIXaasrSt9__is_byteIT_E7__valueoosrSt10__are_sameIS3_T0_E7__valuesrSt20__memcpyable_integerIS6_E7__widthEvE6__typeEPS3_SC_RKS6_
_ZSt9__fill_a1IccEN9__gnu_cxx11__enable_ifIXaasrSt9__is_byteIT_E7__valueoosrSt10__are_sameIS3_T0_E7__valuesrSt20__memcpyable_integerIS6_E7__widthEvE6__typeEPS3_SC_RKS6_:
.LFB1918:
	.loc 3 937 5
	.cfi_startproc
	push	rbp
	.seh_pushreg	rbp
	.cfi_def_cfa_offset 16
	.cfi_offset 6, -16
	mov	rbp, rsp
	.seh_setframe	rbp, 0
	.cfi_def_cfa_register 6
	sub	rsp, 48
	.seh_stackalloc	48
	.seh_endprologue
	mov	QWORD PTR 16[rbp], rcx
	mov	QWORD PTR 24[rbp], rdx
	mov	QWORD PTR 32[rbp], r8
	.loc 3 941 17
	mov	rax, QWORD PTR 32[rbp]
	movzx	eax, BYTE PTR [rax]
	mov	BYTE PTR -1[rbp], al
	.loc 3 943 37
	call	_ZSt21is_constant_evaluatedv
	.loc 3 943 7 discriminator 1
	test	al, al
	je	.L363
	.loc 3 945 4
	jmp	.L364
.L365:
	.loc 3 946 15
	mov	rax, QWORD PTR 16[rbp]
	movzx	edx, BYTE PTR -1[rbp]
	mov	BYTE PTR [rax], dl
	.loc 3 945 4 discriminator 2
	add	QWORD PTR 16[rbp], 1
.L364:
	.loc 3 945 19 discriminator 1
	mov	rax, QWORD PTR 16[rbp]
	cmp	rax, QWORD PTR 24[rbp]
	jne	.L365
	.loc 3 947 4
	jmp	.L362
.L363:
.LBB570:
	.loc 3 950 39
	mov	rax, QWORD PTR 24[rbp]
	sub	rax, QWORD PTR 16[rbp]
	.loc 3 950 24
	mov	QWORD PTR -16[rbp], rax
	.loc 3 950 7
	cmp	QWORD PTR -16[rbp], 0
	je	.L362
	.loc 3 951 28
	movzx	eax, BYTE PTR -1[rbp]
	.loc 3 951 18
	movzx	edx, al
	mov	rcx, QWORD PTR -16[rbp]
	mov	rax, QWORD PTR 16[rbp]
	mov	r8, rcx
	mov	rcx, rax
	call	memset
	nop
.L362:
.LBE570:
	.loc 3 952 5
	add	rsp, 48
	pop	rbp
	.cfi_restore 6
	.cfi_def_cfa 7, 8
	ret
	.cfi_endproc
.LFE1918:
	.seh_endproc
	.section	.text$_ZSt12construct_atIcJcEQaant20is_unbounded_array_vIT_ErqXgsnwcvPvLi0E_S0_pispcl7declvalIT0_EEEEEPS0_S3_DpOS2_,"x"
	.linkonce discard
	.globl	_ZSt12construct_atIcJcEQaant20is_unbounded_array_vIT_ErqXgsnwcvPvLi0E_S0_pispcl7declvalIT0_EEEEEPS0_S3_DpOS2_
	.def	_ZSt12construct_atIcJcEQaant20is_unbounded_array_vIT_ErqXgsnwcvPvLi0E_S0_pispcl7declvalIT0_EEEEEPS0_S3_DpOS2_;	.scl	2;	.type	32;	.endef
	.seh_proc	_ZSt12construct_atIcJcEQaant20is_unbounded_array_vIT_ErqXgsnwcvPvLi0E_S0_pispcl7declvalIT0_EEEEEPS0_S3_DpOS2_
_ZSt12construct_atIcJcEQaant20is_unbounded_array_vIT_ErqXgsnwcvPvLi0E_S0_pispcl7declvalIT0_EEEEEPS0_S3_DpOS2_:
.LFB1920:
	.loc 12 96 5
	.cfi_startproc
	push	rbp
	.seh_pushreg	rbp
	.cfi_def_cfa_offset 16
	.cfi_offset 6, -16
	push	rsi
	.seh_pushreg	rsi
	.cfi_def_cfa_offset 24
	.cfi_offset 4, -24
	push	rbx
	.seh_pushreg	rbx
	.cfi_def_cfa_offset 32
	.cfi_offset 3, -32
	sub	rsp, 48
	.seh_stackalloc	48
	.cfi_def_cfa_offset 80
	lea	rbp, 48[rsp]
	.seh_setframe	rbp, 48
	.cfi_def_cfa 6, 32
	.seh_endprologue
	mov	QWORD PTR 32[rbp], rcx
	mov	QWORD PTR 40[rbp], rdx
	.loc 12 99 13
	mov	rax, QWORD PTR 32[rbp]
	mov	QWORD PTR -8[rbp], rax
	.loc 12 110 15
	mov	rsi, QWORD PTR -8[rbp]
	.loc 12 110 9
	mov	rdx, rsi
	mov	ecx, 1
	call	_ZnwyPv
	mov	rbx, rax
	mov	rax, QWORD PTR 40[rbp]
	mov	QWORD PTR -16[rbp], rax
.LBB571:
.LBB572:
	.loc 13 73 36
	mov	rax, QWORD PTR -16[rbp]
.LBE572:
.LBE571:
	.loc 12 110 9 discriminator 2
	movzx	eax, BYTE PTR [rax]
	mov	BYTE PTR [rbx], al
	.loc 12 110 56 discriminator 2
	mov	eax, 0
	.loc 12 110 56 is_stmt 0 discriminator 3
	test	al, al
	je	.L370
	.loc 12 110 9 is_stmt 1 discriminator 4
	mov	rdx, rsi
	mov	rcx, rbx
	call	_ZdlPvS_
.L370:
	.loc 12 110 56 discriminator 8
	mov	rax, rbx
	.loc 12 111 5
	add	rsp, 48
	pop	rbx
	.cfi_restore 3
	pop	rsi
	.cfi_restore 4
	pop	rbp
	.cfi_restore 6
	.cfi_def_cfa 7, -24
	ret
	.cfi_endproc
.LFE1920:
	.seh_endproc
	.weak	_ZSt12construct_atIcJcEEPT_S1_DpOT0_
	.def	_ZSt12construct_atIcJcEEPT_S1_DpOT0_;	.scl	2;	.type	32;	.endef
	.set	_ZSt12construct_atIcJcEEPT_S1_DpOT0_,_ZSt12construct_atIcJcEQaant20is_unbounded_array_vIT_ErqXgsnwcvPvLi0E_S0_pispcl7declvalIT0_EEEEEPS0_S3_DpOS2_
	.section	.text$_ZSt14__copy_move_a2ILb0EPmS0_S0_ET2_T0_T1_S1_,"x"
	.linkonce discard
	.globl	_ZSt14__copy_move_a2ILb0EPmS0_S0_ET2_T0_T1_S1_
	.def	_ZSt14__copy_move_a2ILb0EPmS0_S0_ET2_T0_T1_S1_;	.scl	2;	.type	32;	.endef
	.seh_proc	_ZSt14__copy_move_a2ILb0EPmS0_S0_ET2_T0_T1_S1_
_ZSt14__copy_move_a2ILb0EPmS0_S0_ET2_T0_T1_S1_:
.LFB1923:
	.loc 3 413 5
	.cfi_startproc
	push	rbp
	.seh_pushreg	rbp
	.cfi_def_cfa_offset 16
	.cfi_offset 6, -16
	mov	rbp, rsp
	.seh_setframe	rbp, 0
	.cfi_def_cfa_register 6
	sub	rsp, 80
	.seh_stackalloc	80
	.seh_endprologue
	mov	QWORD PTR 16[rbp], rcx
	mov	QWORD PTR 24[rbp], rdx
	mov	QWORD PTR 32[rbp], r8
.LBB573:
.LBB574:
.LBB575:
.LBB576:
.LBB577:
	.loc 10 586 49
	mov	eax, 0
.LBE577:
.LBE576:
	.loc 3 419 12 discriminator 1
	test	al, al
	jne	.L380
.LBB578:
.LBB579:
.LBB580:
	.loc 3 423 33
	mov	rax, QWORD PTR 16[rbp]
	mov	QWORD PTR -40[rbp], rax
	mov	rax, QWORD PTR 24[rbp]
	mov	QWORD PTR -16[rbp], rax
.LBB581:
.LBB582:
.LBB583:
.LBB584:
	.loc 16 242 65
	nop
.LBE584:
.LBE583:
	.file 19 "C:/Qt/Tools/mingw1530_64/include/c++/15.3.0/bits/stl_iterator_base_funcs.h"
	.loc 19 153 29
	mov	rax, QWORD PTR -40[rbp]
	mov	QWORD PTR -24[rbp], rax
	mov	rax, QWORD PTR -16[rbp]
	mov	QWORD PTR -32[rbp], rax
.LBB585:
.LBB586:
	.loc 19 108 21
	mov	rax, QWORD PTR -32[rbp]
	sub	rax, QWORD PTR -24[rbp]
	.loc 19 108 23
	sar	rax, 2
.LBE586:
.LBE585:
	.loc 19 154 42
	nop
.LBE582:
.LBE581:
	.loc 3 423 33 discriminator 1
	mov	QWORD PTR -8[rbp], rax
	.loc 3 424 29
	cmp	QWORD PTR -8[rbp], 1
	setg	al
	.loc 3 424 24
	movzx	eax, al
	.loc 3 424 4 discriminator 1
	test	eax, eax
	je	.L377
	.loc 3 428 5
	mov	rax, QWORD PTR -8[rbp]
	.loc 3 426 25
	lea	rcx, 0[0+rax*4]
	mov	rdx, QWORD PTR 16[rbp]
	mov	rax, QWORD PTR 32[rbp]
	mov	r8, rcx
	mov	rcx, rax
	call	memmove
	.loc 3 429 8
	mov	rax, QWORD PTR 32[rbp]
	mov	rdx, QWORD PTR -8[rbp]
	sal	rdx, 2
	add	rax, rdx
	mov	QWORD PTR 32[rbp], rax
	jmp	.L378
.L377:
	.loc 3 431 9
	cmp	QWORD PTR -8[rbp], 1
	jne	.L378
.LBB587:
.LBB588:
	.loc 3 407 9
	mov	rdx, QWORD PTR 16[rbp]
	mov	rax, QWORD PTR 32[rbp]
	mov	edx, DWORD PTR [rdx]
	mov	DWORD PTR [rax], edx
	.loc 3 408 5
	nop
.LBE588:
.LBE587:
	.loc 3 434 8
	mov	rax, QWORD PTR 32[rbp]
	add	rax, 4
	mov	QWORD PTR 32[rbp], rax
.L378:
	.loc 3 436 11
	mov	rax, QWORD PTR 32[rbp]
	jmp	.L379
.L381:
.LBE580:
.LBE579:
.LBE578:
.LBE575:
.LBE574:
.LBE573:
.LBB589:
.LBB590:
	.loc 3 407 9
	mov	rdx, QWORD PTR 16[rbp]
	mov	rax, QWORD PTR 32[rbp]
	mov	edx, DWORD PTR [rdx]
	mov	DWORD PTR [rax], edx
	.loc 3 408 5
	nop
.LBE590:
.LBE589:
	.loc 3 461 7 discriminator 2
	mov	rax, QWORD PTR 32[rbp]
	add	rax, 4
	mov	QWORD PTR 32[rbp], rax
	.loc 3 461 45 discriminator 2
	mov	rax, QWORD PTR 16[rbp]
	add	rax, 4
	mov	QWORD PTR 16[rbp], rax
.L380:
	.loc 3 461 22 discriminator 1
	mov	rax, QWORD PTR 16[rbp]
	cmp	QWORD PTR 24[rbp], rax
	jne	.L381
	.loc 3 463 14
	mov	rax, QWORD PTR 32[rbp]
.L379:
	.loc 3 464 5
	add	rsp, 80
	pop	rbp
	.cfi_restore 6
	.cfi_def_cfa 7, 8
	ret
	.cfi_endproc
.LFE1923:
	.seh_endproc
	.section	.text$_ZSt14__copy_move_a2ILb0ESt19_Bit_const_iteratorS0_St13_Bit_iteratorET2_T0_T1_S2_,"x"
	.linkonce discard
	.globl	_ZSt14__copy_move_a2ILb0ESt19_Bit_const_iteratorS0_St13_Bit_iteratorET2_T0_T1_S2_
	.def	_ZSt14__copy_move_a2ILb0ESt19_Bit_const_iteratorS0_St13_Bit_iteratorET2_T0_T1_S2_;	.scl	2;	.type	32;	.endef
	.seh_proc	_ZSt14__copy_move_a2ILb0ESt19_Bit_const_iteratorS0_St13_Bit_iteratorET2_T0_T1_S2_
_ZSt14__copy_move_a2ILb0ESt19_Bit_const_iteratorS0_St13_Bit_iteratorET2_T0_T1_S2_:
.LFB1924:
	.loc 3 413 5
	.cfi_startproc
	push	rbp
	.seh_pushreg	rbp
	.cfi_def_cfa_offset 16
	.cfi_offset 6, -16
	push	r12
	.seh_pushreg	r12
	.cfi_def_cfa_offset 24
	.cfi_offset 12, -24
	push	rdi
	.seh_pushreg	rdi
	.cfi_def_cfa_offset 32
	.cfi_offset 5, -32
	push	rsi
	.seh_pushreg	rsi
	.cfi_def_cfa_offset 40
	.cfi_offset 4, -40
	push	rbx
	.seh_pushreg	rbx
	.cfi_def_cfa_offset 48
	.cfi_offset 3, -48
	sub	rsp, 48
	.seh_stackalloc	48
	.cfi_def_cfa_offset 96
	lea	rbp, 48[rsp]
	.seh_setframe	rbp, 48
	.cfi_def_cfa 6, 48
	.seh_endprologue
	mov	QWORD PTR 48[rbp], rcx
	mov	rbx, rdx
	mov	r12, r8
	mov	rsi, r9
	.loc 3 461 7
	jmp	.L383
.L384:
.LBB591:
.LBB592:
	.loc 3 407 11
	mov	rcx, rbx
	call	_ZNKSt19_Bit_const_iteratordeEv
	.loc 3 407 9 discriminator 1
	movzx	edi, al
	.loc 3 407 2 discriminator 1
	lea	rax, -16[rbp]
	mov	rdx, rsi
	mov	rcx, rax
	call	_ZNKSt13_Bit_iteratordeEv
	.loc 3 407 9 discriminator 2
	lea	rax, -16[rbp]
	mov	edx, edi
	mov	rcx, rax
	call	_ZNSt14_Bit_referenceaSEb
	.loc 3 408 5
	nop
.LBE592:
.LBE591:
	.loc 3 461 33 discriminator 5
	mov	rcx, rsi
	call	_ZNSt13_Bit_iteratorppEv
	.loc 3 461 51 discriminator 5
	mov	rcx, rbx
	call	_ZNSt19_Bit_const_iteratorppEv
.L383:
	.loc 3 461 22 discriminator 3
	mov	rdx, r12
	mov	rcx, rbx
	call	_ZSteqRKSt18_Bit_iterator_baseS1_
	.loc 3 461 22 is_stmt 0 discriminator 4
	xor	eax, 1
	test	al, al
	jne	.L384
	.loc 3 463 14 is_stmt 1
	mov	rcx, QWORD PTR 48[rbp]
	mov	rax, QWORD PTR [rsi]
	mov	rdx, QWORD PTR 8[rsi]
	mov	QWORD PTR [rcx], rax
	mov	QWORD PTR 8[rcx], rdx
	.loc 3 464 5
	mov	rax, QWORD PTR 48[rbp]
	add	rsp, 48
	pop	rbx
	.cfi_restore 3
	pop	rsi
	.cfi_restore 4
	pop	rdi
	.cfi_restore 5
	pop	r12
	.cfi_restore 12
	pop	rbp
	.cfi_restore 6
	.cfi_def_cfa 7, -8
	ret
	.cfi_endproc
.LFE1924:
	.seh_endproc
	.text
.Letext0:
	.file 20 "C:/Qt/Tools/mingw1530_64/x86_64-w64-mingw32/include/stddef.h"
	.file 21 "C:/Qt/Tools/mingw1530_64/include/c++/15.3.0/bits/utility.h"
	.file 22 "C:/Qt/Tools/mingw1530_64/include/c++/15.3.0/concepts"
	.file 23 "C:/Qt/Tools/mingw1530_64/include/c++/15.3.0/bits/iterator_concepts.h"
	.file 24 "C:/Qt/Tools/mingw1530_64/include/c++/15.3.0/compare"
	.file 25 "C:/Qt/Tools/mingw1530_64/include/c++/15.3.0/debug/debug.h"
	.file 26 "C:/Qt/Tools/mingw1530_64/include/c++/15.3.0/numbers"
	.file 27 "C:/Qt/Tools/mingw1530_64/include/c++/15.3.0/initializer_list"
	.file 28 "C:/Qt/Tools/mingw1530_64/include/c++/15.3.0/bits/memory_resource.h"
	.file 29 "C:/Qt/Tools/mingw1530_64/include/c++/15.3.0/cstddef"
	.file 30 "C:/Qt/Tools/mingw1530_64/include/c++/15.3.0/bits/functexcept.h"
	.file 31 "C:/Qt/Tools/mingw1530_64/include/c++/15.3.0/bits/predefined_ops.h"
	.file 32 "C:/Qt/Tools/mingw1530_64/include/c++/15.3.0/ext/alloc_traits.h"