	.file	"_ch142_aos.cpp"
	.intel_syntax noprefix
	.text
.Ltext0:
	.cfi_sections	.debug_frame
	.file 0 "C:/CodeLearnling/note/note/C++/CPP-Bible" "Examples/_ch142_aos.cpp"
	.section	.text$_ZSt21is_constant_evaluatedv,"x"
	.linkonce discard
	.globl	_ZSt21is_constant_evaluatedv
	.def	_ZSt21is_constant_evaluatedv;	.scl	2;	.type	32;	.endef
	.seh_proc	_ZSt21is_constant_evaluatedv
_ZSt21is_constant_evaluatedv:
.LFB15:
	.file 1 "C:/Qt/Tools/mingw1530_64/include/c++/15.3.0/type_traits"
	.loc 1 4008 3
	.cfi_startproc
	push	rbp
	.seh_pushreg	rbp
	.cfi_def_cfa_offset 16
	.cfi_offset 6, -16
	mov	rbp, rsp
	.seh_setframe	rbp, 0
	.cfi_def_cfa_register 6
	.seh_endprologue
	.loc 1 4010 49
	mov	eax, 0
	.loc 1 4014 3
	pop	rbp
	.cfi_restore 6
	.cfi_def_cfa 7, 8
	ret
	.cfi_endproc
.LFE15:
	.seh_endproc
	.section	.text$_ZnwyPv,"x"
	.linkonce discard
	.globl	_ZnwyPv
	.def	_ZnwyPv;	.scl	2;	.type	32;	.endef
	.seh_proc	_ZnwyPv
_ZnwyPv:
.LFB220:
	.file 2 "C:/Qt/Tools/mingw1530_64/include/c++/15.3.0/new"
	.loc 2 208 1
	.cfi_startproc
	push	rbp
	.seh_pushreg	rbp
	.cfi_def_cfa_offset 16
	.cfi_offset 6, -16
	mov	rbp, rsp
	.seh_setframe	rbp, 0
	.cfi_def_cfa_register 6
	.seh_endprologue
	mov	QWORD PTR 16[rbp], rcx
	mov	QWORD PTR 24[rbp], rdx
	.loc 2 208 10
	mov	rax, QWORD PTR 24[rbp]
	.loc 2 208 15
	pop	rbp
	.cfi_restore 6
	.cfi_def_cfa 7, 8
	ret
	.cfi_endproc
.LFE220:
	.seh_endproc
	.section	.text$_ZdlPvS_,"x"
	.linkonce discard
	.globl	_ZdlPvS_
	.def	_ZdlPvS_;	.scl	2;	.type	32;	.endef
	.seh_proc	_ZdlPvS_
_ZdlPvS_:
.LFB222:
	.loc 2 219 1
	.cfi_startproc
	push	rbp
	.seh_pushreg	rbp
	.cfi_def_cfa_offset 16
	.cfi_offset 6, -16
	mov	rbp, rsp
	.seh_setframe	rbp, 0
	.cfi_def_cfa_register 6
	.seh_endprologue
	mov	QWORD PTR 16[rbp], rcx
	mov	QWORD PTR 24[rbp], rdx
	.loc 2 219 3
	nop
	pop	rbp
	.cfi_restore 6
	.cfi_def_cfa 7, 8
	ret
	.cfi_endproc
.LFE222:
	.seh_endproc
	.section	.text$_ZSt17__size_to_integery,"x"
	.linkonce discard
	.globl	_ZSt17__size_to_integery
	.def	_ZSt17__size_to_integery;	.scl	2;	.type	32;	.endef
	.seh_proc	_ZSt17__size_to_integery
_ZSt17__size_to_integery:
.LFB564:
	.file 3 "C:/Qt/Tools/mingw1530_64/include/c++/15.3.0/bits/stl_algobase.h"
	.loc 3 1028 45
	.cfi_startproc
	push	rbp
	.seh_pushreg	rbp
	.cfi_def_cfa_offset 16
	.cfi_offset 6, -16
	mov	rbp, rsp
	.seh_setframe	rbp, 0
	.cfi_def_cfa_register 6
	.seh_endprologue
	mov	QWORD PTR 16[rbp], rcx
	.loc 3 1028 54
	mov	rax, QWORD PTR 16[rbp]
	.loc 3 1028 59
	pop	rbp
	.cfi_restore 6
	.cfi_def_cfa 7, 8
	ret
	.cfi_endproc
.LFE564:
	.seh_endproc
	.text
	.globl	_Z13integrate_aosP8Particleif
	.def	_Z13integrate_aosP8Particleif;	.scl	2;	.type	32;	.endef
	.seh_proc	_Z13integrate_aosP8Particleif
_Z13integrate_aosP8Particleif:
.LFB1719:
	.file 4 "Examples/_ch142_aos.cpp"
	.loc 4 13 50
	.cfi_startproc
	push	rbp
	.seh_pushreg	rbp
	.cfi_def_cfa_offset 16
	.cfi_offset 6, -16
	mov	rbp, rsp
	.seh_setframe	rbp, 0
	.cfi_def_cfa_register 6
	sub	rsp, 16
	.seh_stackalloc	16
	.seh_endprologue
	mov	QWORD PTR 16[rbp], rcx
	mov	DWORD PTR 24[rbp], edx
	movss	DWORD PTR 32[rbp], xmm2
.LBB105:
	.loc 4 14 14
	mov	DWORD PTR -4[rbp], 0
	.loc 4 14 5
	jmp	.L9
.L10:
	.loc 4 15 12
	mov	eax, DWORD PTR -4[rbp]
	movsxd	rdx, eax
	mov	rax, rdx
	add	rax, rax
	add	rax, rdx
	sal	rax, 3
	mov	rdx, rax
	mov	rax, QWORD PTR 16[rbp]
	add	rax, rdx
	.loc 4 15 14
	movss	xmm1, DWORD PTR [rax]
	.loc 4 15 21
	mov	eax, DWORD PTR -4[rbp]
	movsxd	rdx, eax
	.loc 4 15 22
	mov	rax, rdx
	add	rax, rax
	add	rax, rdx
	sal	rax, 3
	mov	rdx, rax
	mov	rax, QWORD PTR 16[rbp]
	add	rax, rdx
	.loc 4 15 24
	movss	xmm0, DWORD PTR 12[rax]
	.loc 4 15 27
	mulss	xmm0, DWORD PTR 32[rbp]
	.loc 4 15 12
	mov	eax, DWORD PTR -4[rbp]
	movsxd	rdx, eax
	mov	rax, rdx
	add	rax, rax
	add	rax, rdx
	sal	rax, 3
	mov	rdx, rax
	mov	rax, QWORD PTR 16[rbp]
	add	rax, rdx
	.loc 4 15 16
	addss	xmm0, xmm1
	movss	DWORD PTR [rax], xmm0
	.loc 4 14 5 discriminator 3
	add	DWORD PTR -4[rbp], 1
.L9:
	.loc 4 14 23 discriminator 1
	mov	eax, DWORD PTR -4[rbp]
	cmp	eax, DWORD PTR 24[rbp]
	jl	.L10
.LBE105:
	.loc 4 17 1
	nop
	nop
	add	rsp, 16
	pop	rbp
	.cfi_restore 6
	.cfi_def_cfa 7, 8
	ret
	.cfi_endproc
.LFE1719:
	.seh_endproc
	.globl	main
	.def	main;	.scl	2;	.type	32;	.endef
	.seh_proc	main
main:
.LFB1720:
	.loc 4 19 12
	.cfi_startproc
	push	rbp
	.seh_pushreg	rbp
	.cfi_def_cfa_offset 16
	.cfi_offset 6, -16
	push	rbx
	.seh_pushreg	rbx
	.cfi_def_cfa_offset 24
	.cfi_offset 3, -24
	sub	rsp, 88
	.seh_stackalloc	88
	.cfi_def_cfa_offset 112
	lea	rbp, 80[rsp]
	.seh_setframe	rbp, 80
	.cfi_def_cfa 6, 32
	.seh_endprologue
	.loc 4 19 12
	call	__main
	lea	rax, -9[rbp]
	mov	QWORD PTR -8[rbp], rax
.LBB106:
.LBB107:
.LBB108:
.LBB109:
.LBB110:
	.file 5 "C:/Qt/Tools/mingw1530_64/include/c++/15.3.0/bits/new_allocator.h"
	.loc 5 88 49
	nop
.LBE110:
.LBE109:
.LBE108:
	.file 6 "C:/Qt/Tools/mingw1530_64/include/c++/15.3.0/bits/allocator.h"
	.loc 6 168 38
	nop
.LBE107:
.LBE106:
	.loc 4 20 34 discriminator 1
	lea	rdx, -9[rbp]
	lea	rax, -48[rbp]
	mov	r8, rdx
	mov	edx, 1024
	mov	rcx, rax
	call	_ZNSt6vectorI8ParticleSaIS0_EEC1EyRKS1_
.LBB111:
.LBB112:
	.loc 6 189 39
	nop
.LBE112:
.LBE111:
	.loc 4 21 42
	lea	rax, -48[rbp]
	mov	rcx, rax
	call	_ZNKSt6vectorI8ParticleSaIS0_EE4sizeEv
	.loc 4 21 18 discriminator 1
	mov	ebx, eax
	lea	rax, -48[rbp]
	mov	rcx, rax
	call	_ZNSt6vectorI8ParticleSaIS0_EE4dataEv
	.loc 4 21 18 is_stmt 0 discriminator 2
	movss	xmm2, DWORD PTR .LC0[rip]
	mov	edx, ebx
	mov	rcx, rax
	call	_Z13integrate_aosP8Particleif
	.loc 4 22 21 is_stmt 1
	lea	rax, -48[rbp]
	mov	edx, 0
	mov	rcx, rax
	call	_ZNSt6vectorI8ParticleSaIS0_EEixEy
	.loc 4 22 23 discriminator 1
	movss	xmm0, DWORD PTR [rax]
	cvttss2si	ebx, xmm0
	.loc 4 23 1
	lea	rax, -48[rbp]
	mov	rcx, rax
	call	_ZNSt6vectorI8ParticleSaIS0_EED1Ev
	mov	eax, ebx
	add	rsp, 88
	pop	rbx
	.cfi_restore 3
	pop	rbp
	.cfi_restore 6
	.cfi_def_cfa 7, -72
	ret
	.cfi_endproc
.LFE1720:
	.seh_endproc
	.section	.text$_ZNSt6vectorI8ParticleSaIS0_EEC1EyRKS1_,"x"
	.linkonce discard
	.align 2
	.globl	_ZNSt6vectorI8ParticleSaIS0_EEC1EyRKS1_
	.def	_ZNSt6vectorI8ParticleSaIS0_EEC1EyRKS1_;	.scl	2;	.type	32;	.endef
	.seh_proc	_ZNSt6vectorI8ParticleSaIS0_EEC1EyRKS1_
_ZNSt6vectorI8ParticleSaIS0_EEC1EyRKS1_:
.LFB1734:
	.file 7 "C:/Qt/Tools/mingw1530_64/include/c++/15.3.0/bits/stl_vector.h"
	.loc 7 586 7
	.cfi_startproc
	push	rbp
	.seh_pushreg	rbp
	.cfi_def_cfa_offset 16
	.cfi_offset 6, -16
	push	rbx
	.seh_pushreg	rbx
	.cfi_def_cfa_offset 24
	.cfi_offset 3, -24
	sub	rsp, 40
	.seh_stackalloc	40
	.cfi_def_cfa_offset 64
	lea	rbp, 32[rsp]
	.seh_setframe	rbp, 32
	.cfi_def_cfa 6, 32
	.seh_endprologue
	mov	QWORD PTR 32[rbp], rcx
	mov	QWORD PTR 40[rbp], rdx
	mov	QWORD PTR 48[rbp], r8
.LBB113:
	.loc 7 587 47
	mov	rbx, QWORD PTR 32[rbp]
	mov	rdx, QWORD PTR 48[rbp]
	mov	rax, QWORD PTR 40[rbp]
	mov	rcx, rax
.LEHB0:
	call	_ZNSt6vectorI8ParticleSaIS0_EE17_S_check_init_lenEyRKS1_
	.loc 7 587 47 is_stmt 0 discriminator 1
	mov	rdx, QWORD PTR 48[rbp]
	mov	r8, rdx
	mov	rdx, rax
	mov	rcx, rbx
	call	_ZNSt12_Vector_baseI8ParticleSaIS0_EEC2EyRKS1_
.LEHE0:
	.loc 7 588 30 is_stmt 1
	mov	rdx, QWORD PTR 40[rbp]
	mov	rax, QWORD PTR 32[rbp]
	mov	rcx, rax
.LEHB1:
	call	_ZNSt6vectorI8ParticleSaIS0_EE21_M_default_initializeEy
.LEHE1:
.LBE113:
	.loc 7 588 37
	jmp	.L16
.L15:
.LBB114:
	.loc 7 588 37 is_stmt 0 discriminator 2
	mov	rbx, rax
	mov	rax, QWORD PTR 32[rbp]
	mov	rcx, rax
	call	_ZNSt12_Vector_baseI8ParticleSaIS0_EED2Ev
	mov	rax, rbx
	mov	rcx, rax
.LEHB2:
	call	_Unwind_Resume
	nop
.LEHE2:
.L16:
.LBE114:
	.loc 7 588 37
	add	rsp, 40
	pop	rbx
	.cfi_restore 3
	pop	rbp
	.cfi_restore 6
	.cfi_def_cfa 7, -24
	ret
	.cfi_endproc
.LFE1734:
	.seh_handler	__gxx_personality_seh0, @unwind, @except
	.seh_handlerdata
.LLSDA1734:
	.byte	0xff
	.byte	0xff
	.byte	0x1
	.uleb128 .LLSDACSE1734-.LLSDACSB1734
.LLSDACSB1734:
	.uleb128 .LEHB0-.LFB1734
	.uleb128 .LEHE0-.LEHB0
	.uleb128 0
	.uleb128 0
	.uleb128 .LEHB1-.LFB1734
	.uleb128 .LEHE1-.LEHB1
	.uleb128 .L15-.LFB1734
	.uleb128 0
	.uleb128 .LEHB2-.LFB1734
	.uleb128 .LEHE2-.LEHB2
	.uleb128 0
	.uleb128 0
.LLSDACSE1734:
	.section	.text$_ZNSt6vectorI8ParticleSaIS0_EEC1EyRKS1_,"x"
	.linkonce discard
	.seh_endproc
	.section	.text$_ZNSt6vectorI8ParticleSaIS0_EED1Ev,"x"
	.linkonce discard
	.align 2
	.globl	_ZNSt6vectorI8ParticleSaIS0_EED1Ev
	.def	_ZNSt6vectorI8ParticleSaIS0_EED1Ev;	.scl	2;	.type	32;	.endef
	.seh_proc	_ZNSt6vectorI8ParticleSaIS0_EED1Ev
_ZNSt6vectorI8ParticleSaIS0_EED1Ev:
.LFB1737:
	.loc 7 800 7 is_stmt 1
	.cfi_startproc
	push	rbp
	.seh_pushreg	rbp
	.cfi_def_cfa_offset 16
	.cfi_offset 6, -16
	mov	rbp, rsp
	.seh_setframe	rbp, 0
	.cfi_def_cfa_register 6
	sub	rsp, 64
	.seh_stackalloc	64
	.seh_endprologue
	mov	QWORD PTR 16[rbp], rcx
.LBB115:
	.loc 7 803 28
	mov	rax, QWORD PTR 16[rbp]
	mov	rcx, rax
	call	_ZNSt12_Vector_baseI8ParticleSaIS0_EE19_M_get_Tp_allocatorEv
	.loc 7 802 54
	mov	rdx, QWORD PTR 16[rbp]
	mov	rdx, QWORD PTR 8[rdx]
	.loc 7 802 30
	mov	rcx, QWORD PTR 16[rbp]
	mov	rcx, QWORD PTR [rcx]
	mov	QWORD PTR -8[rbp], rcx
	mov	QWORD PTR -16[rbp], rdx
	mov	QWORD PTR -24[rbp], rax
.LBB116:
.LBB117:
	.file 8 "C:/Qt/Tools/mingw1530_64/include/c++/15.3.0/bits/alloc_traits.h"
	.loc 8 1045 20
	mov	rdx, QWORD PTR -16[rbp]
	mov	rax, QWORD PTR -8[rbp]
	mov	rcx, rax
	call	_ZSt8_DestroyIP8ParticleEvT_S2_
	.loc 8 1046 5
	nop
.LBE117:
.LBE116:
	.loc 7 805 7
	mov	rax, QWORD PTR 16[rbp]
	mov	rcx, rax
	call	_ZNSt12_Vector_baseI8ParticleSaIS0_EED2Ev
.LBE115:
	nop
	add	rsp, 64
	pop	rbp
	.cfi_restore 6
	.cfi_def_cfa 7, 8
	ret
	.cfi_endproc
.LFE1737:
	.seh_handler	__gxx_personality_seh0, @unwind, @except
	.seh_handlerdata
.LLSDA1737:
	.byte	0xff
	.byte	0xff
	.byte	0x1
	.uleb128 .LLSDACSE1737-.LLSDACSB1737
.LLSDACSB1737:
.LLSDACSE1737:
	.section	.text$_ZNSt6vectorI8ParticleSaIS0_EED1Ev,"x"
	.linkonce discard
	.seh_endproc
	.section	.text$_ZNSt6vectorI8ParticleSaIS0_EE4dataEv,"x"
	.linkonce discard
	.align 2
	.globl	_ZNSt6vectorI8ParticleSaIS0_EE4dataEv
	.def	_ZNSt6vectorI8ParticleSaIS0_EE4dataEv;	.scl	2;	.type	32;	.endef
	.seh_proc	_ZNSt6vectorI8ParticleSaIS0_EE4dataEv
_ZNSt6vectorI8ParticleSaIS0_EE4dataEv:
.LFB1738:
	.loc 7 1395 7
	.cfi_startproc
	push	rbp
	.seh_pushreg	rbp
	.cfi_def_cfa_offset 16
	.cfi_offset 6, -16
	mov	rbp, rsp
	.seh_setframe	rbp, 0
	.cfi_def_cfa_register 6
	sub	rsp, 32
	.seh_stackalloc	32
	.seh_endprologue
	mov	QWORD PTR 16[rbp], rcx
	.loc 7 1396 42
	mov	rax, QWORD PTR 16[rbp]
	mov	rdx, QWORD PTR [rax]
	.loc 7 1396 27
	mov	rax, QWORD PTR 16[rbp]
	mov	rcx, rax
	call	_ZNKSt6vectorI8ParticleSaIS0_EE11_M_data_ptrIS0_EEPT_S5_
	.loc 7 1396 53
	add	rsp, 32
	pop	rbp
	.cfi_restore 6
	.cfi_def_cfa 7, 8
	ret
	.cfi_endproc
.LFE1738:
	.seh_endproc
	.section	.text$_ZNKSt6vectorI8ParticleSaIS0_EE4sizeEv,"x"
	.linkonce discard
	.align 2
	.globl	_ZNKSt6vectorI8ParticleSaIS0_EE4sizeEv
	.def	_ZNKSt6vectorI8ParticleSaIS0_EE4sizeEv;	.scl	2;	.type	32;	.endef
	.seh_proc	_ZNKSt6vectorI8ParticleSaIS0_EE4sizeEv
_ZNKSt6vectorI8ParticleSaIS0_EE4sizeEv:
.LFB1739:
	.loc 7 1117 7
	.cfi_startproc
	push	rbp
	.seh_pushreg	rbp
	.cfi_def_cfa_offset 16
	.cfi_offset 6, -16
	mov	rbp, rsp
	.seh_setframe	rbp, 0
	.cfi_def_cfa_register 6
	sub	rsp, 16
	.seh_stackalloc	16
	.seh_endprologue
	mov	QWORD PTR 16[rbp], rcx
	.loc 7 1119 34
	mov	rax, QWORD PTR 16[rbp]
	mov	rdx, QWORD PTR 8[rax]
	.loc 7 1119 60
	mov	rax, QWORD PTR 16[rbp]
	mov	rax, QWORD PTR [rax]
	.loc 7 1119 44
	sub	rdx, rax
	.loc 7 1119 12
	sar	rdx, 3
	movabs	rax, -6148914691236517205
	imul	rax, rdx
	mov	QWORD PTR -8[rbp], rax
	.loc 7 1120 2
	cmp	QWORD PTR -8[rbp], 0
	.loc 7 1122 24
	mov	rax, QWORD PTR -8[rbp]
	.loc 7 1123 7
	add	rsp, 16
	pop	rbp
	.cfi_restore 6
	.cfi_def_cfa 7, 8
	ret
	.cfi_endproc
.LFE1739:
	.seh_endproc
	.section .rdata,"dr"
.LC1:
	.ascii "__n < this->size()\0"
	.align 8
.LC2:
	.ascii "constexpr std::vector<_Tp, _Alloc>::reference std::vector<_Tp, _Alloc>::operator[](size_type) [with _Tp = Particle; _Alloc = std::allocator<Particle>; reference = Particle&; size_type = long long unsigned int]\0"
	.align 8
.LC3:
	.ascii "C:/Qt/Tools/mingw1530_64/include/c++/15.3.0/bits/stl_vector.h\0"
	.section	.text$_ZNSt6vectorI8ParticleSaIS0_EEixEy,"x"
	.linkonce discard
	.align 2
	.globl	_ZNSt6vectorI8ParticleSaIS0_EEixEy
	.def	_ZNSt6vectorI8ParticleSaIS0_EEixEy;	.scl	2;	.type	32;	.endef
	.seh_proc	_ZNSt6vectorI8ParticleSaIS0_EEixEy
_ZNSt6vectorI8ParticleSaIS0_EEixEy:
.LFB1740:
	.loc 7 1261 7
	.cfi_startproc
	push	rbp
	.seh_pushreg	rbp
	.cfi_def_cfa_offset 16
	.cfi_offset 6, -16
	mov	rbp, rsp
	.seh_setframe	rbp, 0
	.cfi_def_cfa_register 6
	sub	rsp, 32
	.seh_stackalloc	32
	.seh_endprologue
	mov	QWORD PTR 16[rbp], rcx
	mov	QWORD PTR 24[rbp], rdx
	.loc 7 1263 2
	mov	rax, QWORD PTR 16[rbp]
	mov	rcx, rax
	call	_ZNKSt6vectorI8ParticleSaIS0_EE4sizeEv
	.loc 7 1263 2 is_stmt 0 discriminator 1
	cmp	QWORD PTR 24[rbp], rax
	setnb	al
	movzx	eax, al
	.loc 7 1263 2 discriminator 2
	test	eax, eax
	setne	al
	test	al, al
	je	.L24
	.loc 7 1263 2 discriminator 3
	lea	rcx, .LC1[rip]
	lea	rdx, .LC2[rip]
	lea	rax, .LC3[rip]
	mov	r9, rcx
	mov	r8, rdx
	mov	edx, 1263
	mov	rcx, rax
	call	_ZSt21__glibcxx_assert_failPKciS0_S0_
.L24:
	.loc 7 1264 25 is_stmt 1
	mov	rax, QWORD PTR 16[rbp]
	mov	rcx, QWORD PTR [rax]
	.loc 7 1264 34
	mov	rdx, QWORD PTR 24[rbp]
	mov	rax, rdx
	add	rax, rax
	add	rax, rdx
	sal	rax, 3
	.loc 7 1264 39
	add	rax, rcx
	.loc 7 1265 7
	add	rsp, 32
	pop	rbp
	.cfi_restore 6
	.cfi_def_cfa 7, 8
	ret
	.cfi_endproc
.LFE1740:
	.seh_endproc
	.section .rdata,"dr"
	.align 8
.LC4:
	.ascii "cannot create std::vector larger than max_size()\0"
	.section	.text$_ZNSt6vectorI8ParticleSaIS0_EE17_S_check_init_lenEyRKS1_,"x"
	.linkonce discard
	.globl	_ZNSt6vectorI8ParticleSaIS0_EE17_S_check_init_lenEyRKS1_
	.def	_ZNSt6vectorI8ParticleSaIS0_EE17_S_check_init_lenEyRKS1_;	.scl	2;	.type	32;	.endef
	.seh_proc	_ZNSt6vectorI8ParticleSaIS0_EE17_S_check_init_lenEyRKS1_
_ZNSt6vectorI8ParticleSaIS0_EE17_S_check_init_lenEyRKS1_:
.LFB1744:
	.loc 7 2213 7
	.cfi_startproc
	push	rbp
	.seh_pushreg	rbp
	.cfi_def_cfa_offset 16
	.cfi_offset 6, -16
	mov	rbp, rsp
	.seh_setframe	rbp, 0
	.cfi_def_cfa_register 6
	sub	rsp, 64
	.seh_stackalloc	64
	.seh_endprologue
	mov	QWORD PTR 16[rbp], rcx
	mov	QWORD PTR 24[rbp], rdx
	mov	rax, QWORD PTR 24[rbp]
	mov	QWORD PTR -8[rbp], rax
	lea	rax, -25[rbp]
	mov	QWORD PTR -16[rbp], rax
	mov	rax, QWORD PTR -8[rbp]
	mov	QWORD PTR -24[rbp], rax
.LBB118:
.LBB119:
.LBB120:
.LBB121:
.LBB122:
	.loc 5 92 71
	nop
.LBE122:
.LBE121:
.LBE120:
	.loc 6 173 38
	nop
.LBE119:
.LBE118:
	.loc 7 2215 23 discriminator 1
	lea	rax, -25[rbp]
	mov	rcx, rax
	call	_ZNSt6vectorI8ParticleSaIS0_EE11_S_max_sizeERKS1_
	.loc 7 2215 10 discriminator 2
	cmp	rax, QWORD PTR 16[rbp]
	setb	al
.LBB123:
.LBB124:
	.loc 6 189 39
	nop
.LBE124:
.LBE123:
	.loc 7 2215 2 discriminator 3
	test	al, al
	je	.L27
	.loc 7 2216 24
	lea	rax, .LC4[rip]
	mov	rcx, rax
	call	_ZSt20__throw_length_errorPKc
.L27:
	.loc 7 2218 9
	mov	rax, QWORD PTR 16[rbp]
	.loc 7 2219 7
	add	rsp, 64
	pop	rbp
	.cfi_restore 6
	.cfi_def_cfa 7, 8
	ret
	.cfi_endproc
.LFE1744:
	.seh_endproc
	.section	.text$_ZNSt12_Vector_baseI8ParticleSaIS0_EE12_Vector_implD1Ev,"x"
	.linkonce discard
	.align 2
	.globl	_ZNSt12_Vector_baseI8ParticleSaIS0_EE12_Vector_implD1Ev
	.def	_ZNSt12_Vector_baseI8ParticleSaIS0_EE12_Vector_implD1Ev;	.scl	2;	.type	32;	.endef
	.seh_proc	_ZNSt12_Vector_baseI8ParticleSaIS0_EE12_Vector_implD1Ev
_ZNSt12_Vector_baseI8ParticleSaIS0_EE12_Vector_implD1Ev:
.LFB1748:
	.loc 7 139 14
	.cfi_startproc
	push	rbp
	.seh_pushreg	rbp
	.cfi_def_cfa_offset 16
	.cfi_offset 6, -16
	mov	rbp, rsp
	.seh_setframe	rbp, 0
	.cfi_def_cfa_register 6
	sub	rsp, 16
	.seh_stackalloc	16
	.seh_endprologue
	mov	QWORD PTR 16[rbp], rcx
	mov	rax, QWORD PTR 16[rbp]
	mov	QWORD PTR -8[rbp], rax
.LBB125:
.LBB126:
.LBB127:
	.loc 6 189 39
	nop
.LBE127:
.LBE126:
.LBE125:
	.loc 7 139 14
	nop
	add	rsp, 16
	pop	rbp
	.cfi_restore 6
	.cfi_def_cfa 7, 8
	ret
	.cfi_endproc
.LFE1748:
	.seh_endproc
	.section	.text$_ZNSt12_Vector_baseI8ParticleSaIS0_EEC2EyRKS1_,"x"
	.linkonce discard
	.align 2
	.globl	_ZNSt12_Vector_baseI8ParticleSaIS0_EEC2EyRKS1_
	.def	_ZNSt12_Vector_baseI8ParticleSaIS0_EEC2EyRKS1_;	.scl	2;	.type	32;	.endef
	.seh_proc	_ZNSt12_Vector_baseI8ParticleSaIS0_EEC2EyRKS1_
_ZNSt12_Vector_baseI8ParticleSaIS0_EEC2EyRKS1_:
.LFB1749:
	.loc 7 339 7
	.cfi_startproc
	push	rbp
	.seh_pushreg	rbp
	.cfi_def_cfa_offset 16
	.cfi_offset 6, -16
	push	rbx
	.seh_pushreg	rbx
	.cfi_def_cfa_offset 24
	.cfi_offset 3, -24
	sub	rsp, 40
	.seh_stackalloc	40
	.cfi_def_cfa_offset 64
	lea	rbp, 32[rsp]
	.seh_setframe	rbp, 32
	.cfi_def_cfa 6, 32
	.seh_endprologue
	mov	QWORD PTR 32[rbp], rcx
	mov	QWORD PTR 40[rbp], rdx
	mov	QWORD PTR 48[rbp], r8
.LBB128:
	.loc 7 340 9
	mov	rax, QWORD PTR 32[rbp]
	mov	rdx, QWORD PTR 48[rbp]
	mov	rcx, rax
	call	_ZNSt12_Vector_baseI8ParticleSaIS0_EE12_Vector_implC1ERKS1_
	.loc 7 341 26
	mov	rdx, QWORD PTR 40[rbp]
	mov	rax, QWORD PTR 32[rbp]
	mov	rcx, rax
.LEHB3:
	call	_ZNSt12_Vector_baseI8ParticleSaIS0_EE17_M_create_storageEy
.LEHE3:
.LBE128:
	.loc 7 341 33
	jmp	.L33
.L32:
.LBB129:
	.loc 7 341 33 is_stmt 0 discriminator 2
	mov	rbx, rax
	mov	rax, QWORD PTR 32[rbp]
	mov	rcx, rax
	call	_ZNSt12_Vector_baseI8ParticleSaIS0_EE12_Vector_implD1Ev
	mov	rax, rbx
	mov	rcx, rax
.LEHB4:
	call	_Unwind_Resume
	nop
.LEHE4:
.L33:
.LBE129:
	.loc 7 341 33
	add	rsp, 40
	pop	rbx
	.cfi_restore 3
	pop	rbp
	.cfi_restore 6
	.cfi_def_cfa 7, -24
	ret
	.cfi_endproc
.LFE1749:
	.seh_handler	__gxx_personality_seh0, @unwind, @except
	.seh_handlerdata
.LLSDA1749:
	.byte	0xff
	.byte	0xff
	.byte	0x1
	.uleb128 .LLSDACSE1749-.LLSDACSB1749
.LLSDACSB1749:
	.uleb128 .LEHB3-.LFB1749
	.uleb128 .LEHE3-.LEHB3
	.uleb128 .L32-.LFB1749
	.uleb128 0
	.uleb128 .LEHB4-.LFB1749
	.uleb128 .LEHE4-.LEHB4
	.uleb128 0
	.uleb128 0
.LLSDACSE1749:
	.section	.text$_ZNSt12_Vector_baseI8ParticleSaIS0_EEC2EyRKS1_,"x"
	.linkonce discard
	.seh_endproc
	.section	.text$_ZNSt12_Vector_baseI8ParticleSaIS0_EED2Ev,"x"
	.linkonce discard
	.align 2
	.globl	_ZNSt12_Vector_baseI8ParticleSaIS0_EED2Ev
	.def	_ZNSt12_Vector_baseI8ParticleSaIS0_EED2Ev;	.scl	2;	.type	32;	.endef
	.seh_proc	_ZNSt12_Vector_baseI8ParticleSaIS0_EED2Ev
_ZNSt12_Vector_baseI8ParticleSaIS0_EED2Ev:
.LFB1752:
	.loc 7 373 7 is_stmt 1
	.cfi_startproc
	push	rbp
	.seh_pushreg	rbp
	.cfi_def_cfa_offset 16
	.cfi_offset 6, -16
	mov	rbp, rsp
	.seh_setframe	rbp, 0
	.cfi_def_cfa_register 6
	sub	rsp, 32
	.seh_stackalloc	32
	.seh_endprologue
	mov	QWORD PTR 16[rbp], rcx
.LBB130:
	.loc 7 376 17
	mov	rax, QWORD PTR 16[rbp]
	mov	rdx, QWORD PTR 16[rax]
	.loc 7 376 45
	mov	rax, QWORD PTR 16[rbp]
	mov	rax, QWORD PTR [rax]
	.loc 7 376 35
	sub	rdx, rax
	sar	rdx, 3
	movabs	rax, -6148914691236517205
	imul	rax, rdx
	.loc 7 375 15
	mov	rcx, rax
	mov	rax, QWORD PTR 16[rbp]
	mov	rdx, QWORD PTR [rax]
	mov	rax, QWORD PTR 16[rbp]
	mov	r8, rcx
	mov	rcx, rax
	call	_ZNSt12_Vector_baseI8ParticleSaIS0_EE13_M_deallocateEPS0_y
	.loc 7 377 7
	mov	rax, QWORD PTR 16[rbp]
	mov	rcx, rax
	call	_ZNSt12_Vector_baseI8ParticleSaIS0_EE12_Vector_implD1Ev
.LBE130:
	nop
	add	rsp, 32
	pop	rbp
	.cfi_restore 6
	.cfi_def_cfa 7, 8
	ret
	.cfi_endproc
.LFE1752:
	.seh_handler	__gxx_personality_seh0, @unwind, @except
	.seh_handlerdata
.LLSDA1752:
	.byte	0xff
	.byte	0xff
	.byte	0x1
	.uleb128 .LLSDACSE1752-.LLSDACSB1752
.LLSDACSB1752:
.LLSDACSE1752:
	.section	.text$_ZNSt12_Vector_baseI8ParticleSaIS0_EED2Ev,"x"
	.linkonce discard
	.seh_endproc
	.section	.text$_ZNSt6vectorI8ParticleSaIS0_EE21_M_default_initializeEy,"x"
	.linkonce discard
	.align 2
	.globl	_ZNSt6vectorI8ParticleSaIS0_EE21_M_default_initializeEy
	.def	_ZNSt6vectorI8ParticleSaIS0_EE21_M_default_initializeEy;	.scl	2;	.type	32;	.endef
	.seh_proc	_ZNSt6vectorI8ParticleSaIS0_EE21_M_default_initializeEy
_ZNSt6vectorI8ParticleSaIS0_EE21_M_default_initializeEy:
.LFB1754:
	.loc 7 2008 7
	.cfi_startproc
	push	rbp
	.seh_pushreg	rbp
	.cfi_def_cfa_offset 16
	.cfi_offset 6, -16
	mov	rbp, rsp
	.seh_setframe	rbp, 0
	.cfi_def_cfa_register 6
	sub	rsp, 32
	.seh_stackalloc	32
	.seh_endprologue
	mov	QWORD PTR 16[rbp], rcx
	mov	QWORD PTR 24[rbp], rdx
	.loc 7 2012 28
	mov	rax, QWORD PTR 16[rbp]
	mov	rcx, rax
	call	_ZNSt12_Vector_baseI8ParticleSaIS0_EE19_M_get_Tp_allocatorEv
	mov	rcx, rax
	.loc 7 2011 51
	mov	rax, QWORD PTR 16[rbp]
	mov	rax, QWORD PTR [rax]
	.loc 7 2011 36
	mov	rdx, QWORD PTR 24[rbp]
	mov	r8, rcx
	mov	rcx, rax
	call	_ZSt27__uninitialized_default_n_aIP8ParticleyS0_ET_S2_T0_RSaIT1_E
	.loc 7 2010 26
	mov	rdx, QWORD PTR 16[rbp]
	mov	QWORD PTR 8[rdx], rax
	.loc 7 2013 7
	nop
	add	rsp, 32
	pop	rbp
	.cfi_restore 6
	.cfi_def_cfa 7, 8
	ret
	.cfi_endproc
.LFE1754:
	.seh_endproc
	.section	.text$_ZNSt12_Vector_baseI8ParticleSaIS0_EE19_M_get_Tp_allocatorEv,"x"
	.linkonce discard
	.align 2
	.globl	_ZNSt12_Vector_baseI8ParticleSaIS0_EE19_M_get_Tp_allocatorEv
	.def	_ZNSt12_Vector_baseI8ParticleSaIS0_EE19_M_get_Tp_allocatorEv;	.scl	2;	.type	32;	.endef
	.seh_proc	_ZNSt12_Vector_baseI8ParticleSaIS0_EE19_M_get_Tp_allocatorEv
_ZNSt12_Vector_baseI8ParticleSaIS0_EE19_M_get_Tp_allocatorEv:
.LFB1755:
	.loc 7 307 7
	.cfi_startproc
	push	rbp
	.seh_pushreg	rbp
	.cfi_def_cfa_offset 16
	.cfi_offset 6, -16
	mov	rbp, rsp
	.seh_setframe	rbp, 0
	.cfi_def_cfa_register 6
	.seh_endprologue
	mov	QWORD PTR 16[rbp], rcx
	.loc 7 308 22
	mov	rax, QWORD PTR 16[rbp]
	.loc 7 308 31
	pop	rbp
	.cfi_restore 6
	.cfi_def_cfa 7, 8
	ret
	.cfi_endproc
.LFE1755:
	.seh_endproc
	.section	.text$_ZNKSt6vectorI8ParticleSaIS0_EE11_M_data_ptrIS0_EEPT_S5_,"x"
	.linkonce discard
	.align 2
	.globl	_ZNKSt6vectorI8ParticleSaIS0_EE11_M_data_ptrIS0_EEPT_S5_
	.def	_ZNKSt6vectorI8ParticleSaIS0_EE11_M_data_ptrIS0_EEPT_S5_;	.scl	2;	.type	32;	.endef
	.seh_proc	_ZNKSt6vectorI8ParticleSaIS0_EE11_M_data_ptrIS0_EEPT_S5_
_ZNKSt6vectorI8ParticleSaIS0_EE11_M_data_ptrIS0_EEPT_S5_:
.LFB1757:
	.loc 7 2296 2
	.cfi_startproc
	push	rbp
	.seh_pushreg	rbp
	.cfi_def_cfa_offset 16
	.cfi_offset 6, -16
	mov	rbp, rsp
	.seh_setframe	rbp, 0
	.cfi_def_cfa_register 6
	.seh_endprologue
	mov	QWORD PTR 16[rbp], rcx
	mov	QWORD PTR 24[rbp], rdx
	.loc 7 2297 11
	mov	rax, QWORD PTR 24[rbp]
	.loc 7 2297 18
	pop	rbp
	.cfi_restore 6
	.cfi_def_cfa 7, 8
	ret
	.cfi_endproc
.LFE1757:
	.seh_endproc
	.section	.text$_ZNSt6vectorI8ParticleSaIS0_EE11_S_max_sizeERKS1_,"x"
	.linkonce discard
	.globl	_ZNSt6vectorI8ParticleSaIS0_EE11_S_max_sizeERKS1_
	.def	_ZNSt6vectorI8ParticleSaIS0_EE11_S_max_sizeERKS1_;	.scl	2;	.type	32;	.endef
	.seh_proc	_ZNSt6vectorI8ParticleSaIS0_EE11_S_max_sizeERKS1_
_ZNSt6vectorI8ParticleSaIS0_EE11_S_max_sizeERKS1_:
.LFB1758:
	.loc 7 2222 7
	.cfi_startproc
	push	rbp
	.seh_pushreg	rbp
	.cfi_def_cfa_offset 16
	.cfi_offset 6, -16
	mov	rbp, rsp
	.seh_setframe	rbp, 0
	.cfi_def_cfa_register 6
	sub	rsp, 48
	.seh_stackalloc	48
	.seh_endprologue
	mov	QWORD PTR 16[rbp], rcx
	.loc 7 2227 15
	movabs	rax, 384307168202282325
	mov	QWORD PTR -8[rbp], rax
	.loc 7 2229 15
	movabs	rax, 768614336404564650
	mov	QWORD PTR -16[rbp], rax
	.loc 7 2230 19
	lea	rdx, -16[rbp]
	lea	rax, -8[rbp]
	mov	rcx, rax
	call	_ZSt3minIyERKT_S2_S2_
	.loc 7 2230 41 discriminator 1
	mov	rax, QWORD PTR [rax]
	.loc 7 2231 7
	add	rsp, 48
	pop	rbp
	.cfi_restore 6
	.cfi_def_cfa 7, 8
	ret
	.cfi_endproc
.LFE1758:
	.seh_endproc
	.section	.text$_ZNSt12_Vector_baseI8ParticleSaIS0_EE12_Vector_implC1ERKS1_,"x"
	.linkonce discard
	.align 2
	.globl	_ZNSt12_Vector_baseI8ParticleSaIS0_EE12_Vector_implC1ERKS1_
	.def	_ZNSt12_Vector_baseI8ParticleSaIS0_EE12_Vector_implC1ERKS1_;	.scl	2;	.type	32;	.endef
	.seh_proc	_ZNSt12_Vector_baseI8ParticleSaIS0_EE12_Vector_implC1ERKS1_
_ZNSt12_Vector_baseI8ParticleSaIS0_EE12_Vector_implC1ERKS1_:
.LFB1765:
	.loc 7 152 2
	.cfi_startproc
	push	rbp
	.seh_pushreg	rbp
	.cfi_def_cfa_offset 16
	.cfi_offset 6, -16
	mov	rbp, rsp
	.seh_setframe	rbp, 0
	.cfi_def_cfa_register 6
	sub	rsp, 64
	.seh_stackalloc	64
	.seh_endprologue
	mov	QWORD PTR 16[rbp], rcx
	mov	QWORD PTR 24[rbp], rdx
	mov	rax, QWORD PTR 16[rbp]
	mov	QWORD PTR -8[rbp], rax
	mov	rax, QWORD PTR 24[rbp]
	mov	QWORD PTR -16[rbp], rax
	mov	rax, QWORD PTR -8[rbp]
	mov	QWORD PTR -24[rbp], rax
	mov	rax, QWORD PTR -16[rbp]
	mov	QWORD PTR -32[rbp], rax
.LBB131:
.LBB132:
.LBB133:
.LBB134:
.LBB135:
.LBB136:
	.loc 5 92 71
	nop
.LBE136:
.LBE135:
.LBE134:
	.loc 6 173 38
	nop
.LBE133:
.LBE132:
	.loc 7 153 22 discriminator 1
	mov	rax, QWORD PTR 16[rbp]
	mov	rcx, rax
	call	_ZNSt12_Vector_baseI8ParticleSaIS0_EE17_Vector_impl_dataC2Ev
.LBE131:
	.loc 7 154 4
	nop
	add	rsp, 64
	pop	rbp
	.cfi_restore 6
	.cfi_def_cfa 7, 8
	ret
	.cfi_endproc
.LFE1765:
	.seh_endproc
	.section	.text$_ZNSt12_Vector_baseI8ParticleSaIS0_EE17_M_create_storageEy,"x"
	.linkonce discard
	.align 2
	.globl	_ZNSt12_Vector_baseI8ParticleSaIS0_EE17_M_create_storageEy
	.def	_ZNSt12_Vector_baseI8ParticleSaIS0_EE17_M_create_storageEy;	.scl	2;	.type	32;	.endef
	.seh_proc	_ZNSt12_Vector_baseI8ParticleSaIS0_EE17_M_create_storageEy
_ZNSt12_Vector_baseI8ParticleSaIS0_EE17_M_create_storageEy:
.LFB1766:
	.loc 7 403 7
	.cfi_startproc
	push	rbp
	.seh_pushreg	rbp
	.cfi_def_cfa_offset 16
	.cfi_offset 6, -16
	mov	rbp, rsp
	.seh_setframe	rbp, 0
	.cfi_def_cfa_register 6
	sub	rsp, 32
	.seh_stackalloc	32
	.seh_endprologue
	mov	QWORD PTR 16[rbp], rcx
	mov	QWORD PTR 24[rbp], rdx
	.loc 7 405 44
	mov	rdx, QWORD PTR 24[rbp]
	mov	rax, QWORD PTR 16[rbp]
	mov	rcx, rax
	call	_ZNSt12_Vector_baseI8ParticleSaIS0_EE11_M_allocateEy
	.loc 7 405 25 discriminator 1
	mov	rdx, QWORD PTR 16[rbp]
	mov	QWORD PTR [rdx], rax
	.loc 7 406 42
	mov	rax, QWORD PTR 16[rbp]
	mov	rdx, QWORD PTR [rax]
	.loc 7 406 26
	mov	rax, QWORD PTR 16[rbp]
	mov	QWORD PTR 8[rax], rdx
	.loc 7 407 50
	mov	rax, QWORD PTR 16[rbp]
	mov	rcx, QWORD PTR [rax]
	.loc 7 407 59
	mov	rdx, QWORD PTR 24[rbp]
	mov	rax, rdx
	add	rax, rax
	add	rax, rdx
	sal	rax, 3
	lea	rdx, [rcx+rax]
	.loc 7 407 34
	mov	rax, QWORD PTR 16[rbp]
	mov	QWORD PTR 16[rax], rdx
	.loc 7 408 7
	nop
	add	rsp, 32
	pop	rbp
	.cfi_restore 6
	.cfi_def_cfa 7, 8
	ret
	.cfi_endproc
.LFE1766:
	.seh_endproc
	.section	.text$_ZNSt12_Vector_baseI8ParticleSaIS0_EE13_M_deallocateEPS0_y,"x"
	.linkonce discard
	.align 2
	.globl	_ZNSt12_Vector_baseI8ParticleSaIS0_EE13_M_deallocateEPS0_y
	.def	_ZNSt12_Vector_baseI8ParticleSaIS0_EE13_M_deallocateEPS0_y;	.scl	2;	.type	32;	.endef
	.seh_proc	_ZNSt12_Vector_baseI8ParticleSaIS0_EE13_M_deallocateEPS0_y
_ZNSt12_Vector_baseI8ParticleSaIS0_EE13_M_deallocateEPS0_y:
.LFB1767:
	.loc 7 392 7
	.cfi_startproc
	push	rbp
	.seh_pushreg	rbp
	.cfi_def_cfa_offset 16
	.cfi_offset 6, -16
	mov	rbp, rsp
	.seh_setframe	rbp, 0
	.cfi_def_cfa_register 6
	sub	rsp, 80
	.seh_stackalloc	80
	.seh_endprologue
	mov	QWORD PTR 16[rbp], rcx
	mov	QWORD PTR 24[rbp], rdx
	mov	QWORD PTR 32[rbp], r8
	.loc 7 395 2
	cmp	QWORD PTR 24[rbp], 0
	je	.L49
	.loc 7 396 20
	mov	rax, QWORD PTR 16[rbp]
	mov	QWORD PTR -8[rbp], rax
	mov	rax, QWORD PTR 24[rbp]
	mov	QWORD PTR -16[rbp], rax
	mov	rax, QWORD PTR 32[rbp]
	mov	QWORD PTR -24[rbp], rax
	mov	rax, QWORD PTR -8[rbp]
	mov	QWORD PTR -32[rbp], rax
	mov	rax, QWORD PTR -16[rbp]
	mov	QWORD PTR -40[rbp], rax
	mov	rax, QWORD PTR -24[rbp]
	mov	QWORD PTR -48[rbp], rax
.LBB137:
.LBB138:
.LBB139:
.LBB140:
.LBB141:
.LBB142:
	.file 9 "C:/Qt/Tools/mingw1530_64/include/c++/15.3.0/x86_64-w64-mingw32/bits/c++config.h"
	.loc 9 586 49
	mov	eax, 0
.LBE142:
.LBE141:
	.loc 6 210 2 discriminator 1
	test	al, al
	je	.L47
	.loc 6 212 23
	mov	rax, QWORD PTR -40[rbp]
	mov	rcx, rax
	call	_ZdlPv
	.loc 6 213 6
	jmp	.L48
.L47:
	.loc 6 215 35
	mov	rcx, QWORD PTR -48[rbp]
	mov	rdx, QWORD PTR -40[rbp]
	mov	rax, QWORD PTR -32[rbp]
	mov	r8, rcx
	mov	rcx, rax
	call	_ZNSt15__new_allocatorI8ParticleE10deallocateEPS0_y
.L48:
.LBE140:
.LBE139:
	.loc 8 649 35
	nop
.L49:
.LBE138:
.LBE137:
	.loc 7 397 7
	nop
	add	rsp, 80
	pop	rbp
	.cfi_restore 6
	.cfi_def_cfa 7, 8
	ret
	.cfi_endproc
.LFE1767:
	.seh_endproc
	.section	.text$_ZSt27__uninitialized_default_n_aIP8ParticleyS0_ET_S2_T0_RSaIT1_E,"x"
	.linkonce discard
	.globl	_ZSt27__uninitialized_default_n_aIP8ParticleyS0_ET_S2_T0_RSaIT1_E
	.def	_ZSt27__uninitialized_default_n_aIP8ParticleyS0_ET_S2_T0_RSaIT1_E;	.scl	2;	.type	32;	.endef
	.seh_proc	_ZSt27__uninitialized_default_n_aIP8ParticleyS0_ET_S2_T0_RSaIT1_E
_ZSt27__uninitialized_default_n_aIP8ParticleyS0_ET_S2_T0_RSaIT1_E:
.LFB1768:
	.file 10 "C:/Qt/Tools/mingw1530_64/include/c++/15.3.0/bits/stl_uninitialized.h"
	.loc 10 1027 5
	.cfi_startproc
	push	rbp
	.seh_pushreg	rbp
	.cfi_def_cfa_offset 16
	.cfi_offset 6, -16
	mov	rbp, rsp
	.seh_setframe	rbp, 0
	.cfi_def_cfa_register 6
	sub	rsp, 32
	.seh_stackalloc	32
	.seh_endprologue
	mov	QWORD PTR 16[rbp], rcx
	mov	QWORD PTR 24[rbp], rdx
	mov	QWORD PTR 32[rbp], r8
	.loc 10 1029 44
	mov	rdx, QWORD PTR 24[rbp]
	mov	rax, QWORD PTR 16[rbp]
	mov	rcx, rax
	call	_ZSt25__uninitialized_default_nIP8ParticleyET_S2_T0_
	.loc 10 1029 60
	add	rsp, 32
	pop	rbp
	.cfi_restore 6
	.cfi_def_cfa 7, 8
	ret
	.cfi_endproc
.LFE1768:
	.seh_endproc
	.section	.text$_ZSt8_DestroyIP8ParticleEvT_S2_,"x"
	.linkonce discard
	.globl	_ZSt8_DestroyIP8ParticleEvT_S2_
	.def	_ZSt8_DestroyIP8ParticleEvT_S2_;	.scl	2;	.type	32;	.endef
	.seh_proc	_ZSt8_DestroyIP8ParticleEvT_S2_
_ZSt8_DestroyIP8ParticleEvT_S2_:
.LFB1769:
	.file 11 "C:/Qt/Tools/mingw1530_64/include/c++/15.3.0/bits/stl_construct.h"
	.loc 11 219 5
	.cfi_startproc
	push	rbp
	.seh_pushreg	rbp
	.cfi_def_cfa_offset 16
	.cfi_offset 6, -16
	mov	rbp, rsp
	.seh_setframe	rbp, 0
	.cfi_def_cfa_register 6
	sub	rsp, 48
	.seh_stackalloc	48
	.seh_endprologue
	mov	QWORD PTR 16[rbp], rcx
	mov	QWORD PTR 24[rbp], rdx
.LBB143:
.LBB144:
	.loc 9 586 49
	mov	eax, 0
.LBE144:
.LBE143:
	.loc 11 228 12 discriminator 1
	test	al, al
	je	.L58
	.loc 11 229 2
	jmp	.L55
.L57:
	mov	rax, QWORD PTR 16[rbp]
	mov	QWORD PTR -8[rbp], rax
.LBB145:
.LBB146:
	.file 12 "C:/Qt/Tools/mingw1530_64/include/c++/15.3.0/bits/move.h"
	.loc 12 53 37
	mov	rax, QWORD PTR -8[rbp]
.LBE146:
.LBE145:
	.loc 11 230 19 discriminator 1
	mov	rcx, rax
	call	_ZSt10destroy_atI8ParticleEvPT_
	.loc 11 229 2 discriminator 2
	add	QWORD PTR 16[rbp], 24
.L55:
	.loc 11 229 17 discriminator 1
	mov	rax, QWORD PTR 16[rbp]
	cmp	rax, QWORD PTR 24[rbp]
	jne	.L57
.L58:
	.loc 11 236 5
	nop
	add	rsp, 48
	pop	rbp
	.cfi_restore 6
	.cfi_def_cfa 7, 8
	ret
	.cfi_endproc
.LFE1769:
	.seh_endproc
	.section	.text$_ZSt3minIyERKT_S2_S2_,"x"
	.linkonce discard
	.globl	_ZSt3minIyERKT_S2_S2_
	.def	_ZSt3minIyERKT_S2_S2_;	.scl	2;	.type	32;	.endef
	.seh_proc	_ZSt3minIyERKT_S2_S2_
_ZSt3minIyERKT_S2_S2_:
.LFB1771:
	.loc 3 234 5
	.cfi_startproc
	push	rbp
	.seh_pushreg	rbp
	.cfi_def_cfa_offset 16
	.cfi_offset 6, -16
	mov	rbp, rsp
	.seh_setframe	rbp, 0
	.cfi_def_cfa_register 6
	.seh_endprologue
	mov	QWORD PTR 16[rbp], rcx
	mov	QWORD PTR 24[rbp], rdx
	.loc 3 239 15
	mov	rax, QWORD PTR 24[rbp]
	mov	rdx, QWORD PTR [rax]
	mov	rax, QWORD PTR 16[rbp]
	mov	rax, QWORD PTR [rax]
	.loc 3 239 7
	cmp	rdx, rax
	jnb	.L60
	.loc 3 240 9
	mov	rax, QWORD PTR 24[rbp]
	jmp	.L61
.L60:
	.loc 3 241 14
	mov	rax, QWORD PTR 16[rbp]
.L61:
	.loc 3 242 5
	pop	rbp
	.cfi_restore 6
	.cfi_def_cfa 7, 8
	ret
	.cfi_endproc
.LFE1771:
	.seh_endproc
	.section	.text$_ZNSt12_Vector_baseI8ParticleSaIS0_EE17_Vector_impl_dataC2Ev,"x"
	.linkonce discard
	.align 2
	.globl	_ZNSt12_Vector_baseI8ParticleSaIS0_EE17_Vector_impl_dataC2Ev
	.def	_ZNSt12_Vector_baseI8ParticleSaIS0_EE17_Vector_impl_dataC2Ev;	.scl	2;	.type	32;	.endef
	.seh_proc	_ZNSt12_Vector_baseI8ParticleSaIS0_EE17_Vector_impl_dataC2Ev
_ZNSt12_Vector_baseI8ParticleSaIS0_EE17_Vector_impl_dataC2Ev:
.LFB1776:
	.loc 7 105 2
	.cfi_startproc
	push	rbp
	.seh_pushreg	rbp
	.cfi_def_cfa_offset 16
	.cfi_offset 6, -16
	mov	rbp, rsp
	.seh_setframe	rbp, 0
	.cfi_def_cfa_register 6
	.seh_endprologue
	mov	QWORD PTR 16[rbp], rcx
.LBB147:
	.loc 7 106 4
	mov	rax, QWORD PTR 16[rbp]
	mov	QWORD PTR [rax], 0
	.loc 7 106 16
	mov	rax, QWORD PTR 16[rbp]
	mov	QWORD PTR 8[rax], 0
	.loc 7 106 29
	mov	rax, QWORD PTR 16[rbp]
	mov	QWORD PTR 16[rax], 0
.LBE147:
	.loc 7 107 4
	nop
	pop	rbp
	.cfi_restore 6
	.cfi_def_cfa 7, 8
	ret
	.cfi_endproc
.LFE1776:
	.seh_endproc
	.section	.text$_ZNSt12_Vector_baseI8ParticleSaIS0_EE11_M_allocateEy,"x"
	.linkonce discard
	.align 2
	.globl	_ZNSt12_Vector_baseI8ParticleSaIS0_EE11_M_allocateEy
	.def	_ZNSt12_Vector_baseI8ParticleSaIS0_EE11_M_allocateEy;	.scl	2;	.type	32;	.endef
	.seh_proc	_ZNSt12_Vector_baseI8ParticleSaIS0_EE11_M_allocateEy
_ZNSt12_Vector_baseI8ParticleSaIS0_EE11_M_allocateEy:
.LFB1778:
	.loc 7 384 7
	.cfi_startproc
	push	rbp
	.seh_pushreg	rbp
	.cfi_def_cfa_offset 16
	.cfi_offset 6, -16
	mov	rbp, rsp
	.seh_setframe	rbp, 0
	.cfi_def_cfa_register 6
	sub	rsp, 64
	.seh_stackalloc	64
	.seh_endprologue
	mov	QWORD PTR 16[rbp], rcx
	mov	QWORD PTR 24[rbp], rdx
	.loc 7 387 18
	cmp	QWORD PTR 24[rbp], 0
	je	.L64
	.loc 7 387 34 discriminator 1
	mov	rax, QWORD PTR 16[rbp]
	mov	QWORD PTR -8[rbp], rax
	mov	rax, QWORD PTR 24[rbp]
	mov	QWORD PTR -16[rbp], rax
	mov	rax, QWORD PTR -8[rbp]
	mov	QWORD PTR -24[rbp], rax
	mov	rax, QWORD PTR -16[rbp]
	mov	QWORD PTR -32[rbp], rax
.LBB148:
.LBB149:
.LBB150:
.LBB151:
.LBB152:
.LBB153:
	.loc 9 586 49
	mov	eax, 0
.LBE153:
.LBE152:
	.loc 6 196 2 discriminator 1
	test	al, al
	je	.L66
	.loc 6 198 32
	mov	rax, QWORD PTR -32[rbp]
	mov	ecx, 0
	mov	edx, 24
	mul	rdx
	jno	.L67
	mov	ecx, 1
.L67:
	.loc 6 198 32 is_stmt 0 discriminator 1
	mov	QWORD PTR -32[rbp], rax
	mov	rax, rcx
	and	eax, 1
	.loc 6 198 6 is_stmt 1 discriminator 1
	test	al, al
	je	.L69
	.loc 6 199 41
	call	_ZSt28__throw_bad_array_new_lengthv
.L69:
	.loc 6 200 45
	mov	rax, QWORD PTR -32[rbp]
	mov	rcx, rax
	call	_Znwy
	.loc 6 200 50
	jmp	.L70
.L66:
	.loc 6 203 40
	mov	rdx, QWORD PTR -32[rbp]
	mov	rax, QWORD PTR -24[rbp]
	mov	r8d, 0
	mov	rcx, rax
	call	_ZNSt15__new_allocatorI8ParticleE8allocateEyPKv
	.loc 6 203 47
	nop
.L70:
.LBE151:
.LBE150:
	.loc 8 614 32
	nop
	jmp	.L72
.L64:
.LBE149:
.LBE148:
	.loc 7 387 58 discriminator 2
	mov	eax, 0
.L72:
	.loc 7 388 7
	add	rsp, 64
	pop	rbp
	.cfi_restore 6
	.cfi_def_cfa 7, 8
	ret
	.cfi_endproc
.LFE1778:
	.seh_endproc
	.section	.text$_ZSt25__uninitialized_default_nIP8ParticleyET_S2_T0_,"x"
	.linkonce discard
	.globl	_ZSt25__uninitialized_default_nIP8ParticleyET_S2_T0_
	.def	_ZSt25__uninitialized_default_nIP8ParticleyET_S2_T0_;	.scl	2;	.type	32;	.endef
	.seh_proc	_ZSt25__uninitialized_default_nIP8ParticleyET_S2_T0_
_ZSt25__uninitialized_default_nIP8ParticleyET_S2_T0_:
.LFB1780:
	.loc 10 958 5
	.cfi_startproc
	push	rbp
	.seh_pushreg	rbp
	.cfi_def_cfa_offset 16
	.cfi_offset 6, -16
	mov	rbp, rsp
	.seh_setframe	rbp, 0
	.cfi_def_cfa_register 6
	sub	rsp, 48
	.seh_stackalloc	48
	.seh_endprologue
	mov	QWORD PTR 16[rbp], rcx
	mov	QWORD PTR 24[rbp], rdx
	.loc 10 961 37
	call	_ZSt21is_constant_evaluatedv
	.loc 10 961 7 discriminator 1
	test	al, al
	je	.L75
	.loc 10 963 22
	mov	rdx, QWORD PTR 24[rbp]
	mov	rax, QWORD PTR 16[rbp]
	mov	rcx, rax
	call	_ZNSt27__uninitialized_default_n_1ILb0EE18__uninit_default_nIP8ParticleyEET_S4_T0_
	.loc 10 963 35
	jmp	.L76
.L75:
	.loc 10 969 22
	mov	BYTE PTR -1[rbp], 1
	.loc 10 974 20
	mov	rdx, QWORD PTR 24[rbp]
	mov	rax, QWORD PTR 16[rbp]
	mov	rcx, rax
	call	_ZNSt27__uninitialized_default_n_1ILb1EE18__uninit_default_nIP8ParticleyEET_S4_T0_
	.loc 10 974 33
	nop
.L76:
	.loc 10 975 5
	add	rsp, 48
	pop	rbp
	.cfi_restore 6
	.cfi_def_cfa 7, 8
	ret
	.cfi_endproc
.LFE1780:
	.seh_endproc
	.section	.text$_ZSt10destroy_atI8ParticleEvPT_,"x"
	.linkonce discard
	.globl	_ZSt10destroy_atI8ParticleEvPT_
	.def	_ZSt10destroy_atI8ParticleEvPT_;	.scl	2;	.type	32;	.endef
	.seh_proc	_ZSt10destroy_atI8ParticleEvPT_
_ZSt10destroy_atI8ParticleEvPT_:
.LFB1782:
	.loc 11 80 5
	.cfi_startproc
	push	rbp
	.seh_pushreg	rbp
	.cfi_def_cfa_offset 16
	.cfi_offset 6, -16
	mov	rbp, rsp
	.seh_setframe	rbp, 0
	.cfi_def_cfa_register 6
	.seh_endprologue
	mov	QWORD PTR 16[rbp], rcx
	.loc 11 89 5
	nop
	pop	rbp
	.cfi_restore 6
	.cfi_def_cfa 7, 8
	ret
	.cfi_endproc
.LFE1782:
	.seh_endproc
	.section	.text$_ZNSt19_UninitDestroyGuardIP8ParticlevEC1ERS1_,"x"
	.linkonce discard
	.align 2
	.globl	_ZNSt19_UninitDestroyGuardIP8ParticlevEC1ERS1_
	.def	_ZNSt19_UninitDestroyGuardIP8ParticlevEC1ERS1_;	.scl	2;	.type	32;	.endef
	.seh_proc	_ZNSt19_UninitDestroyGuardIP8ParticlevEC1ERS1_
_ZNSt19_UninitDestroyGuardIP8ParticlevEC1ERS1_:
.LFB1788:
	.loc 10 113 7
	.cfi_startproc
	push	rbp
	.seh_pushreg	rbp
	.cfi_def_cfa_offset 16
	.cfi_offset 6, -16
	mov	rbp, rsp
	.seh_setframe	rbp, 0
	.cfi_def_cfa_register 6
	.seh_endprologue
	mov	QWORD PTR 16[rbp], rcx
	mov	QWORD PTR 24[rbp], rdx
.LBB154:
	.loc 10 114 9
	mov	rax, QWORD PTR 24[rbp]
	mov	rdx, QWORD PTR [rax]
	mov	rax, QWORD PTR 16[rbp]
	mov	QWORD PTR [rax], rdx
	.loc 10 114 28
	mov	rax, QWORD PTR 16[rbp]
	mov	rdx, QWORD PTR 24[rbp]
	mov	QWORD PTR 8[rax], rdx
.LBE154:
	.loc 10 115 9
	nop
	pop	rbp
	.cfi_restore 6
	.cfi_def_cfa 7, 8
	ret
	.cfi_endproc
.LFE1788:
	.seh_endproc
	.section	.text$_ZNSt27__uninitialized_default_n_1ILb0EE18__uninit_default_nIP8ParticleyEET_S4_T0_,"x"
	.linkonce discard
	.globl	_ZNSt27__uninitialized_default_n_1ILb0EE18__uninit_default_nIP8ParticleyEET_S4_T0_
	.def	_ZNSt27__uninitialized_default_n_1ILb0EE18__uninit_default_nIP8ParticleyEET_S4_T0_;	.scl	2;	.type	32;	.endef
	.seh_proc	_ZNSt27__uninitialized_default_n_1ILb0EE18__uninit_default_nIP8ParticleyEET_S4_T0_
_ZNSt27__uninitialized_default_n_1ILb0EE18__uninit_default_nIP8ParticleyEET_S4_T0_:
.LFB1785:
	.loc 10 899 9
	.cfi_startproc
	push	rbp
	.seh_pushreg	rbp
	.cfi_def_cfa_offset 16
	.cfi_offset 6, -16
	push	rbx
	.seh_pushreg	rbx
	.cfi_def_cfa_offset 24
	.cfi_offset 3, -24
	sub	rsp, 72
	.seh_stackalloc	72
	.cfi_def_cfa_offset 96
	lea	rbp, 64[rsp]
	.seh_setframe	rbp, 64
	.cfi_def_cfa 6, 32
	.seh_endprologue
	mov	QWORD PTR 32[rbp], rcx
	mov	QWORD PTR 40[rbp], rdx
	.loc 10 901 42
	lea	rax, -32[rbp]
	lea	rdx, 32[rbp]
	mov	rcx, rax
	call	_ZNSt19_UninitDestroyGuardIP8ParticlevEC1ERS1_
	.loc 10 902 4
	jmp	.L80
.L82:
	.loc 10 903 21
	mov	rax, QWORD PTR 32[rbp]
	mov	QWORD PTR -8[rbp], rax
.LBB155:
.LBB156:
	.loc 12 53 37
	mov	rax, QWORD PTR -8[rbp]
.LBE156:
.LBE155:
	.loc 10 903 21 discriminator 1
	mov	rcx, rax
	call	_ZSt10_ConstructI8ParticleJEEvPT_DpOT0_
	.loc 10 902 4 discriminator 2
	sub	QWORD PTR 40[rbp], 1
	.loc 10 902 27 discriminator 2
	mov	rax, QWORD PTR 32[rbp]
	add	rax, 24
	mov	QWORD PTR 32[rbp], rax
.L80:
	.loc 10 902 15 discriminator 1
	cmp	QWORD PTR 40[rbp], 0
	jne	.L82
	.loc 10 904 19
	lea	rax, -32[rbp]
	mov	rcx, rax
	call	_ZNSt19_UninitDestroyGuardIP8ParticlevE7releaseEv
	.loc 10 905 11
	mov	rbx, QWORD PTR 32[rbp]
	.loc 10 906 2
	lea	rax, -32[rbp]
	mov	rcx, rax
	call	_ZNSt19_UninitDestroyGuardIP8ParticlevED1Ev
	.loc 10 905 11
	mov	rax, rbx
	.loc 10 906 2
	add	rsp, 72
	pop	rbx
	.cfi_restore 3
	pop	rbp
	.cfi_restore 6
	.cfi_def_cfa 7, -56
	ret
	.cfi_endproc
.LFE1785:
	.seh_endproc
	.section	.text$_ZNSt27__uninitialized_default_n_1ILb1EE18__uninit_default_nIP8ParticleyEET_S4_T0_,"x"
	.linkonce discard
	.globl	_ZNSt27__uninitialized_default_n_1ILb1EE18__uninit_default_nIP8ParticleyEET_S4_T0_
	.def	_ZNSt27__uninitialized_default_n_1ILb1EE18__uninit_default_nIP8ParticleyEET_S4_T0_;	.scl	2;	.type	32;	.endef
	.seh_proc	_ZNSt27__uninitialized_default_n_1ILb1EE18__uninit_default_nIP8ParticleyEET_S4_T0_
_ZNSt27__uninitialized_default_n_1ILb1EE18__uninit_default_nIP8ParticleyEET_S4_T0_:
.LFB1789:
	.loc 10 915 9
	.cfi_startproc
	push	rbp
	.seh_pushreg	rbp
	.cfi_def_cfa_offset 16
	.cfi_offset 6, -16
	mov	rbp, rsp
	.seh_setframe	rbp, 0
	.cfi_def_cfa_register 6
	add	rsp, -128
	.seh_stackalloc	128
	.seh_endprologue
	mov	QWORD PTR 16[rbp], rcx
	mov	QWORD PTR 24[rbp], rdx
.LBB157:
	.loc 10 917 4
	cmp	QWORD PTR 24[rbp], 0
	je	.L85
	mov	rax, QWORD PTR 16[rbp]
	mov	QWORD PTR -80[rbp], rax
.LBB158:
.LBB159:
.LBB160:
	.loc 12 53 37
	mov	rax, QWORD PTR -80[rbp]
.LBE160:
.LBE159:
	.loc 10 920 21
	mov	QWORD PTR -8[rbp], rax
	.loc 10 921 23
	mov	rax, QWORD PTR -8[rbp]
	mov	rcx, rax
	call	_ZSt10_ConstructI8ParticleJEEvPT_DpOT0_
	.loc 10 922 8
	add	QWORD PTR 16[rbp], 24
	.loc 10 923 29
	mov	rax, QWORD PTR 24[rbp]
	lea	rdx, -1[rax]
	mov	rax, QWORD PTR 16[rbp]
	mov	QWORD PTR -88[rbp], rax
	mov	QWORD PTR -16[rbp], rdx
	mov	rax, QWORD PTR -8[rbp]
	mov	QWORD PTR -24[rbp], rax
.LBB161:
.LBB162:
.LBB163:
.LBB164:
	.file 13 "C:/Qt/Tools/mingw1530_64/include/c++/15.3.0/bits/stl_iterator_base_types.h"
	.loc 13 242 65
	nop
.LBE164:
.LBE163:
	.loc 3 1178 29
	mov	rax, QWORD PTR -16[rbp]
	mov	rcx, rax
	call	_ZSt17__size_to_integery
	.loc 3 1178 29 is_stmt 0 discriminator 1
	mov	rdx, QWORD PTR -88[rbp]
	mov	QWORD PTR -32[rbp], rdx
	mov	QWORD PTR -40[rbp], rax
	mov	rax, QWORD PTR -24[rbp]
	mov	QWORD PTR -48[rbp], rax
.LBB165:
.LBB166:
	.loc 3 1143 7 is_stmt 1
	cmp	QWORD PTR -40[rbp], 0
	jne	.L88
	.loc 3 1144 9
	mov	rax, QWORD PTR -32[rbp]
	jmp	.L89
.L88:
	.loc 3 1148 38
	mov	rdx, QWORD PTR -40[rbp]
	mov	rax, rdx
	add	rax, rax
	add	rax, rdx
	sal	rax, 3
	mov	rdx, rax
	.loc 3 1148 20
	mov	rax, QWORD PTR -32[rbp]
	add	rdx, rax
	mov	rax, QWORD PTR -32[rbp]
	mov	QWORD PTR -56[rbp], rax
	mov	QWORD PTR -64[rbp], rdx
	mov	rax, QWORD PTR -48[rbp]
	mov	QWORD PTR -72[rbp], rax
.LBB167:
.LBB168:
	.loc 3 979 21
	mov	rcx, QWORD PTR -72[rbp]
	mov	rdx, QWORD PTR -64[rbp]
	mov	rax, QWORD PTR -56[rbp]
	mov	r8, rcx
	mov	rcx, rax
	call	_ZSt9__fill_a1IP8ParticleS0_EvT_S2_RKT0_
	.loc 3 979 49
	nop
.LBE168:
.LBE167:
	.loc 3 1149 22
	mov	rdx, QWORD PTR -40[rbp]
	mov	rax, rdx
	add	rax, rax
	add	rax, rdx
	sal	rax, 3
	mov	rdx, rax
	.loc 3 1149 24
	mov	rax, QWORD PTR -32[rbp]
	add	rax, rdx
.L89:
.LBE166:
.LBE165:
	.loc 3 1179 44
	nop
.LBE162:
.LBE161:
	.loc 10 923 29 discriminator 1
	mov	QWORD PTR 16[rbp], rax
.L85:
.LBE158:
.LBE157:
	.loc 10 925 11
	mov	rax, QWORD PTR 16[rbp]
	.loc 10 926 2
	sub	rsp, -128
	pop	rbp
	.cfi_restore 6
	.cfi_def_cfa 7, 8
	ret
	.cfi_endproc
.LFE1789:
	.seh_endproc
	.section	.text$_ZNSt15__new_allocatorI8ParticleE10deallocateEPS0_y,"x"
	.linkonce discard
	.align 2
	.globl	_ZNSt15__new_allocatorI8ParticleE10deallocateEPS0_y
	.def	_ZNSt15__new_allocatorI8ParticleE10deallocateEPS0_y;	.scl	2;	.type	32;	.endef
	.seh_proc	_ZNSt15__new_allocatorI8ParticleE10deallocateEPS0_y
_ZNSt15__new_allocatorI8ParticleE10deallocateEPS0_y:
.LFB1791:
	.loc 5 156 7
	.cfi_startproc
	push	rbp
	.seh_pushreg	rbp
	.cfi_def_cfa_offset 16
	.cfi_offset 6, -16
	mov	rbp, rsp
	.seh_setframe	rbp, 0
	.cfi_def_cfa_register 6
	sub	rsp, 32
	.seh_stackalloc	32
	.seh_endprologue
	mov	QWORD PTR 16[rbp], rcx
	mov	QWORD PTR 24[rbp], rdx
	mov	QWORD PTR 32[rbp], r8
	.loc 5 172 59
	mov	rdx, QWORD PTR 32[rbp]
	mov	rax, rdx
	add	rax, rax
	add	rax, rdx
	sal	rax, 3
	mov	rdx, rax
	mov	rax, QWORD PTR 24[rbp]
	mov	rcx, rax
	call	_ZdlPvy
	nop
	.loc 5 173 7
	add	rsp, 32
	pop	rbp
	.cfi_restore 6
	.cfi_def_cfa 7, 8
	ret
	.cfi_endproc
.LFE1791:
	.seh_endproc
	.section	.text$_ZNSt19_UninitDestroyGuardIP8ParticlevED1Ev,"x"
	.linkonce discard
	.align 2
	.globl	_ZNSt19_UninitDestroyGuardIP8ParticlevED1Ev
	.def	_ZNSt19_UninitDestroyGuardIP8ParticlevED1Ev;	.scl	2;	.type	32;	.endef
	.seh_proc	_ZNSt19_UninitDestroyGuardIP8ParticlevED1Ev
_ZNSt19_UninitDestroyGuardIP8ParticlevED1Ev:
.LFB1794:
	.loc 10 118 7
	.cfi_startproc
	push	rbp
	.seh_pushreg	rbp
	.cfi_def_cfa_offset 16
	.cfi_offset 6, -16
	mov	rbp, rsp
	.seh_setframe	rbp, 0
	.cfi_def_cfa_register 6
	sub	rsp, 32
	.seh_stackalloc	32
	.seh_endprologue
	mov	QWORD PTR 16[rbp], rcx
.LBB169:
	.loc 10 120 23
	mov	rax, QWORD PTR 16[rbp]
	mov	rax, QWORD PTR 8[rax]
	.loc 10 120 30
	test	rax, rax
	setne	al
	.loc 10 120 22
	movzx	eax, al
	.loc 10 120 2 discriminator 1
	test	eax, eax
	je	.L96
	.loc 10 121 29
	mov	rax, QWORD PTR 16[rbp]
	mov	rax, QWORD PTR 8[rax]
	.loc 10 121 17
	mov	rdx, QWORD PTR [rax]
	.loc 10 121 18
	mov	rax, QWORD PTR 16[rbp]
	mov	rax, QWORD PTR [rax]
	.loc 10 121 17
	mov	rcx, rax
	call	_ZSt8_DestroyIP8ParticleEvT_S2_
.L96:
.LBE169:
	.loc 10 122 7
	nop
	add	rsp, 32
	pop	rbp
	.cfi_restore 6
	.cfi_def_cfa 7, 8
	ret
	.cfi_endproc
.LFE1794:
	.seh_endproc
	.section	.text$_ZSt10_ConstructI8ParticleJEEvPT_DpOT0_,"x"
	.linkonce discard
	.globl	_ZSt10_ConstructI8ParticleJEEvPT_DpOT0_
	.def	_ZSt10_ConstructI8ParticleJEEvPT_DpOT0_;	.scl	2;	.type	32;	.endef
	.seh_proc	_ZSt10_ConstructI8ParticleJEEvPT_DpOT0_
_ZSt10_ConstructI8ParticleJEEvPT_DpOT0_:
.LFB1795:
	.loc 11 123 5
	.cfi_startproc
	push	rbp
	.seh_pushreg	rbp
	.cfi_def_cfa_offset 16
	.cfi_offset 6, -16
	push	rbx
	.seh_pushreg	rbx
	.cfi_def_cfa_offset 24
	.cfi_offset 3, -24
	sub	rsp, 40
	.seh_stackalloc	40
	.cfi_def_cfa_offset 64
	lea	rbp, 32[rsp]
	.seh_setframe	rbp, 32
	.cfi_def_cfa 6, 32
	.seh_endprologue
	mov	QWORD PTR 32[rbp], rcx
.LBB170:
.LBB171:
	.loc 9 586 49
	mov	eax, 0
.LBE171:
.LBE170:
	.loc 11 126 7 discriminator 1
	test	al, al
	je	.L99
	.loc 11 129 21
	mov	rax, QWORD PTR 32[rbp]
	mov	rcx, rax
	call	_ZSt12construct_atI8ParticleJEQaant20is_unbounded_array_vIT_ErqXgsnwcvPvLi0E_S1_pispcl7declvalIT0_EEEEEPS1_S4_DpOS3_
	.loc 11 130 4
	jmp	.L97
.L99:
	.loc 11 133 13
	mov	rbx, QWORD PTR 32[rbp]
	.loc 11 133 7
	mov	rdx, rbx
	mov	ecx, 24
	call	_ZnwyPv
	.loc 11 133 7 is_stmt 0 discriminator 1
	pxor	xmm0, xmm0
	movss	DWORD PTR [rax], xmm0
	pxor	xmm0, xmm0
	movss	DWORD PTR 4[rax], xmm0
	pxor	xmm0, xmm0
	movss	DWORD PTR 8[rax], xmm0
	pxor	xmm0, xmm0
	movss	DWORD PTR 12[rax], xmm0
	pxor	xmm0, xmm0
	movss	DWORD PTR 16[rax], xmm0
	pxor	xmm0, xmm0
	movss	DWORD PTR 20[rax], xmm0
	mov	edx, 0
	test	dl, dl
	je	.L97
	.loc 11 133 7 discriminator 2
	mov	rdx, rbx
	mov	rcx, rax
	call	_ZdlPvS_
	nop
.L97:
	.loc 11 134 5 is_stmt 1
	add	rsp, 40
	pop	rbx
	.cfi_restore 3
	pop	rbp
	.cfi_restore 6
	.cfi_def_cfa 7, -24
	ret
	.cfi_endproc
.LFE1795:
	.seh_endproc
	.section	.text$_ZNSt19_UninitDestroyGuardIP8ParticlevE7releaseEv,"x"
	.linkonce discard
	.align 2
	.globl	_ZNSt19_UninitDestroyGuardIP8ParticlevE7releaseEv
	.def	_ZNSt19_UninitDestroyGuardIP8ParticlevE7releaseEv;	.scl	2;	.type	32;	.endef
	.seh_proc	_ZNSt19_UninitDestroyGuardIP8ParticlevE7releaseEv
_ZNSt19_UninitDestroyGuardIP8ParticlevE7releaseEv:
.LFB1796:
	.loc 10 125 12
	.cfi_startproc
	push	rbp
	.seh_pushreg	rbp
	.cfi_def_cfa_offset 16
	.cfi_offset 6, -16
	mov	rbp, rsp
	.seh_setframe	rbp, 0
	.cfi_def_cfa_register 6
	.seh_endprologue
	mov	QWORD PTR 16[rbp], rcx
	.loc 10 125 31
	mov	rax, QWORD PTR 16[rbp]
	mov	QWORD PTR 8[rax], 0
	.loc 10 125 36
	nop
	pop	rbp
	.cfi_restore 6
	.cfi_def_cfa 7, 8
	ret
	.cfi_endproc
.LFE1796:
	.seh_endproc
	.section	.text$_ZNSt15__new_allocatorI8ParticleE8allocateEyPKv,"x"
	.linkonce discard
	.align 2
	.globl	_ZNSt15__new_allocatorI8ParticleE8allocateEyPKv
	.def	_ZNSt15__new_allocatorI8ParticleE8allocateEyPKv;	.scl	2;	.type	32;	.endef
	.seh_proc	_ZNSt15__new_allocatorI8ParticleE8allocateEyPKv
_ZNSt15__new_allocatorI8ParticleE8allocateEyPKv:
.LFB1798:
	.loc 5 126 7
	.cfi_startproc
	push	rbp
	.seh_pushreg	rbp
	.cfi_def_cfa_offset 16
	.cfi_offset 6, -16
	mov	rbp, rsp
	.seh_setframe	rbp, 0
	.cfi_def_cfa_register 6
	sub	rsp, 48
	.seh_stackalloc	48
	.seh_endprologue
	mov	QWORD PTR 16[rbp], rcx
	mov	QWORD PTR 24[rbp], rdx
	mov	QWORD PTR 32[rbp], r8
	mov	rax, QWORD PTR 16[rbp]
	mov	QWORD PTR -8[rbp], rax
.LBB172:
.LBB173:
	.loc 5 233 50
	movabs	rax, 384307168202282325
.LBE173:
.LBE172:
	.loc 5 134 27 discriminator 1
	cmp	rax, QWORD PTR 24[rbp]
	setb	al
	.loc 5 134 22 discriminator 1
	movzx	eax, al
	.loc 5 134 22 is_stmt 0 discriminator 2
	test	eax, eax
	setne	al
	.loc 5 134 2 is_stmt 1 discriminator 2
	test	al, al
	je	.L104
	.loc 5 138 6
	movabs	rax, 768614336404564650
	cmp	rax, QWORD PTR 24[rbp]
	jnb	.L105
	.loc 5 139 41
	call	_ZSt28__throw_bad_array_new_lengthv
.L105:
	.loc 5 140 28
	call	_ZSt17__throw_bad_allocv
.L104:
	.loc 5 151 66
	mov	rdx, QWORD PTR 24[rbp]
	mov	rax, rdx
	add	rax, rax
	add	rax, rdx
	sal	rax, 3
	mov	rcx, rax
	call	_Znwy
	.loc 5 151 67
	nop
	.loc 5 152 7
	add	rsp, 48
	pop	rbp
	.cfi_restore 6
	.cfi_def_cfa 7, 8
	ret
	.cfi_endproc
.LFE1798:
	.seh_endproc
	.section	.text$_ZSt12construct_atI8ParticleJEQaant20is_unbounded_array_vIT_ErqXgsnwcvPvLi0E_S1_pispcl7declvalIT0_EEEEEPS1_S4_DpOS3_,"x"
	.linkonce discard
	.globl	_ZSt12construct_atI8ParticleJEQaant20is_unbounded_array_vIT_ErqXgsnwcvPvLi0E_S1_pispcl7declvalIT0_EEEEEPS1_S4_DpOS3_
	.def	_ZSt12construct_atI8ParticleJEQaant20is_unbounded_array_vIT_ErqXgsnwcvPvLi0E_S1_pispcl7declvalIT0_EEEEEPS1_S4_DpOS3_;	.scl	2;	.type	32;	.endef
	.seh_proc	_ZSt12construct_atI8ParticleJEQaant20is_unbounded_array_vIT_ErqXgsnwcvPvLi0E_S1_pispcl7declvalIT0_EEEEEPS1_S4_DpOS3_
_ZSt12construct_atI8ParticleJEQaant20is_unbounded_array_vIT_ErqXgsnwcvPvLi0E_S1_pispcl7declvalIT0_EEEEEPS1_S4_DpOS3_:
.LFB1799:
	.loc 11 96 5
	.cfi_startproc
	push	rbp
	.seh_pushreg	rbp
	.cfi_def_cfa_offset 16
	.cfi_offset 6, -16
	push	rsi
	.seh_pushreg	rsi
	.cfi_def_cfa_offset 24
	.cfi_offset 4, -24
	push	rbx
	.seh_pushreg	rbx
	.cfi_def_cfa_offset 32
	.cfi_offset 3, -32
	sub	rsp, 48
	.seh_stackalloc	48
	.cfi_def_cfa_offset 80
	lea	rbp, 48[rsp]
	.seh_setframe	rbp, 48
	.cfi_def_cfa 6, 32
	.seh_endprologue
	mov	QWORD PTR 32[rbp], rcx
	.loc 11 99 13
	mov	rax, QWORD PTR 32[rbp]
	mov	QWORD PTR -8[rbp], rax
	.loc 11 110 15
	mov	rsi, QWORD PTR -8[rbp]
	.loc 11 110 9
	mov	rdx, rsi
	mov	ecx, 24
	call	_ZnwyPv
	mov	rbx, rax
	.loc 11 110 9 is_stmt 0 discriminator 1
	pxor	xmm0, xmm0
	movss	DWORD PTR [rbx], xmm0
	pxor	xmm0, xmm0
	movss	DWORD PTR 4[rbx], xmm0
	pxor	xmm0, xmm0
	movss	DWORD PTR 8[rbx], xmm0
	pxor	xmm0, xmm0
	movss	DWORD PTR 12[rbx], xmm0
	pxor	xmm0, xmm0
	movss	DWORD PTR 16[rbx], xmm0
	pxor	xmm0, xmm0
	movss	DWORD PTR 20[rbx], xmm0
	.loc 11 110 56 is_stmt 1 discriminator 1
	mov	eax, 0
	.loc 11 110 56 is_stmt 0 discriminator 2
	test	al, al
	je	.L109
	.loc 11 110 9 is_stmt 1 discriminator 3
	mov	rdx, rsi
	mov	rcx, rbx
	call	_ZdlPvS_
.L109:
	.loc 11 110 56 discriminator 7
	mov	rax, rbx
	.loc 11 111 5
	add	rsp, 48
	pop	rbx
	.cfi_restore 3
	pop	rsi
	.cfi_restore 4
	pop	rbp
	.cfi_restore 6
	.cfi_def_cfa 7, -24
	ret
	.cfi_endproc
.LFE1799:
	.seh_endproc
	.weak	_ZSt12construct_atI8ParticleJEEPT_S2_DpOT0_
	.def	_ZSt12construct_atI8ParticleJEEPT_S2_DpOT0_;	.scl	2;	.type	32;	.endef
	.set	_ZSt12construct_atI8ParticleJEEPT_S2_DpOT0_,_ZSt12construct_atI8ParticleJEQaant20is_unbounded_array_vIT_ErqXgsnwcvPvLi0E_S1_pispcl7declvalIT0_EEEEEPS1_S4_DpOS3_
	.section	.text$_ZSt9__fill_a1IP8ParticleS0_EvT_S2_RKT0_,"x"
	.linkonce discard
	.globl	_ZSt9__fill_a1IP8ParticleS0_EvT_S2_RKT0_
	.def	_ZSt9__fill_a1IP8ParticleS0_EvT_S2_RKT0_;	.scl	2;	.type	32;	.endef
	.seh_proc	_ZSt9__fill_a1IP8ParticleS0_EvT_S2_RKT0_
_ZSt9__fill_a1IP8ParticleS0_EvT_S2_RKT0_:
.LFB1804:
	.loc 3 897 5
	.cfi_startproc
	push	rbp
	.seh_pushreg	rbp
	.cfi_def_cfa_offset 16
	.cfi_offset 6, -16
	mov	rbp, rsp
	.seh_setframe	rbp, 0
	.cfi_def_cfa_register 6
	sub	rsp, 16
	.seh_stackalloc	16
	.seh_endprologue
	mov	QWORD PTR 16[rbp], rcx
	mov	QWORD PTR 24[rbp], rdx
	mov	QWORD PTR 32[rbp], r8
	.loc 3 906 18
	mov	BYTE PTR -1[rbp], 0
	.loc 3 923 11
	mov	rax, QWORD PTR 32[rbp]
	mov	QWORD PTR -16[rbp], rax
	.loc 3 924 7
	jmp	.L111
.L112:
	.loc 3 925 2
	mov	rcx, QWORD PTR 16[rbp]
	mov	r8, QWORD PTR -16[rbp]
	mov	rax, QWORD PTR [r8]
	mov	rdx, QWORD PTR 8[r8]
	mov	QWORD PTR [rcx], rax
	mov	QWORD PTR 8[rcx], rdx
	mov	rax, QWORD PTR 16[r8]
	mov	QWORD PTR 16[rcx], rax
	.loc 3 924 7 discriminator 2
	add	QWORD PTR 16[rbp], 24
.L111:
	.loc 3 924 22 discriminator 1
	mov	rax, QWORD PTR 16[rbp]
	cmp	rax, QWORD PTR 24[rbp]
	jne	.L112
	.loc 3 926 5
	nop
	nop
	add	rsp, 16
	pop	rbp
	.cfi_restore 6
	.cfi_def_cfa 7, 8
	ret
	.cfi_endproc
.LFE1804:
	.seh_endproc
	.section .rdata,"dr"
	.align 4
.LC0:
	.long	1015222895
	.text
.Letext0:
	.file 14 "C:/Qt/Tools/mingw1530_64/include/c++/15.3.0/bits/utility.h"
	.file 15 "C:/Qt/Tools/mingw1530_64/include/c++/15.3.0/concepts"
	.file 16 "C:/Qt/Tools/mingw1530_64/include/c++/15.3.0/bits/iterator_concepts.h"
	.file 17 "C:/Qt/Tools/mingw1530_64/include/c++/15.3.0/compare"
	.file 18 "C:/Qt/Tools/mingw1530_64/include/c++/15.3.0/debug/debug.h"
	.file 19 "C:/Qt/Tools/mingw1530_64/include/c++/15.3.0/numbers"
	.file 20 "C:/Qt/Tools/mingw1530_64/include/c++/15.3.0/bits/memory_resource.h"
	.file 21 "C:/Qt/Tools/mingw1530_64/include/c++/15.3.0/cstddef"
	.file 22 "C:/Qt/Tools/mingw1530_64/include/c++/15.3.0/bits/vector.tcc"
	.file 23 "C:/Qt/Tools/mingw1530_64/include/c++/15.3.0/initializer_list"
	.file 24 "C:/Qt/Tools/mingw1530_64/include/c++/15.3.0/bits/functexcept.h"
	.file 25 "C:/Qt/Tools/mingw1530_64/include/c++/15.3.0/bits/predefined_ops.h"
	.file 26 "C:/Qt/Tools/mingw1530_64/include/c++/15.3.0/ext/alloc_traits.h"
	.file 27 "C:/Qt/Tools/mingw1530_64/include/c++/15.3.0/ext/type_traits.h"
	.file 28 "C:/Qt/Tools/mingw1530_64/include/c++/15.3.0/bits/ptr_traits.h"
	.file 29 "C:/Qt/Tools/mingw1530_64/x86_64-w64-mingw32/include/stddef.h"