	.file	"_ch140_default_policy.cpp"
	.intel_syntax noprefix
	.text
.Ltext0:
	.cfi_sections	.debug_frame
	.file 0 "C:/CodeLearnling/note/note/C++/CPP-Bible" "Examples/_ch140_default_policy.cpp"
	.globl	main
	.def	main;	.scl	2;	.type	32;	.endef
	.seh_proc	main
main:
.LFB17:
	.file 1 "Examples/_ch140_default_policy.cpp"
	.loc 1 4 11
	.cfi_startproc
	push	rbp
	.seh_pushreg	rbp
	.cfi_def_cfa_offset 16
	.cfi_offset 6, -16
	mov	rbp, rsp
	.seh_setframe	rbp, 0
	.cfi_def_cfa_register 6
	sub	rsp, 48
	.seh_stackalloc	48
	.seh_endprologue
	.loc 1 4 11
	call	__main
	.loc 1 4 29
	pxor	xmm0, xmm0
	movsd	QWORD PTR -16[rbp], xmm0
	mov	DWORD PTR -8[rbp], 0
	.loc 1 4 37
	lea	rax, -16[rbp]
	mov	rcx, rax
	call	_ZN7CounterIdiE3incEv
	.loc 1 4 55 discriminator 1
	mov	eax, DWORD PTR -8[rbp]
	.loc 1 4 61
	add	rsp, 48
	pop	rbp
	.cfi_restore 6
	.cfi_def_cfa 7, 8
	ret
	.cfi_endproc
.LFE17:
	.seh_endproc
	.section	.text$_ZN7CounterIdiE3incEv,"x"
	.linkonce discard
	.align 2
	.globl	_ZN7CounterIdiE3incEv
	.def	_ZN7CounterIdiE3incEv;	.scl	2;	.type	32;	.endef
	.seh_proc	_ZN7CounterIdiE3incEv
_ZN7CounterIdiE3incEv:
.LFB21:
	.loc 1 3 48
	.cfi_startproc
	push	rbp
	.seh_pushreg	rbp
	.cfi_def_cfa_offset 16
	.cfi_offset 6, -16
	mov	rbp, rsp
	.seh_setframe	rbp, 0
	.cfi_def_cfa_register 6
	.seh_endprologue
	mov	QWORD PTR 16[rbp], rcx
	.loc 1 3 57
	mov	rax, QWORD PTR 16[rbp]
	mov	eax, DWORD PTR 8[rax]
	.loc 1 3 55
	lea	edx, 1[rax]
	mov	rax, QWORD PTR 16[rbp]
	mov	DWORD PTR 8[rax], edx
	.loc 1 3 65
	mov	rax, QWORD PTR 16[rbp]
	movsd	xmm1, QWORD PTR [rax]
	.loc 1 3 63
	movsd	xmm0, QWORD PTR .LC1[rip]
	addsd	xmm0, xmm1
	mov	rax, QWORD PTR 16[rbp]
	movsd	QWORD PTR [rax], xmm0
	.loc 1 3 68
	nop
	pop	rbp
	.cfi_restore 6
	.cfi_def_cfa 7, 8
	ret
	.cfi_endproc
.LFE21:
	.seh_endproc
	.section .rdata,"dr"
	.align 8
.LC1:
	.long	0
	.long	1072693248
	.text
.Letext0:
	.file 2 "C:/Qt/Tools/mingw1530_64/x86_64-w64-mingw32/include/stddef.h"
	.file 3 "C:/Qt/Tools/mingw1530_64/include/c++/15.3.0/x86_64-w64-mingw32/bits/c++config.h"
	.file 4 "C:/Qt/Tools/mingw1530_64/include/c++/15.3.0/cstddef"