	.file	"_ch144_auto.cpp"
	.intel_syntax noprefix
	.text
.Ltext0:
	.cfi_sections	.debug_frame
	.file 0 "C:/CodeLearnling/note/note/C++/CPP-Bible" "Examples/_ch144_auto.cpp"
	.section	.text$_ZSt21is_constant_evaluatedv,"x"
	.linkonce discard
	.globl	_ZSt21is_constant_evaluatedv
	.def	_ZSt21is_constant_evaluatedv;	.scl	2;	.type	32;	.endef
	.seh_proc	_ZSt21is_constant_evaluatedv
_ZSt21is_constant_evaluatedv:
.LFB15:
	.file 1 "C:/Qt/Tools/mingw1530_64/include/c++/15.3.0/type_traits"
	.loc 1 4008 3
	.cfi_startproc
	push	rbp
	.seh_pushreg	rbp
	.cfi_def_cfa_offset 16
	.cfi_offset 6, -16
	mov	rbp, rsp
	.seh_setframe	rbp, 0
	.cfi_def_cfa_register 6
	.seh_endprologue
	.loc 1 4010 49
	mov	eax, 0
	.loc 1 4014 3
	pop	rbp
	.cfi_restore 6
	.cfi_def_cfa 7, 8
	ret
	.cfi_endproc
.LFE15:
	.seh_endproc
	.section	.text$_ZnwyPv,"x"
	.linkonce discard
	.globl	_ZnwyPv
	.def	_ZnwyPv;	.scl	2;	.type	32;	.endef
	.seh_proc	_ZnwyPv
_ZnwyPv:
.LFB220:
	.file 2 "C:/Qt/Tools/mingw1530_64/include/c++/15.3.0/new"
	.loc 2 208 1
	.cfi_startproc
	push	rbp
	.seh_pushreg	rbp
	.cfi_def_cfa_offset 16
	.cfi_offset 6, -16
	mov	rbp, rsp
	.seh_setframe	rbp, 0
	.cfi_def_cfa_register 6
	.seh_endprologue
	mov	QWORD PTR 16[rbp], rcx
	mov	QWORD PTR 24[rbp], rdx
	.loc 2 208 10
	mov	rax, QWORD PTR 24[rbp]
	.loc 2 208 15
	pop	rbp
	.cfi_restore 6
	.cfi_def_cfa 7, 8
	ret
	.cfi_endproc
.LFE220:
	.seh_endproc
	.section	.text$_ZdlPvS_,"x"
	.linkonce discard
	.globl	_ZdlPvS_
	.def	_ZdlPvS_;	.scl	2;	.type	32;	.endef
	.seh_proc	_ZdlPvS_
_ZdlPvS_:
.LFB222:
	.loc 2 219 1
	.cfi_startproc
	push	rbp
	.seh_pushreg	rbp
	.cfi_def_cfa_offset 16
	.cfi_offset 6, -16
	mov	rbp, rsp
	.seh_setframe	rbp, 0
	.cfi_def_cfa_register 6
	.seh_endprologue
	mov	QWORD PTR 16[rbp], rcx
	mov	QWORD PTR 24[rbp], rdx
	.loc 2 219 3
	nop
	pop	rbp
	.cfi_restore 6
	.cfi_def_cfa 7, 8
	ret
	.cfi_endproc
.LFE222:
	.seh_endproc
	.text
	.globl	_Z12explicit_sumRKSt6vectorIlSaIlEE
	.def	_Z12explicit_sumRKSt6vectorIlSaIlEE;	.scl	2;	.type	32;	.endef
	.seh_proc	_Z12explicit_sumRKSt6vectorIlSaIlEE
_Z12explicit_sumRKSt6vectorIlSaIlEE:
.LFB2007:
	.file 3 "Examples/_ch144_auto.cpp"
	.loc 3 7 47
	.cfi_startproc
	push	rbp
	.seh_pushreg	rbp
	.cfi_def_cfa_offset 16
	.cfi_offset 6, -16
	mov	rbp, rsp
	.seh_setframe	rbp, 0
	.cfi_def_cfa_register 6
	sub	rsp, 96
	.seh_stackalloc	96
	.seh_endprologue
	mov	QWORD PTR 16[rbp], rcx
	.loc 3 8 10
	mov	DWORD PTR -4[rbp], 0
.LBB123:
	.loc 3 9 26
	mov	rax, QWORD PTR 16[rbp]
	mov	QWORD PTR -16[rbp], rax
	mov	rax, QWORD PTR -16[rbp]
	mov	rcx, rax
	call	_ZNKSt6vectorIlSaIlEE5beginEv
	mov	QWORD PTR -48[rbp], rax
	.loc 3 9 26 is_stmt 0 discriminator 1
	mov	rax, QWORD PTR -16[rbp]
	mov	rcx, rax
	call	_ZNKSt6vectorIlSaIlEE3endEv
	mov	QWORD PTR -56[rbp], rax
	.loc 3 9 5 is_stmt 1
	jmp	.L7
.L13:
.LBB124:
.LBB125:
	.file 4 "C:/Qt/Tools/mingw1530_64/include/c++/15.3.0/bits/stl_iterator.h"
	.loc 4 1090 17
	mov	rax, QWORD PTR -48[rbp]
.LBE125:
.LBE124:
	.loc 3 9 26 discriminator 8
	mov	QWORD PTR -24[rbp], rax
	.loc 3 9 34 discriminator 8
	mov	rax, QWORD PTR -24[rbp]
	mov	eax, DWORD PTR [rax]
	.loc 3 9 31 discriminator 8
	add	DWORD PTR -4[rbp], eax
.LBB126:
.LBB127:
	.loc 4 1103 4
	mov	rax, QWORD PTR -48[rbp]
	.loc 4 1103 2
	add	rax, 4
	mov	QWORD PTR -48[rbp], rax
	.loc 4 1104 10
	nop
.L7:
	lea	rax, -48[rbp]
	mov	QWORD PTR -32[rbp], rax
.LBE127:
.LBE126:
.LBB128:
.LBB129:
.LBB130:
.LBB131:
	.loc 4 1166 16
	mov	rax, QWORD PTR -32[rbp]
.LBE131:
.LBE130:
	.loc 4 1206 27 discriminator 1
	mov	rdx, QWORD PTR [rax]
	lea	rax, -56[rbp]
	mov	QWORD PTR -40[rbp], rax
.LBB132:
.LBB133:
	.loc 4 1166 16
	mov	rax, QWORD PTR -40[rbp]
.LBE133:
.LBE132:
	.loc 4 1206 27 discriminator 2
	mov	rax, QWORD PTR [rax]
	.loc 4 1206 41 discriminator 2
	cmp	rdx, rax
	sete	al
.LBE129:
.LBE128:
	.loc 3 9 26 discriminator 7
	xor	eax, 1
	test	al, al
	jne	.L13
.LBE123:
	.loc 3 10 12
	mov	eax, DWORD PTR -4[rbp]
	.loc 3 11 1
	add	rsp, 96
	pop	rbp
	.cfi_restore 6
	.cfi_def_cfa 7, 8
	ret
	.cfi_endproc
.LFE2007:
	.seh_endproc
	.globl	_Z8auto_sumRKSt6vectorIlSaIlEE
	.def	_Z8auto_sumRKSt6vectorIlSaIlEE;	.scl	2;	.type	32;	.endef
	.seh_proc	_Z8auto_sumRKSt6vectorIlSaIlEE
_Z8auto_sumRKSt6vectorIlSaIlEE:
.LFB2011:
	.loc 3 14 43
	.cfi_startproc
	push	rbp
	.seh_pushreg	rbp
	.cfi_def_cfa_offset 16
	.cfi_offset 6, -16
	mov	rbp, rsp
	.seh_setframe	rbp, 0
	.cfi_def_cfa_register 6
	sub	rsp, 96
	.seh_stackalloc	96
	.seh_endprologue
	mov	QWORD PTR 16[rbp], rcx
	.loc 3 15 10
	mov	DWORD PTR -4[rbp], 0
.LBB134:
	.loc 3 16 20
	mov	rax, QWORD PTR 16[rbp]
	mov	QWORD PTR -16[rbp], rax
	mov	rax, QWORD PTR -16[rbp]
	mov	rcx, rax
	call	_ZNKSt6vectorIlSaIlEE5beginEv
	mov	QWORD PTR -48[rbp], rax
	.loc 3 16 20 is_stmt 0 discriminator 1
	mov	rax, QWORD PTR -16[rbp]
	mov	rcx, rax
	call	_ZNKSt6vectorIlSaIlEE3endEv
	mov	QWORD PTR -56[rbp], rax
	.loc 3 16 5 is_stmt 1
	jmp	.L16
.L22:
.LBB135:
.LBB136:
	.loc 4 1090 17
	mov	rax, QWORD PTR -48[rbp]
.LBE136:
.LBE135:
	.loc 3 16 20 discriminator 8
	mov	QWORD PTR -24[rbp], rax
	.loc 3 16 28 discriminator 8
	mov	rax, QWORD PTR -24[rbp]
	mov	eax, DWORD PTR [rax]
	.loc 3 16 25 discriminator 8
	add	DWORD PTR -4[rbp], eax
.LBB137:
.LBB138:
	.loc 4 1103 4
	mov	rax, QWORD PTR -48[rbp]
	.loc 4 1103 2
	add	rax, 4
	mov	QWORD PTR -48[rbp], rax
	.loc 4 1104 10
	nop
.L16:
	lea	rax, -48[rbp]
	mov	QWORD PTR -32[rbp], rax
.LBE138:
.LBE137:
.LBB139:
.LBB140:
.LBB141:
.LBB142:
	.loc 4 1166 16
	mov	rax, QWORD PTR -32[rbp]
.LBE142:
.LBE141:
	.loc 4 1206 27 discriminator 1
	mov	rdx, QWORD PTR [rax]
	lea	rax, -56[rbp]
	mov	QWORD PTR -40[rbp], rax
.LBB143:
.LBB144:
	.loc 4 1166 16
	mov	rax, QWORD PTR -40[rbp]
.LBE144:
.LBE143:
	.loc 4 1206 27 discriminator 2
	mov	rax, QWORD PTR [rax]
	.loc 4 1206 41 discriminator 2
	cmp	rdx, rax
	sete	al
.LBE140:
.LBE139:
	.loc 3 16 20 discriminator 7
	xor	eax, 1
	test	al, al
	jne	.L22
.LBE134:
	.loc 3 17 12
	mov	eax, DWORD PTR -4[rbp]
	.loc 3 18 1
	add	rsp, 96
	pop	rbp
	.cfi_restore 6
	.cfi_def_cfa 7, 8
	ret
	.cfi_endproc
.LFE2011:
	.seh_endproc
	.globl	_Z4demov
	.def	_Z4demov;	.scl	2;	.type	32;	.endef
	.seh_proc	_Z4demov
_Z4demov:
.LFB2012:
	.loc 3 20 13
	.cfi_startproc
	push	rbp
	.seh_pushreg	rbp
	.cfi_def_cfa_offset 16
	.cfi_offset 6, -16
	push	rbx
	.seh_pushreg	rbx
	.cfi_def_cfa_offset 24
	.cfi_offset 3, -24
	sub	rsp, 88
	.seh_stackalloc	88
	.cfi_def_cfa_offset 112
	lea	rbp, 80[rsp]
	.seh_setframe	rbp, 80
	.cfi_def_cfa 6, 32
	.seh_endprologue
	lea	rax, -13[rbp]
	mov	QWORD PTR -8[rbp], rax
.LBB145:
.LBB146:
.LBB147:
.LBB148:
.LBB149:
	.file 5 "C:/Qt/Tools/mingw1530_64/include/c++/15.3.0/bits/new_allocator.h"
	.loc 5 88 49
	nop
.LBE149:
.LBE148:
.LBE147:
	.file 6 "C:/Qt/Tools/mingw1530_64/include/c++/15.3.0/bits/allocator.h"
	.loc 6 168 38
	nop
.LBE146:
.LBE145:
	.loc 3 21 31 discriminator 1
	mov	DWORD PTR -12[rbp], 3
	.loc 3 21 32 discriminator 1
	lea	rcx, -13[rbp]
	lea	rdx, -12[rbp]
	lea	rax, -48[rbp]
	mov	r9, rcx
	mov	r8, rdx
	mov	edx, 1024
	mov	rcx, rax
.LEHB0:
	call	_ZNSt6vectorIlSaIlEEC1EyRKlRKS0_
.LEHE0:
.LBB150:
.LBB151:
	.loc 6 189 39
	nop
.LBE151:
.LBE150:
	.loc 3 22 24
	lea	rax, -48[rbp]
	mov	rcx, rax
	call	_Z12explicit_sumRKSt6vectorIlSaIlEE
	mov	ebx, eax
	.loc 3 22 38 discriminator 1
	lea	rax, -48[rbp]
	mov	rcx, rax
	call	_Z8auto_sumRKSt6vectorIlSaIlEE
	.loc 3 22 40 discriminator 2
	add	ebx, eax
	.loc 3 23 1
	lea	rax, -48[rbp]
	mov	rcx, rax
	call	_ZNSt6vectorIlSaIlEED1Ev
	.loc 3 22 40
	mov	eax, ebx
	jmp	.L28
.L27:
.LBB152:
.LBB153:
	.loc 6 189 39
	nop
	mov	rcx, rax
.LEHB1:
	call	_Unwind_Resume
.LEHE1:
.L28:
.LBE153:
.LBE152:
	.loc 3 23 1
	add	rsp, 88
	pop	rbx
	.cfi_restore 3
	pop	rbp
	.cfi_restore 6
	.cfi_def_cfa 7, -72
	ret
	.cfi_endproc
.LFE2012:
	.seh_handler	__gxx_personality_seh0, @unwind, @except
	.seh_handlerdata
.LLSDA2012:
	.byte	0xff
	.byte	0xff
	.byte	0x1
	.uleb128 .LLSDACSE2012-.LLSDACSB2012
.LLSDACSB2012:
	.uleb128 .LEHB0-.LFB2012
	.uleb128 .LEHE0-.LEHB0
	.uleb128 .L27-.LFB2012
	.uleb128 0
	.uleb128 .LEHB1-.LFB2012
	.uleb128 .LEHE1-.LEHB1
	.uleb128 0
	.uleb128 0
.LLSDACSE2012:
	.text
	.seh_endproc
	.section	.text$_ZNKSt6vectorIlSaIlEE5beginEv,"x"
	.linkonce discard
	.align 2
	.globl	_ZNKSt6vectorIlSaIlEE5beginEv
	.def	_ZNKSt6vectorIlSaIlEE5beginEv;	.scl	2;	.type	32;	.endef
	.seh_proc	_ZNKSt6vectorIlSaIlEE5beginEv
_ZNKSt6vectorIlSaIlEE5beginEv:
.LFB2018:
	.file 7 "C:/Qt/Tools/mingw1530_64/include/c++/15.3.0/bits/stl_vector.h"
	.loc 7 1008 7
	.cfi_startproc
	push	rbp
	.seh_pushreg	rbp
	.cfi_def_cfa_offset 16
	.cfi_offset 6, -16
	mov	rbp, rsp
	.seh_setframe	rbp, 0
	.cfi_def_cfa_register 6
	sub	rsp, 16
	.seh_stackalloc	16
	.seh_endprologue
	mov	QWORD PTR 16[rbp], rcx
	.loc 7 1009 45
	mov	rax, QWORD PTR 16[rbp]
	mov	QWORD PTR -8[rbp], rax
.LBB154:
.LBB155:
.LBB156:
	.loc 4 1059 9
	mov	rax, QWORD PTR -8[rbp]
	mov	rax, QWORD PTR [rax]
	mov	QWORD PTR -16[rbp], rax
.LBE156:
	.loc 4 1059 27
	nop
.LBE155:
.LBE154:
	.loc 7 1009 53 discriminator 1
	mov	rax, QWORD PTR -16[rbp]
	.loc 7 1009 56
	add	rsp, 16
	pop	rbp
	.cfi_restore 6
	.cfi_def_cfa 7, 8
	ret
	.cfi_endproc
.LFE2018:
	.seh_endproc
	.section	.text$_ZNKSt6vectorIlSaIlEE3endEv,"x"
	.linkonce discard
	.align 2
	.globl	_ZNKSt6vectorIlSaIlEE3endEv
	.def	_ZNKSt6vectorIlSaIlEE3endEv;	.scl	2;	.type	32;	.endef
	.seh_proc	_ZNKSt6vectorIlSaIlEE3endEv
_ZNKSt6vectorIlSaIlEE3endEv:
.LFB2019:
	.loc 7 1028 7
	.cfi_startproc
	push	rbp
	.seh_pushreg	rbp
	.cfi_def_cfa_offset 16
	.cfi_offset 6, -16
	mov	rbp, rsp
	.seh_setframe	rbp, 0
	.cfi_def_cfa_register 6
	sub	rsp, 16
	.seh_stackalloc	16
	.seh_endprologue
	mov	QWORD PTR 16[rbp], rcx
	.loc 7 1029 45
	mov	rax, QWORD PTR 16[rbp]
	add	rax, 8
	mov	QWORD PTR -8[rbp], rax
.LBB157:
.LBB158:
.LBB159:
	.loc 4 1059 9
	mov	rax, QWORD PTR -8[rbp]
	mov	rax, QWORD PTR [rax]
	mov	QWORD PTR -16[rbp], rax
.LBE159:
	.loc 4 1059 27
	nop
.LBE158:
.LBE157:
	.loc 7 1029 54 discriminator 1
	mov	rax, QWORD PTR -16[rbp]
	.loc 7 1029 57
	add	rsp, 16
	pop	rbp
	.cfi_restore 6
	.cfi_def_cfa 7, 8
	ret
	.cfi_endproc
.LFE2019:
	.seh_endproc
	.section	.text$_ZNSt6vectorIlSaIlEEC1EyRKlRKS0_,"x"
	.linkonce discard
	.align 2
	.globl	_ZNSt6vectorIlSaIlEEC1EyRKlRKS0_
	.def	_ZNSt6vectorIlSaIlEEC1EyRKlRKS0_;	.scl	2;	.type	32;	.endef
	.seh_proc	_ZNSt6vectorIlSaIlEEC1EyRKlRKS0_
_ZNSt6vectorIlSaIlEEC1EyRKlRKS0_:
.LFB2029:
	.loc 7 599 7
	.cfi_startproc
	push	rbp
	.seh_pushreg	rbp
	.cfi_def_cfa_offset 16
	.cfi_offset 6, -16
	push	rbx
	.seh_pushreg	rbx
	.cfi_def_cfa_offset 24
	.cfi_offset 3, -24
	sub	rsp, 40
	.seh_stackalloc	40
	.cfi_def_cfa_offset 64
	lea	rbp, 32[rsp]
	.seh_setframe	rbp, 32
	.cfi_def_cfa 6, 32
	.seh_endprologue
	mov	QWORD PTR 32[rbp], rcx
	mov	QWORD PTR 40[rbp], rdx
	mov	QWORD PTR 48[rbp], r8
	mov	QWORD PTR 56[rbp], r9
.LBB160:
	.loc 7 601 47
	mov	rbx, QWORD PTR 32[rbp]
	mov	rdx, QWORD PTR 56[rbp]
	mov	rax, QWORD PTR 40[rbp]
	mov	rcx, rax
.LEHB2:
	call	_ZNSt6vectorIlSaIlEE17_S_check_init_lenEyRKS0_
	.loc 7 601 47 is_stmt 0 discriminator 1
	mov	rdx, QWORD PTR 56[rbp]
	mov	r8, rdx
	mov	rdx, rax
	mov	rcx, rbx
	call	_ZNSt12_Vector_baseIlSaIlEEC2EyRKS0_
.LEHE2:
	.loc 7 602 27 is_stmt 1
	mov	rcx, QWORD PTR 48[rbp]
	mov	rdx, QWORD PTR 40[rbp]
	mov	rax, QWORD PTR 32[rbp]
	mov	r8, rcx
	mov	rcx, rax
.LEHB3:
	call	_ZNSt6vectorIlSaIlEE18_M_fill_initializeEyRKl
.LEHE3:
.LBE160:
	.loc 7 602 43
	jmp	.L36
.L35:
.LBB161:
	.loc 7 602 43 is_stmt 0 discriminator 2
	mov	rbx, rax
	mov	rax, QWORD PTR 32[rbp]
	mov	rcx, rax
	call	_ZNSt12_Vector_baseIlSaIlEED2Ev
	mov	rax, rbx
	mov	rcx, rax
.LEHB4:
	call	_Unwind_Resume
	nop
.LEHE4:
.L36:
.LBE161:
	.loc 7 602 43
	add	rsp, 40
	pop	rbx
	.cfi_restore 3
	pop	rbp
	.cfi_restore 6
	.cfi_def_cfa 7, -24
	ret
	.cfi_endproc
.LFE2029:
	.seh_handler	__gxx_personality_seh0, @unwind, @except
	.seh_handlerdata
.LLSDA2029:
	.byte	0xff
	.byte	0xff
	.byte	0x1
	.uleb128 .LLSDACSE2029-.LLSDACSB2029
.LLSDACSB2029:
	.uleb128 .LEHB2-.LFB2029
	.uleb128 .LEHE2-.LEHB2
	.uleb128 0
	.uleb128 0
	.uleb128 .LEHB3-.LFB2029
	.uleb128 .LEHE3-.LEHB3
	.uleb128 .L35-.LFB2029
	.uleb128 0
	.uleb128 .LEHB4-.LFB2029
	.uleb128 .LEHE4-.LEHB4
	.uleb128 0
	.uleb128 0
.LLSDACSE2029:
	.section	.text$_ZNSt6vectorIlSaIlEEC1EyRKlRKS0_,"x"
	.linkonce discard
	.seh_endproc
	.section	.text$_ZNSt6vectorIlSaIlEED1Ev,"x"
	.linkonce discard
	.align 2
	.globl	_ZNSt6vectorIlSaIlEED1Ev
	.def	_ZNSt6vectorIlSaIlEED1Ev;	.scl	2;	.type	32;	.endef
	.seh_proc	_ZNSt6vectorIlSaIlEED1Ev
_ZNSt6vectorIlSaIlEED1Ev:
.LFB2032:
	.loc 7 800 7 is_stmt 1
	.cfi_startproc
	push	rbp
	.seh_pushreg	rbp
	.cfi_def_cfa_offset 16
	.cfi_offset 6, -16
	mov	rbp, rsp
	.seh_setframe	rbp, 0
	.cfi_def_cfa_register 6
	sub	rsp, 64
	.seh_stackalloc	64
	.seh_endprologue
	mov	QWORD PTR 16[rbp], rcx
.LBB162:
	.loc 7 803 28
	mov	rax, QWORD PTR 16[rbp]
	mov	rcx, rax
	call	_ZNSt12_Vector_baseIlSaIlEE19_M_get_Tp_allocatorEv
	.loc 7 802 54
	mov	rdx, QWORD PTR 16[rbp]
	mov	rdx, QWORD PTR 8[rdx]
	.loc 7 802 30
	mov	rcx, QWORD PTR 16[rbp]
	mov	rcx, QWORD PTR [rcx]
	mov	QWORD PTR -8[rbp], rcx
	mov	QWORD PTR -16[rbp], rdx
	mov	QWORD PTR -24[rbp], rax
.LBB163:
.LBB164:
	.file 8 "C:/Qt/Tools/mingw1530_64/include/c++/15.3.0/bits/alloc_traits.h"
	.loc 8 1045 20
	mov	rdx, QWORD PTR -16[rbp]
	mov	rax, QWORD PTR -8[rbp]
	mov	rcx, rax
	call	_ZSt8_DestroyIPlEvT_S1_
	.loc 8 1046 5
	nop
.LBE164:
.LBE163:
	.loc 7 805 7
	mov	rax, QWORD PTR 16[rbp]
	mov	rcx, rax
	call	_ZNSt12_Vector_baseIlSaIlEED2Ev
.LBE162:
	nop
	add	rsp, 64
	pop	rbp
	.cfi_restore 6
	.cfi_def_cfa 7, 8
	ret
	.cfi_endproc
.LFE2032:
	.seh_handler	__gxx_personality_seh0, @unwind, @except
	.seh_handlerdata
.LLSDA2032:
	.byte	0xff
	.byte	0xff
	.byte	0x1
	.uleb128 .LLSDACSE2032-.LLSDACSB2032
.LLSDACSB2032:
.LLSDACSE2032:
	.section	.text$_ZNSt6vectorIlSaIlEED1Ev,"x"
	.linkonce discard
	.seh_endproc
	.section .rdata,"dr"
	.align 8
.LC0:
	.ascii "cannot create std::vector larger than max_size()\0"
	.section	.text$_ZNSt6vectorIlSaIlEE17_S_check_init_lenEyRKS0_,"x"
	.linkonce discard
	.globl	_ZNSt6vectorIlSaIlEE17_S_check_init_lenEyRKS0_
	.def	_ZNSt6vectorIlSaIlEE17_S_check_init_lenEyRKS0_;	.scl	2;	.type	32;	.endef
	.seh_proc	_ZNSt6vectorIlSaIlEE17_S_check_init_lenEyRKS0_
_ZNSt6vectorIlSaIlEE17_S_check_init_lenEyRKS0_:
.LFB2039:
	.loc 7 2213 7
	.cfi_startproc
	push	rbp
	.seh_pushreg	rbp
	.cfi_def_cfa_offset 16
	.cfi_offset 6, -16
	mov	rbp, rsp
	.seh_setframe	rbp, 0
	.cfi_def_cfa_register 6
	sub	rsp, 64
	.seh_stackalloc	64
	.seh_endprologue
	mov	QWORD PTR 16[rbp], rcx
	mov	QWORD PTR 24[rbp], rdx
	mov	rax, QWORD PTR 24[rbp]
	mov	QWORD PTR -8[rbp], rax
	lea	rax, -25[rbp]
	mov	QWORD PTR -16[rbp], rax
	mov	rax, QWORD PTR -8[rbp]
	mov	QWORD PTR -24[rbp], rax
.LBB165:
.LBB166:
.LBB167:
.LBB168:
.LBB169:
	.loc 5 92 71
	nop
.LBE169:
.LBE168:
.LBE167:
	.loc 6 173 38
	nop
.LBE166:
.LBE165:
	.loc 7 2215 23 discriminator 1
	lea	rax, -25[rbp]
	mov	rcx, rax
	call	_ZNSt6vectorIlSaIlEE11_S_max_sizeERKS0_
	.loc 7 2215 10 discriminator 2
	cmp	rax, QWORD PTR 16[rbp]
	setb	al
.LBB170:
.LBB171:
	.loc 6 189 39
	nop
.LBE171:
.LBE170:
	.loc 7 2215 2 discriminator 3
	test	al, al
	je	.L39
	.loc 7 2216 24
	lea	rax, .LC0[rip]
	mov	rcx, rax
	call	_ZSt20__throw_length_errorPKc
.L39:
	.loc 7 2218 9
	mov	rax, QWORD PTR 16[rbp]
	.loc 7 2219 7
	add	rsp, 64
	pop	rbp
	.cfi_restore 6
	.cfi_def_cfa 7, 8
	ret
	.cfi_endproc
.LFE2039:
	.seh_endproc
	.section	.text$_ZNSt12_Vector_baseIlSaIlEE12_Vector_implD1Ev,"x"
	.linkonce discard
	.align 2
	.globl	_ZNSt12_Vector_baseIlSaIlEE12_Vector_implD1Ev
	.def	_ZNSt12_Vector_baseIlSaIlEE12_Vector_implD1Ev;	.scl	2;	.type	32;	.endef
	.seh_proc	_ZNSt12_Vector_baseIlSaIlEE12_Vector_implD1Ev
_ZNSt12_Vector_baseIlSaIlEE12_Vector_implD1Ev:
.LFB2043:
	.loc 7 139 14
	.cfi_startproc
	push	rbp
	.seh_pushreg	rbp
	.cfi_def_cfa_offset 16
	.cfi_offset 6, -16
	mov	rbp, rsp
	.seh_setframe	rbp, 0
	.cfi_def_cfa_register 6
	sub	rsp, 16
	.seh_stackalloc	16
	.seh_endprologue
	mov	QWORD PTR 16[rbp], rcx
	mov	rax, QWORD PTR 16[rbp]
	mov	QWORD PTR -8[rbp], rax
.LBB172:
.LBB173:
.LBB174:
	.loc 6 189 39
	nop
.LBE174:
.LBE173:
.LBE172:
	.loc 7 139 14
	nop
	add	rsp, 16
	pop	rbp
	.cfi_restore 6
	.cfi_def_cfa 7, 8
	ret
	.cfi_endproc
.LFE2043:
	.seh_endproc
	.section	.text$_ZNSt12_Vector_baseIlSaIlEEC2EyRKS0_,"x"
	.linkonce discard
	.align 2
	.globl	_ZNSt12_Vector_baseIlSaIlEEC2EyRKS0_
	.def	_ZNSt12_Vector_baseIlSaIlEEC2EyRKS0_;	.scl	2;	.type	32;	.endef
	.seh_proc	_ZNSt12_Vector_baseIlSaIlEEC2EyRKS0_
_ZNSt12_Vector_baseIlSaIlEEC2EyRKS0_:
.LFB2044:
	.loc 7 339 7
	.cfi_startproc
	push	rbp
	.seh_pushreg	rbp
	.cfi_def_cfa_offset 16
	.cfi_offset 6, -16
	push	rbx
	.seh_pushreg	rbx
	.cfi_def_cfa_offset 24
	.cfi_offset 3, -24
	sub	rsp, 40
	.seh_stackalloc	40
	.cfi_def_cfa_offset 64
	lea	rbp, 32[rsp]
	.seh_setframe	rbp, 32
	.cfi_def_cfa 6, 32
	.seh_endprologue
	mov	QWORD PTR 32[rbp], rcx
	mov	QWORD PTR 40[rbp], rdx
	mov	QWORD PTR 48[rbp], r8
.LBB175:
	.loc 7 340 9
	mov	rax, QWORD PTR 32[rbp]
	mov	rdx, QWORD PTR 48[rbp]
	mov	rcx, rax
	call	_ZNSt12_Vector_baseIlSaIlEE12_Vector_implC1ERKS0_
	.loc 7 341 26
	mov	rdx, QWORD PTR 40[rbp]
	mov	rax, QWORD PTR 32[rbp]
	mov	rcx, rax
.LEHB5:
	call	_ZNSt12_Vector_baseIlSaIlEE17_M_create_storageEy
.LEHE5:
.LBE175:
	.loc 7 341 33
	jmp	.L45
.L44:
.LBB176:
	.loc 7 341 33 is_stmt 0 discriminator 2
	mov	rbx, rax
	mov	rax, QWORD PTR 32[rbp]
	mov	rcx, rax
	call	_ZNSt12_Vector_baseIlSaIlEE12_Vector_implD1Ev
	mov	rax, rbx
	mov	rcx, rax
.LEHB6:
	call	_Unwind_Resume
	nop
.LEHE6:
.L45:
.LBE176:
	.loc 7 341 33
	add	rsp, 40
	pop	rbx
	.cfi_restore 3
	pop	rbp
	.cfi_restore 6
	.cfi_def_cfa 7, -24
	ret
	.cfi_endproc
.LFE2044:
	.seh_handler	__gxx_personality_seh0, @unwind, @except
	.seh_handlerdata
.LLSDA2044:
	.byte	0xff
	.byte	0xff
	.byte	0x1
	.uleb128 .LLSDACSE2044-.LLSDACSB2044
.LLSDACSB2044:
	.uleb128 .LEHB5-.LFB2044
	.uleb128 .LEHE5-.LEHB5
	.uleb128 .L44-.LFB2044
	.uleb128 0
	.uleb128 .LEHB6-.LFB2044
	.uleb128 .LEHE6-.LEHB6
	.uleb128 0
	.uleb128 0
.LLSDACSE2044:
	.section	.text$_ZNSt12_Vector_baseIlSaIlEEC2EyRKS0_,"x"
	.linkonce discard
	.seh_endproc
	.section	.text$_ZNSt12_Vector_baseIlSaIlEED2Ev,"x"
	.linkonce discard
	.align 2
	.globl	_ZNSt12_Vector_baseIlSaIlEED2Ev
	.def	_ZNSt12_Vector_baseIlSaIlEED2Ev;	.scl	2;	.type	32;	.endef
	.seh_proc	_ZNSt12_Vector_baseIlSaIlEED2Ev
_ZNSt12_Vector_baseIlSaIlEED2Ev:
.LFB2047:
	.loc 7 373 7 is_stmt 1
	.cfi_startproc
	push	rbp
	.seh_pushreg	rbp
	.cfi_def_cfa_offset 16
	.cfi_offset 6, -16
	mov	rbp, rsp
	.seh_setframe	rbp, 0
	.cfi_def_cfa_register 6
	sub	rsp, 32
	.seh_stackalloc	32
	.seh_endprologue
	mov	QWORD PTR 16[rbp], rcx
.LBB177:
	.loc 7 376 17
	mov	rax, QWORD PTR 16[rbp]
	mov	rdx, QWORD PTR 16[rax]
	.loc 7 376 45
	mov	rax, QWORD PTR 16[rbp]
	mov	rax, QWORD PTR [rax]
	.loc 7 376 35
	sub	rdx, rax
	mov	rax, rdx
	sar	rax, 2
	.loc 7 375 15
	mov	rcx, rax
	mov	rax, QWORD PTR 16[rbp]
	mov	rdx, QWORD PTR [rax]
	mov	rax, QWORD PTR 16[rbp]
	mov	r8, rcx
	mov	rcx, rax
	call	_ZNSt12_Vector_baseIlSaIlEE13_M_deallocateEPly
	.loc 7 377 7
	mov	rax, QWORD PTR 16[rbp]
	mov	rcx, rax
	call	_ZNSt12_Vector_baseIlSaIlEE12_Vector_implD1Ev
.LBE177:
	nop
	add	rsp, 32
	pop	rbp
	.cfi_restore 6
	.cfi_def_cfa 7, 8
	ret
	.cfi_endproc
.LFE2047:
	.seh_handler	__gxx_personality_seh0, @unwind, @except
	.seh_handlerdata
.LLSDA2047:
	.byte	0xff
	.byte	0xff
	.byte	0x1
	.uleb128 .LLSDACSE2047-.LLSDACSB2047
.LLSDACSB2047:
.LLSDACSE2047:
	.section	.text$_ZNSt12_Vector_baseIlSaIlEED2Ev,"x"
	.linkonce discard
	.seh_endproc
	.section	.text$_ZNSt6vectorIlSaIlEE18_M_fill_initializeEyRKl,"x"
	.linkonce discard
	.align 2
	.globl	_ZNSt6vectorIlSaIlEE18_M_fill_initializeEyRKl
	.def	_ZNSt6vectorIlSaIlEE18_M_fill_initializeEyRKl;	.scl	2;	.type	32;	.endef
	.seh_proc	_ZNSt6vectorIlSaIlEE18_M_fill_initializeEyRKl
_ZNSt6vectorIlSaIlEE18_M_fill_initializeEyRKl:
.LFB2049:
	.loc 7 1997 7
	.cfi_startproc
	push	rbp
	.seh_pushreg	rbp
	.cfi_def_cfa_offset 16
	.cfi_offset 6, -16
	mov	rbp, rsp
	.seh_setframe	rbp, 0
	.cfi_def_cfa_register 6
	sub	rsp, 32
	.seh_stackalloc	32
	.seh_endprologue
	mov	QWORD PTR 16[rbp], rcx
	mov	QWORD PTR 24[rbp], rdx
	mov	QWORD PTR 32[rbp], r8
	.loc 7 2001 25
	mov	rax, QWORD PTR 16[rbp]
	mov	rcx, rax
	call	_ZNSt12_Vector_baseIlSaIlEE19_M_get_Tp_allocatorEv
	mov	rcx, rax
	.loc 7 2000 48
	mov	rax, QWORD PTR 16[rbp]
	mov	rax, QWORD PTR [rax]
	.loc 7 2000 33
	mov	r8, QWORD PTR 32[rbp]
	mov	rdx, QWORD PTR 24[rbp]
	mov	r9, rcx
	mov	rcx, rax
	call	_ZSt24__uninitialized_fill_n_aIPlyllET_S1_T0_RKT1_RSaIT2_E
	.loc 7 1999 26
	mov	rdx, QWORD PTR 16[rbp]
	mov	QWORD PTR 8[rdx], rax
	.loc 7 2002 7
	nop
	add	rsp, 32
	pop	rbp
	.cfi_restore 6
	.cfi_def_cfa 7, 8
	ret
	.cfi_endproc
.LFE2049:
	.seh_endproc
	.section	.text$_ZNSt12_Vector_baseIlSaIlEE19_M_get_Tp_allocatorEv,"x"
	.linkonce discard
	.align 2
	.globl	_ZNSt12_Vector_baseIlSaIlEE19_M_get_Tp_allocatorEv
	.def	_ZNSt12_Vector_baseIlSaIlEE19_M_get_Tp_allocatorEv;	.scl	2;	.type	32;	.endef
	.seh_proc	_ZNSt12_Vector_baseIlSaIlEE19_M_get_Tp_allocatorEv
_ZNSt12_Vector_baseIlSaIlEE19_M_get_Tp_allocatorEv:
.LFB2050:
	.loc 7 307 7
	.cfi_startproc
	push	rbp
	.seh_pushreg	rbp
	.cfi_def_cfa_offset 16
	.cfi_offset 6, -16
	mov	rbp, rsp
	.seh_setframe	rbp, 0
	.cfi_def_cfa_register 6
	.seh_endprologue
	mov	QWORD PTR 16[rbp], rcx
	.loc 7 308 22
	mov	rax, QWORD PTR 16[rbp]
	.loc 7 308 31
	pop	rbp
	.cfi_restore 6
	.cfi_def_cfa 7, 8
	ret
	.cfi_endproc
.LFE2050:
	.seh_endproc
	.section	.text$_ZNSt6vectorIlSaIlEE11_S_max_sizeERKS0_,"x"
	.linkonce discard
	.globl	_ZNSt6vectorIlSaIlEE11_S_max_sizeERKS0_
	.def	_ZNSt6vectorIlSaIlEE11_S_max_sizeERKS0_;	.scl	2;	.type	32;	.endef
	.seh_proc	_ZNSt6vectorIlSaIlEE11_S_max_sizeERKS0_
_ZNSt6vectorIlSaIlEE11_S_max_sizeERKS0_:
.LFB2052:
	.loc 7 2222 7
	.cfi_startproc
	push	rbp
	.seh_pushreg	rbp
	.cfi_def_cfa_offset 16
	.cfi_offset 6, -16
	mov	rbp, rsp
	.seh_setframe	rbp, 0
	.cfi_def_cfa_register 6
	sub	rsp, 48
	.seh_stackalloc	48
	.seh_endprologue
	mov	QWORD PTR 16[rbp], rcx
	.loc 7 2227 15
	movabs	rax, 2305843009213693951
	mov	QWORD PTR -8[rbp], rax
	.loc 7 2229 15
	movabs	rax, 4611686018427387903
	mov	QWORD PTR -16[rbp], rax
	.loc 7 2230 19
	lea	rdx, -16[rbp]
	lea	rax, -8[rbp]
	mov	rcx, rax
	call	_ZSt3minIyERKT_S2_S2_
	.loc 7 2230 41 discriminator 1
	mov	rax, QWORD PTR [rax]
	.loc 7 2231 7
	add	rsp, 48
	pop	rbp
	.cfi_restore 6
	.cfi_def_cfa 7, 8
	ret
	.cfi_endproc
.LFE2052:
	.seh_endproc
	.section	.text$_ZNSt12_Vector_baseIlSaIlEE12_Vector_implC1ERKS0_,"x"
	.linkonce discard
	.align 2
	.globl	_ZNSt12_Vector_baseIlSaIlEE12_Vector_implC1ERKS0_
	.def	_ZNSt12_Vector_baseIlSaIlEE12_Vector_implC1ERKS0_;	.scl	2;	.type	32;	.endef
	.seh_proc	_ZNSt12_Vector_baseIlSaIlEE12_Vector_implC1ERKS0_
_ZNSt12_Vector_baseIlSaIlEE12_Vector_implC1ERKS0_:
.LFB2059:
	.loc 7 152 2
	.cfi_startproc
	push	rbp
	.seh_pushreg	rbp
	.cfi_def_cfa_offset 16
	.cfi_offset 6, -16
	mov	rbp, rsp
	.seh_setframe	rbp, 0
	.cfi_def_cfa_register 6
	sub	rsp, 64
	.seh_stackalloc	64
	.seh_endprologue
	mov	QWORD PTR 16[rbp], rcx
	mov	QWORD PTR 24[rbp], rdx
	mov	rax, QWORD PTR 16[rbp]
	mov	QWORD PTR -8[rbp], rax
	mov	rax, QWORD PTR 24[rbp]
	mov	QWORD PTR -16[rbp], rax
	mov	rax, QWORD PTR -8[rbp]
	mov	QWORD PTR -24[rbp], rax
	mov	rax, QWORD PTR -16[rbp]
	mov	QWORD PTR -32[rbp], rax
.LBB178:
.LBB179:
.LBB180:
.LBB181:
.LBB182:
.LBB183:
	.loc 5 92 71
	nop
.LBE183:
.LBE182:
.LBE181:
	.loc 6 173 38
	nop
.LBE180:
.LBE179:
	.loc 7 153 22 discriminator 1
	mov	rax, QWORD PTR 16[rbp]
	mov	rcx, rax
	call	_ZNSt12_Vector_baseIlSaIlEE17_Vector_impl_dataC2Ev
.LBE178:
	.loc 7 154 4
	nop
	add	rsp, 64
	pop	rbp
	.cfi_restore 6
	.cfi_def_cfa 7, 8
	ret
	.cfi_endproc
.LFE2059:
	.seh_endproc
	.section	.text$_ZNSt12_Vector_baseIlSaIlEE17_M_create_storageEy,"x"
	.linkonce discard
	.align 2
	.globl	_ZNSt12_Vector_baseIlSaIlEE17_M_create_storageEy
	.def	_ZNSt12_Vector_baseIlSaIlEE17_M_create_storageEy;	.scl	2;	.type	32;	.endef
	.seh_proc	_ZNSt12_Vector_baseIlSaIlEE17_M_create_storageEy
_ZNSt12_Vector_baseIlSaIlEE17_M_create_storageEy:
.LFB2060:
	.loc 7 403 7
	.cfi_startproc
	push	rbp
	.seh_pushreg	rbp
	.cfi_def_cfa_offset 16
	.cfi_offset 6, -16
	mov	rbp, rsp
	.seh_setframe	rbp, 0
	.cfi_def_cfa_register 6
	sub	rsp, 32
	.seh_stackalloc	32
	.seh_endprologue
	mov	QWORD PTR 16[rbp], rcx
	mov	QWORD PTR 24[rbp], rdx
	.loc 7 405 44
	mov	rdx, QWORD PTR 24[rbp]
	mov	rax, QWORD PTR 16[rbp]
	mov	rcx, rax
	call	_ZNSt12_Vector_baseIlSaIlEE11_M_allocateEy
	.loc 7 405 25 discriminator 1
	mov	rdx, QWORD PTR 16[rbp]
	mov	QWORD PTR [rdx], rax
	.loc 7 406 42
	mov	rax, QWORD PTR 16[rbp]
	mov	rdx, QWORD PTR [rax]
	.loc 7 406 26
	mov	rax, QWORD PTR 16[rbp]
	mov	QWORD PTR 8[rax], rdx
	.loc 7 407 50
	mov	rax, QWORD PTR 16[rbp]
	mov	rax, QWORD PTR [rax]
	.loc 7 407 59
	mov	rdx, QWORD PTR 24[rbp]
	sal	rdx, 2
	add	rdx, rax
	.loc 7 407 34
	mov	rax, QWORD PTR 16[rbp]
	mov	QWORD PTR 16[rax], rdx
	.loc 7 408 7
	nop
	add	rsp, 32
	pop	rbp
	.cfi_restore 6
	.cfi_def_cfa 7, 8
	ret
	.cfi_endproc
.LFE2060:
	.seh_endproc
	.section	.text$_ZNSt12_Vector_baseIlSaIlEE13_M_deallocateEPly,"x"
	.linkonce discard
	.align 2
	.globl	_ZNSt12_Vector_baseIlSaIlEE13_M_deallocateEPly
	.def	_ZNSt12_Vector_baseIlSaIlEE13_M_deallocateEPly;	.scl	2;	.type	32;	.endef
	.seh_proc	_ZNSt12_Vector_baseIlSaIlEE13_M_deallocateEPly
_ZNSt12_Vector_baseIlSaIlEE13_M_deallocateEPly:
.LFB2061:
	.loc 7 392 7
	.cfi_startproc
	push	rbp
	.seh_pushreg	rbp
	.cfi_def_cfa_offset 16
	.cfi_offset 6, -16
	mov	rbp, rsp
	.seh_setframe	rbp, 0
	.cfi_def_cfa_register 6
	sub	rsp, 80
	.seh_stackalloc	80
	.seh_endprologue
	mov	QWORD PTR 16[rbp], rcx
	mov	QWORD PTR 24[rbp], rdx
	mov	QWORD PTR 32[rbp], r8
	.loc 7 395 2
	cmp	QWORD PTR 24[rbp], 0
	je	.L59
	.loc 7 396 20
	mov	rax, QWORD PTR 16[rbp]
	mov	QWORD PTR -8[rbp], rax
	mov	rax, QWORD PTR 24[rbp]
	mov	QWORD PTR -16[rbp], rax
	mov	rax, QWORD PTR 32[rbp]
	mov	QWORD PTR -24[rbp], rax
	mov	rax, QWORD PTR -8[rbp]
	mov	QWORD PTR -32[rbp], rax
	mov	rax, QWORD PTR -16[rbp]
	mov	QWORD PTR -40[rbp], rax
	mov	rax, QWORD PTR -24[rbp]
	mov	QWORD PTR -48[rbp], rax
.LBB184:
.LBB185:
.LBB186:
.LBB187:
.LBB188:
.LBB189:
	.file 9 "C:/Qt/Tools/mingw1530_64/include/c++/15.3.0/x86_64-w64-mingw32/bits/c++config.h"
	.loc 9 586 49
	mov	eax, 0
.LBE189:
.LBE188:
	.loc 6 210 2 discriminator 1
	test	al, al
	je	.L57
	.loc 6 212 23
	mov	rax, QWORD PTR -40[rbp]
	mov	rcx, rax
	call	_ZdlPv
	.loc 6 213 6
	jmp	.L58
.L57:
	.loc 6 215 35
	mov	rcx, QWORD PTR -48[rbp]
	mov	rdx, QWORD PTR -40[rbp]
	mov	rax, QWORD PTR -32[rbp]
	mov	r8, rcx
	mov	rcx, rax
	call	_ZNSt15__new_allocatorIlE10deallocateEPly
.L58:
.LBE187:
.LBE186:
	.loc 8 649 35
	nop
.L59:
.LBE185:
.LBE184:
	.loc 7 397 7
	nop
	add	rsp, 80
	pop	rbp
	.cfi_restore 6
	.cfi_def_cfa 7, 8
	ret
	.cfi_endproc
.LFE2061:
	.seh_endproc
	.section	.text$_ZSt24__uninitialized_fill_n_aIPlyllET_S1_T0_RKT1_RSaIT2_E,"x"
	.linkonce discard
	.globl	_ZSt24__uninitialized_fill_n_aIPlyllET_S1_T0_RKT1_RSaIT2_E
	.def	_ZSt24__uninitialized_fill_n_aIPlyllET_S1_T0_RKT1_RSaIT2_E;	.scl	2;	.type	32;	.endef
	.seh_proc	_ZSt24__uninitialized_fill_n_aIPlyllET_S1_T0_RKT1_RSaIT2_E
_ZSt24__uninitialized_fill_n_aIPlyllET_S1_T0_RKT1_RSaIT2_E:
.LFB2062:
	.file 10 "C:/Qt/Tools/mingw1530_64/include/c++/15.3.0/bits/stl_uninitialized.h"
	.loc 10 747 5
	.cfi_startproc
	push	rbp
	.seh_pushreg	rbp
	.cfi_def_cfa_offset 16
	.cfi_offset 6, -16
	mov	rbp, rsp
	.seh_setframe	rbp, 0
	.cfi_def_cfa_register 6
	sub	rsp, 32
	.seh_stackalloc	32
	.seh_endprologue
	mov	QWORD PTR 16[rbp], rcx
	mov	QWORD PTR 24[rbp], rdx
	mov	QWORD PTR 32[rbp], r8
	mov	QWORD PTR 40[rbp], r9
	.loc 10 751 37
	call	_ZSt21is_constant_evaluatedv
	.loc 10 751 7 discriminator 1
	test	al, al
	je	.L61
	.loc 10 752 32
	mov	rcx, QWORD PTR 32[rbp]
	mov	rdx, QWORD PTR 24[rbp]
	mov	rax, QWORD PTR 16[rbp]
	mov	r8, rcx
	mov	rcx, rax
	call	_ZSt18__do_uninit_fill_nIPlylET_S1_T0_RKT1_
	.loc 10 752 50
	jmp	.L62
.L61:
	.loc 10 754 39
	mov	rcx, QWORD PTR 32[rbp]
	mov	rdx, QWORD PTR 24[rbp]
	mov	rax, QWORD PTR 16[rbp]
	mov	r8, rcx
	mov	rcx, rax
	call	_ZSt20uninitialized_fill_nIPlylET_S1_T0_RKT1_
	.loc 10 754 57
	nop
.L62:
	.loc 10 755 5
	add	rsp, 32
	pop	rbp
	.cfi_restore 6
	.cfi_def_cfa 7, 8
	ret
	.cfi_endproc
.LFE2062:
	.seh_endproc
	.section	.text$_ZSt8_DestroyIPlEvT_S1_,"x"
	.linkonce discard
	.globl	_ZSt8_DestroyIPlEvT_S1_
	.def	_ZSt8_DestroyIPlEvT_S1_;	.scl	2;	.type	32;	.endef
	.seh_proc	_ZSt8_DestroyIPlEvT_S1_
_ZSt8_DestroyIPlEvT_S1_:
.LFB2063:
	.file 11 "C:/Qt/Tools/mingw1530_64/include/c++/15.3.0/bits/stl_construct.h"
	.loc 11 219 5
	.cfi_startproc
	push	rbp
	.seh_pushreg	rbp
	.cfi_def_cfa_offset 16
	.cfi_offset 6, -16
	mov	rbp, rsp
	.seh_setframe	rbp, 0
	.cfi_def_cfa_register 6
	sub	rsp, 48
	.seh_stackalloc	48
	.seh_endprologue
	mov	QWORD PTR 16[rbp], rcx
	mov	QWORD PTR 24[rbp], rdx
.LBB190:
.LBB191:
	.loc 9 586 49
	mov	eax, 0
.LBE191:
.LBE190:
	.loc 11 228 12 discriminator 1
	test	al, al
	je	.L69
	.loc 11 229 2
	jmp	.L66
.L68:
	mov	rax, QWORD PTR 16[rbp]
	mov	QWORD PTR -8[rbp], rax
.LBB192:
.LBB193:
	.file 12 "C:/Qt/Tools/mingw1530_64/include/c++/15.3.0/bits/move.h"
	.loc 12 53 37
	mov	rax, QWORD PTR -8[rbp]
.LBE193:
.LBE192:
	.loc 11 230 19 discriminator 1
	mov	rcx, rax
	call	_ZSt10destroy_atIlEvPT_
	.loc 11 229 2 discriminator 2
	add	QWORD PTR 16[rbp], 4
.L66:
	.loc 11 229 17 discriminator 1
	mov	rax, QWORD PTR 16[rbp]
	cmp	rax, QWORD PTR 24[rbp]
	jne	.L68
.L69:
	.loc 11 236 5
	nop
	add	rsp, 48
	pop	rbp
	.cfi_restore 6
	.cfi_def_cfa 7, 8
	ret
	.cfi_endproc
.LFE2063:
	.seh_endproc
	.section	.text$_ZSt3minIyERKT_S2_S2_,"x"
	.linkonce discard
	.globl	_ZSt3minIyERKT_S2_S2_
	.def	_ZSt3minIyERKT_S2_S2_;	.scl	2;	.type	32;	.endef
	.seh_proc	_ZSt3minIyERKT_S2_S2_
_ZSt3minIyERKT_S2_S2_:
.LFB2065:
	.file 13 "C:/Qt/Tools/mingw1530_64/include/c++/15.3.0/bits/stl_algobase.h"
	.loc 13 234 5
	.cfi_startproc
	push	rbp
	.seh_pushreg	rbp
	.cfi_def_cfa_offset 16
	.cfi_offset 6, -16
	mov	rbp, rsp
	.seh_setframe	rbp, 0
	.cfi_def_cfa_register 6
	.seh_endprologue
	mov	QWORD PTR 16[rbp], rcx
	mov	QWORD PTR 24[rbp], rdx
	.loc 13 239 15
	mov	rax, QWORD PTR 24[rbp]
	mov	rdx, QWORD PTR [rax]
	mov	rax, QWORD PTR 16[rbp]
	mov	rax, QWORD PTR [rax]
	.loc 13 239 7
	cmp	rdx, rax
	jnb	.L71
	.loc 13 240 9
	mov	rax, QWORD PTR 24[rbp]
	jmp	.L72
.L71:
	.loc 13 241 14
	mov	rax, QWORD PTR 16[rbp]
.L72:
	.loc 13 242 5
	pop	rbp
	.cfi_restore 6
	.cfi_def_cfa 7, 8
	ret
	.cfi_endproc
.LFE2065:
	.seh_endproc
	.section	.text$_ZNSt12_Vector_baseIlSaIlEE17_Vector_impl_dataC2Ev,"x"
	.linkonce discard
	.align 2
	.globl	_ZNSt12_Vector_baseIlSaIlEE17_Vector_impl_dataC2Ev
	.def	_ZNSt12_Vector_baseIlSaIlEE17_Vector_impl_dataC2Ev;	.scl	2;	.type	32;	.endef
	.seh_proc	_ZNSt12_Vector_baseIlSaIlEE17_Vector_impl_dataC2Ev
_ZNSt12_Vector_baseIlSaIlEE17_Vector_impl_dataC2Ev:
.LFB2070:
	.loc 7 105 2
	.cfi_startproc
	push	rbp
	.seh_pushreg	rbp
	.cfi_def_cfa_offset 16
	.cfi_offset 6, -16
	mov	rbp, rsp
	.seh_setframe	rbp, 0
	.cfi_def_cfa_register 6
	.seh_endprologue
	mov	QWORD PTR 16[rbp], rcx
.LBB194:
	.loc 7 106 4
	mov	rax, QWORD PTR 16[rbp]
	mov	QWORD PTR [rax], 0
	.loc 7 106 16
	mov	rax, QWORD PTR 16[rbp]
	mov	QWORD PTR 8[rax], 0
	.loc 7 106 29
	mov	rax, QWORD PTR 16[rbp]
	mov	QWORD PTR 16[rax], 0
.LBE194:
	.loc 7 107 4
	nop
	pop	rbp
	.cfi_restore 6
	.cfi_def_cfa 7, 8
	ret
	.cfi_endproc
.LFE2070:
	.seh_endproc
	.section	.text$_ZNSt12_Vector_baseIlSaIlEE11_M_allocateEy,"x"
	.linkonce discard
	.align 2
	.globl	_ZNSt12_Vector_baseIlSaIlEE11_M_allocateEy
	.def	_ZNSt12_Vector_baseIlSaIlEE11_M_allocateEy;	.scl	2;	.type	32;	.endef
	.seh_proc	_ZNSt12_Vector_baseIlSaIlEE11_M_allocateEy
_ZNSt12_Vector_baseIlSaIlEE11_M_allocateEy:
.LFB2072:
	.loc 7 384 7
	.cfi_startproc
	push	rbp
	.seh_pushreg	rbp
	.cfi_def_cfa_offset 16
	.cfi_offset 6, -16
	mov	rbp, rsp
	.seh_setframe	rbp, 0
	.cfi_def_cfa_register 6
	sub	rsp, 64
	.seh_stackalloc	64
	.seh_endprologue
	mov	QWORD PTR 16[rbp], rcx
	mov	QWORD PTR 24[rbp], rdx
	.loc 7 387 18
	cmp	QWORD PTR 24[rbp], 0
	je	.L75
	.loc 7 387 34 discriminator 1
	mov	rax, QWORD PTR 16[rbp]
	mov	QWORD PTR -8[rbp], rax
	mov	rax, QWORD PTR 24[rbp]
	mov	QWORD PTR -16[rbp], rax
	mov	rax, QWORD PTR -8[rbp]
	mov	QWORD PTR -24[rbp], rax
	mov	rax, QWORD PTR -16[rbp]
	mov	QWORD PTR -32[rbp], rax
.LBB195:
.LBB196:
.LBB197:
.LBB198:
.LBB199:
.LBB200:
	.loc 9 586 49
	mov	eax, 0
.LBE200:
.LBE199:
	.loc 6 196 2 discriminator 1
	test	al, al
	je	.L77
	.loc 6 198 32
	mov	rax, QWORD PTR -32[rbp]
	mov	ecx, 0
	lea	rdx, 0[0+rax*4]
	shr	rax, 62
	test	rax, rax
	je	.L78
	mov	ecx, 1
.L78:
	mov	rax, rdx
	.loc 6 198 32 is_stmt 0 discriminator 1
	mov	QWORD PTR -32[rbp], rax
	mov	rax, rcx
	and	eax, 1
	.loc 6 198 6 is_stmt 1 discriminator 1
	test	al, al
	je	.L80
	.loc 6 199 41
	call	_ZSt28__throw_bad_array_new_lengthv
.L80:
	.loc 6 200 45
	mov	rax, QWORD PTR -32[rbp]
	mov	rcx, rax
	call	_Znwy
	.loc 6 200 50
	jmp	.L81
.L77:
	.loc 6 203 40
	mov	rdx, QWORD PTR -32[rbp]
	mov	rax, QWORD PTR -24[rbp]
	mov	r8d, 0
	mov	rcx, rax
	call	_ZNSt15__new_allocatorIlE8allocateEyPKv
	.loc 6 203 47
	nop
.L81:
.LBE198:
.LBE197:
	.loc 8 614 32
	nop
	jmp	.L83
.L75:
.LBE196:
.LBE195:
	.loc 7 387 58 discriminator 2
	mov	eax, 0
.L83:
	.loc 7 388 7
	add	rsp, 64
	pop	rbp
	.cfi_restore 6
	.cfi_def_cfa 7, 8
	ret
	.cfi_endproc
.LFE2072:
	.seh_endproc
	.section	.text$_ZNSt19_UninitDestroyGuardIPlvEC1ERS0_,"x"
	.linkonce discard
	.align 2
	.globl	_ZNSt19_UninitDestroyGuardIPlvEC1ERS0_
	.def	_ZNSt19_UninitDestroyGuardIPlvEC1ERS0_;	.scl	2;	.type	32;	.endef
	.seh_proc	_ZNSt19_UninitDestroyGuardIPlvEC1ERS0_
_ZNSt19_UninitDestroyGuardIPlvEC1ERS0_:
.LFB2077:
	.loc 10 113 7
	.cfi_startproc
	push	rbp
	.seh_pushreg	rbp
	.cfi_def_cfa_offset 16
	.cfi_offset 6, -16
	mov	rbp, rsp
	.seh_setframe	rbp, 0
	.cfi_def_cfa_register 6
	.seh_endprologue
	mov	QWORD PTR 16[rbp], rcx
	mov	QWORD PTR 24[rbp], rdx
.LBB201:
	.loc 10 114 9
	mov	rax, QWORD PTR 24[rbp]
	mov	rdx, QWORD PTR [rax]
	mov	rax, QWORD PTR 16[rbp]
	mov	QWORD PTR [rax], rdx
	.loc 10 114 28
	mov	rax, QWORD PTR 16[rbp]
	mov	rdx, QWORD PTR 24[rbp]
	mov	QWORD PTR 8[rax], rdx
.LBE201:
	.loc 10 115 9
	nop
	pop	rbp
	.cfi_restore 6
	.cfi_def_cfa 7, 8
	ret
	.cfi_endproc
.LFE2077:
	.seh_endproc
	.section	.text$_ZSt18__do_uninit_fill_nIPlylET_S1_T0_RKT1_,"x"
	.linkonce discard
	.globl	_ZSt18__do_uninit_fill_nIPlylET_S1_T0_RKT1_
	.def	_ZSt18__do_uninit_fill_nIPlylET_S1_T0_RKT1_;	.scl	2;	.type	32;	.endef
	.seh_proc	_ZSt18__do_uninit_fill_nIPlylET_S1_T0_RKT1_
_ZSt18__do_uninit_fill_nIPlylET_S1_T0_RKT1_:
.LFB2074:
	.loc 10 455 5
	.cfi_startproc
	push	rbp
	.seh_pushreg	rbp
	.cfi_def_cfa_offset 16
	.cfi_offset 6, -16
	push	rbx
	.seh_pushreg	rbx
	.cfi_def_cfa_offset 24
	.cfi_offset 3, -24
	sub	rsp, 72
	.seh_stackalloc	72
	.cfi_def_cfa_offset 96
	lea	rbp, 64[rsp]
	.seh_setframe	rbp, 64
	.cfi_def_cfa 6, 32
	.seh_endprologue
	mov	QWORD PTR 32[rbp], rcx
	mov	QWORD PTR 40[rbp], rdx
	mov	QWORD PTR 48[rbp], r8
	.loc 10 457 45
	lea	rax, -32[rbp]
	lea	rdx, 32[rbp]
	mov	rcx, rax
	call	_ZNSt19_UninitDestroyGuardIPlvEC1ERS0_
	.loc 10 469 7
	jmp	.L87
.L89:
	.loc 10 470 17
	mov	rax, QWORD PTR 32[rbp]
	mov	QWORD PTR -8[rbp], rax
.LBB202:
.LBB203:
	.loc 12 53 37
	mov	rax, QWORD PTR -8[rbp]
.LBE203:
.LBE202:
	.loc 10 470 17 discriminator 1
	mov	rdx, QWORD PTR 48[rbp]
	mov	rcx, rax
	call	_ZSt10_ConstructIlJRKlEEvPT_DpOT0_
	.loc 10 469 7 discriminator 2
	mov	rax, QWORD PTR 32[rbp]
	add	rax, 4
	mov	QWORD PTR 32[rbp], rax
.L87:
	.loc 10 469 7 is_stmt 0 discriminator 1
	mov	rax, QWORD PTR 40[rbp]
	lea	rdx, -1[rax]
	mov	QWORD PTR 40[rbp], rdx
	test	rax, rax
	setne	al
	test	al, al
	jne	.L89
	.loc 10 471 22 is_stmt 1
	lea	rax, -32[rbp]
	mov	rcx, rax
	call	_ZNSt19_UninitDestroyGuardIPlvE7releaseEv
	.loc 10 472 14
	mov	rbx, QWORD PTR 32[rbp]
	.loc 10 473 5
	lea	rax, -32[rbp]
	mov	rcx, rax
	call	_ZNSt19_UninitDestroyGuardIPlvED1Ev
	.loc 10 472 14
	mov	rax, rbx
	.loc 10 473 5
	add	rsp, 72
	pop	rbx
	.cfi_restore 3
	pop	rbp
	.cfi_restore 6
	.cfi_def_cfa 7, -56
	ret
	.cfi_endproc
.LFE2074:
	.seh_endproc
	.section	.text$_ZSt20uninitialized_fill_nIPlylET_S1_T0_RKT1_,"x"
	.linkonce discard
	.globl	_ZSt20uninitialized_fill_nIPlylET_S1_T0_RKT1_
	.def	_ZSt20uninitialized_fill_nIPlylET_S1_T0_RKT1_;	.scl	2;	.type	32;	.endef
	.seh_proc	_ZSt20uninitialized_fill_nIPlylET_S1_T0_RKT1_
_ZSt20uninitialized_fill_nIPlylET_S1_T0_RKT1_:
.LFB2078:
	.loc 10 526 5
	.cfi_startproc
	push	rbp
	.seh_pushreg	rbp
	.cfi_def_cfa_offset 16
	.cfi_offset 6, -16
	mov	rbp, rsp
	.seh_setframe	rbp, 0
	.cfi_def_cfa_register 6
	sub	rsp, 32
	.seh_stackalloc	32
	.seh_endprologue
	mov	QWORD PTR 16[rbp], rcx
	mov	QWORD PTR 24[rbp], rdx
	mov	QWORD PTR 32[rbp], r8
	.loc 10 571 37
	mov	rcx, QWORD PTR 32[rbp]
	mov	rdx, QWORD PTR 24[rbp]
	mov	rax, QWORD PTR 16[rbp]
	mov	r8, rcx
	mov	rcx, rax
	call	_ZSt18__do_uninit_fill_nIPlylET_S1_T0_RKT1_
	.loc 10 580 5
	add	rsp, 32
	pop	rbp
	.cfi_restore 6
	.cfi_def_cfa 7, 8
	ret
	.cfi_endproc
.LFE2078:
	.seh_endproc
	.section	.text$_ZSt10destroy_atIlEvPT_,"x"
	.linkonce discard
	.globl	_ZSt10destroy_atIlEvPT_
	.def	_ZSt10destroy_atIlEvPT_;	.scl	2;	.type	32;	.endef
	.seh_proc	_ZSt10destroy_atIlEvPT_
_ZSt10destroy_atIlEvPT_:
.LFB2080:
	.loc 11 80 5
	.cfi_startproc
	push	rbp
	.seh_pushreg	rbp
	.cfi_def_cfa_offset 16
	.cfi_offset 6, -16
	mov	rbp, rsp
	.seh_setframe	rbp, 0
	.cfi_def_cfa_register 6
	.seh_endprologue
	mov	QWORD PTR 16[rbp], rcx
	.loc 11 89 5
	nop
	pop	rbp
	.cfi_restore 6
	.cfi_def_cfa 7, 8
	ret
	.cfi_endproc
.LFE2080:
	.seh_endproc
	.section	.text$_ZNSt19_UninitDestroyGuardIPlvED1Ev,"x"
	.linkonce discard
	.align 2
	.globl	_ZNSt19_UninitDestroyGuardIPlvED1Ev
	.def	_ZNSt19_UninitDestroyGuardIPlvED1Ev;	.scl	2;	.type	32;	.endef
	.seh_proc	_ZNSt19_UninitDestroyGuardIPlvED1Ev
_ZNSt19_UninitDestroyGuardIPlvED1Ev:
.LFB2085:
	.loc 10 118 7
	.cfi_startproc
	push	rbp
	.seh_pushreg	rbp
	.cfi_def_cfa_offset 16
	.cfi_offset 6, -16
	mov	rbp, rsp
	.seh_setframe	rbp, 0
	.cfi_def_cfa_register 6
	sub	rsp, 32
	.seh_stackalloc	32
	.seh_endprologue
	mov	QWORD PTR 16[rbp], rcx
.LBB204:
	.loc 10 120 23
	mov	rax, QWORD PTR 16[rbp]
	mov	rax, QWORD PTR 8[rax]
	.loc 10 120 30
	test	rax, rax
	setne	al
	.loc 10 120 22
	movzx	eax, al
	.loc 10 120 2 discriminator 1
	test	eax, eax
	je	.L96
	.loc 10 121 29
	mov	rax, QWORD PTR 16[rbp]
	mov	rax, QWORD PTR 8[rax]
	.loc 10 121 17
	mov	rdx, QWORD PTR [rax]
	.loc 10 121 18
	mov	rax, QWORD PTR 16[rbp]
	mov	rax, QWORD PTR [rax]
	.loc 10 121 17
	mov	rcx, rax
	call	_ZSt8_DestroyIPlEvT_S1_
.L96:
.LBE204:
	.loc 10 122 7
	nop
	add	rsp, 32
	pop	rbp
	.cfi_restore 6
	.cfi_def_cfa 7, 8
	ret
	.cfi_endproc
.LFE2085:
	.seh_endproc
	.section	.text$_ZSt10_ConstructIlJRKlEEvPT_DpOT0_,"x"
	.linkonce discard
	.globl	_ZSt10_ConstructIlJRKlEEvPT_DpOT0_
	.def	_ZSt10_ConstructIlJRKlEEvPT_DpOT0_;	.scl	2;	.type	32;	.endef
	.seh_proc	_ZSt10_ConstructIlJRKlEEvPT_DpOT0_
_ZSt10_ConstructIlJRKlEEvPT_DpOT0_:
.LFB2086:
	.loc 11 123 5
	.cfi_startproc
	push	rbp
	.seh_pushreg	rbp
	.cfi_def_cfa_offset 16
	.cfi_offset 6, -16
	push	rbx
	.seh_pushreg	rbx
	.cfi_def_cfa_offset 24
	.cfi_offset 3, -24
	sub	rsp, 56
	.seh_stackalloc	56
	.cfi_def_cfa_offset 80
	lea	rbp, 48[rsp]
	.seh_setframe	rbp, 48
	.cfi_def_cfa 6, 32
	.seh_endprologue
	mov	QWORD PTR 32[rbp], rcx
	mov	QWORD PTR 40[rbp], rdx
.LBB205:
.LBB206:
	.loc 9 586 49
	mov	eax, 0
.LBE206:
.LBE205:
	.loc 11 126 7 discriminator 1
	test	al, al
	je	.L99
	mov	rax, QWORD PTR 40[rbp]
	mov	QWORD PTR -8[rbp], rax
.LBB207:
.LBB208:
	.loc 12 73 36
	mov	rdx, QWORD PTR -8[rbp]
.LBE208:
.LBE207:
	.loc 11 129 21 discriminator 1
	mov	rax, QWORD PTR 32[rbp]
	mov	rcx, rax
	call	_ZSt12construct_atIlJRKlEQaant20is_unbounded_array_vIT_ErqXgsnwcvPvLi0E_S2_pispcl7declvalIT0_EEEEEPS2_S5_DpOS4_
	.loc 11 130 4
	jmp	.L97
.L99:
	.loc 11 133 13
	mov	rbx, QWORD PTR 32[rbp]
	.loc 11 133 7
	mov	rdx, rbx
	mov	ecx, 4
	call	_ZnwyPv
	mov	rdx, QWORD PTR 40[rbp]
	mov	QWORD PTR -16[rbp], rdx
.LBB209:
.LBB210:
	.loc 12 73 36
	mov	rdx, QWORD PTR -16[rbp]
.LBE210:
.LBE209:
	.loc 11 133 7 discriminator 2
	mov	edx, DWORD PTR [rdx]
	mov	DWORD PTR [rax], edx
	mov	edx, 0
	test	dl, dl
	je	.L97
	.loc 11 133 7 is_stmt 0 discriminator 3
	mov	rdx, rbx
	mov	rcx, rax
	call	_ZdlPvS_
	nop
.L97:
	.loc 11 134 5 is_stmt 1
	add	rsp, 56
	pop	rbx
	.cfi_restore 3
	pop	rbp
	.cfi_restore 6
	.cfi_def_cfa 7, -40
	ret
	.cfi_endproc
.LFE2086:
	.seh_endproc
	.section	.text$_ZNSt19_UninitDestroyGuardIPlvE7releaseEv,"x"
	.linkonce discard
	.align 2
	.globl	_ZNSt19_UninitDestroyGuardIPlvE7releaseEv
	.def	_ZNSt19_UninitDestroyGuardIPlvE7releaseEv;	.scl	2;	.type	32;	.endef
	.seh_proc	_ZNSt19_UninitDestroyGuardIPlvE7releaseEv
_ZNSt19_UninitDestroyGuardIPlvE7releaseEv:
.LFB2087:
	.loc 10 125 12
	.cfi_startproc
	push	rbp
	.seh_pushreg	rbp
	.cfi_def_cfa_offset 16
	.cfi_offset 6, -16
	mov	rbp, rsp
	.seh_setframe	rbp, 0
	.cfi_def_cfa_register 6
	.seh_endprologue
	mov	QWORD PTR 16[rbp], rcx
	.loc 10 125 31
	mov	rax, QWORD PTR 16[rbp]
	mov	QWORD PTR 8[rax], 0
	.loc 10 125 36
	nop
	pop	rbp
	.cfi_restore 6
	.cfi_def_cfa 7, 8
	ret
	.cfi_endproc
.LFE2087:
	.seh_endproc
	.section	.text$_ZNSt15__new_allocatorIlE10deallocateEPly,"x"
	.linkonce discard
	.align 2
	.globl	_ZNSt15__new_allocatorIlE10deallocateEPly
	.def	_ZNSt15__new_allocatorIlE10deallocateEPly;	.scl	2;	.type	32;	.endef
	.seh_proc	_ZNSt15__new_allocatorIlE10deallocateEPly
_ZNSt15__new_allocatorIlE10deallocateEPly:
.LFB2089:
	.loc 5 156 7
	.cfi_startproc
	push	rbp
	.seh_pushreg	rbp
	.cfi_def_cfa_offset 16
	.cfi_offset 6, -16
	mov	rbp, rsp
	.seh_setframe	rbp, 0
	.cfi_def_cfa_register 6
	sub	rsp, 32
	.seh_stackalloc	32
	.seh_endprologue
	mov	QWORD PTR 16[rbp], rcx
	mov	QWORD PTR 24[rbp], rdx
	mov	QWORD PTR 32[rbp], r8
	.loc 5 172 59
	mov	rax, QWORD PTR 32[rbp]
	lea	rdx, 0[0+rax*4]
	mov	rax, QWORD PTR 24[rbp]
	mov	rcx, rax
	call	_ZdlPvy
	nop
	.loc 5 173 7
	add	rsp, 32
	pop	rbp
	.cfi_restore 6
	.cfi_def_cfa 7, 8
	ret
	.cfi_endproc
.LFE2089:
	.seh_endproc
	.section	.text$_ZSt12construct_atIlJRKlEQaant20is_unbounded_array_vIT_ErqXgsnwcvPvLi0E_S2_pispcl7declvalIT0_EEEEEPS2_S5_DpOS4_,"x"
	.linkonce discard
	.globl	_ZSt12construct_atIlJRKlEQaant20is_unbounded_array_vIT_ErqXgsnwcvPvLi0E_S2_pispcl7declvalIT0_EEEEEPS2_S5_DpOS4_
	.def	_ZSt12construct_atIlJRKlEQaant20is_unbounded_array_vIT_ErqXgsnwcvPvLi0E_S2_pispcl7declvalIT0_EEEEEPS2_S5_DpOS4_;	.scl	2;	.type	32;	.endef
	.seh_proc	_ZSt12construct_atIlJRKlEQaant20is_unbounded_array_vIT_ErqXgsnwcvPvLi0E_S2_pispcl7declvalIT0_EEEEEPS2_S5_DpOS4_
_ZSt12construct_atIlJRKlEQaant20is_unbounded_array_vIT_ErqXgsnwcvPvLi0E_S2_pispcl7declvalIT0_EEEEEPS2_S5_DpOS4_:
.LFB2091:
	.loc 11 96 5
	.cfi_startproc
	push	rbp
	.seh_pushreg	rbp
	.cfi_def_cfa_offset 16
	.cfi_offset 6, -16
	push	rsi
	.seh_pushreg	rsi
	.cfi_def_cfa_offset 24
	.cfi_offset 4, -24
	push	rbx
	.seh_pushreg	rbx
	.cfi_def_cfa_offset 32
	.cfi_offset 3, -32
	sub	rsp, 48
	.seh_stackalloc	48
	.cfi_def_cfa_offset 80
	lea	rbp, 48[rsp]
	.seh_setframe	rbp, 48
	.cfi_def_cfa 6, 32
	.seh_endprologue
	mov	QWORD PTR 32[rbp], rcx
	mov	QWORD PTR 40[rbp], rdx
	.loc 11 99 13
	mov	rax, QWORD PTR 32[rbp]
	mov	QWORD PTR -8[rbp], rax
	.loc 11 110 15
	mov	rsi, QWORD PTR -8[rbp]
	.loc 11 110 9
	mov	rdx, rsi
	mov	ecx, 4
	call	_ZnwyPv
	mov	rbx, rax
	mov	rax, QWORD PTR 40[rbp]
	mov	QWORD PTR -16[rbp], rax
.LBB211:
.LBB212:
	.loc 12 73 36
	mov	rax, QWORD PTR -16[rbp]
.LBE212:
.LBE211:
	.loc 11 110 9 discriminator 2
	mov	eax, DWORD PTR [rax]
	mov	DWORD PTR [rbx], eax
	.loc 11 110 56 discriminator 2
	mov	eax, 0
	.loc 11 110 56 is_stmt 0 discriminator 3
	test	al, al
	je	.L109
	.loc 11 110 9 is_stmt 1 discriminator 4
	mov	rdx, rsi
	mov	rcx, rbx
	call	_ZdlPvS_
.L109:
	.loc 11 110 56 discriminator 8
	mov	rax, rbx
	.loc 11 111 5
	add	rsp, 48
	pop	rbx
	.cfi_restore 3
	pop	rsi
	.cfi_restore 4
	pop	rbp
	.cfi_restore 6
	.cfi_def_cfa 7, -24
	ret
	.cfi_endproc
.LFE2091:
	.seh_endproc
	.weak	_ZSt12construct_atIlJRKlEEPT_S3_DpOT0_
	.def	_ZSt12construct_atIlJRKlEEPT_S3_DpOT0_;	.scl	2;	.type	32;	.endef
	.set	_ZSt12construct_atIlJRKlEEPT_S3_DpOT0_,_ZSt12construct_atIlJRKlEQaant20is_unbounded_array_vIT_ErqXgsnwcvPvLi0E_S2_pispcl7declvalIT0_EEEEEPS2_S5_DpOS4_
	.section	.text$_ZNSt15__new_allocatorIlE8allocateEyPKv,"x"
	.linkonce discard
	.align 2
	.globl	_ZNSt15__new_allocatorIlE8allocateEyPKv
	.def	_ZNSt15__new_allocatorIlE8allocateEyPKv;	.scl	2;	.type	32;	.endef
	.seh_proc	_ZNSt15__new_allocatorIlE8allocateEyPKv
_ZNSt15__new_allocatorIlE8allocateEyPKv:
.LFB2092:
	.loc 5 126 7
	.cfi_startproc
	push	rbp
	.seh_pushreg	rbp
	.cfi_def_cfa_offset 16
	.cfi_offset 6, -16
	mov	rbp, rsp
	.seh_setframe	rbp, 0
	.cfi_def_cfa_register 6
	sub	rsp, 48
	.seh_stackalloc	48
	.seh_endprologue
	mov	QWORD PTR 16[rbp], rcx
	mov	QWORD PTR 24[rbp], rdx
	mov	QWORD PTR 32[rbp], r8
	mov	rax, QWORD PTR 16[rbp]
	mov	QWORD PTR -8[rbp], rax
.LBB213:
.LBB214:
	.loc 5 233 50
	movabs	rax, 2305843009213693951
.LBE214:
.LBE213:
	.loc 5 134 27 discriminator 1
	cmp	rax, QWORD PTR 24[rbp]
	setb	al
	.loc 5 134 22 discriminator 1
	movzx	eax, al
	.loc 5 134 22 is_stmt 0 discriminator 2
	test	eax, eax
	setne	al
	.loc 5 134 2 is_stmt 1 discriminator 2
	test	al, al
	je	.L112
	.loc 5 138 6
	movabs	rax, 4611686018427387903
	cmp	rax, QWORD PTR 24[rbp]
	jnb	.L113
	.loc 5 139 41
	call	_ZSt28__throw_bad_array_new_lengthv
.L113:
	.loc 5 140 28
	call	_ZSt17__throw_bad_allocv
.L112:
	.loc 5 151 66
	mov	rax, QWORD PTR 24[rbp]
	sal	rax, 2
	mov	rcx, rax
	call	_Znwy
	.loc 5 151 67
	nop
	.loc 5 152 7
	add	rsp, 48
	pop	rbp
	.cfi_restore 6
	.cfi_def_cfa 7, 8
	ret
	.cfi_endproc
.LFE2092:
	.seh_endproc
	.text
.Letext0:
	.file 14 "C:/Qt/Tools/mingw1530_64/include/c++/15.3.0/bits/utility.h"
	.file 15 "C:/Qt/Tools/mingw1530_64/include/c++/15.3.0/concepts"
	.file 16 "C:/Qt/Tools/mingw1530_64/include/c++/15.3.0/bits/iterator_concepts.h"
	.file 17 "C:/Qt/Tools/mingw1530_64/include/c++/15.3.0/compare"
	.file 18 "C:/Qt/Tools/mingw1530_64/include/c++/15.3.0/debug/debug.h"
	.file 19 "C:/Qt/Tools/mingw1530_64/include/c++/15.3.0/numbers"
	.file 20 "C:/Qt/Tools/mingw1530_64/include/c++/15.3.0/bits/memory_resource.h"
	.file 21 "C:/Qt/Tools/mingw1530_64/include/c++/15.3.0/cstddef"
	.file 22 "C:/Qt/Tools/mingw1530_64/include/c++/15.3.0/bits/vector.tcc"
	.file 23 "C:/Qt/Tools/mingw1530_64/include/c++/15.3.0/initializer_list"
	.file 24 "C:/Qt/Tools/mingw1530_64/include/c++/15.3.0/bits/stl_iterator_base_types.h"
	.file 25 "C:/Qt/Tools/mingw1530_64/include/c++/15.3.0/bits/functexcept.h"
	.file 26 "C:/Qt/Tools/mingw1530_64/include/c++/15.3.0/bits/predefined_ops.h"
	.file 27 "C:/Qt/Tools/mingw1530_64/include/c++/15.3.0/ext/alloc_traits.h"
	.file 28 "C:/Qt/Tools/mingw1530_64/include/c++/15.3.0/bits/ptr_traits.h"
	.file 29 "C:/Qt/Tools/mingw1530_64/x86_64-w64-mingw32/include/stddef.h"
	.file 30 "C:/Qt/Tools/mingw1530_64/include/c++/15.3.0/pstl/execution_defs.h"