	.file	"_ch143_soa_loop.cpp"
	.intel_syntax noprefix
	.text
.Ltext0:
	.cfi_sections	.debug_frame
	.file 0 "C:/CodeLearnling/note/note/C++/CPP-Bible" "Examples/_ch143_soa_loop.cpp"
	.globl	_Z8step_soa3SoAif
	.def	_Z8step_soa3SoAif;	.scl	2;	.type	32;	.endef
	.seh_proc	_Z8step_soa3SoAif
_Z8step_soa3SoAif:
.LFB0:
	.file 1 "Examples/_ch143_soa_loop.cpp"
	.loc 1 4 40
	.cfi_startproc
	push	rbp
	.seh_pushreg	rbp
	.cfi_def_cfa_offset 16
	.cfi_offset 6, -16
	push	rbx
	.seh_pushreg	rbx
	.cfi_def_cfa_offset 24
	.cfi_offset 3, -24
	sub	rsp, 24
	.seh_stackalloc	24
	.cfi_def_cfa_offset 48
	lea	rbp, 16[rsp]
	.seh_setframe	rbp, 16
	.cfi_def_cfa 6, 32
	.seh_endprologue
	mov	rbx, rcx
	mov	DWORD PTR 40[rbp], edx
	movss	DWORD PTR 48[rbp], xmm2
	.loc 1 5 11
	pxor	xmm0, xmm0
	movss	DWORD PTR -4[rbp], xmm0
.LBB2:
	.loc 1 6 14
	mov	DWORD PTR -8[rbp], 0
	.loc 1 6 5
	jmp	.L2
.L3:
	.loc 1 7 11
	mov	rax, QWORD PTR [rbx]
	.loc 1 7 14
	mov	edx, DWORD PTR -8[rbp]
	movsxd	rdx, edx
	sal	rdx, 2
	add	rax, rdx
	movss	xmm1, DWORD PTR [rax]
	.loc 1 7 21
	mov	rax, QWORD PTR 16[rbx]
	.loc 1 7 24
	mov	edx, DWORD PTR -8[rbp]
	movsxd	rdx, edx
	.loc 1 7 25
	sal	rdx, 2
	add	rax, rdx
	movss	xmm0, DWORD PTR [rax]
	.loc 1 7 27
	mulss	xmm0, DWORD PTR 48[rbp]
	.loc 1 7 11
	mov	rax, QWORD PTR [rbx]
	.loc 1 7 14
	mov	edx, DWORD PTR -8[rbp]
	movsxd	rdx, edx
	sal	rdx, 2
	add	rax, rdx
	.loc 1 7 16
	addss	xmm0, xmm1
	movss	DWORD PTR [rax], xmm0
	.loc 1 8 11
	mov	rax, QWORD PTR 8[rbx]
	.loc 1 8 14
	mov	edx, DWORD PTR -8[rbp]
	movsxd	rdx, edx
	sal	rdx, 2
	add	rax, rdx
	movss	xmm1, DWORD PTR [rax]
	.loc 1 8 21
	mov	rax, QWORD PTR 24[rbx]
	.loc 1 8 24
	mov	edx, DWORD PTR -8[rbp]
	movsxd	rdx, edx
	.loc 1 8 25
	sal	rdx, 2
	add	rax, rdx
	movss	xmm0, DWORD PTR [rax]
	.loc 1 8 27
	mulss	xmm0, DWORD PTR 48[rbp]
	.loc 1 8 11
	mov	rax, QWORD PTR 8[rbx]
	.loc 1 8 14
	mov	edx, DWORD PTR -8[rbp]
	movsxd	rdx, edx
	sal	rdx, 2
	add	rax, rdx
	.loc 1 8 16
	addss	xmm0, xmm1
	movss	DWORD PTR [rax], xmm0
	.loc 1 9 16
	mov	rax, QWORD PTR [rbx]
	.loc 1 9 18
	mov	edx, DWORD PTR -8[rbp]
	movsxd	rdx, edx
	.loc 1 9 19
	sal	rdx, 2
	add	rax, rdx
	movss	xmm0, DWORD PTR [rax]
	.loc 1 9 11
	movss	xmm1, DWORD PTR -4[rbp]
	addss	xmm0, xmm1
	movss	DWORD PTR -4[rbp], xmm0
	.loc 1 6 5 discriminator 3
	add	DWORD PTR -8[rbp], 1
.L2:
	.loc 1 6 23 discriminator 1
	mov	eax, DWORD PTR -8[rbp]
	cmp	eax, DWORD PTR 40[rbp]
	jl	.L3
.LBE2:
	.loc 1 11 12
	movss	xmm0, DWORD PTR -4[rbp]
	.loc 1 12 1
	add	rsp, 24
	pop	rbx
	.cfi_restore 3
	pop	rbp
	.cfi_restore 6
	.cfi_def_cfa 7, -8
	ret
	.cfi_endproc
.LFE0:
	.seh_endproc
.Letext0: