	.file	"_ch144_smartptr.cpp"
	.intel_syntax noprefix
	.text
.Ltext0:
	.cfi_sections	.debug_frame
	.file 0 "C:/CodeLearnling/note/note/C++/CPP-Bible" "Examples/_ch144_smartptr.cpp"
	.section	.text$_ZN10ConnectionC1Ei,"x"
	.linkonce discard
	.align 2
	.globl	_ZN10ConnectionC1Ei
	.def	_ZN10ConnectionC1Ei;	.scl	2;	.type	32;	.endef
	.seh_proc	_ZN10ConnectionC1Ei
_ZN10ConnectionC1Ei:
.LFB3512:
	.file 1 "Examples/_ch144_smartptr.cpp"
	.loc 1 8 14
	.cfi_startproc
	push	rbp
	.seh_pushreg	rbp
	.cfi_def_cfa_offset 16
	.cfi_offset 6, -16
	mov	rbp, rsp
	.seh_setframe	rbp, 0
	.cfi_def_cfa_register 6
	.seh_endprologue
	mov	QWORD PTR 16[rbp], rcx
	mov	DWORD PTR 24[rbp], edx
.LBB13:
	.loc 1 8 34
	mov	rax, QWORD PTR 16[rbp]
	mov	edx, DWORD PTR 24[rbp]
	mov	DWORD PTR [rax], edx
.LBE13:
	.loc 1 8 41
	nop
	pop	rbp
	.cfi_restore 6
	.cfi_def_cfa 7, 8
	ret
	.cfi_endproc
.LFE3512:
	.seh_endproc
	.section	.text$_ZN10ConnectionD1Ev,"x"
	.linkonce discard
	.align 2
	.globl	_ZN10ConnectionD1Ev
	.def	_ZN10ConnectionD1Ev;	.scl	2;	.type	32;	.endef
	.seh_proc	_ZN10ConnectionD1Ev
_ZN10ConnectionD1Ev:
.LFB3515:
	.loc 1 9 5
	.cfi_startproc
	push	rbp
	.seh_pushreg	rbp
	.cfi_def_cfa_offset 16
	.cfi_offset 6, -16
	mov	rbp, rsp
	.seh_setframe	rbp, 0
	.cfi_def_cfa_register 6
	.seh_endprologue
	mov	QWORD PTR 16[rbp], rcx
	.loc 1 9 37
	nop
	pop	rbp
	.cfi_restore 6
	.cfi_def_cfa 7, 8
	ret
	.cfi_endproc
.LFE3515:
	.seh_endproc
	.text
	.globl	_Z4openi
	.def	_Z4openi;	.scl	2;	.type	32;	.endef
	.seh_proc	_Z4openi
_Z4openi:
.LFB3525:
	.loc 1 12 42
	.cfi_startproc
	push	rbp
	.seh_pushreg	rbp
	.cfi_def_cfa_offset 16
	.cfi_offset 6, -16
	mov	rbp, rsp
	.seh_setframe	rbp, 0
	.cfi_def_cfa_register 6
	sub	rsp, 32
	.seh_stackalloc	32
	.seh_endprologue
	mov	QWORD PTR 16[rbp], rcx
	mov	DWORD PTR 24[rbp], edx
	.loc 1 13 43
	mov	rax, QWORD PTR 16[rbp]
	lea	rdx, 24[rbp]
	mov	rcx, rax
	call	_ZSt11make_uniqueI10ConnectionJRiEENSt8__detail9_MakeUniqIT_E15__single_objectEDpOT0_
	.loc 1 14 1
	mov	rax, QWORD PTR 16[rbp]
	add	rsp, 32
	pop	rbp
	.cfi_restore 6
	.cfi_def_cfa 7, 8
	ret
	.cfi_endproc
.LFE3525:
	.seh_endproc
	.section	.text$_ZNSt15__uniq_ptr_dataI10ConnectionSt14default_deleteIS0_ELb1ELb1EEC1EOS3_,"x"
	.linkonce discard
	.align 2
	.globl	_ZNSt15__uniq_ptr_dataI10ConnectionSt14default_deleteIS0_ELb1ELb1EEC1EOS3_
	.def	_ZNSt15__uniq_ptr_dataI10ConnectionSt14default_deleteIS0_ELb1ELb1EEC1EOS3_;	.scl	2;	.type	32;	.endef
	.seh_proc	_ZNSt15__uniq_ptr_dataI10ConnectionSt14default_deleteIS0_ELb1ELb1EEC1EOS3_
_ZNSt15__uniq_ptr_dataI10ConnectionSt14default_deleteIS0_ELb1ELb1EEC1EOS3_:
.LFB3530:
	.file 2 "C:/Qt/Tools/mingw1530_64/include/c++/15.3.0/bits/unique_ptr.h"
	.loc 2 235 7
	.cfi_startproc
	push	rbp
	.seh_pushreg	rbp
	.cfi_def_cfa_offset 16
	.cfi_offset 6, -16
	mov	rbp, rsp
	.seh_setframe	rbp, 0
	.cfi_def_cfa_register 6
	sub	rsp, 32
	.seh_stackalloc	32
	.seh_endprologue
	mov	QWORD PTR 16[rbp], rcx
	mov	QWORD PTR 24[rbp], rdx
.LBB14:
	.loc 2 235 7
	mov	rax, QWORD PTR 16[rbp]
	mov	rdx, QWORD PTR 24[rbp]
	mov	rcx, rax
	call	_ZNSt15__uniq_ptr_implI10ConnectionSt14default_deleteIS0_EEC2EOS3_
.LBE14:
	nop
	add	rsp, 32
	pop	rbp
	.cfi_restore 6
	.cfi_def_cfa 7, 8
	ret
	.cfi_endproc
.LFE3530:
	.seh_endproc
	.section	.text$_ZNSt10unique_ptrI10ConnectionSt14default_deleteIS0_EEC1EOS3_,"x"
	.linkonce discard
	.align 2
	.globl	_ZNSt10unique_ptrI10ConnectionSt14default_deleteIS0_EEC1EOS3_
	.def	_ZNSt10unique_ptrI10ConnectionSt14default_deleteIS0_EEC1EOS3_;	.scl	2;	.type	32;	.endef
	.seh_proc	_ZNSt10unique_ptrI10ConnectionSt14default_deleteIS0_EEC1EOS3_
_ZNSt10unique_ptrI10ConnectionSt14default_deleteIS0_EEC1EOS3_:
.LFB3532:
	.loc 2 369 7
	.cfi_startproc
	push	rbp
	.seh_pushreg	rbp
	.cfi_def_cfa_offset 16
	.cfi_offset 6, -16
	mov	rbp, rsp
	.seh_setframe	rbp, 0
	.cfi_def_cfa_register 6
	sub	rsp, 32
	.seh_stackalloc	32
	.seh_endprologue
	mov	QWORD PTR 16[rbp], rcx
	mov	QWORD PTR 24[rbp], rdx
.LBB15:
	.loc 2 369 7
	mov	rax, QWORD PTR 16[rbp]
	mov	rdx, QWORD PTR 24[rbp]
	mov	rcx, rax
	call	_ZNSt15__uniq_ptr_dataI10ConnectionSt14default_deleteIS0_ELb1ELb1EEC1EOS3_
.LBE15:
	nop
	add	rsp, 32
	pop	rbp
	.cfi_restore 6
	.cfi_def_cfa 7, 8
	ret
	.cfi_endproc
.LFE3532:
	.seh_endproc
	.section	.text$_ZNSt11_Tuple_implILy0EJP10ConnectionSt14default_deleteIS0_EEEC2EOS4_,"x"
	.linkonce discard
	.align 2
	.globl	_ZNSt11_Tuple_implILy0EJP10ConnectionSt14default_deleteIS0_EEEC2EOS4_
	.def	_ZNSt11_Tuple_implILy0EJP10ConnectionSt14default_deleteIS0_EEEC2EOS4_;	.scl	2;	.type	32;	.endef
	.seh_proc	_ZNSt11_Tuple_implILy0EJP10ConnectionSt14default_deleteIS0_EEEC2EOS4_
_ZNSt11_Tuple_implILy0EJP10ConnectionSt14default_deleteIS0_EEEC2EOS4_:
.LFB3537:
	.file 3 "C:/Qt/Tools/mingw1530_64/include/c++/15.3.0/tuple"
	.loc 3 324 7
	.cfi_startproc
	push	rbp
	.seh_pushreg	rbp
	.cfi_def_cfa_offset 16
	.cfi_offset 6, -16
	mov	rbp, rsp
	.seh_setframe	rbp, 0
	.cfi_def_cfa_register 6
	sub	rsp, 32
	.seh_stackalloc	32
	.seh_endprologue
	mov	QWORD PTR 16[rbp], rcx
	mov	QWORD PTR 24[rbp], rdx
.LBB16:
	.loc 3 324 7
	mov	rdx, QWORD PTR 24[rbp]
	mov	rax, QWORD PTR 16[rbp]
	mov	rcx, rax
	call	_ZNSt11_Tuple_implILy1EJSt14default_deleteI10ConnectionEEEC2EOS3_
	.loc 3 324 7 is_stmt 0 discriminator 1
	mov	rax, QWORD PTR 16[rbp]
	mov	rdx, QWORD PTR 24[rbp]
	mov	rdx, QWORD PTR [rdx]
	mov	QWORD PTR [rax], rdx
.LBE16:
	.loc 3 324 7
	nop
	add	rsp, 32
	pop	rbp
	.cfi_restore 6
	.cfi_def_cfa 7, 8
	ret
	.cfi_endproc
.LFE3537:
	.seh_endproc
	.section	.text$_ZNSt5tupleIJP10ConnectionSt14default_deleteIS0_EEEC1EOS4_,"x"
	.linkonce discard
	.align 2
	.globl	_ZNSt5tupleIJP10ConnectionSt14default_deleteIS0_EEEC1EOS4_
	.def	_ZNSt5tupleIJP10ConnectionSt14default_deleteIS0_EEEC1EOS4_;	.scl	2;	.type	32;	.endef
	.seh_proc	_ZNSt5tupleIJP10ConnectionSt14default_deleteIS0_EEEC1EOS4_
_ZNSt5tupleIJP10ConnectionSt14default_deleteIS0_EEEC1EOS4_:
.LFB3540:
	.loc 3 996 17 is_stmt 1
	.cfi_startproc
	push	rbp
	.seh_pushreg	rbp
	.cfi_def_cfa_offset 16
	.cfi_offset 6, -16
	mov	rbp, rsp
	.seh_setframe	rbp, 0
	.cfi_def_cfa_register 6
	sub	rsp, 32
	.seh_stackalloc	32
	.seh_endprologue
	mov	QWORD PTR 16[rbp], rcx
	mov	QWORD PTR 24[rbp], rdx
.LBB17:
	.loc 3 996 17
	mov	rax, QWORD PTR 16[rbp]
	mov	rdx, QWORD PTR 24[rbp]
	mov	rcx, rax
	call	_ZNSt11_Tuple_implILy0EJP10ConnectionSt14default_deleteIS0_EEEC2EOS4_
.LBE17:
	nop
	add	rsp, 32
	pop	rbp
	.cfi_restore 6
	.cfi_def_cfa 7, 8
	ret
	.cfi_endproc
.LFE3540:
	.seh_endproc
	.section	.text$_ZNSt15__uniq_ptr_implI10ConnectionSt14default_deleteIS0_EEC2EOS3_,"x"
	.linkonce discard
	.align 2
	.globl	_ZNSt15__uniq_ptr_implI10ConnectionSt14default_deleteIS0_EEC2EOS3_
	.def	_ZNSt15__uniq_ptr_implI10ConnectionSt14default_deleteIS0_EEC2EOS3_;	.scl	2;	.type	32;	.endef
	.seh_proc	_ZNSt15__uniq_ptr_implI10ConnectionSt14default_deleteIS0_EEC2EOS3_
_ZNSt15__uniq_ptr_implI10ConnectionSt14default_deleteIS0_EEC2EOS3_:
.LFB3541:
	.loc 2 177 7
	.cfi_startproc
	push	rbp
	.seh_pushreg	rbp
	.cfi_def_cfa_offset 16
	.cfi_offset 6, -16
	mov	rbp, rsp
	.seh_setframe	rbp, 0
	.cfi_def_cfa_register 6
	sub	rsp, 48
	.seh_stackalloc	48
	.seh_endprologue
	mov	QWORD PTR 16[rbp], rcx
	mov	QWORD PTR 24[rbp], rdx
.LBB18:
	.loc 2 178 9
	mov	rax, QWORD PTR 16[rbp]
	.loc 2 178 28
	mov	rdx, QWORD PTR 24[rbp]
	mov	QWORD PTR -8[rbp], rdx
.LBB19:
.LBB20:
	.file 4 "C:/Qt/Tools/mingw1530_64/include/c++/15.3.0/bits/move.h"
	.loc 4 139 74
	mov	rdx, QWORD PTR -8[rbp]
.LBE20:
.LBE19:
	.loc 2 178 9 discriminator 1
	mov	rcx, rax
	call	_ZNSt5tupleIJP10ConnectionSt14default_deleteIS0_EEEC1EOS4_
	.loc 2 179 19
	mov	rax, QWORD PTR 24[rbp]
	mov	rcx, rax
	call	_ZNSt15__uniq_ptr_implI10ConnectionSt14default_deleteIS0_EE6_M_ptrEv
	.loc 2 179 22 discriminator 1
	mov	QWORD PTR [rax], 0
.LBE18:
	.loc 2 179 33
	nop
	add	rsp, 48
	pop	rbp
	.cfi_restore 6
	.cfi_def_cfa 7, 8
	ret
	.cfi_endproc
.LFE3541:
	.seh_endproc
	.section	.text$_ZNSt11_Tuple_implILy1EJSt14default_deleteI10ConnectionEEEC2EOS3_,"x"
	.linkonce discard
	.align 2
	.globl	_ZNSt11_Tuple_implILy1EJSt14default_deleteI10ConnectionEEEC2EOS3_
	.def	_ZNSt11_Tuple_implILy1EJSt14default_deleteI10ConnectionEEEC2EOS3_;	.scl	2;	.type	32;	.endef
	.seh_proc	_ZNSt11_Tuple_implILy1EJSt14default_deleteI10ConnectionEEEC2EOS3_
_ZNSt11_Tuple_implILy1EJSt14default_deleteI10ConnectionEEEC2EOS3_:
.LFB3545:
	.loc 3 584 7
	.cfi_startproc
	push	rbp
	.seh_pushreg	rbp
	.cfi_def_cfa_offset 16
	.cfi_offset 6, -16
	mov	rbp, rsp
	.seh_setframe	rbp, 0
	.cfi_def_cfa_register 6
	.seh_endprologue
	mov	QWORD PTR 16[rbp], rcx
	mov	QWORD PTR 24[rbp], rdx
	.loc 3 587 9
	nop
	pop	rbp
	.cfi_restore 6
	.cfi_def_cfa 7, 8
	ret
	.cfi_endproc
.LFE3545:
	.seh_endproc
	.text
	.globl	_Z8transferv
	.def	_Z8transferv;	.scl	2;	.type	32;	.endef
	.seh_proc	_Z8transferv
_Z8transferv:
.LFB3526:
	.loc 1 16 17
	.cfi_startproc
	push	rbp
	.seh_pushreg	rbp
	.cfi_def_cfa_offset 16
	.cfi_offset 6, -16
	mov	rbp, rsp
	.seh_setframe	rbp, 0
	.cfi_def_cfa_register 6
	sub	rsp, 48
	.seh_stackalloc	48
	.seh_endprologue
	.loc 1 17 20
	lea	rax, -8[rbp]
	mov	edx, 3
	mov	rcx, rax
	call	_Z4openi
.LBB21:
.LBB22:
	.loc 4 139 74
	lea	rdx, -8[rbp]
.LBE22:
.LBE21:
	.loc 1 18 25 discriminator 1
	lea	rax, -16[rbp]
	mov	rcx, rax
	call	_ZNSt10unique_ptrI10ConnectionSt14default_deleteIS0_EEC1EOS3_
	.loc 1 20 1
	lea	rax, -16[rbp]
	mov	rcx, rax
	call	_ZNSt10unique_ptrI10ConnectionSt14default_deleteIS0_EED1Ev
	.loc 1 20 1 is_stmt 0 discriminator 1
	lea	rax, -8[rbp]
	mov	rcx, rax
	call	_ZNSt10unique_ptrI10ConnectionSt14default_deleteIS0_EED1Ev
	nop
	.loc 1 20 1
	add	rsp, 48
	pop	rbp
	.cfi_restore 6
	.cfi_def_cfa 7, 8
	ret
	.cfi_endproc
.LFE3526:
	.seh_endproc
	.section	.text$_ZSt11make_uniqueI10ConnectionJRiEENSt8__detail9_MakeUniqIT_E15__single_objectEDpOT0_,"x"
	.linkonce discard
	.globl	_ZSt11make_uniqueI10ConnectionJRiEENSt8__detail9_MakeUniqIT_E15__single_objectEDpOT0_
	.def	_ZSt11make_uniqueI10ConnectionJRiEENSt8__detail9_MakeUniqIT_E15__single_objectEDpOT0_;	.scl	2;	.type	32;	.endef
	.seh_proc	_ZSt11make_uniqueI10ConnectionJRiEENSt8__detail9_MakeUniqIT_E15__single_objectEDpOT0_
_ZSt11make_uniqueI10ConnectionJRiEENSt8__detail9_MakeUniqIT_E15__single_objectEDpOT0_:
.LFB3850:
	.loc 2 1102 5 is_stmt 1
	.cfi_startproc
	push	rbp
	.seh_pushreg	rbp
	.cfi_def_cfa_offset 16
	.cfi_offset 6, -16
	push	rsi
	.seh_pushreg	rsi
	.cfi_def_cfa_offset 24
	.cfi_offset 4, -24
	push	rbx
	.seh_pushreg	rbx
	.cfi_def_cfa_offset 32
	.cfi_offset 3, -32
	sub	rsp, 48
	.seh_stackalloc	48
	.cfi_def_cfa_offset 80
	lea	rbp, 48[rsp]
	.seh_setframe	rbp, 48
	.cfi_def_cfa 6, 32
	.seh_endprologue
	mov	QWORD PTR 32[rbp], rcx
	mov	QWORD PTR 40[rbp], rdx
	.loc 2 1103 30
	mov	ecx, 4
	call	_Znwy
	mov	rbx, rax
	mov	rax, QWORD PTR 40[rbp]
	mov	QWORD PTR -8[rbp], rax
.LBB23:
.LBB24:
	.loc 4 73 36
	mov	rax, QWORD PTR -8[rbp]
.LBE24:
.LBE23:
	.loc 2 1103 30 discriminator 2
	mov	eax, DWORD PTR [rax]
	mov	edx, eax
	mov	rcx, rbx
	call	_ZN10ConnectionC1Ei
	.loc 2 1103 69 discriminator 3
	mov	esi, 0
	mov	rax, QWORD PTR 32[rbp]
	mov	rdx, rbx
	mov	rcx, rax
	call	_ZNSt10unique_ptrI10ConnectionSt14default_deleteIS0_EEC1IS2_vEEPS0_
	.loc 2 1103 69 is_stmt 0 discriminator 5
	test	sil, sil
	je	.L17
	.loc 2 1103 30 is_stmt 1 discriminator 6
	mov	edx, 4
	mov	rcx, rbx
	call	_ZdlPvy
.L17:
	.loc 2 1103 69
	nop
	.loc 2 1103 72
	mov	rax, QWORD PTR 32[rbp]
	add	rsp, 48
	pop	rbx
	.cfi_restore 3
	pop	rsi
	.cfi_restore 4
	pop	rbp
	.cfi_restore 6
	.cfi_def_cfa 7, -24
	ret
	.cfi_endproc
.LFE3850:
	.seh_endproc
	.section	.text$_ZNSt15__uniq_ptr_implI10ConnectionSt14default_deleteIS0_EE6_M_ptrEv,"x"
	.linkonce discard
	.align 2
	.globl	_ZNSt15__uniq_ptr_implI10ConnectionSt14default_deleteIS0_EE6_M_ptrEv
	.def	_ZNSt15__uniq_ptr_implI10ConnectionSt14default_deleteIS0_EE6_M_ptrEv;	.scl	2;	.type	32;	.endef
	.seh_proc	_ZNSt15__uniq_ptr_implI10ConnectionSt14default_deleteIS0_EE6_M_ptrEv
_ZNSt15__uniq_ptr_implI10ConnectionSt14default_deleteIS0_EE6_M_ptrEv:
.LFB3852:
	.loc 2 190 18
	.cfi_startproc
	push	rbp
	.seh_pushreg	rbp
	.cfi_def_cfa_offset 16
	.cfi_offset 6, -16
	mov	rbp, rsp
	.seh_setframe	rbp, 0
	.cfi_def_cfa_register 6
	sub	rsp, 32
	.seh_stackalloc	32
	.seh_endprologue
	mov	QWORD PTR 16[rbp], rcx
	.loc 2 190 57
	mov	rax, QWORD PTR 16[rbp]
	.loc 2 190 56
	mov	rcx, rax
	call	_ZSt3getILy0EJP10ConnectionSt14default_deleteIS0_EEERNSt13tuple_elementIXT_ESt5tupleIJDpT0_EEE4typeERS8_
	.loc 2 190 64
	add	rsp, 32
	pop	rbp
	.cfi_restore 6
	.cfi_def_cfa 7, 8
	ret
	.cfi_endproc
.LFE3852:
	.seh_endproc
	.section	.text$_ZSt3getILy0EJP10ConnectionSt14default_deleteIS0_EEERNSt13tuple_elementIXT_ESt5tupleIJDpT0_EEE4typeERS8_,"x"
	.linkonce discard
	.globl	_ZSt3getILy0EJP10ConnectionSt14default_deleteIS0_EEERNSt13tuple_elementIXT_ESt5tupleIJDpT0_EEE4typeERS8_
	.def	_ZSt3getILy0EJP10ConnectionSt14default_deleteIS0_EEERNSt13tuple_elementIXT_ESt5tupleIJDpT0_EEE4typeERS8_;	.scl	2;	.type	32;	.endef
	.seh_proc	_ZSt3getILy0EJP10ConnectionSt14default_deleteIS0_EEERNSt13tuple_elementIXT_ESt5tupleIJDpT0_EEE4typeERS8_
_ZSt3getILy0EJP10ConnectionSt14default_deleteIS0_EEERNSt13tuple_elementIXT_ESt5tupleIJDpT0_EEE4typeERS8_:
.LFB3853:
	.loc 3 2444 5
	.cfi_startproc
	push	rbp
	.seh_pushreg	rbp
	.cfi_def_cfa_offset 16
	.cfi_offset 6, -16
	mov	rbp, rsp
	.seh_setframe	rbp, 0
	.cfi_def_cfa_register 6
	sub	rsp, 32
	.seh_stackalloc	32
	.seh_endprologue
	mov	QWORD PTR 16[rbp], rcx
	.loc 3 2445 36
	mov	rax, QWORD PTR 16[rbp]
	mov	rcx, rax
	call	_ZSt12__get_helperILy0EP10ConnectionJSt14default_deleteIS0_EEERT0_RSt11_Tuple_implIXT_EJS4_DpT1_EE
	.loc 3 2445 43
	add	rsp, 32
	pop	rbp
	.cfi_restore 6
	.cfi_def_cfa 7, 8
	ret
	.cfi_endproc
.LFE3853:
	.seh_endproc
	.section	.text$_ZSt12__get_helperILy0EP10ConnectionJSt14default_deleteIS0_EEERT0_RSt11_Tuple_implIXT_EJS4_DpT1_EE,"x"
	.linkonce discard
	.globl	_ZSt12__get_helperILy0EP10ConnectionJSt14default_deleteIS0_EEERT0_RSt11_Tuple_implIXT_EJS4_DpT1_EE
	.def	_ZSt12__get_helperILy0EP10ConnectionJSt14default_deleteIS0_EEERT0_RSt11_Tuple_implIXT_EJS4_DpT1_EE;	.scl	2;	.type	32;	.endef
	.seh_proc	_ZSt12__get_helperILy0EP10ConnectionJSt14default_deleteIS0_EEERT0_RSt11_Tuple_implIXT_EJS4_DpT1_EE
_ZSt12__get_helperILy0EP10ConnectionJSt14default_deleteIS0_EEERT0_RSt11_Tuple_implIXT_EJS4_DpT1_EE:
.LFB3854:
	.loc 3 2428 5
	.cfi_startproc
	push	rbp
	.seh_pushreg	rbp
	.cfi_def_cfa_offset 16
	.cfi_offset 6, -16
	mov	rbp, rsp
	.seh_setframe	rbp, 0
	.cfi_def_cfa_register 6
	sub	rsp, 32
	.seh_stackalloc	32
	.seh_endprologue
	mov	QWORD PTR 16[rbp], rcx
	.loc 3 2429 56
	mov	rax, QWORD PTR 16[rbp]
	mov	rcx, rax
	call	_ZNSt11_Tuple_implILy0EJP10ConnectionSt14default_deleteIS0_EEE7_M_headERS4_
	.loc 3 2429 63
	add	rsp, 32
	pop	rbp
	.cfi_restore 6
	.cfi_def_cfa 7, 8
	ret
	.cfi_endproc
.LFE3854:
	.seh_endproc
	.section	.text$_ZNSt11_Tuple_implILy0EJP10ConnectionSt14default_deleteIS0_EEE7_M_headERS4_,"x"
	.linkonce discard
	.globl	_ZNSt11_Tuple_implILy0EJP10ConnectionSt14default_deleteIS0_EEE7_M_headERS4_
	.def	_ZNSt11_Tuple_implILy0EJP10ConnectionSt14default_deleteIS0_EEE7_M_headERS4_;	.scl	2;	.type	32;	.endef
	.seh_proc	_ZNSt11_Tuple_implILy0EJP10ConnectionSt14default_deleteIS0_EEE7_M_headERS4_
_ZNSt11_Tuple_implILy0EJP10ConnectionSt14default_deleteIS0_EEE7_M_headERS4_:
.LFB3855:
	.loc 3 291 7
	.cfi_startproc
	push	rbp
	.seh_pushreg	rbp
	.cfi_def_cfa_offset 16
	.cfi_offset 6, -16
	mov	rbp, rsp
	.seh_setframe	rbp, 0
	.cfi_def_cfa_register 6
	sub	rsp, 32
	.seh_stackalloc	32
	.seh_endprologue
	mov	QWORD PTR 16[rbp], rcx
	.loc 3 291 65
	mov	rax, QWORD PTR 16[rbp]
	mov	rcx, rax
	call	_ZNSt10_Head_baseILy0EP10ConnectionLb0EE7_M_headERS2_
	.loc 3 291 72
	add	rsp, 32
	pop	rbp
	.cfi_restore 6
	.cfi_def_cfa 7, 8
	ret
	.cfi_endproc
.LFE3855:
	.seh_endproc
	.section	.text$_ZNSt10_Head_baseILy0EP10ConnectionLb0EE7_M_headERS2_,"x"
	.linkonce discard
	.globl	_ZNSt10_Head_baseILy0EP10ConnectionLb0EE7_M_headERS2_
	.def	_ZNSt10_Head_baseILy0EP10ConnectionLb0EE7_M_headERS2_;	.scl	2;	.type	32;	.endef
	.seh_proc	_ZNSt10_Head_baseILy0EP10ConnectionLb0EE7_M_headERS2_
_ZNSt10_Head_baseILy0EP10ConnectionLb0EE7_M_headERS2_:
.LFB3856:
	.loc 3 246 7
	.cfi_startproc
	push	rbp
	.seh_pushreg	rbp
	.cfi_def_cfa_offset 16
	.cfi_offset 6, -16
	mov	rbp, rsp
	.seh_setframe	rbp, 0
	.cfi_def_cfa_register 6
	.seh_endprologue
	mov	QWORD PTR 16[rbp], rcx
	.loc 3 246 54
	mov	rax, QWORD PTR 16[rbp]
	.loc 3 246 68
	pop	rbp
	.cfi_restore 6
	.cfi_def_cfa 7, 8
	ret
	.cfi_endproc
.LFE3856:
	.seh_endproc
	.section	.text$_ZNSt10unique_ptrI10ConnectionSt14default_deleteIS0_EED1Ev,"x"
	.linkonce discard
	.align 2
	.globl	_ZNSt10unique_ptrI10ConnectionSt14default_deleteIS0_EED1Ev
	.def	_ZNSt10unique_ptrI10ConnectionSt14default_deleteIS0_EED1Ev;	.scl	2;	.type	32;	.endef
	.seh_proc	_ZNSt10unique_ptrI10ConnectionSt14default_deleteIS0_EED1Ev
_ZNSt10unique_ptrI10ConnectionSt14default_deleteIS0_EED1Ev:
.LFB3858:
	.loc 2 402 7
	.cfi_startproc
	push	rbp
	.seh_pushreg	rbp
	.cfi_def_cfa_offset 16
	.cfi_offset 6, -16
	mov	rbp, rsp
	.seh_setframe	rbp, 0
	.cfi_def_cfa_register 6
	sub	rsp, 48
	.seh_stackalloc	48
	.seh_endprologue
	mov	QWORD PTR 16[rbp], rcx
.LBB25:
.LBB26:
	.loc 2 406 27
	mov	rax, QWORD PTR 16[rbp]
	mov	rcx, rax
	call	_ZNSt15__uniq_ptr_implI10ConnectionSt14default_deleteIS0_EE6_M_ptrEv
	mov	QWORD PTR -8[rbp], rax
	.loc 2 407 12
	mov	rax, QWORD PTR -8[rbp]
	mov	rax, QWORD PTR [rax]
	.loc 2 407 2
	test	rax, rax
	je	.L29
	.loc 2 408 15
	mov	rax, QWORD PTR 16[rbp]
	mov	rcx, rax
	call	_ZNSt10unique_ptrI10ConnectionSt14default_deleteIS0_EE11get_deleterEv
	mov	rcx, rax
	mov	rax, QWORD PTR -8[rbp]
	mov	QWORD PTR -16[rbp], rax
.LBB27:
.LBB28:
	.loc 4 139 74
	mov	rax, QWORD PTR -16[rbp]
.LBE28:
.LBE27:
	.loc 2 408 17 discriminator 2
	mov	rax, QWORD PTR [rax]
	mov	rdx, rax
	call	_ZNKSt14default_deleteI10ConnectionEclEPS0_
.L29:
	.loc 2 409 8
	mov	rax, QWORD PTR -8[rbp]
	mov	QWORD PTR [rax], 0
.LBE26:
.LBE25:
	.loc 2 410 7
	nop
	add	rsp, 48
	pop	rbp
	.cfi_restore 6
	.cfi_def_cfa 7, 8
	ret
	.cfi_endproc
.LFE3858:
	.seh_endproc
	.section	.text$_ZNSt15__uniq_ptr_dataI10ConnectionSt14default_deleteIS0_ELb1ELb1EECI1St15__uniq_ptr_implIS0_S2_EEPS0_,"x"
	.linkonce discard
	.align 2
	.globl	_ZNSt15__uniq_ptr_dataI10ConnectionSt14default_deleteIS0_ELb1ELb1EECI1St15__uniq_ptr_implIS0_S2_EEPS0_
	.def	_ZNSt15__uniq_ptr_dataI10ConnectionSt14default_deleteIS0_ELb1ELb1EECI1St15__uniq_ptr_implIS0_S2_EEPS0_;	.scl	2;	.type	32;	.endef
	.seh_proc	_ZNSt15__uniq_ptr_dataI10ConnectionSt14default_deleteIS0_ELb1ELb1EECI1St15__uniq_ptr_implIS0_S2_EEPS0_
_ZNSt15__uniq_ptr_dataI10ConnectionSt14default_deleteIS0_ELb1ELb1EECI1St15__uniq_ptr_implIS0_S2_EEPS0_:
.LFB4021:
	.loc 2 234 40
	.cfi_startproc
	push	rbp
	.seh_pushreg	rbp
	.cfi_def_cfa_offset 16
	.cfi_offset 6, -16
	mov	rbp, rsp
	.seh_setframe	rbp, 0
	.cfi_def_cfa_register 6
	sub	rsp, 32
	.seh_stackalloc	32
	.seh_endprologue
	mov	QWORD PTR 16[rbp], rcx
	mov	QWORD PTR 24[rbp], rdx
.LBB29:
	.loc 2 234 40
	mov	rax, QWORD PTR 16[rbp]
	mov	rdx, QWORD PTR 24[rbp]
	mov	rcx, rax
	call	_ZNSt15__uniq_ptr_implI10ConnectionSt14default_deleteIS0_EEC2EPS0_
.LBE29:
	nop
	add	rsp, 32
	pop	rbp
	.cfi_restore 6
	.cfi_def_cfa 7, 8
	ret
	.cfi_endproc
.LFE4021:
	.seh_endproc
	.section	.text$_ZNSt10unique_ptrI10ConnectionSt14default_deleteIS0_EEC1IS2_vEEPS0_,"x"
	.linkonce discard
	.align 2
	.globl	_ZNSt10unique_ptrI10ConnectionSt14default_deleteIS0_EEC1IS2_vEEPS0_
	.def	_ZNSt10unique_ptrI10ConnectionSt14default_deleteIS0_EEC1IS2_vEEPS0_;	.scl	2;	.type	32;	.endef
	.seh_proc	_ZNSt10unique_ptrI10ConnectionSt14default_deleteIS0_EEC1IS2_vEEPS0_
_ZNSt10unique_ptrI10ConnectionSt14default_deleteIS0_EEC1IS2_vEEPS0_:
.LFB4023:
	.loc 2 320 2
	.cfi_startproc
	push	rbp
	.seh_pushreg	rbp
	.cfi_def_cfa_offset 16
	.cfi_offset 6, -16
	mov	rbp, rsp
	.seh_setframe	rbp, 0
	.cfi_def_cfa_register 6
	sub	rsp, 32
	.seh_stackalloc	32
	.seh_endprologue
	mov	QWORD PTR 16[rbp], rcx
	mov	QWORD PTR 24[rbp], rdx
.LBB30:
	.loc 2 321 4
	mov	rax, QWORD PTR 16[rbp]
	mov	rdx, QWORD PTR 24[rbp]
	mov	rcx, rax
	call	_ZNSt15__uniq_ptr_dataI10ConnectionSt14default_deleteIS0_ELb1ELb1EECI1St15__uniq_ptr_implIS0_S2_EEPS0_
.LBE30:
	.loc 2 322 11
	nop
	add	rsp, 32
	pop	rbp
	.cfi_restore 6
	.cfi_def_cfa 7, 8
	ret
	.cfi_endproc
.LFE4023:
	.seh_endproc
	.section	.text$_ZNSt10unique_ptrI10ConnectionSt14default_deleteIS0_EE11get_deleterEv,"x"
	.linkonce discard
	.align 2
	.globl	_ZNSt10unique_ptrI10ConnectionSt14default_deleteIS0_EE11get_deleterEv
	.def	_ZNSt10unique_ptrI10ConnectionSt14default_deleteIS0_EE11get_deleterEv;	.scl	2;	.type	32;	.endef
	.seh_proc	_ZNSt10unique_ptrI10ConnectionSt14default_deleteIS0_EE11get_deleterEv
_ZNSt10unique_ptrI10ConnectionSt14default_deleteIS0_EE11get_deleterEv:
.LFB4024:
	.loc 2 496 7
	.cfi_startproc
	push	rbp
	.seh_pushreg	rbp
	.cfi_def_cfa_offset 16
	.cfi_offset 6, -16
	mov	rbp, rsp
	.seh_setframe	rbp, 0
	.cfi_def_cfa_register 6
	sub	rsp, 32
	.seh_stackalloc	32
	.seh_endprologue
	mov	QWORD PTR 16[rbp], rcx
	.loc 2 497 31
	mov	rax, QWORD PTR 16[rbp]
	mov	rcx, rax
	call	_ZNSt15__uniq_ptr_implI10ConnectionSt14default_deleteIS0_EE10_M_deleterEv
	.loc 2 497 35
	add	rsp, 32
	pop	rbp
	.cfi_restore 6
	.cfi_def_cfa 7, 8
	ret
	.cfi_endproc
.LFE4024:
	.seh_endproc
	.section	.text$_ZNKSt14default_deleteI10ConnectionEclEPS0_,"x"
	.linkonce discard
	.align 2
	.globl	_ZNKSt14default_deleteI10ConnectionEclEPS0_
	.def	_ZNKSt14default_deleteI10ConnectionEclEPS0_;	.scl	2;	.type	32;	.endef
	.seh_proc	_ZNKSt14default_deleteI10ConnectionEclEPS0_
_ZNKSt14default_deleteI10ConnectionEclEPS0_:
.LFB4026:
	.loc 2 86 7
	.cfi_startproc
	push	rbp
	.seh_pushreg	rbp
	.cfi_def_cfa_offset 16
	.cfi_offset 6, -16
	push	rbx
	.seh_pushreg	rbx
	.cfi_def_cfa_offset 24
	.cfi_offset 3, -24
	sub	rsp, 40
	.seh_stackalloc	40
	.cfi_def_cfa_offset 64
	lea	rbp, 32[rsp]
	.seh_setframe	rbp, 32
	.cfi_def_cfa 6, 32
	.seh_endprologue
	mov	QWORD PTR 32[rbp], rcx
	mov	QWORD PTR 40[rbp], rdx
	.loc 2 92 2
	mov	rbx, QWORD PTR 40[rbp]
	test	rbx, rbx
	je	.L37
	.loc 2 92 2 is_stmt 0 discriminator 1
	mov	rcx, rbx
	call	_ZN10ConnectionD1Ev
	.loc 2 92 2 discriminator 2
	mov	edx, 4
	mov	rcx, rbx
	call	_ZdlPvy
.L37:
	.loc 2 93 7 is_stmt 1
	nop
	add	rsp, 40
	pop	rbx
	.cfi_restore 3
	pop	rbp
	.cfi_restore 6
	.cfi_def_cfa 7, -24
	ret
	.cfi_endproc
.LFE4026:
	.seh_endproc
	.section	.text$_ZNSt15__uniq_ptr_implI10ConnectionSt14default_deleteIS0_EEC2EPS0_,"x"
	.linkonce discard
	.align 2
	.globl	_ZNSt15__uniq_ptr_implI10ConnectionSt14default_deleteIS0_EEC2EPS0_
	.def	_ZNSt15__uniq_ptr_implI10ConnectionSt14default_deleteIS0_EEC2EPS0_;	.scl	2;	.type	32;	.endef
	.seh_proc	_ZNSt15__uniq_ptr_implI10ConnectionSt14default_deleteIS0_EEC2EPS0_
_ZNSt15__uniq_ptr_implI10ConnectionSt14default_deleteIS0_EEC2EPS0_:
.LFB4127:
	.loc 2 169 7
	.cfi_startproc
	push	rbp
	.seh_pushreg	rbp
	.cfi_def_cfa_offset 16
	.cfi_offset 6, -16
	push	rbx
	.seh_pushreg	rbx
	.cfi_def_cfa_offset 24
	.cfi_offset 3, -24
	sub	rsp, 40
	.seh_stackalloc	40
	.cfi_def_cfa_offset 64
	lea	rbp, 32[rsp]
	.seh_setframe	rbp, 32
	.cfi_def_cfa 6, 32
	.seh_endprologue
	mov	QWORD PTR 32[rbp], rcx
	mov	QWORD PTR 40[rbp], rdx
.LBB31:
	.loc 2 169 38
	mov	rax, QWORD PTR 32[rbp]
	mov	rcx, rax
	call	_ZNSt5tupleIJP10ConnectionSt14default_deleteIS0_EEEC1EvQfraa26is_default_constructible_vIT_E
	.loc 2 169 56 discriminator 1
	mov	rbx, QWORD PTR 40[rbp]
	.loc 2 169 53 discriminator 1
	mov	rax, QWORD PTR 32[rbp]
	mov	rcx, rax
	call	_ZNSt15__uniq_ptr_implI10ConnectionSt14default_deleteIS0_EE6_M_ptrEv
	.loc 2 169 56 discriminator 2
	mov	QWORD PTR [rax], rbx
.LBE31:
	.loc 2 169 63
	nop
	add	rsp, 40
	pop	rbx
	.cfi_restore 3
	pop	rbp
	.cfi_restore 6
	.cfi_def_cfa 7, -24
	ret
	.cfi_endproc
.LFE4127:
	.seh_endproc
	.section	.text$_ZNSt15__uniq_ptr_implI10ConnectionSt14default_deleteIS0_EE10_M_deleterEv,"x"
	.linkonce discard
	.align 2
	.globl	_ZNSt15__uniq_ptr_implI10ConnectionSt14default_deleteIS0_EE10_M_deleterEv
	.def	_ZNSt15__uniq_ptr_implI10ConnectionSt14default_deleteIS0_EE10_M_deleterEv;	.scl	2;	.type	32;	.endef
	.seh_proc	_ZNSt15__uniq_ptr_implI10ConnectionSt14default_deleteIS0_EE10_M_deleterEv
_ZNSt15__uniq_ptr_implI10ConnectionSt14default_deleteIS0_EE10_M_deleterEv:
.LFB4129:
	.loc 2 194 18
	.cfi_startproc
	push	rbp
	.seh_pushreg	rbp
	.cfi_def_cfa_offset 16
	.cfi_offset 6, -16
	mov	rbp, rsp
	.seh_setframe	rbp, 0
	.cfi_def_cfa_register 6
	sub	rsp, 32
	.seh_stackalloc	32
	.seh_endprologue
	mov	QWORD PTR 16[rbp], rcx
	.loc 2 194 61
	mov	rax, QWORD PTR 16[rbp]
	.loc 2 194 60
	mov	rcx, rax
	call	_ZSt3getILy1EJP10ConnectionSt14default_deleteIS0_EEERNSt13tuple_elementIXT_ESt5tupleIJDpT0_EEE4typeERS8_
	.loc 2 194 68
	add	rsp, 32
	pop	rbp
	.cfi_restore 6
	.cfi_def_cfa 7, 8
	ret
	.cfi_endproc
.LFE4129:
	.seh_endproc
	.section	.text$_ZNSt5tupleIJP10ConnectionSt14default_deleteIS0_EEEC1EvQfraa26is_default_constructible_vIT_E,"x"
	.linkonce discard
	.align 2
	.globl	_ZNSt5tupleIJP10ConnectionSt14default_deleteIS0_EEEC1EvQfraa26is_default_constructible_vIT_E
	.def	_ZNSt5tupleIJP10ConnectionSt14default_deleteIS0_EEEC1EvQfraa26is_default_constructible_vIT_E;	.scl	2;	.type	32;	.endef
	.seh_proc	_ZNSt5tupleIJP10ConnectionSt14default_deleteIS0_EEEC1EvQfraa26is_default_constructible_vIT_E
_ZNSt5tupleIJP10ConnectionSt14default_deleteIS0_EEEC1EvQfraa26is_default_constructible_vIT_E:
.LFB4207:
	.loc 3 963 7
	.cfi_startproc
	push	rbp
	.seh_pushreg	rbp
	.cfi_def_cfa_offset 16
	.cfi_offset 6, -16
	mov	rbp, rsp
	.seh_setframe	rbp, 0
	.cfi_def_cfa_register 6
	sub	rsp, 32
	.seh_stackalloc	32
	.seh_endprologue
	mov	QWORD PTR 16[rbp], rcx
.LBB32:
	.loc 3 966 20
	mov	rax, QWORD PTR 16[rbp]
	mov	rcx, rax
	call	_ZNSt11_Tuple_implILy0EJP10ConnectionSt14default_deleteIS0_EEEC2Ev
.LBE32:
	.loc 3 967 9
	nop
	add	rsp, 32
	pop	rbp
	.cfi_restore 6
	.cfi_def_cfa 7, 8
	ret
	.cfi_endproc
.LFE4207:
	.seh_handler	__gxx_personality_seh0, @unwind, @except
	.seh_handlerdata
.LLSDA4207:
	.byte	0xff
	.byte	0xff
	.byte	0x1
	.uleb128 .LLSDACSE4207-.LLSDACSB4207
.LLSDACSB4207:
.LLSDACSE4207:
	.section	.text$_ZNSt5tupleIJP10ConnectionSt14default_deleteIS0_EEEC1EvQfraa26is_default_constructible_vIT_E,"x"
	.linkonce discard
	.seh_endproc
	.weak	_ZNSt5tupleIJP10ConnectionSt14default_deleteIS0_EEEC1Ev
	.def	_ZNSt5tupleIJP10ConnectionSt14default_deleteIS0_EEEC1Ev;	.scl	2;	.type	32;	.endef
	.set	_ZNSt5tupleIJP10ConnectionSt14default_deleteIS0_EEEC1Ev,_ZNSt5tupleIJP10ConnectionSt14default_deleteIS0_EEEC1EvQfraa26is_default_constructible_vIT_E
	.section	.text$_ZSt3getILy1EJP10ConnectionSt14default_deleteIS0_EEERNSt13tuple_elementIXT_ESt5tupleIJDpT0_EEE4typeERS8_,"x"
	.linkonce discard
	.globl	_ZSt3getILy1EJP10ConnectionSt14default_deleteIS0_EEERNSt13tuple_elementIXT_ESt5tupleIJDpT0_EEE4typeERS8_
	.def	_ZSt3getILy1EJP10ConnectionSt14default_deleteIS0_EEERNSt13tuple_elementIXT_ESt5tupleIJDpT0_EEE4typeERS8_;	.scl	2;	.type	32;	.endef
	.seh_proc	_ZSt3getILy1EJP10ConnectionSt14default_deleteIS0_EEERNSt13tuple_elementIXT_ESt5tupleIJDpT0_EEE4typeERS8_
_ZSt3getILy1EJP10ConnectionSt14default_deleteIS0_EEERNSt13tuple_elementIXT_ESt5tupleIJDpT0_EEE4typeERS8_:
.LFB4208:
	.loc 3 2444 5
	.cfi_startproc
	push	rbp
	.seh_pushreg	rbp
	.cfi_def_cfa_offset 16
	.cfi_offset 6, -16
	mov	rbp, rsp
	.seh_setframe	rbp, 0
	.cfi_def_cfa_register 6
	sub	rsp, 32
	.seh_stackalloc	32
	.seh_endprologue
	mov	QWORD PTR 16[rbp], rcx
	.loc 3 2445 36
	mov	rax, QWORD PTR 16[rbp]
	mov	rcx, rax
	call	_ZSt12__get_helperILy1ESt14default_deleteI10ConnectionEJEERT0_RSt11_Tuple_implIXT_EJS3_DpT1_EE
	.loc 3 2445 43
	add	rsp, 32
	pop	rbp
	.cfi_restore 6
	.cfi_def_cfa 7, 8
	ret
	.cfi_endproc
.LFE4208:
	.seh_endproc
	.section	.text$_ZNSt11_Tuple_implILy0EJP10ConnectionSt14default_deleteIS0_EEEC2Ev,"x"
	.linkonce discard
	.align 2
	.globl	_ZNSt11_Tuple_implILy0EJP10ConnectionSt14default_deleteIS0_EEEC2Ev
	.def	_ZNSt11_Tuple_implILy0EJP10ConnectionSt14default_deleteIS0_EEEC2Ev;	.scl	2;	.type	32;	.endef
	.seh_proc	_ZNSt11_Tuple_implILy0EJP10ConnectionSt14default_deleteIS0_EEEC2Ev
_ZNSt11_Tuple_implILy0EJP10ConnectionSt14default_deleteIS0_EEEC2Ev:
.LFB4237:
	.loc 3 302 17
	.cfi_startproc
	push	rbp
	.seh_pushreg	rbp
	.cfi_def_cfa_offset 16
	.cfi_offset 6, -16
	mov	rbp, rsp
	.seh_setframe	rbp, 0
	.cfi_def_cfa_register 6
	sub	rsp, 32
	.seh_stackalloc	32
	.seh_endprologue
	mov	QWORD PTR 16[rbp], rcx
.LBB33:
	.loc 3 303 29
	mov	rax, QWORD PTR 16[rbp]
	mov	rcx, rax
	call	_ZNSt11_Tuple_implILy1EJSt14default_deleteI10ConnectionEEEC2Ev
	.loc 3 303 29 is_stmt 0 discriminator 1
	mov	rax, QWORD PTR 16[rbp]
	mov	rcx, rax
	call	_ZNSt10_Head_baseILy0EP10ConnectionLb0EEC2Ev
.LBE33:
	.loc 3 303 33 is_stmt 1
	nop
	add	rsp, 32
	pop	rbp
	.cfi_restore 6
	.cfi_def_cfa 7, 8
	ret
	.cfi_endproc
.LFE4237:
	.seh_endproc
	.section	.text$_ZSt12__get_helperILy1ESt14default_deleteI10ConnectionEJEERT0_RSt11_Tuple_implIXT_EJS3_DpT1_EE,"x"
	.linkonce discard
	.globl	_ZSt12__get_helperILy1ESt14default_deleteI10ConnectionEJEERT0_RSt11_Tuple_implIXT_EJS3_DpT1_EE
	.def	_ZSt12__get_helperILy1ESt14default_deleteI10ConnectionEJEERT0_RSt11_Tuple_implIXT_EJS3_DpT1_EE;	.scl	2;	.type	32;	.endef
	.seh_proc	_ZSt12__get_helperILy1ESt14default_deleteI10ConnectionEJEERT0_RSt11_Tuple_implIXT_EJS3_DpT1_EE
_ZSt12__get_helperILy1ESt14default_deleteI10ConnectionEJEERT0_RSt11_Tuple_implIXT_EJS3_DpT1_EE:
.LFB4239:
	.loc 3 2428 5
	.cfi_startproc
	push	rbp
	.seh_pushreg	rbp
	.cfi_def_cfa_offset 16
	.cfi_offset 6, -16
	mov	rbp, rsp
	.seh_setframe	rbp, 0
	.cfi_def_cfa_register 6
	sub	rsp, 32
	.seh_stackalloc	32
	.seh_endprologue
	mov	QWORD PTR 16[rbp], rcx
	.loc 3 2429 56
	mov	rax, QWORD PTR 16[rbp]
	mov	rcx, rax
	call	_ZNSt11_Tuple_implILy1EJSt14default_deleteI10ConnectionEEE7_M_headERS3_
	.loc 3 2429 63
	add	rsp, 32
	pop	rbp
	.cfi_restore 6
	.cfi_def_cfa 7, 8
	ret
	.cfi_endproc
.LFE4239:
	.seh_endproc
	.section	.text$_ZNSt11_Tuple_implILy1EJSt14default_deleteI10ConnectionEEEC2Ev,"x"
	.linkonce discard
	.align 2
	.globl	_ZNSt11_Tuple_implILy1EJSt14default_deleteI10ConnectionEEEC2Ev
	.def	_ZNSt11_Tuple_implILy1EJSt14default_deleteI10ConnectionEEEC2Ev;	.scl	2;	.type	32;	.endef
	.seh_proc	_ZNSt11_Tuple_implILy1EJSt14default_deleteI10ConnectionEEEC2Ev
_ZNSt11_Tuple_implILy1EJSt14default_deleteI10ConnectionEEEC2Ev:
.LFB4257:
	.loc 3 560 7
	.cfi_startproc
	push	rbp
	.seh_pushreg	rbp
	.cfi_def_cfa_offset 16
	.cfi_offset 6, -16
	mov	rbp, rsp
	.seh_setframe	rbp, 0
	.cfi_def_cfa_register 6
	sub	rsp, 32
	.seh_stackalloc	32
	.seh_endprologue
	mov	QWORD PTR 16[rbp], rcx
.LBB34:
	.loc 3 561 15
	mov	rax, QWORD PTR 16[rbp]
	mov	rcx, rax
	call	_ZNSt10_Head_baseILy1ESt14default_deleteI10ConnectionELb1EEC2Ev
.LBE34:
	.loc 3 561 19
	nop
	add	rsp, 32
	pop	rbp
	.cfi_restore 6
	.cfi_def_cfa 7, 8
	ret
	.cfi_endproc
.LFE4257:
	.seh_endproc
	.section	.text$_ZNSt10_Head_baseILy0EP10ConnectionLb0EEC2Ev,"x"
	.linkonce discard
	.align 2
	.globl	_ZNSt10_Head_baseILy0EP10ConnectionLb0EEC2Ev
	.def	_ZNSt10_Head_baseILy0EP10ConnectionLb0EEC2Ev;	.scl	2;	.type	32;	.endef
	.seh_proc	_ZNSt10_Head_baseILy0EP10ConnectionLb0EEC2Ev
_ZNSt10_Head_baseILy0EP10ConnectionLb0EEC2Ev:
.LFB4260:
	.loc 3 202 17
	.cfi_startproc
	push	rbp
	.seh_pushreg	rbp
	.cfi_def_cfa_offset 16
	.cfi_offset 6, -16
	mov	rbp, rsp
	.seh_setframe	rbp, 0
	.cfi_def_cfa_register 6
	.seh_endprologue
	mov	QWORD PTR 16[rbp], rcx
.LBB35:
	.loc 3 203 9
	mov	rax, QWORD PTR 16[rbp]
	mov	QWORD PTR [rax], 0
.LBE35:
	.loc 3 203 26
	nop
	pop	rbp
	.cfi_restore 6
	.cfi_def_cfa 7, 8
	ret
	.cfi_endproc
.LFE4260:
	.seh_endproc
	.section	.text$_ZNSt11_Tuple_implILy1EJSt14default_deleteI10ConnectionEEE7_M_headERS3_,"x"
	.linkonce discard
	.globl	_ZNSt11_Tuple_implILy1EJSt14default_deleteI10ConnectionEEE7_M_headERS3_
	.def	_ZNSt11_Tuple_implILy1EJSt14default_deleteI10ConnectionEEE7_M_headERS3_;	.scl	2;	.type	32;	.endef
	.seh_proc	_ZNSt11_Tuple_implILy1EJSt14default_deleteI10ConnectionEEE7_M_headERS3_
_ZNSt11_Tuple_implILy1EJSt14default_deleteI10ConnectionEEE7_M_headERS3_:
.LFB4262:
	.loc 3 554 7
	.cfi_startproc
	push	rbp
	.seh_pushreg	rbp
	.cfi_def_cfa_offset 16
	.cfi_offset 6, -16
	mov	rbp, rsp
	.seh_setframe	rbp, 0
	.cfi_def_cfa_register 6
	sub	rsp, 32
	.seh_stackalloc	32
	.seh_endprologue
	mov	QWORD PTR 16[rbp], rcx
	.loc 3 554 65
	mov	rax, QWORD PTR 16[rbp]
	mov	rcx, rax
	call	_ZNSt10_Head_baseILy1ESt14default_deleteI10ConnectionELb1EE7_M_headERS3_
	.loc 3 554 72
	add	rsp, 32
	pop	rbp
	.cfi_restore 6
	.cfi_def_cfa 7, 8
	ret
	.cfi_endproc
.LFE4262:
	.seh_endproc
	.section	.text$_ZNSt10_Head_baseILy1ESt14default_deleteI10ConnectionELb1EEC2Ev,"x"
	.linkonce discard
	.align 2
	.globl	_ZNSt10_Head_baseILy1ESt14default_deleteI10ConnectionELb1EEC2Ev
	.def	_ZNSt10_Head_baseILy1ESt14default_deleteI10ConnectionELb1EEC2Ev;	.scl	2;	.type	32;	.endef
	.seh_proc	_ZNSt10_Head_baseILy1ESt14default_deleteI10ConnectionELb1EEC2Ev
_ZNSt10_Head_baseILy1ESt14default_deleteI10ConnectionELb1EEC2Ev:
.LFB4273:
	.loc 3 93 17
	.cfi_startproc
	push	rbp
	.seh_pushreg	rbp
	.cfi_def_cfa_offset 16
	.cfi_offset 6, -16
	mov	rbp, rsp
	.seh_setframe	rbp, 0
	.cfi_def_cfa_register 6
	.seh_endprologue
	mov	QWORD PTR 16[rbp], rcx
	.loc 3 94 26
	nop
	pop	rbp
	.cfi_restore 6
	.cfi_def_cfa 7, 8
	ret
	.cfi_endproc
.LFE4273:
	.seh_endproc
	.section	.text$_ZNSt10_Head_baseILy1ESt14default_deleteI10ConnectionELb1EE7_M_headERS3_,"x"
	.linkonce discard
	.globl	_ZNSt10_Head_baseILy1ESt14default_deleteI10ConnectionELb1EE7_M_headERS3_
	.def	_ZNSt10_Head_baseILy1ESt14default_deleteI10ConnectionELb1EE7_M_headERS3_;	.scl	2;	.type	32;	.endef
	.seh_proc	_ZNSt10_Head_baseILy1ESt14default_deleteI10ConnectionELb1EE7_M_headERS3_
_ZNSt10_Head_baseILy1ESt14default_deleteI10ConnectionELb1EE7_M_headERS3_:
.LFB4275:
	.loc 3 137 7
	.cfi_startproc
	push	rbp
	.seh_pushreg	rbp
	.cfi_def_cfa_offset 16
	.cfi_offset 6, -16
	mov	rbp, rsp
	.seh_setframe	rbp, 0
	.cfi_def_cfa_register 6
	.seh_endprologue
	mov	QWORD PTR 16[rbp], rcx
	.loc 3 137 54
	mov	rax, QWORD PTR 16[rbp]
	.loc 3 137 68
	pop	rbp
	.cfi_restore 6
	.cfi_def_cfa 7, 8
	ret
	.cfi_endproc
.LFE4275:
	.seh_endproc
	.text
.Letext0:
	.file 5 "C:/Qt/Tools/mingw1530_64/include/c++/15.3.0/type_traits"
	.file 6 "C:/Qt/Tools/mingw1530_64/include/c++/15.3.0/x86_64-w64-mingw32/bits/c++config.h"
	.file 7 "C:/Qt/Tools/mingw1530_64/include/c++/15.3.0/concepts"
	.file 8 "C:/Qt/Tools/mingw1530_64/include/c++/15.3.0/bits/iterator_concepts.h"
	.file 9 "C:/Qt/Tools/mingw1530_64/include/c++/15.3.0/compare"
	.file 10 "C:/Qt/Tools/mingw1530_64/include/c++/15.3.0/debug/debug.h"
	.file 11 "C:/Qt/Tools/mingw1530_64/include/c++/15.3.0/bits/uses_allocator.h"
	.file 12 "C:/Qt/Tools/mingw1530_64/include/c++/15.3.0/numbers"
	.file 13 "C:/Qt/Tools/mingw1530_64/include/c++/15.3.0/cwchar"
	.file 14 "C:/Qt/Tools/mingw1530_64/include/c++/15.3.0/bits/exception_ptr.h"
	.file 15 "C:/Qt/Tools/mingw1530_64/include/c++/15.3.0/clocale"
	.file 16 "C:/Qt/Tools/mingw1530_64/include/c++/15.3.0/cstdlib"
	.file 17 "C:/Qt/Tools/mingw1530_64/include/c++/15.3.0/cstdio"
	.file 18 "C:/Qt/Tools/mingw1530_64/include/c++/15.3.0/cstddef"
	.file 19 "C:/Qt/Tools/mingw1530_64/include/c++/15.3.0/bits/memory_resource.h"
	.file 20 "C:/Qt/Tools/mingw1530_64/include/c++/15.3.0/system_error"
	.file 21 "C:/Qt/Tools/mingw1530_64/include/c++/15.3.0/cwctype"
	.file 22 "C:/Qt/Tools/mingw1530_64/include/c++/15.3.0/bits/shared_ptr_base.h"
	.file 23 "C:/Qt/Tools/mingw1530_64/include/c++/15.3.0/cstdint"
	.file 24 "C:/Qt/Tools/mingw1530_64/include/c++/15.3.0/bits/utility.h"
	.file 25 "C:/Qt/Tools/mingw1530_64/include/c++/15.3.0/bits/predefined_ops.h"
	.file 26 "C:/Qt/Tools/mingw1530_64/include/c++/15.3.0/bits/ptr_traits.h"
	.file 27 "C:/Qt/Tools/mingw1530_64/x86_64-w64-mingw32/include/corecrt.h"
	.file 28 "C:/Qt/Tools/mingw1530_64/x86_64-w64-mingw32/include/locale.h"
	.file 29 "C:/Qt/Tools/mingw1530_64/x86_64-w64-mingw32/include/stddef.h"
	.file 30 "C:/Qt/Tools/mingw1530_64/x86_64-w64-mingw32/include/wchar.h"
	.file 31 "C:/Qt/Tools/mingw1530_64/x86_64-w64-mingw32/include/swprintf.inl"
	.file 32 "C:/Qt/Tools/mingw1530_64/x86_64-w64-mingw32/include/stdio.h"
	.file 33 "C:/Qt/Tools/mingw1530_64/x86_64-w64-mingw32/include/stdlib.h"
	.file 34 "C:/Qt/Tools/mingw1530_64/x86_64-w64-mingw32/include/process.h"
	.file 35 "C:/Qt/Tools/mingw1530_64/x86_64-w64-mingw32/include/wctype.h"
	.file 36 "C:/Qt/Tools/mingw1530_64/x86_64-w64-mingw32/include/corecrt_wctype.h"
	.file 37 "C:/Qt/Tools/mingw1530_64/x86_64-w64-mingw32/include/stdint.h"
	.file 38 "C:/Qt/Tools/mingw1530_64/include/c++/15.3.0/pstl/execution_defs.h"
	.file 39 "C:/Qt/Tools/mingw1530_64/include/c++/15.3.0/new"
	.file 40 "C:/Qt/Tools/mingw1530_64/include/c++/15.3.0/bits/ranges_cmp.h"
	.file 41 "C:/Qt/Tools/mingw1530_64/include/c++/15.3.0/ext/concurrence.h"