	.file	"_ch147_race.cpp"
	.intel_syntax noprefix
	.text
.Ltext0:
	.cfi_sections	.debug_frame
	.file 0 "C:/CodeLearnling/note/note/C++/CPP-Bible" "Examples/_ch147_race.cpp"
	.section	.text$_ZNSt6thread2idC1Ev,"x"
	.linkonce discard
	.align 2
	.globl	_ZNSt6thread2idC1Ev
	.def	_ZNSt6thread2idC1Ev;	.scl	2;	.type	32;	.endef
	.seh_proc	_ZNSt6thread2idC1Ev
_ZNSt6thread2idC1Ev:
.LFB3128:
	.file 1 "C:/Qt/Tools/mingw1530_64/include/c++/15.3.0/bits/std_thread.h"
	.loc 1 103 7
	.cfi_startproc
	push	rbp
	.seh_pushreg	rbp
	.cfi_def_cfa_offset 16
	.cfi_offset 6, -16
	mov	rbp, rsp
	.seh_setframe	rbp, 0
	.cfi_def_cfa_register 6
	.seh_endprologue
	mov	QWORD PTR 16[rbp], rcx
.LBB27:
	.loc 1 103 23
	mov	rax, QWORD PTR 16[rbp]
	mov	QWORD PTR [rax], 0
.LBE27:
	.loc 1 103 37
	nop
	pop	rbp
	.cfi_restore 6
	.cfi_def_cfa 7, 8
	ret
	.cfi_endproc
.LFE3128:
	.seh_endproc
	.section	.text$_ZNSt6thread24_M_thread_deps_never_runEv,"x"
	.linkonce discard
	.globl	_ZNSt6thread24_M_thread_deps_never_runEv
	.def	_ZNSt6thread24_M_thread_deps_never_runEv;	.scl	2;	.type	32;	.endef
	.seh_proc	_ZNSt6thread24_M_thread_deps_never_runEv
_ZNSt6thread24_M_thread_deps_never_runEv:
.LFB3132:
	.loc 1 154 5
	.cfi_startproc
	push	rbp
	.seh_pushreg	rbp
	.cfi_def_cfa_offset 16
	.cfi_offset 6, -16
	mov	rbp, rsp
	.seh_setframe	rbp, 0
	.cfi_def_cfa_register 6
	.seh_endprologue
	.loc 1 159 5
	nop
	pop	rbp
	.cfi_restore 6
	.cfi_def_cfa 7, 8
	ret
	.cfi_endproc
.LFE3132:
	.seh_endproc
	.section	.text$_ZNSt6threadD1Ev,"x"
	.linkonce discard
	.align 2
	.globl	_ZNSt6threadD1Ev
	.def	_ZNSt6threadD1Ev;	.scl	2;	.type	32;	.endef
	.seh_proc	_ZNSt6threadD1Ev
_ZNSt6threadD1Ev:
.LFB3136:
	.loc 1 181 5
	.cfi_startproc
	push	rbp
	.seh_pushreg	rbp
	.cfi_def_cfa_offset 16
	.cfi_offset 6, -16
	mov	rbp, rsp
	.seh_setframe	rbp, 0
	.cfi_def_cfa_register 6
	sub	rsp, 32
	.seh_stackalloc	32
	.seh_endprologue
	mov	QWORD PTR 16[rbp], rcx
.LBB28:
	.loc 1 183 19
	mov	rax, QWORD PTR 16[rbp]
	mov	rcx, rax
	call	_ZNKSt6thread8joinableEv
	.loc 1 183 7 discriminator 1
	test	al, al
	je	.L5
.LBB29:
.LBB30:
	.file 2 "C:/Qt/Tools/mingw1530_64/include/c++/15.3.0/x86_64-w64-mingw32/bits/c++config.h"
	.loc 2 352 14
	call	_ZSt9terminatev
.L5:
.LBE30:
.LBE29:
.LBE28:
	.loc 1 185 5
	nop
	add	rsp, 32
	pop	rbp
	.cfi_restore 6
	.cfi_def_cfa 7, 8
	ret
	.cfi_endproc
.LFE3136:
	.seh_endproc
	.section	.text$_ZNKSt6thread8joinableEv,"x"
	.linkonce discard
	.align 2
	.globl	_ZNKSt6thread8joinableEv
	.def	_ZNKSt6thread8joinableEv;	.scl	2;	.type	32;	.endef
	.seh_proc	_ZNKSt6thread8joinableEv
_ZNKSt6thread8joinableEv:
.LFB3143:
	.loc 1 207 5
	.cfi_startproc
	push	rbp
	.seh_pushreg	rbp
	.cfi_def_cfa_offset 16
	.cfi_offset 6, -16
	mov	rbp, rsp
	.seh_setframe	rbp, 0
	.cfi_def_cfa_register 6
	sub	rsp, 48
	.seh_stackalloc	48
	.seh_endprologue
	mov	QWORD PTR 16[rbp], rcx
	.loc 1 208 28
	lea	rax, -8[rbp]
	mov	rcx, rax
	call	_ZNSt6thread2idC1Ev
	.loc 1 208 22 discriminator 1
	mov	rdx, QWORD PTR -8[rbp]
	mov	rax, QWORD PTR 16[rbp]
	mov	rax, QWORD PTR [rax]
	mov	rcx, rax
	call	_ZSteqNSt6thread2idES0_
	.loc 1 208 29 discriminator 2
	xor	eax, 1
	.loc 1 208 32
	add	rsp, 48
	pop	rbp
	.cfi_restore 6
	.cfi_def_cfa 7, 8
	ret
	.cfi_endproc
.LFE3143:
	.seh_endproc
	.section	.text$_ZSteqNSt6thread2idES0_,"x"
	.linkonce discard
	.globl	_ZSteqNSt6thread2idES0_
	.def	_ZSteqNSt6thread2idES0_;	.scl	2;	.type	32;	.endef
	.seh_proc	_ZSteqNSt6thread2idES0_
_ZSteqNSt6thread2idES0_:
.LFB3152:
	.loc 1 336 3
	.cfi_startproc
	push	rbp
	.seh_pushreg	rbp
	.cfi_def_cfa_offset 16
	.cfi_offset 6, -16
	mov	rbp, rsp
	.seh_setframe	rbp, 0
	.cfi_def_cfa_register 6
	.seh_endprologue
	mov	QWORD PTR 16[rbp], rcx
	mov	QWORD PTR 24[rbp], rdx
	.loc 1 341 16
	mov	rdx, QWORD PTR 16[rbp]
	.loc 1 341 33
	mov	rax, QWORD PTR 24[rbp]
	cmp	rdx, rax
	sete	al
	.loc 1 342 3
	pop	rbp
	.cfi_restore 6
	.cfi_def_cfa 7, 8
	ret
	.cfi_endproc
.LFE3152:
	.seh_endproc
	.globl	g
	.bss
	.align 4
g:
	.space 4
	.text
	.globl	_Z3incv
	.def	_Z3incv;	.scl	2;	.type	32;	.endef
	.seh_proc	_Z3incv
_Z3incv:
.LFB4849:
	.file 3 "Examples/_ch147_race.cpp"
	.loc 3 3 11
	.cfi_startproc
	push	rbp
	.seh_pushreg	rbp
	.cfi_def_cfa_offset 16
	.cfi_offset 6, -16
	mov	rbp, rsp
	.seh_setframe	rbp, 0
	.cfi_def_cfa_register 6
	sub	rsp, 16
	.seh_stackalloc	16
	.seh_endprologue
.LBB31:
	.loc 3 3 21
	mov	DWORD PTR -4[rbp], 0
	.loc 3 3 13
	jmp	.L11
.L12:
	.loc 3 3 39 discriminator 3
	mov	eax, DWORD PTR g[rip]
	add	eax, 1
	mov	DWORD PTR g[rip], eax
	.loc 3 3 13 discriminator 3
	add	DWORD PTR -4[rbp], 1
.L11:
	.loc 3 3 26 discriminator 1
	cmp	DWORD PTR -4[rbp], 99999
	jle	.L12
.LBE31:
	.loc 3 3 44
	nop
	nop
	add	rsp, 16
	pop	rbp
	.cfi_restore 6
	.cfi_def_cfa 7, 8
	ret
	.cfi_endproc
.LFE4849:
	.seh_endproc
	.globl	main
	.def	main;	.scl	2;	.type	32;	.endef
	.seh_proc	main
main:
.LFB4850:
	.loc 3 4 11
	.cfi_startproc
	push	rbp
	.seh_pushreg	rbp
	.cfi_def_cfa_offset 16
	.cfi_offset 6, -16
	push	rbx
	.seh_pushreg	rbx
	.cfi_def_cfa_offset 24
	.cfi_offset 3, -24
	sub	rsp, 56
	.seh_stackalloc	56
	.cfi_def_cfa_offset 80
	lea	rbp, 48[rsp]
	.seh_setframe	rbp, 48
	.cfi_def_cfa 6, 32
	.seh_endprologue
	.loc 3 4 11
	call	__main
	.loc 3 4 30
	lea	rdx, _Z3incv[rip]
	lea	rax, -8[rbp]
	mov	rcx, rax
.LEHB0:
	call	_ZNSt6threadC1IRFvvEJEvEEOT_DpOT0_
.LEHE0:
	.loc 3 4 38 discriminator 2
	lea	rdx, _Z3incv[rip]
	lea	rax, -16[rbp]
	mov	rcx, rax
.LEHB1:
	call	_ZNSt6threadC1IRFvvEJEvEEOT_DpOT0_
.LEHE1:
	.loc 3 4 47 discriminator 5
	lea	rax, -8[rbp]
	mov	rcx, rax
.LEHB2:
	call	_ZNSt6thread4joinEv
	.loc 3 4 57 discriminator 8
	lea	rax, -16[rbp]
	mov	rcx, rax
	call	_ZNSt6thread4joinEv
.LEHE2:
	.loc 3 4 61 discriminator 11
	lea	rax, -16[rbp]
	mov	rcx, rax
	call	_ZNSt6threadD1Ev
	.loc 3 4 61 is_stmt 0 discriminator 12
	lea	rax, -8[rbp]
	mov	rcx, rax
	call	_ZNSt6threadD1Ev
	.loc 3 4 61 discriminator 11
	mov	eax, 0
	.loc 3 4 61
	jmp	.L19
.L18:
	.loc 3 4 61 discriminator 10
	mov	rbx, rax
	lea	rax, -16[rbp]
	mov	rcx, rax
	call	_ZNSt6threadD1Ev
	jmp	.L16
.L17:
	.loc 3 4 61 discriminator 4
	mov	rbx, rax
.L16:
	lea	rax, -8[rbp]
	mov	rcx, rax
	call	_ZNSt6threadD1Ev
	mov	rax, rbx
	mov	rcx, rax
.LEHB3:
	call	_Unwind_Resume
.LEHE3:
.L19:
	.loc 3 4 61
	add	rsp, 56
	pop	rbx
	.cfi_restore 3
	pop	rbp
	.cfi_restore 6
	.cfi_def_cfa 7, -40
	ret
	.cfi_endproc
.LFE4850:
	.seh_handler	__gxx_personality_seh0, @unwind, @except
	.seh_handlerdata
.LLSDA4850:
	.byte	0xff
	.byte	0xff
	.byte	0x1
	.uleb128 .LLSDACSE4850-.LLSDACSB4850
.LLSDACSB4850:
	.uleb128 .LEHB0-.LFB4850
	.uleb128 .LEHE0-.LEHB0
	.uleb128 0
	.uleb128 0
	.uleb128 .LEHB1-.LFB4850
	.uleb128 .LEHE1-.LEHB1
	.uleb128 .L17-.LFB4850
	.uleb128 0
	.uleb128 .LEHB2-.LFB4850
	.uleb128 .LEHE2-.LEHB2
	.uleb128 .L18-.LFB4850
	.uleb128 0
	.uleb128 .LEHB3-.LFB4850
	.uleb128 .LEHE3-.LEHB3
	.uleb128 0
	.uleb128 0
.LLSDACSE4850:
	.text
	.seh_endproc
	.section	.text$_ZNSt6threadC1IRFvvEJEvEEOT_DpOT0_,"x"
	.linkonce discard
	.align 2
	.globl	_ZNSt6threadC1IRFvvEJEvEEOT_DpOT0_
	.def	_ZNSt6threadC1IRFvvEJEvEEOT_DpOT0_;	.scl	2;	.type	32;	.endef
	.seh_proc	_ZNSt6threadC1IRFvvEJEvEEOT_DpOT0_
_ZNSt6threadC1IRFvvEJEvEEOT_DpOT0_:
.LFB5402:
	.loc 1 165 7 is_stmt 1
	.cfi_startproc
	push	rbp
	.seh_pushreg	rbp
	.cfi_def_cfa_offset 16
	.cfi_offset 6, -16
	push	rdi
	.seh_pushreg	rdi
	.cfi_def_cfa_offset 24
	.cfi_offset 5, -24
	push	rsi
	.seh_pushreg	rsi
	.cfi_def_cfa_offset 32
	.cfi_offset 4, -32
	push	rbx
	.seh_pushreg	rbx
	.cfi_def_cfa_offset 40
	.cfi_offset 3, -40
	sub	rsp, 56
	.seh_stackalloc	56
	.cfi_def_cfa_offset 96
	lea	rbp, 48[rsp]
	.seh_setframe	rbp, 48
	.cfi_def_cfa 6, 48
	.seh_endprologue
	mov	QWORD PTR 48[rbp], rcx
	mov	QWORD PTR 56[rbp], rdx
.LBB32:
	.loc 1 166 7
	mov	rax, QWORD PTR 48[rbp]
	mov	rcx, rax
	call	_ZNSt6thread2idC1Ev
.LBB33:
	.loc 1 175 29
	mov	ecx, 16
.LEHB4:
	call	_Znwy
.LEHE4:
	mov	rbx, rax
	.loc 1 175 18 discriminator 3
	mov	esi, 1
	mov	rax, QWORD PTR 56[rbp]
	mov	QWORD PTR -8[rbp], rax
.LBB34:
.LBB35:
	.file 4 "C:/Qt/Tools/mingw1530_64/include/c++/15.3.0/bits/move.h"
	.loc 4 73 36
	mov	rax, QWORD PTR -8[rbp]
.LBE35:
.LBE34:
	.loc 1 175 29 discriminator 4
	mov	rdx, rax
	mov	rcx, rbx
.LEHB5:
	call	_ZNSt6thread11_State_implINS_8_InvokerISt5tupleIJPFvvEEEEEEC1IJRS3_EEEDpOT_
.LEHE5:
	.loc 1 175 18 discriminator 7
	mov	esi, 0
	lea	rax, -16[rbp]
	mov	rdx, rbx
	mov	rcx, rax
	call	_ZNSt10unique_ptrINSt6thread6_StateESt14default_deleteIS1_EEC1IS3_vEEPS1_
	.loc 1 175 17 discriminator 8
	lea	rax, _ZNSt6thread24_M_thread_deps_never_runEv[rip]
	mov	rcx, rax
	lea	rdx, -16[rbp]
	mov	rax, QWORD PTR 48[rbp]
	mov	r8, rcx
	mov	rcx, rax
.LEHB6:
	call	_ZNSt6thread15_M_start_threadESt10unique_ptrINS_6_StateESt14default_deleteIS1_EEPFvvE
.LEHE6:
	.loc 1 175 18 discriminator 11
	lea	rax, -16[rbp]
	mov	rcx, rax
	call	_ZNSt10unique_ptrINSt6thread6_StateESt14default_deleteIS1_EED1Ev
	.loc 1 175 18 is_stmt 0 discriminator 12
	test	sil, sil
	je	.L28
	.loc 1 175 29 is_stmt 1 discriminator 13
	mov	edx, 16
	mov	rcx, rbx
	call	_ZdlPvy
.LBE33:
.LBE32:
	.loc 1 178 7
	jmp	.L28
.L27:
.LBB37:
.LBB36:
	.loc 1 175 18 discriminator 10
	mov	rdi, rax
	lea	rax, -16[rbp]
	mov	rcx, rax
	call	_ZNSt10unique_ptrINSt6thread6_StateESt14default_deleteIS1_EED1Ev
	jmp	.L24
.L26:
	.loc 1 175 18 is_stmt 0 discriminator 6
	mov	rdi, rax
.L24:
	test	sil, sil
	je	.L25
	.loc 1 175 29 is_stmt 1 discriminator 18
	mov	edx, 16
	mov	rcx, rbx
	call	_ZdlPvy
.L25:
	mov	rax, rdi
	mov	rcx, rax
.LEHB7:
	call	_Unwind_Resume
.LEHE7:
.L28:
.LBE36:
.LBE37:
	.loc 1 178 7
	nop
	add	rsp, 56
	pop	rbx
	.cfi_restore 3
	pop	rsi
	.cfi_restore 4
	pop	rdi
	.cfi_restore 5
	pop	rbp
	.cfi_restore 6
	.cfi_def_cfa 7, -24
	ret
	.cfi_endproc
.LFE5402:
	.seh_handler	__gxx_personality_seh0, @unwind, @except
	.seh_handlerdata
.LLSDA5402:
	.byte	0xff
	.byte	0xff
	.byte	0x1
	.uleb128 .LLSDACSE5402-.LLSDACSB5402
.LLSDACSB5402:
	.uleb128 .LEHB4-.LFB5402
	.uleb128 .LEHE4-.LEHB4
	.uleb128 0
	.uleb128 0
	.uleb128 .LEHB5-.LFB5402
	.uleb128 .LEHE5-.LEHB5
	.uleb128 .L26-.LFB5402
	.uleb128 0
	.uleb128 .LEHB6-.LFB5402
	.uleb128 .LEHE6-.LEHB6
	.uleb128 .L27-.LFB5402
	.uleb128 0
	.uleb128 .LEHB7-.LFB5402
	.uleb128 .LEHE7-.LEHB7
	.uleb128 0
	.uleb128 0
.LLSDACSE5402:
	.section	.text$_ZNSt6threadC1IRFvvEJEvEEOT_DpOT0_,"x"
	.linkonce discard
	.seh_endproc
	.section	.text$_ZNSt6thread6_StateC2Ev,"x"
	.linkonce discard
	.align 2
	.globl	_ZNSt6thread6_StateC2Ev
	.def	_ZNSt6thread6_StateC2Ev;	.scl	2;	.type	32;	.endef
	.seh_proc	_ZNSt6thread6_StateC2Ev
_ZNSt6thread6_StateC2Ev:
.LFB5685:
	.loc 1 236 12
	.cfi_startproc
	push	rbp
	.seh_pushreg	rbp
	.cfi_def_cfa_offset 16
	.cfi_offset 6, -16
	mov	rbp, rsp
	.seh_setframe	rbp, 0
	.cfi_def_cfa_register 6
	.seh_endprologue
	mov	QWORD PTR 16[rbp], rcx
.LBB38:
	.loc 1 236 12
	mov	rax, QWORD PTR .refptr._ZTVNSt6thread6_StateE[rip]
	lea	rdx, 16[rax]
	mov	rax, QWORD PTR 16[rbp]
	mov	QWORD PTR [rax], rdx
.LBE38:
	nop
	pop	rbp
	.cfi_restore 6
	.cfi_def_cfa 7, 8
	ret
	.cfi_endproc
.LFE5685:
	.seh_endproc
	.section	.text$_ZNSt6thread11_State_implINS_8_InvokerISt5tupleIJPFvvEEEEEEC1IJRS3_EEEDpOT_,"x"
	.linkonce discard
	.align 2
	.globl	_ZNSt6thread11_State_implINS_8_InvokerISt5tupleIJPFvvEEEEEEC1IJRS3_EEEDpOT_
	.def	_ZNSt6thread11_State_implINS_8_InvokerISt5tupleIJPFvvEEEEEEC1IJRS3_EEEDpOT_;	.scl	2;	.type	32;	.endef
	.seh_proc	_ZNSt6thread11_State_implINS_8_InvokerISt5tupleIJPFvvEEEEEEC1IJRS3_EEEDpOT_
_ZNSt6thread11_State_implINS_8_InvokerISt5tupleIJPFvvEEEEEEC1IJRS3_EEEDpOT_:
.LFB5688:
	.loc 1 250 4
	.cfi_startproc
	push	rbp
	.seh_pushreg	rbp
	.cfi_def_cfa_offset 16
	.cfi_offset 6, -16
	mov	rbp, rsp
	.seh_setframe	rbp, 0
	.cfi_def_cfa_register 6
	sub	rsp, 48
	.seh_stackalloc	48
	.seh_endprologue
	mov	QWORD PTR 16[rbp], rcx
	mov	QWORD PTR 24[rbp], rdx
.LBB39:
	.loc 1 251 44
	mov	rax, QWORD PTR 16[rbp]
	mov	rcx, rax
	call	_ZNSt6thread6_StateC2Ev
	.loc 1 251 44 is_stmt 0 discriminator 1
	lea	rdx, _ZTVNSt6thread11_State_implINS_8_InvokerISt5tupleIJPFvvEEEEEEE[rip+16]
	mov	rax, QWORD PTR 16[rbp]
	mov	QWORD PTR [rax], rdx
	.loc 1 251 6 is_stmt 1 discriminator 1
	mov	rax, QWORD PTR 16[rbp]
	lea	rcx, 8[rax]
	mov	rax, QWORD PTR 24[rbp]
	mov	QWORD PTR -8[rbp], rax
.LBB40:
.LBB41:
	.loc 4 73 36
	mov	rax, QWORD PTR -8[rbp]
.LBE41:
.LBE40:
	.loc 1 251 6 discriminator 2
	mov	rdx, rax
	call	_ZNSt6thread8_InvokerISt5tupleIJPFvvEEEEC1IJRS2_EEEDpOT_
.LBE39:
	.loc 1 252 6
	nop
	add	rsp, 48
	pop	rbp
	.cfi_restore 6
	.cfi_def_cfa 7, 8
	ret
	.cfi_endproc
.LFE5688:
	.seh_endproc
	.section	.text$_ZNSt15__uniq_ptr_dataINSt6thread6_StateESt14default_deleteIS1_ELb1ELb1EECI1St15__uniq_ptr_implIS1_S3_EEPS1_,"x"
	.linkonce discard
	.align 2
	.globl	_ZNSt15__uniq_ptr_dataINSt6thread6_StateESt14default_deleteIS1_ELb1ELb1EECI1St15__uniq_ptr_implIS1_S3_EEPS1_
	.def	_ZNSt15__uniq_ptr_dataINSt6thread6_StateESt14default_deleteIS1_ELb1ELb1EECI1St15__uniq_ptr_implIS1_S3_EEPS1_;	.scl	2;	.type	32;	.endef
	.seh_proc	_ZNSt15__uniq_ptr_dataINSt6thread6_StateESt14default_deleteIS1_ELb1ELb1EECI1St15__uniq_ptr_implIS1_S3_EEPS1_
_ZNSt15__uniq_ptr_dataINSt6thread6_StateESt14default_deleteIS1_ELb1ELb1EECI1St15__uniq_ptr_implIS1_S3_EEPS1_:
.LFB5692:
	.file 5 "C:/Qt/Tools/mingw1530_64/include/c++/15.3.0/bits/unique_ptr.h"
	.loc 5 234 40
	.cfi_startproc
	push	rbp
	.seh_pushreg	rbp
	.cfi_def_cfa_offset 16
	.cfi_offset 6, -16
	mov	rbp, rsp
	.seh_setframe	rbp, 0
	.cfi_def_cfa_register 6
	sub	rsp, 32
	.seh_stackalloc	32
	.seh_endprologue
	mov	QWORD PTR 16[rbp], rcx
	mov	QWORD PTR 24[rbp], rdx
.LBB42:
	.loc 5 234 40
	mov	rax, QWORD PTR 16[rbp]
	mov	rdx, QWORD PTR 24[rbp]
	mov	rcx, rax
	call	_ZNSt15__uniq_ptr_implINSt6thread6_StateESt14default_deleteIS1_EEC2EPS1_
.LBE42:
	nop
	add	rsp, 32
	pop	rbp
	.cfi_restore 6
	.cfi_def_cfa 7, 8
	ret
	.cfi_endproc
.LFE5692:
	.seh_endproc
	.section	.text$_ZNSt10unique_ptrINSt6thread6_StateESt14default_deleteIS1_EEC1IS3_vEEPS1_,"x"
	.linkonce discard
	.align 2
	.globl	_ZNSt10unique_ptrINSt6thread6_StateESt14default_deleteIS1_EEC1IS3_vEEPS1_
	.def	_ZNSt10unique_ptrINSt6thread6_StateESt14default_deleteIS1_EEC1IS3_vEEPS1_;	.scl	2;	.type	32;	.endef
	.seh_proc	_ZNSt10unique_ptrINSt6thread6_StateESt14default_deleteIS1_EEC1IS3_vEEPS1_
_ZNSt10unique_ptrINSt6thread6_StateESt14default_deleteIS1_EEC1IS3_vEEPS1_:
.LFB5694:
	.loc 5 320 2
	.cfi_startproc
	push	rbp
	.seh_pushreg	rbp
	.cfi_def_cfa_offset 16
	.cfi_offset 6, -16
	mov	rbp, rsp
	.seh_setframe	rbp, 0
	.cfi_def_cfa_register 6
	sub	rsp, 32
	.seh_stackalloc	32
	.seh_endprologue
	mov	QWORD PTR 16[rbp], rcx
	mov	QWORD PTR 24[rbp], rdx
.LBB43:
	.loc 5 321 4
	mov	rax, QWORD PTR 16[rbp]
	mov	rdx, QWORD PTR 24[rbp]
	mov	rcx, rax
	call	_ZNSt15__uniq_ptr_dataINSt6thread6_StateESt14default_deleteIS1_ELb1ELb1EECI1St15__uniq_ptr_implIS1_S3_EEPS1_
.LBE43:
	.loc 5 322 11
	nop
	add	rsp, 32
	pop	rbp
	.cfi_restore 6
	.cfi_def_cfa 7, 8
	ret
	.cfi_endproc
.LFE5694:
	.seh_endproc
	.section	.text$_ZNSt15__uniq_ptr_implINSt6thread6_StateESt14default_deleteIS1_EE6_M_ptrEv,"x"
	.linkonce discard
	.align 2
	.globl	_ZNSt15__uniq_ptr_implINSt6thread6_StateESt14default_deleteIS1_EE6_M_ptrEv
	.def	_ZNSt15__uniq_ptr_implINSt6thread6_StateESt14default_deleteIS1_EE6_M_ptrEv;	.scl	2;	.type	32;	.endef
	.seh_proc	_ZNSt15__uniq_ptr_implINSt6thread6_StateESt14default_deleteIS1_EE6_M_ptrEv
_ZNSt15__uniq_ptr_implINSt6thread6_StateESt14default_deleteIS1_EE6_M_ptrEv:
.LFB5696:
	.loc 5 190 18
	.cfi_startproc
	push	rbp
	.seh_pushreg	rbp
	.cfi_def_cfa_offset 16
	.cfi_offset 6, -16
	mov	rbp, rsp
	.seh_setframe	rbp, 0
	.cfi_def_cfa_register 6
	sub	rsp, 32
	.seh_stackalloc	32
	.seh_endprologue
	mov	QWORD PTR 16[rbp], rcx
	.loc 5 190 57
	mov	rax, QWORD PTR 16[rbp]
	.loc 5 190 56
	mov	rcx, rax
	call	_ZSt3getILy0EJPNSt6thread6_StateESt14default_deleteIS1_EEERNSt13tuple_elementIXT_ESt5tupleIJDpT0_EEE4typeERS9_
	.loc 5 190 64
	add	rsp, 32
	pop	rbp
	.cfi_restore 6
	.cfi_def_cfa 7, 8
	ret
	.cfi_endproc
.LFE5696:
	.seh_endproc
	.section	.text$_ZSt3getILy0EJPNSt6thread6_StateESt14default_deleteIS1_EEERNSt13tuple_elementIXT_ESt5tupleIJDpT0_EEE4typeERS9_,"x"
	.linkonce discard
	.globl	_ZSt3getILy0EJPNSt6thread6_StateESt14default_deleteIS1_EEERNSt13tuple_elementIXT_ESt5tupleIJDpT0_EEE4typeERS9_
	.def	_ZSt3getILy0EJPNSt6thread6_StateESt14default_deleteIS1_EEERNSt13tuple_elementIXT_ESt5tupleIJDpT0_EEE4typeERS9_;	.scl	2;	.type	32;	.endef
	.seh_proc	_ZSt3getILy0EJPNSt6thread6_StateESt14default_deleteIS1_EEERNSt13tuple_elementIXT_ESt5tupleIJDpT0_EEE4typeERS9_
_ZSt3getILy0EJPNSt6thread6_StateESt14default_deleteIS1_EEERNSt13tuple_elementIXT_ESt5tupleIJDpT0_EEE4typeERS9_:
.LFB5697:
	.file 6 "C:/Qt/Tools/mingw1530_64/include/c++/15.3.0/tuple"
	.loc 6 2444 5
	.cfi_startproc
	push	rbp
	.seh_pushreg	rbp
	.cfi_def_cfa_offset 16
	.cfi_offset 6, -16
	mov	rbp, rsp
	.seh_setframe	rbp, 0
	.cfi_def_cfa_register 6
	sub	rsp, 32
	.seh_stackalloc	32
	.seh_endprologue
	mov	QWORD PTR 16[rbp], rcx
	.loc 6 2445 36
	mov	rax, QWORD PTR 16[rbp]
	mov	rcx, rax
	call	_ZSt12__get_helperILy0EPNSt6thread6_StateEJSt14default_deleteIS1_EEERT0_RSt11_Tuple_implIXT_EJS5_DpT1_EE
	.loc 6 2445 43
	add	rsp, 32
	pop	rbp
	.cfi_restore 6
	.cfi_def_cfa 7, 8
	ret
	.cfi_endproc
.LFE5697:
	.seh_endproc
	.section	.text$_ZSt12__get_helperILy0EPNSt6thread6_StateEJSt14default_deleteIS1_EEERT0_RSt11_Tuple_implIXT_EJS5_DpT1_EE,"x"
	.linkonce discard
	.globl	_ZSt12__get_helperILy0EPNSt6thread6_StateEJSt14default_deleteIS1_EEERT0_RSt11_Tuple_implIXT_EJS5_DpT1_EE
	.def	_ZSt12__get_helperILy0EPNSt6thread6_StateEJSt14default_deleteIS1_EEERT0_RSt11_Tuple_implIXT_EJS5_DpT1_EE;	.scl	2;	.type	32;	.endef
	.seh_proc	_ZSt12__get_helperILy0EPNSt6thread6_StateEJSt14default_deleteIS1_EEERT0_RSt11_Tuple_implIXT_EJS5_DpT1_EE
_ZSt12__get_helperILy0EPNSt6thread6_StateEJSt14default_deleteIS1_EEERT0_RSt11_Tuple_implIXT_EJS5_DpT1_EE:
.LFB5698:
	.loc 6 2428 5
	.cfi_startproc
	push	rbp
	.seh_pushreg	rbp
	.cfi_def_cfa_offset 16
	.cfi_offset 6, -16
	mov	rbp, rsp
	.seh_setframe	rbp, 0
	.cfi_def_cfa_register 6
	sub	rsp, 32
	.seh_stackalloc	32
	.seh_endprologue
	mov	QWORD PTR 16[rbp], rcx
	.loc 6 2429 56
	mov	rax, QWORD PTR 16[rbp]
	mov	rcx, rax
	call	_ZNSt11_Tuple_implILy0EJPNSt6thread6_StateESt14default_deleteIS1_EEE7_M_headERS5_
	.loc 6 2429 63
	add	rsp, 32
	pop	rbp
	.cfi_restore 6
	.cfi_def_cfa 7, 8
	ret
	.cfi_endproc
.LFE5698:
	.seh_endproc
	.section	.text$_ZNSt11_Tuple_implILy0EJPNSt6thread6_StateESt14default_deleteIS1_EEE7_M_headERS5_,"x"
	.linkonce discard
	.globl	_ZNSt11_Tuple_implILy0EJPNSt6thread6_StateESt14default_deleteIS1_EEE7_M_headERS5_
	.def	_ZNSt11_Tuple_implILy0EJPNSt6thread6_StateESt14default_deleteIS1_EEE7_M_headERS5_;	.scl	2;	.type	32;	.endef
	.seh_proc	_ZNSt11_Tuple_implILy0EJPNSt6thread6_StateESt14default_deleteIS1_EEE7_M_headERS5_
_ZNSt11_Tuple_implILy0EJPNSt6thread6_StateESt14default_deleteIS1_EEE7_M_headERS5_:
.LFB5699:
	.loc 6 291 7
	.cfi_startproc
	push	rbp
	.seh_pushreg	rbp
	.cfi_def_cfa_offset 16
	.cfi_offset 6, -16
	mov	rbp, rsp
	.seh_setframe	rbp, 0
	.cfi_def_cfa_register 6
	sub	rsp, 32
	.seh_stackalloc	32
	.seh_endprologue
	mov	QWORD PTR 16[rbp], rcx
	.loc 6 291 65
	mov	rax, QWORD PTR 16[rbp]
	mov	rcx, rax
	call	_ZNSt10_Head_baseILy0EPNSt6thread6_StateELb0EE7_M_headERS3_
	.loc 6 291 72
	add	rsp, 32
	pop	rbp
	.cfi_restore 6
	.cfi_def_cfa 7, 8
	ret
	.cfi_endproc
.LFE5699:
	.seh_endproc
	.section	.text$_ZNSt10_Head_baseILy0EPNSt6thread6_StateELb0EE7_M_headERS3_,"x"
	.linkonce discard
	.globl	_ZNSt10_Head_baseILy0EPNSt6thread6_StateELb0EE7_M_headERS3_
	.def	_ZNSt10_Head_baseILy0EPNSt6thread6_StateELb0EE7_M_headERS3_;	.scl	2;	.type	32;	.endef
	.seh_proc	_ZNSt10_Head_baseILy0EPNSt6thread6_StateELb0EE7_M_headERS3_
_ZNSt10_Head_baseILy0EPNSt6thread6_StateELb0EE7_M_headERS3_:
.LFB5700:
	.loc 6 246 7
	.cfi_startproc
	push	rbp
	.seh_pushreg	rbp
	.cfi_def_cfa_offset 16
	.cfi_offset 6, -16
	mov	rbp, rsp
	.seh_setframe	rbp, 0
	.cfi_def_cfa_register 6
	.seh_endprologue
	mov	QWORD PTR 16[rbp], rcx
	.loc 6 246 54
	mov	rax, QWORD PTR 16[rbp]
	.loc 6 246 68
	pop	rbp
	.cfi_restore 6
	.cfi_def_cfa 7, 8
	ret
	.cfi_endproc
.LFE5700:
	.seh_endproc
	.section	.text$_ZNSt10unique_ptrINSt6thread6_StateESt14default_deleteIS1_EED1Ev,"x"
	.linkonce discard
	.align 2
	.globl	_ZNSt10unique_ptrINSt6thread6_StateESt14default_deleteIS1_EED1Ev
	.def	_ZNSt10unique_ptrINSt6thread6_StateESt14default_deleteIS1_EED1Ev;	.scl	2;	.type	32;	.endef
	.seh_proc	_ZNSt10unique_ptrINSt6thread6_StateESt14default_deleteIS1_EED1Ev
_ZNSt10unique_ptrINSt6thread6_StateESt14default_deleteIS1_EED1Ev:
.LFB5702:
	.loc 5 402 7
	.cfi_startproc
	push	rbp
	.seh_pushreg	rbp
	.cfi_def_cfa_offset 16
	.cfi_offset 6, -16
	mov	rbp, rsp
	.seh_setframe	rbp, 0
	.cfi_def_cfa_register 6
	sub	rsp, 48
	.seh_stackalloc	48
	.seh_endprologue
	mov	QWORD PTR 16[rbp], rcx
.LBB44:
.LBB45:
	.loc 5 406 27
	mov	rax, QWORD PTR 16[rbp]
	mov	rcx, rax
	call	_ZNSt15__uniq_ptr_implINSt6thread6_StateESt14default_deleteIS1_EE6_M_ptrEv
	mov	QWORD PTR -8[rbp], rax
	.loc 5 407 12
	mov	rax, QWORD PTR -8[rbp]
	mov	rax, QWORD PTR [rax]
	.loc 5 407 2
	test	rax, rax
	je	.L45
	.loc 5 408 15
	mov	rax, QWORD PTR 16[rbp]
	mov	rcx, rax
	call	_ZNSt10unique_ptrINSt6thread6_StateESt14default_deleteIS1_EE11get_deleterEv
	mov	rcx, rax
	mov	rax, QWORD PTR -8[rbp]
	mov	QWORD PTR -16[rbp], rax
.LBB46:
.LBB47:
	.loc 4 139 74
	mov	rax, QWORD PTR -16[rbp]
.LBE47:
.LBE46:
	.loc 5 408 17 discriminator 2
	mov	rax, QWORD PTR [rax]
	mov	rdx, rax
	call	_ZNKSt14default_deleteINSt6thread6_StateEEclEPS1_
.L45:
	.loc 5 409 8
	mov	rax, QWORD PTR -8[rbp]
	mov	QWORD PTR [rax], 0
.LBE45:
.LBE44:
	.loc 5 410 7
	nop
	add	rsp, 48
	pop	rbp
	.cfi_restore 6
	.cfi_def_cfa 7, 8
	ret
	.cfi_endproc
.LFE5702:
	.seh_endproc
	.section	.text$_ZNSt6thread8_InvokerISt5tupleIJPFvvEEEEC1IJRS2_EEEDpOT_,"x"
	.linkonce discard
	.align 2
	.globl	_ZNSt6thread8_InvokerISt5tupleIJPFvvEEEEC1IJRS2_EEEDpOT_
	.def	_ZNSt6thread8_InvokerISt5tupleIJPFvvEEEEC1IJRS2_EEEDpOT_;	.scl	2;	.type	32;	.endef
	.seh_proc	_ZNSt6thread8_InvokerISt5tupleIJPFvvEEEEC1IJRS2_EEEDpOT_
_ZNSt6thread8_InvokerISt5tupleIJPFvvEEEEC1IJRS2_EEEDpOT_:
.LFB5910:
	.loc 1 287 4
	.cfi_startproc
	push	rbp
	.seh_pushreg	rbp
	.cfi_def_cfa_offset 16
	.cfi_offset 6, -16
	mov	rbp, rsp
	.seh_setframe	rbp, 0
	.cfi_def_cfa_register 6
	sub	rsp, 48
	.seh_stackalloc	48
	.seh_endprologue
	mov	QWORD PTR 16[rbp], rcx
	mov	QWORD PTR 24[rbp], rdx
.LBB48:
	.loc 1 288 6
	mov	rax, QWORD PTR 16[rbp]
	mov	rdx, QWORD PTR 24[rbp]
	mov	QWORD PTR -8[rbp], rdx
.LBB49:
.LBB50:
	.loc 4 73 36
	mov	rdx, QWORD PTR -8[rbp]
.LBE50:
.LBE49:
	.loc 1 288 6 discriminator 1
	mov	QWORD PTR -16[rbp], rdx
	lea	rdx, -16[rbp]
	mov	rcx, rax
	call	_ZNSt5tupleIJPFvvEEEC1IvEERKS1_Qcl15__constructibleIDpRKT_EE
.LBE48:
	.loc 1 289 6
	nop
	add	rsp, 48
	pop	rbp
	.cfi_restore 6
	.cfi_def_cfa 7, 8
	ret
	.cfi_endproc
.LFE5910:
	.seh_endproc
	.section	.text$_ZNSt15__uniq_ptr_implINSt6thread6_StateESt14default_deleteIS1_EEC2EPS1_,"x"
	.linkonce discard
	.align 2
	.globl	_ZNSt15__uniq_ptr_implINSt6thread6_StateESt14default_deleteIS1_EEC2EPS1_
	.def	_ZNSt15__uniq_ptr_implINSt6thread6_StateESt14default_deleteIS1_EEC2EPS1_;	.scl	2;	.type	32;	.endef
	.seh_proc	_ZNSt15__uniq_ptr_implINSt6thread6_StateESt14default_deleteIS1_EEC2EPS1_
_ZNSt15__uniq_ptr_implINSt6thread6_StateESt14default_deleteIS1_EEC2EPS1_:
.LFB5912:
	.loc 5 169 7
	.cfi_startproc
	push	rbp
	.seh_pushreg	rbp
	.cfi_def_cfa_offset 16
	.cfi_offset 6, -16
	push	rbx
	.seh_pushreg	rbx
	.cfi_def_cfa_offset 24
	.cfi_offset 3, -24
	sub	rsp, 40
	.seh_stackalloc	40
	.cfi_def_cfa_offset 64
	lea	rbp, 32[rsp]
	.seh_setframe	rbp, 32
	.cfi_def_cfa 6, 32
	.seh_endprologue
	mov	QWORD PTR 32[rbp], rcx
	mov	QWORD PTR 40[rbp], rdx
.LBB51:
	.loc 5 169 38
	mov	rax, QWORD PTR 32[rbp]
	mov	rcx, rax
	call	_ZNSt5tupleIJPNSt6thread6_StateESt14default_deleteIS1_EEEC1EvQfraa26is_default_constructible_vIT_E
	.loc 5 169 56 discriminator 1
	mov	rbx, QWORD PTR 40[rbp]
	.loc 5 169 53 discriminator 1
	mov	rax, QWORD PTR 32[rbp]
	mov	rcx, rax
	call	_ZNSt15__uniq_ptr_implINSt6thread6_StateESt14default_deleteIS1_EE6_M_ptrEv
	.loc 5 169 56 discriminator 2
	mov	QWORD PTR [rax], rbx
.LBE51:
	.loc 5 169 63
	nop
	add	rsp, 40
	pop	rbx
	.cfi_restore 3
	pop	rbp
	.cfi_restore 6
	.cfi_def_cfa 7, -24
	ret
	.cfi_endproc
.LFE5912:
	.seh_endproc
	.section	.text$_ZNSt10unique_ptrINSt6thread6_StateESt14default_deleteIS1_EE11get_deleterEv,"x"
	.linkonce discard
	.align 2
	.globl	_ZNSt10unique_ptrINSt6thread6_StateESt14default_deleteIS1_EE11get_deleterEv
	.def	_ZNSt10unique_ptrINSt6thread6_StateESt14default_deleteIS1_EE11get_deleterEv;	.scl	2;	.type	32;	.endef
	.seh_proc	_ZNSt10unique_ptrINSt6thread6_StateESt14default_deleteIS1_EE11get_deleterEv
_ZNSt10unique_ptrINSt6thread6_StateESt14default_deleteIS1_EE11get_deleterEv:
.LFB5914:
	.loc 5 496 7
	.cfi_startproc
	push	rbp
	.seh_pushreg	rbp
	.cfi_def_cfa_offset 16
	.cfi_offset 6, -16
	mov	rbp, rsp
	.seh_setframe	rbp, 0
	.cfi_def_cfa_register 6
	sub	rsp, 32
	.seh_stackalloc	32
	.seh_endprologue
	mov	QWORD PTR 16[rbp], rcx
	.loc 5 497 31
	mov	rax, QWORD PTR 16[rbp]
	mov	rcx, rax
	call	_ZNSt15__uniq_ptr_implINSt6thread6_StateESt14default_deleteIS1_EE10_M_deleterEv
	.loc 5 497 35
	add	rsp, 32
	pop	rbp
	.cfi_restore 6
	.cfi_def_cfa 7, 8
	ret
	.cfi_endproc
.LFE5914:
	.seh_endproc
	.section	.text$_ZNKSt14default_deleteINSt6thread6_StateEEclEPS1_,"x"
	.linkonce discard
	.align 2
	.globl	_ZNKSt14default_deleteINSt6thread6_StateEEclEPS1_
	.def	_ZNKSt14default_deleteINSt6thread6_StateEEclEPS1_;	.scl	2;	.type	32;	.endef
	.seh_proc	_ZNKSt14default_deleteINSt6thread6_StateEEclEPS1_
_ZNKSt14default_deleteINSt6thread6_StateEEclEPS1_:
.LFB5916:
	.loc 5 86 7
	.cfi_startproc
	push	rbp
	.seh_pushreg	rbp
	.cfi_def_cfa_offset 16
	.cfi_offset 6, -16
	mov	rbp, rsp
	.seh_setframe	rbp, 0
	.cfi_def_cfa_register 6
	sub	rsp, 32
	.seh_stackalloc	32
	.seh_endprologue
	mov	QWORD PTR 16[rbp], rcx
	mov	QWORD PTR 24[rbp], rdx
	.loc 5 92 2
	mov	rax, QWORD PTR 24[rbp]
	test	rax, rax
	je	.L54
	.loc 5 92 2 is_stmt 0 discriminator 1
	mov	rdx, QWORD PTR [rax]
	add	rdx, 8
	mov	rdx, QWORD PTR [rdx]
	mov	rcx, rax
	call	rdx
.LVL0:
.L54:
	.loc 5 93 7 is_stmt 1
	nop
	add	rsp, 32
	pop	rbp
	.cfi_restore 6
	.cfi_def_cfa 7, 8
	ret
	.cfi_endproc
.LFE5916:
	.seh_endproc
	.section	.text$_ZNSt5tupleIJPFvvEEEC1IvEERKS1_Qcl15__constructibleIDpRKT_EE,"x"
	.linkonce discard
	.align 2
	.globl	_ZNSt5tupleIJPFvvEEEC1IvEERKS1_Qcl15__constructibleIDpRKT_EE
	.def	_ZNSt5tupleIJPFvvEEEC1IvEERKS1_Qcl15__constructibleIDpRKT_EE;	.scl	2;	.type	32;	.endef
	.seh_proc	_ZNSt5tupleIJPFvvEEEC1IvEERKS1_Qcl15__constructibleIDpRKT_EE
_ZNSt5tupleIJPFvvEEEC1IvEERKS1_Qcl15__constructibleIDpRKT_EE:
.LFB6102:
	.loc 6 972 2
	.cfi_startproc
	push	rbp
	.seh_pushreg	rbp
	.cfi_def_cfa_offset 16
	.cfi_offset 6, -16
	mov	rbp, rsp
	.seh_setframe	rbp, 0
	.cfi_def_cfa_register 6
	sub	rsp, 32
	.seh_stackalloc	32
	.seh_endprologue
	mov	QWORD PTR 16[rbp], rcx
	mov	QWORD PTR 24[rbp], rdx
.LBB52:
	.loc 6 975 28
	mov	rax, QWORD PTR 16[rbp]
	mov	rdx, QWORD PTR 24[rbp]
	mov	rcx, rax
	call	_ZNSt11_Tuple_implILy0EJPFvvEEEC2ERKS1_
.LBE52:
	.loc 6 976 4
	nop
	add	rsp, 32
	pop	rbp
	.cfi_restore 6
	.cfi_def_cfa 7, 8
	ret
	.cfi_endproc
.LFE6102:
	.seh_handler	__gxx_personality_seh0, @unwind, @except
	.seh_handlerdata
.LLSDA6102:
	.byte	0xff
	.byte	0xff
	.byte	0x1
	.uleb128 .LLSDACSE6102-.LLSDACSB6102
.LLSDACSB6102:
.LLSDACSE6102:
	.section	.text$_ZNSt5tupleIJPFvvEEEC1IvEERKS1_Qcl15__constructibleIDpRKT_EE,"x"
	.linkonce discard
	.seh_endproc
	.weak	_ZNSt5tupleIJPFvvEEEC1IvEERKS1_
	.def	_ZNSt5tupleIJPFvvEEEC1IvEERKS1_;	.scl	2;	.type	32;	.endef
	.set	_ZNSt5tupleIJPFvvEEEC1IvEERKS1_,_ZNSt5tupleIJPFvvEEEC1IvEERKS1_Qcl15__constructibleIDpRKT_EE
	.section	.text$_ZNSt5tupleIJPNSt6thread6_StateESt14default_deleteIS1_EEEC1EvQfraa26is_default_constructible_vIT_E,"x"
	.linkonce discard
	.align 2
	.globl	_ZNSt5tupleIJPNSt6thread6_StateESt14default_deleteIS1_EEEC1EvQfraa26is_default_constructible_vIT_E
	.def	_ZNSt5tupleIJPNSt6thread6_StateESt14default_deleteIS1_EEEC1EvQfraa26is_default_constructible_vIT_E;	.scl	2;	.type	32;	.endef
	.seh_proc	_ZNSt5tupleIJPNSt6thread6_StateESt14default_deleteIS1_EEEC1EvQfraa26is_default_constructible_vIT_E
_ZNSt5tupleIJPNSt6thread6_StateESt14default_deleteIS1_EEEC1EvQfraa26is_default_constructible_vIT_E:
.LFB6105:
	.loc 6 963 7
	.cfi_startproc
	push	rbp
	.seh_pushreg	rbp
	.cfi_def_cfa_offset 16
	.cfi_offset 6, -16
	mov	rbp, rsp
	.seh_setframe	rbp, 0
	.cfi_def_cfa_register 6
	sub	rsp, 32
	.seh_stackalloc	32
	.seh_endprologue
	mov	QWORD PTR 16[rbp], rcx
.LBB53:
	.loc 6 966 20
	mov	rax, QWORD PTR 16[rbp]
	mov	rcx, rax
	call	_ZNSt11_Tuple_implILy0EJPNSt6thread6_StateESt14default_deleteIS1_EEEC2Ev
.LBE53:
	.loc 6 967 9
	nop
	add	rsp, 32
	pop	rbp
	.cfi_restore 6
	.cfi_def_cfa 7, 8
	ret
	.cfi_endproc
.LFE6105:
	.seh_handler	__gxx_personality_seh0, @unwind, @except
	.seh_handlerdata
.LLSDA6105:
	.byte	0xff
	.byte	0xff
	.byte	0x1
	.uleb128 .LLSDACSE6105-.LLSDACSB6105
.LLSDACSB6105:
.LLSDACSE6105:
	.section	.text$_ZNSt5tupleIJPNSt6thread6_StateESt14default_deleteIS1_EEEC1EvQfraa26is_default_constructible_vIT_E,"x"
	.linkonce discard
	.seh_endproc
	.weak	_ZNSt5tupleIJPNSt6thread6_StateESt14default_deleteIS1_EEEC1Ev
	.def	_ZNSt5tupleIJPNSt6thread6_StateESt14default_deleteIS1_EEEC1Ev;	.scl	2;	.type	32;	.endef
	.set	_ZNSt5tupleIJPNSt6thread6_StateESt14default_deleteIS1_EEEC1Ev,_ZNSt5tupleIJPNSt6thread6_StateESt14default_deleteIS1_EEEC1EvQfraa26is_default_constructible_vIT_E
	.section	.text$_ZNSt15__uniq_ptr_implINSt6thread6_StateESt14default_deleteIS1_EE10_M_deleterEv,"x"
	.linkonce discard
	.align 2
	.globl	_ZNSt15__uniq_ptr_implINSt6thread6_StateESt14default_deleteIS1_EE10_M_deleterEv
	.def	_ZNSt15__uniq_ptr_implINSt6thread6_StateESt14default_deleteIS1_EE10_M_deleterEv;	.scl	2;	.type	32;	.endef
	.seh_proc	_ZNSt15__uniq_ptr_implINSt6thread6_StateESt14default_deleteIS1_EE10_M_deleterEv
_ZNSt15__uniq_ptr_implINSt6thread6_StateESt14default_deleteIS1_EE10_M_deleterEv:
.LFB6106:
	.loc 5 194 18
	.cfi_startproc
	push	rbp
	.seh_pushreg	rbp
	.cfi_def_cfa_offset 16
	.cfi_offset 6, -16
	mov	rbp, rsp
	.seh_setframe	rbp, 0
	.cfi_def_cfa_register 6
	sub	rsp, 32
	.seh_stackalloc	32
	.seh_endprologue
	mov	QWORD PTR 16[rbp], rcx
	.loc 5 194 61
	mov	rax, QWORD PTR 16[rbp]
	.loc 5 194 60
	mov	rcx, rax
	call	_ZSt3getILy1EJPNSt6thread6_StateESt14default_deleteIS1_EEERNSt13tuple_elementIXT_ESt5tupleIJDpT0_EEE4typeERS9_
	.loc 5 194 68
	add	rsp, 32
	pop	rbp
	.cfi_restore 6
	.cfi_def_cfa 7, 8
	ret
	.cfi_endproc
.LFE6106:
	.seh_endproc
	.section	.text$_ZNSt11_Tuple_implILy0EJPFvvEEEC2ERKS1_,"x"
	.linkonce discard
	.align 2
	.globl	_ZNSt11_Tuple_implILy0EJPFvvEEEC2ERKS1_
	.def	_ZNSt11_Tuple_implILy0EJPFvvEEEC2ERKS1_;	.scl	2;	.type	32;	.endef
	.seh_proc	_ZNSt11_Tuple_implILy0EJPFvvEEEC2ERKS1_
_ZNSt11_Tuple_implILy0EJPFvvEEEC2ERKS1_:
.LFB6205:
	.loc 6 564 7
	.cfi_startproc
	push	rbp
	.seh_pushreg	rbp
	.cfi_def_cfa_offset 16
	.cfi_offset 6, -16
	mov	rbp, rsp
	.seh_setframe	rbp, 0
	.cfi_def_cfa_register 6
	sub	rsp, 32
	.seh_stackalloc	32
	.seh_endprologue
	mov	QWORD PTR 16[rbp], rcx
	mov	QWORD PTR 24[rbp], rdx
.LBB54:
	.loc 6 565 21
	mov	rax, QWORD PTR 16[rbp]
	mov	rdx, QWORD PTR 24[rbp]
	mov	rcx, rax
	call	_ZNSt10_Head_baseILy0EPFvvELb0EEC2ERKS1_
.LBE54:
	.loc 6 566 9
	nop
	add	rsp, 32
	pop	rbp
	.cfi_restore 6
	.cfi_def_cfa 7, 8
	ret
	.cfi_endproc
.LFE6205:
	.seh_endproc
	.section	.text$_ZNSt11_Tuple_implILy0EJPNSt6thread6_StateESt14default_deleteIS1_EEEC2Ev,"x"
	.linkonce discard
	.align 2
	.globl	_ZNSt11_Tuple_implILy0EJPNSt6thread6_StateESt14default_deleteIS1_EEEC2Ev
	.def	_ZNSt11_Tuple_implILy0EJPNSt6thread6_StateESt14default_deleteIS1_EEEC2Ev;	.scl	2;	.type	32;	.endef
	.seh_proc	_ZNSt11_Tuple_implILy0EJPNSt6thread6_StateESt14default_deleteIS1_EEEC2Ev
_ZNSt11_Tuple_implILy0EJPNSt6thread6_StateESt14default_deleteIS1_EEEC2Ev:
.LFB6208:
	.loc 6 302 17
	.cfi_startproc
	push	rbp
	.seh_pushreg	rbp
	.cfi_def_cfa_offset 16
	.cfi_offset 6, -16
	mov	rbp, rsp
	.seh_setframe	rbp, 0
	.cfi_def_cfa_register 6
	sub	rsp, 32
	.seh_stackalloc	32
	.seh_endprologue
	mov	QWORD PTR 16[rbp], rcx
.LBB55:
	.loc 6 303 29
	mov	rax, QWORD PTR 16[rbp]
	mov	rcx, rax
	call	_ZNSt11_Tuple_implILy1EJSt14default_deleteINSt6thread6_StateEEEEC2Ev
	.loc 6 303 29 is_stmt 0 discriminator 1
	mov	rax, QWORD PTR 16[rbp]
	mov	rcx, rax
	call	_ZNSt10_Head_baseILy0EPNSt6thread6_StateELb0EEC2Ev
.LBE55:
	.loc 6 303 33 is_stmt 1
	nop
	add	rsp, 32
	pop	rbp
	.cfi_restore 6
	.cfi_def_cfa 7, 8
	ret
	.cfi_endproc
.LFE6208:
	.seh_endproc
	.section	.text$_ZSt3getILy1EJPNSt6thread6_StateESt14default_deleteIS1_EEERNSt13tuple_elementIXT_ESt5tupleIJDpT0_EEE4typeERS9_,"x"
	.linkonce discard
	.globl	_ZSt3getILy1EJPNSt6thread6_StateESt14default_deleteIS1_EEERNSt13tuple_elementIXT_ESt5tupleIJDpT0_EEE4typeERS9_
	.def	_ZSt3getILy1EJPNSt6thread6_StateESt14default_deleteIS1_EEERNSt13tuple_elementIXT_ESt5tupleIJDpT0_EEE4typeERS9_;	.scl	2;	.type	32;	.endef
	.seh_proc	_ZSt3getILy1EJPNSt6thread6_StateESt14default_deleteIS1_EEERNSt13tuple_elementIXT_ESt5tupleIJDpT0_EEE4typeERS9_
_ZSt3getILy1EJPNSt6thread6_StateESt14default_deleteIS1_EEERNSt13tuple_elementIXT_ESt5tupleIJDpT0_EEE4typeERS9_:
.LFB6210:
	.loc 6 2444 5
	.cfi_startproc
	push	rbp
	.seh_pushreg	rbp
	.cfi_def_cfa_offset 16
	.cfi_offset 6, -16
	mov	rbp, rsp
	.seh_setframe	rbp, 0
	.cfi_def_cfa_register 6
	sub	rsp, 32
	.seh_stackalloc	32
	.seh_endprologue
	mov	QWORD PTR 16[rbp], rcx
	.loc 6 2445 36
	mov	rax, QWORD PTR 16[rbp]
	mov	rcx, rax
	call	_ZSt12__get_helperILy1ESt14default_deleteINSt6thread6_StateEEJEERT0_RSt11_Tuple_implIXT_EJS4_DpT1_EE
	.loc 6 2445 43
	add	rsp, 32
	pop	rbp
	.cfi_restore 6
	.cfi_def_cfa 7, 8
	ret
	.cfi_endproc
.LFE6210:
	.seh_endproc
	.section	.text$_ZNSt10_Head_baseILy0EPFvvELb0EEC2ERKS1_,"x"
	.linkonce discard
	.align 2
	.globl	_ZNSt10_Head_baseILy0EPFvvELb0EEC2ERKS1_
	.def	_ZNSt10_Head_baseILy0EPFvvELb0EEC2ERKS1_;	.scl	2;	.type	32;	.endef
	.seh_proc	_ZNSt10_Head_baseILy0EPFvvELb0EEC2ERKS1_
_ZNSt10_Head_baseILy0EPFvvELb0EEC2ERKS1_:
.LFB6272:
	.loc 6 205 17
	.cfi_startproc
	push	rbp
	.seh_pushreg	rbp
	.cfi_def_cfa_offset 16
	.cfi_offset 6, -16
	mov	rbp, rsp
	.seh_setframe	rbp, 0
	.cfi_def_cfa_register 6
	.seh_endprologue
	mov	QWORD PTR 16[rbp], rcx
	mov	QWORD PTR 24[rbp], rdx
.LBB56:
	.loc 6 206 9
	mov	rax, QWORD PTR 24[rbp]
	mov	rdx, QWORD PTR [rax]
	mov	rax, QWORD PTR 16[rbp]
	mov	QWORD PTR [rax], rdx
.LBE56:
	.loc 6 206 29
	nop
	pop	rbp
	.cfi_restore 6
	.cfi_def_cfa 7, 8
	ret
	.cfi_endproc
.LFE6272:
	.seh_endproc
	.section	.text$_ZNSt11_Tuple_implILy1EJSt14default_deleteINSt6thread6_StateEEEEC2Ev,"x"
	.linkonce discard
	.align 2
	.globl	_ZNSt11_Tuple_implILy1EJSt14default_deleteINSt6thread6_StateEEEEC2Ev
	.def	_ZNSt11_Tuple_implILy1EJSt14default_deleteINSt6thread6_StateEEEEC2Ev;	.scl	2;	.type	32;	.endef
	.seh_proc	_ZNSt11_Tuple_implILy1EJSt14default_deleteINSt6thread6_StateEEEEC2Ev
_ZNSt11_Tuple_implILy1EJSt14default_deleteINSt6thread6_StateEEEEC2Ev:
.LFB6275:
	.loc 6 560 7
	.cfi_startproc
	push	rbp
	.seh_pushreg	rbp
	.cfi_def_cfa_offset 16
	.cfi_offset 6, -16
	mov	rbp, rsp
	.seh_setframe	rbp, 0
	.cfi_def_cfa_register 6
	sub	rsp, 32
	.seh_stackalloc	32
	.seh_endprologue
	mov	QWORD PTR 16[rbp], rcx
.LBB57:
	.loc 6 561 15
	mov	rax, QWORD PTR 16[rbp]
	mov	rcx, rax
	call	_ZNSt10_Head_baseILy1ESt14default_deleteINSt6thread6_StateEELb1EEC2Ev
.LBE57:
	.loc 6 561 19
	nop
	add	rsp, 32
	pop	rbp
	.cfi_restore 6
	.cfi_def_cfa 7, 8
	ret
	.cfi_endproc
.LFE6275:
	.seh_endproc
	.section	.text$_ZNSt10_Head_baseILy0EPNSt6thread6_StateELb0EEC2Ev,"x"
	.linkonce discard
	.align 2
	.globl	_ZNSt10_Head_baseILy0EPNSt6thread6_StateELb0EEC2Ev
	.def	_ZNSt10_Head_baseILy0EPNSt6thread6_StateELb0EEC2Ev;	.scl	2;	.type	32;	.endef
	.seh_proc	_ZNSt10_Head_baseILy0EPNSt6thread6_StateELb0EEC2Ev
_ZNSt10_Head_baseILy0EPNSt6thread6_StateELb0EEC2Ev:
.LFB6278:
	.loc 6 202 17
	.cfi_startproc
	push	rbp
	.seh_pushreg	rbp
	.cfi_def_cfa_offset 16
	.cfi_offset 6, -16
	mov	rbp, rsp
	.seh_setframe	rbp, 0
	.cfi_def_cfa_register 6
	.seh_endprologue
	mov	QWORD PTR 16[rbp], rcx
.LBB58:
	.loc 6 203 9
	mov	rax, QWORD PTR 16[rbp]
	mov	QWORD PTR [rax], 0
.LBE58:
	.loc 6 203 26
	nop
	pop	rbp
	.cfi_restore 6
	.cfi_def_cfa 7, 8
	ret
	.cfi_endproc
.LFE6278:
	.seh_endproc
	.section	.text$_ZSt12__get_helperILy1ESt14default_deleteINSt6thread6_StateEEJEERT0_RSt11_Tuple_implIXT_EJS4_DpT1_EE,"x"
	.linkonce discard
	.globl	_ZSt12__get_helperILy1ESt14default_deleteINSt6thread6_StateEEJEERT0_RSt11_Tuple_implIXT_EJS4_DpT1_EE
	.def	_ZSt12__get_helperILy1ESt14default_deleteINSt6thread6_StateEEJEERT0_RSt11_Tuple_implIXT_EJS4_DpT1_EE;	.scl	2;	.type	32;	.endef
	.seh_proc	_ZSt12__get_helperILy1ESt14default_deleteINSt6thread6_StateEEJEERT0_RSt11_Tuple_implIXT_EJS4_DpT1_EE
_ZSt12__get_helperILy1ESt14default_deleteINSt6thread6_StateEEJEERT0_RSt11_Tuple_implIXT_EJS4_DpT1_EE:
.LFB6280:
	.loc 6 2428 5
	.cfi_startproc
	push	rbp
	.seh_pushreg	rbp
	.cfi_def_cfa_offset 16
	.cfi_offset 6, -16
	mov	rbp, rsp
	.seh_setframe	rbp, 0
	.cfi_def_cfa_register 6
	sub	rsp, 32
	.seh_stackalloc	32
	.seh_endprologue
	mov	QWORD PTR 16[rbp], rcx
	.loc 6 2429 56
	mov	rax, QWORD PTR 16[rbp]
	mov	rcx, rax
	call	_ZNSt11_Tuple_implILy1EJSt14default_deleteINSt6thread6_StateEEEE7_M_headERS4_
	.loc 6 2429 63
	add	rsp, 32
	pop	rbp
	.cfi_restore 6
	.cfi_def_cfa 7, 8
	ret
	.cfi_endproc
.LFE6280:
	.seh_endproc
	.section	.text$_ZNSt10_Head_baseILy1ESt14default_deleteINSt6thread6_StateEELb1EEC2Ev,"x"
	.linkonce discard
	.align 2
	.globl	_ZNSt10_Head_baseILy1ESt14default_deleteINSt6thread6_StateEELb1EEC2Ev
	.def	_ZNSt10_Head_baseILy1ESt14default_deleteINSt6thread6_StateEELb1EEC2Ev;	.scl	2;	.type	32;	.endef
	.seh_proc	_ZNSt10_Head_baseILy1ESt14default_deleteINSt6thread6_StateEELb1EEC2Ev
_ZNSt10_Head_baseILy1ESt14default_deleteINSt6thread6_StateEELb1EEC2Ev:
.LFB6302:
	.loc 6 93 17
	.cfi_startproc
	push	rbp
	.seh_pushreg	rbp
	.cfi_def_cfa_offset 16
	.cfi_offset 6, -16
	mov	rbp, rsp
	.seh_setframe	rbp, 0
	.cfi_def_cfa_register 6
	.seh_endprologue
	mov	QWORD PTR 16[rbp], rcx
	.loc 6 94 26
	nop
	pop	rbp
	.cfi_restore 6
	.cfi_def_cfa 7, 8
	ret
	.cfi_endproc
.LFE6302:
	.seh_endproc
	.section	.text$_ZNSt11_Tuple_implILy1EJSt14default_deleteINSt6thread6_StateEEEE7_M_headERS4_,"x"
	.linkonce discard
	.globl	_ZNSt11_Tuple_implILy1EJSt14default_deleteINSt6thread6_StateEEEE7_M_headERS4_
	.def	_ZNSt11_Tuple_implILy1EJSt14default_deleteINSt6thread6_StateEEEE7_M_headERS4_;	.scl	2;	.type	32;	.endef
	.seh_proc	_ZNSt11_Tuple_implILy1EJSt14default_deleteINSt6thread6_StateEEEE7_M_headERS4_
_ZNSt11_Tuple_implILy1EJSt14default_deleteINSt6thread6_StateEEEE7_M_headERS4_:
.LFB6304:
	.loc 6 554 7
	.cfi_startproc
	push	rbp
	.seh_pushreg	rbp
	.cfi_def_cfa_offset 16
	.cfi_offset 6, -16
	mov	rbp, rsp
	.seh_setframe	rbp, 0
	.cfi_def_cfa_register 6
	sub	rsp, 32
	.seh_stackalloc	32
	.seh_endprologue
	mov	QWORD PTR 16[rbp], rcx
	.loc 6 554 65
	mov	rax, QWORD PTR 16[rbp]
	mov	rcx, rax
	call	_ZNSt10_Head_baseILy1ESt14default_deleteINSt6thread6_StateEELb1EE7_M_headERS4_
	.loc 6 554 72
	add	rsp, 32
	pop	rbp
	.cfi_restore 6
	.cfi_def_cfa 7, 8
	ret
	.cfi_endproc
.LFE6304:
	.seh_endproc
	.section	.text$_ZNSt10_Head_baseILy1ESt14default_deleteINSt6thread6_StateEELb1EE7_M_headERS4_,"x"
	.linkonce discard
	.globl	_ZNSt10_Head_baseILy1ESt14default_deleteINSt6thread6_StateEELb1EE7_M_headERS4_
	.def	_ZNSt10_Head_baseILy1ESt14default_deleteINSt6thread6_StateEELb1EE7_M_headERS4_;	.scl	2;	.type	32;	.endef
	.seh_proc	_ZNSt10_Head_baseILy1ESt14default_deleteINSt6thread6_StateEELb1EE7_M_headERS4_
_ZNSt10_Head_baseILy1ESt14default_deleteINSt6thread6_StateEELb1EE7_M_headERS4_:
.LFB6318:
	.loc 6 137 7
	.cfi_startproc
	push	rbp
	.seh_pushreg	rbp
	.cfi_def_cfa_offset 16
	.cfi_offset 6, -16
	mov	rbp, rsp
	.seh_setframe	rbp, 0
	.cfi_def_cfa_register 6
	.seh_endprologue
	mov	QWORD PTR 16[rbp], rcx
	.loc 6 137 54
	mov	rax, QWORD PTR 16[rbp]
	.loc 6 137 68
	pop	rbp
	.cfi_restore 6
	.cfi_def_cfa 7, 8
	ret
	.cfi_endproc
.LFE6318:
	.seh_endproc
	.globl	_ZTVNSt6thread11_State_implINS_8_InvokerISt5tupleIJPFvvEEEEEEE
	.section	.rdata$_ZTVNSt6thread11_State_implINS_8_InvokerISt5tupleIJPFvvEEEEEEE,"dr"
	.linkonce same_size
	.align 8
_ZTVNSt6thread11_State_implINS_8_InvokerISt5tupleIJPFvvEEEEEEE:
	.quad	0
	.quad	_ZTINSt6thread11_State_implINS_8_InvokerISt5tupleIJPFvvEEEEEEE
	.quad	_ZNSt6thread11_State_implINS_8_InvokerISt5tupleIJPFvvEEEEEED1Ev
	.quad	_ZNSt6thread11_State_implINS_8_InvokerISt5tupleIJPFvvEEEEEED0Ev
	.quad	_ZNSt6thread11_State_implINS_8_InvokerISt5tupleIJPFvvEEEEEE6_M_runEv
	.section	.text$_ZNSt6thread11_State_implINS_8_InvokerISt5tupleIJPFvvEEEEEED1Ev,"x"
	.linkonce discard
	.align 2
	.globl	_ZNSt6thread11_State_implINS_8_InvokerISt5tupleIJPFvvEEEEEED1Ev
	.def	_ZNSt6thread11_State_implINS_8_InvokerISt5tupleIJPFvvEEEEEED1Ev;	.scl	2;	.type	32;	.endef
	.seh_proc	_ZNSt6thread11_State_implINS_8_InvokerISt5tupleIJPFvvEEEEEED1Ev
_ZNSt6thread11_State_implINS_8_InvokerISt5tupleIJPFvvEEEEEED1Ev:
.LFB6322:
	.loc 1 245 14
	.cfi_startproc
	push	rbp
	.seh_pushreg	rbp
	.cfi_def_cfa_offset 16
	.cfi_offset 6, -16
	mov	rbp, rsp
	.seh_setframe	rbp, 0
	.cfi_def_cfa_register 6
	sub	rsp, 32
	.seh_stackalloc	32
	.seh_endprologue
	mov	QWORD PTR 16[rbp], rcx
.LBB59:
	.loc 1 245 14
	lea	rdx, _ZTVNSt6thread11_State_implINS_8_InvokerISt5tupleIJPFvvEEEEEEE[rip+16]
	mov	rax, QWORD PTR 16[rbp]
	mov	QWORD PTR [rax], rdx
	mov	rax, QWORD PTR 16[rbp]
	mov	rcx, rax
	call	_ZNSt6thread6_StateD2Ev
.LBE59:
	nop
	add	rsp, 32
	pop	rbp
	.cfi_restore 6
	.cfi_def_cfa 7, 8
	ret
	.cfi_endproc
.LFE6322:
	.seh_endproc
	.section	.text$_ZNSt6thread11_State_implINS_8_InvokerISt5tupleIJPFvvEEEEEED0Ev,"x"
	.linkonce discard
	.align 2
	.globl	_ZNSt6thread11_State_implINS_8_InvokerISt5tupleIJPFvvEEEEEED0Ev
	.def	_ZNSt6thread11_State_implINS_8_InvokerISt5tupleIJPFvvEEEEEED0Ev;	.scl	2;	.type	32;	.endef
	.seh_proc	_ZNSt6thread11_State_implINS_8_InvokerISt5tupleIJPFvvEEEEEED0Ev
_ZNSt6thread11_State_implINS_8_InvokerISt5tupleIJPFvvEEEEEED0Ev:
.LFB6323:
	.loc 1 245 14
	.cfi_startproc
	push	rbp
	.seh_pushreg	rbp
	.cfi_def_cfa_offset 16
	.cfi_offset 6, -16
	mov	rbp, rsp
	.seh_setframe	rbp, 0
	.cfi_def_cfa_register 6
	sub	rsp, 32
	.seh_stackalloc	32
	.seh_endprologue
	mov	QWORD PTR 16[rbp], rcx
	.loc 1 245 14
	mov	rax, QWORD PTR 16[rbp]
	mov	rcx, rax
	call	_ZNSt6thread11_State_implINS_8_InvokerISt5tupleIJPFvvEEEEEED1Ev
	.loc 1 245 14 is_stmt 0 discriminator 1
	mov	rax, QWORD PTR 16[rbp]
	mov	edx, 16
	mov	rcx, rax
	call	_ZdlPvy
	nop
	.loc 1 245 14
	add	rsp, 32
	pop	rbp
	.cfi_restore 6
	.cfi_def_cfa 7, 8
	ret
	.cfi_endproc
.LFE6323:
	.seh_endproc
	.globl	_ZTINSt6thread11_State_implINS_8_InvokerISt5tupleIJPFvvEEEEEEE
	.section	.rdata$_ZTINSt6thread11_State_implINS_8_InvokerISt5tupleIJPFvvEEEEEEE,"dr"
	.linkonce same_size
	.align 8
_ZTINSt6thread11_State_implINS_8_InvokerISt5tupleIJPFvvEEEEEEE:
	.quad	_ZTVN10__cxxabiv120__si_class_type_infoE+16
	.quad	_ZTSNSt6thread11_State_implINS_8_InvokerISt5tupleIJPFvvEEEEEEE
	.quad	_ZTINSt6thread6_StateE
	.globl	_ZTSNSt6thread11_State_implINS_8_InvokerISt5tupleIJPFvvEEEEEEE
	.section	.rdata$_ZTSNSt6thread11_State_implINS_8_InvokerISt5tupleIJPFvvEEEEEEE,"dr"
	.linkonce same_size
	.align 32
_ZTSNSt6thread11_State_implINS_8_InvokerISt5tupleIJPFvvEEEEEEE:
	.ascii "NSt6thread11_State_implINS_8_InvokerISt5tupleIJPFvvEEEEEEE\0"
	.globl	_ZTINSt6thread6_StateE
	.section	.rdata$_ZTINSt6thread6_StateE,"dr"
	.linkonce same_size
	.align 8
_ZTINSt6thread6_StateE:
	.quad	_ZTVN10__cxxabiv117__class_type_infoE+16
	.quad	_ZTSNSt6thread6_StateE
	.globl	_ZTSNSt6thread6_StateE
	.section	.rdata$_ZTSNSt6thread6_StateE,"dr"
	.linkonce same_size
	.align 16
_ZTSNSt6thread6_StateE:
	.ascii "NSt6thread6_StateE\0"
	.section	.text$_ZNSt6thread11_State_implINS_8_InvokerISt5tupleIJPFvvEEEEEE6_M_runEv,"x"
	.linkonce discard
	.align 2
	.globl	_ZNSt6thread11_State_implINS_8_InvokerISt5tupleIJPFvvEEEEEE6_M_runEv
	.def	_ZNSt6thread11_State_implINS_8_InvokerISt5tupleIJPFvvEEEEEE6_M_runEv;	.scl	2;	.type	32;	.endef
	.seh_proc	_ZNSt6thread11_State_implINS_8_InvokerISt5tupleIJPFvvEEEEEE6_M_runEv
_ZNSt6thread11_State_implINS_8_InvokerISt5tupleIJPFvvEEEEEE6_M_runEv:
.LFB6509:
	.loc 1 255 2 is_stmt 1
	.cfi_startproc
	push	rbp
	.seh_pushreg	rbp
	.cfi_def_cfa_offset 16
	.cfi_offset 6, -16
	mov	rbp, rsp
	.seh_setframe	rbp, 0
	.cfi_def_cfa_register 6
	sub	rsp, 32
	.seh_stackalloc	32
	.seh_endprologue
	mov	QWORD PTR 16[rbp], rcx
	.loc 1 255 20
	mov	rax, QWORD PTR 16[rbp]
	add	rax, 8
	mov	rcx, rax
	call	_ZNSt6thread8_InvokerISt5tupleIJPFvvEEEEclEv
	.loc 1 255 24
	nop
	add	rsp, 32
	pop	rbp
	.cfi_restore 6
	.cfi_def_cfa 7, 8
	ret
	.cfi_endproc
.LFE6509:
	.seh_endproc
	.section	.text$_ZNSt6thread8_InvokerISt5tupleIJPFvvEEEEclEv,"x"
	.linkonce discard
	.align 2
	.globl	_ZNSt6thread8_InvokerISt5tupleIJPFvvEEEEclEv
	.def	_ZNSt6thread8_InvokerISt5tupleIJPFvvEEEEclEv;	.scl	2;	.type	32;	.endef
	.seh_proc	_ZNSt6thread8_InvokerISt5tupleIJPFvvEEEEclEv
_ZNSt6thread8_InvokerISt5tupleIJPFvvEEEEclEv:
.LFB6627:
	.loc 1 306 2
	.cfi_startproc
	push	rbp
	.seh_pushreg	rbp
	.cfi_def_cfa_offset 16
	.cfi_offset 6, -16
	mov	rbp, rsp
	.seh_setframe	rbp, 0
	.cfi_def_cfa_register 6
	sub	rsp, 32
	.seh_stackalloc	32
	.seh_endprologue
	mov	QWORD PTR 16[rbp], rcx
	.loc 1 310 20
	mov	rax, QWORD PTR 16[rbp]
	mov	rcx, rax
	call	_ZNSt6thread8_InvokerISt5tupleIJPFvvEEEE9_M_invokeIJLy0EEEEvSt12_Index_tupleIJXspT_EEE
	.loc 1 310 31
	nop
	.loc 1 311 2
	add	rsp, 32
	pop	rbp
	.cfi_restore 6
	.cfi_def_cfa 7, 8
	ret
	.cfi_endproc
.LFE6627:
	.seh_endproc
	.section	.text$_ZNSt6thread8_InvokerISt5tupleIJPFvvEEEE9_M_invokeIJLy0EEEEvSt12_Index_tupleIJXspT_EEE,"x"
	.linkonce discard
	.align 2
	.globl	_ZNSt6thread8_InvokerISt5tupleIJPFvvEEEE9_M_invokeIJLy0EEEEvSt12_Index_tupleIJXspT_EEE
	.def	_ZNSt6thread8_InvokerISt5tupleIJPFvvEEEE9_M_invokeIJLy0EEEEvSt12_Index_tupleIJXspT_EEE;	.scl	2;	.type	32;	.endef
	.seh_proc	_ZNSt6thread8_InvokerISt5tupleIJPFvvEEEE9_M_invokeIJLy0EEEEvSt12_Index_tupleIJXspT_EEE
_ZNSt6thread8_InvokerISt5tupleIJPFvvEEEE9_M_invokeIJLy0EEEEvSt12_Index_tupleIJXspT_EEE:
.LFB6807:
	.loc 1 302 4
	.cfi_startproc
	push	rbp
	.seh_pushreg	rbp
	.cfi_def_cfa_offset 16
	.cfi_offset 6, -16
	mov	rbp, rsp
	.seh_setframe	rbp, 0
	.cfi_def_cfa_register 6
	sub	rsp, 48
	.seh_stackalloc	48
	.seh_endprologue
	mov	QWORD PTR 16[rbp], rcx
	.loc 1 303 52
	mov	rax, QWORD PTR 16[rbp]
	mov	QWORD PTR -8[rbp], rax
.LBB60:
.LBB61:
	.loc 4 139 74
	mov	rax, QWORD PTR -8[rbp]
.LBE61:
.LBE60:
	.loc 1 303 41 discriminator 1
	mov	rcx, rax
	call	_ZSt3getILy0EJPFvvEEEONSt13tuple_elementIXT_ESt5tupleIJDpT0_EEE4typeEOS6_
	.loc 1 303 26 discriminator 2
	mov	rcx, rax
	call	_ZSt8__invokeIPFvvEJEENSt15__invoke_resultIT_JDpT0_EE4typeEOS3_DpOS4_
	.loc 1 303 61
	nop
	.loc 1 303 64
	add	rsp, 48
	pop	rbp
	.cfi_restore 6
	.cfi_def_cfa 7, 8
	ret
	.cfi_endproc
.LFE6807:
	.seh_endproc
	.section	.text$_ZSt3getILy0EJPFvvEEEONSt13tuple_elementIXT_ESt5tupleIJDpT0_EEE4typeEOS6_,"x"
	.linkonce discard
	.globl	_ZSt3getILy0EJPFvvEEEONSt13tuple_elementIXT_ESt5tupleIJDpT0_EEE4typeEOS6_
	.def	_ZSt3getILy0EJPFvvEEEONSt13tuple_elementIXT_ESt5tupleIJDpT0_EEE4typeEOS6_;	.scl	2;	.type	32;	.endef
	.seh_proc	_ZSt3getILy0EJPFvvEEEONSt13tuple_elementIXT_ESt5tupleIJDpT0_EEE4typeEOS6_
_ZSt3getILy0EJPFvvEEEONSt13tuple_elementIXT_ESt5tupleIJDpT0_EEE4typeEOS6_:
.LFB6975:
	.loc 6 2456 5
	.cfi_startproc
	push	rbp
	.seh_pushreg	rbp
	.cfi_def_cfa_offset 16
	.cfi_offset 6, -16
	mov	rbp, rsp
	.seh_setframe	rbp, 0
	.cfi_def_cfa_register 6
	sub	rsp, 48
	.seh_stackalloc	48
	.seh_endprologue
	mov	QWORD PTR 16[rbp], rcx
	.loc 6 2459 65
	mov	rax, QWORD PTR 16[rbp]
	mov	rcx, rax
	call	_ZSt12__get_helperILy0EPFvvEJEERT0_RSt11_Tuple_implIXT_EJS2_DpT1_EE
	mov	QWORD PTR -8[rbp], rax
.LBB62:
.LBB63:
	.loc 4 73 36
	mov	rax, QWORD PTR -8[rbp]
.LBE63:
.LBE62:
	.loc 6 2460 5
	add	rsp, 48
	pop	rbp
	.cfi_restore 6
	.cfi_def_cfa 7, 8
	ret
	.cfi_endproc
.LFE6975:
	.seh_endproc
	.section	.text$_ZSt8__invokeIPFvvEJEENSt15__invoke_resultIT_JDpT0_EE4typeEOS3_DpOS4_,"x"
	.linkonce discard
	.globl	_ZSt8__invokeIPFvvEJEENSt15__invoke_resultIT_JDpT0_EE4typeEOS3_DpOS4_
	.def	_ZSt8__invokeIPFvvEJEENSt15__invoke_resultIT_JDpT0_EE4typeEOS3_DpOS4_;	.scl	2;	.type	32;	.endef
	.seh_proc	_ZSt8__invokeIPFvvEJEENSt15__invoke_resultIT_JDpT0_EE4typeEOS3_DpOS4_
_ZSt8__invokeIPFvvEJEENSt15__invoke_resultIT_JDpT0_EE4typeEOS3_DpOS4_:
.LFB6976:
	.file 7 "C:/Qt/Tools/mingw1530_64/include/c++/15.3.0/bits/invoke.h"
	.loc 7 92 5
	.cfi_startproc
	push	rbp
	.seh_pushreg	rbp
	.cfi_def_cfa_offset 16
	.cfi_offset 6, -16
	mov	rbp, rsp
	.seh_setframe	rbp, 0
	.cfi_def_cfa_register 6
	sub	rsp, 48
	.seh_stackalloc	48
	.seh_endprologue
	mov	QWORD PTR 16[rbp], rcx
	mov	rax, QWORD PTR 16[rbp]
	mov	QWORD PTR -8[rbp], rax
.LBB64:
.LBB65:
	.loc 4 73 36
	mov	rax, QWORD PTR -8[rbp]
.LBE65:
.LBE64:
	.loc 7 98 40 discriminator 1
	mov	rdx, rax
	mov	ecx, r8d
	call	_ZSt13__invoke_implIvPFvvEJEET_St14__invoke_otherOT0_DpOT1_
	.loc 7 99 36
	nop
	.loc 7 100 5
	add	rsp, 48
	pop	rbp
	.cfi_restore 6
	.cfi_def_cfa 7, 8
	ret
	.cfi_endproc
.LFE6976:
	.seh_endproc
	.section	.text$_ZSt12__get_helperILy0EPFvvEJEERT0_RSt11_Tuple_implIXT_EJS2_DpT1_EE,"x"
	.linkonce discard
	.globl	_ZSt12__get_helperILy0EPFvvEJEERT0_RSt11_Tuple_implIXT_EJS2_DpT1_EE
	.def	_ZSt12__get_helperILy0EPFvvEJEERT0_RSt11_Tuple_implIXT_EJS2_DpT1_EE;	.scl	2;	.type	32;	.endef
	.seh_proc	_ZSt12__get_helperILy0EPFvvEJEERT0_RSt11_Tuple_implIXT_EJS2_DpT1_EE
_ZSt12__get_helperILy0EPFvvEJEERT0_RSt11_Tuple_implIXT_EJS2_DpT1_EE:
.LFB7181:
	.loc 6 2428 5
	.cfi_startproc
	push	rbp
	.seh_pushreg	rbp
	.cfi_def_cfa_offset 16
	.cfi_offset 6, -16
	mov	rbp, rsp
	.seh_setframe	rbp, 0
	.cfi_def_cfa_register 6
	sub	rsp, 32
	.seh_stackalloc	32
	.seh_endprologue
	mov	QWORD PTR 16[rbp], rcx
	.loc 6 2429 56
	mov	rax, QWORD PTR 16[rbp]
	mov	rcx, rax
	call	_ZNSt11_Tuple_implILy0EJPFvvEEE7_M_headERS2_
	.loc 6 2429 63
	add	rsp, 32
	pop	rbp
	.cfi_restore 6
	.cfi_def_cfa 7, 8
	ret
	.cfi_endproc
.LFE7181:
	.seh_endproc
	.section	.text$_ZSt13__invoke_implIvPFvvEJEET_St14__invoke_otherOT0_DpOT1_,"x"
	.linkonce discard
	.globl	_ZSt13__invoke_implIvPFvvEJEET_St14__invoke_otherOT0_DpOT1_
	.def	_ZSt13__invoke_implIvPFvvEJEET_St14__invoke_otherOT0_DpOT1_;	.scl	2;	.type	32;	.endef
	.seh_proc	_ZSt13__invoke_implIvPFvvEJEET_St14__invoke_otherOT0_DpOT1_
_ZSt13__invoke_implIvPFvvEJEET_St14__invoke_otherOT0_DpOT1_:
.LFB7183:
	.loc 7 62 5
	.cfi_startproc
	push	rbp
	.seh_pushreg	rbp
	.cfi_def_cfa_offset 16
	.cfi_offset 6, -16
	mov	rbp, rsp
	.seh_setframe	rbp, 0
	.cfi_def_cfa_register 6
	sub	rsp, 48
	.seh_stackalloc	48
	.seh_endprologue
	mov	QWORD PTR 16[rbp], rdx
	mov	rax, QWORD PTR 16[rbp]
	mov	QWORD PTR -8[rbp], rax
.LBB66:
.LBB67:
	.loc 4 73 36
	mov	rax, QWORD PTR -8[rbp]
.LBE67:
.LBE66:
	.loc 7 63 36 discriminator 1
	mov	rax, QWORD PTR [rax]
	call	rax
.LVL1:
	.loc 7 63 67
	nop
	.loc 7 63 70
	add	rsp, 48
	pop	rbp
	.cfi_restore 6
	.cfi_def_cfa 7, 8
	ret
	.cfi_endproc
.LFE7183:
	.seh_endproc
	.section	.text$_ZNSt11_Tuple_implILy0EJPFvvEEE7_M_headERS2_,"x"
	.linkonce discard
	.globl	_ZNSt11_Tuple_implILy0EJPFvvEEE7_M_headERS2_
	.def	_ZNSt11_Tuple_implILy0EJPFvvEEE7_M_headERS2_;	.scl	2;	.type	32;	.endef
	.seh_proc	_ZNSt11_Tuple_implILy0EJPFvvEEE7_M_headERS2_
_ZNSt11_Tuple_implILy0EJPFvvEEE7_M_headERS2_:
.LFB7285:
	.loc 6 554 7
	.cfi_startproc
	push	rbp
	.seh_pushreg	rbp
	.cfi_def_cfa_offset 16
	.cfi_offset 6, -16
	mov	rbp, rsp
	.seh_setframe	rbp, 0
	.cfi_def_cfa_register 6
	sub	rsp, 32
	.seh_stackalloc	32
	.seh_endprologue
	mov	QWORD PTR 16[rbp], rcx
	.loc 6 554 65
	mov	rax, QWORD PTR 16[rbp]
	mov	rcx, rax
	call	_ZNSt10_Head_baseILy0EPFvvELb0EE7_M_headERS2_
	.loc 6 554 72
	add	rsp, 32
	pop	rbp
	.cfi_restore 6
	.cfi_def_cfa 7, 8
	ret
	.cfi_endproc
.LFE7285:
	.seh_endproc
	.section	.text$_ZNSt10_Head_baseILy0EPFvvELb0EE7_M_headERS2_,"x"
	.linkonce discard
	.globl	_ZNSt10_Head_baseILy0EPFvvELb0EE7_M_headERS2_
	.def	_ZNSt10_Head_baseILy0EPFvvELb0EE7_M_headERS2_;	.scl	2;	.type	32;	.endef
	.seh_proc	_ZNSt10_Head_baseILy0EPFvvELb0EE7_M_headERS2_
_ZNSt10_Head_baseILy0EPFvvELb0EE7_M_headERS2_:
.LFB7327:
	.loc 6 246 7
	.cfi_startproc
	push	rbp
	.seh_pushreg	rbp
	.cfi_def_cfa_offset 16
	.cfi_offset 6, -16
	mov	rbp, rsp
	.seh_setframe	rbp, 0
	.cfi_def_cfa_register 6
	.seh_endprologue
	mov	QWORD PTR 16[rbp], rcx
	.loc 6 246 54
	mov	rax, QWORD PTR 16[rbp]
	.loc 6 246 68
	pop	rbp
	.cfi_restore 6
	.cfi_def_cfa 7, 8
	ret
	.cfi_endproc
.LFE7327:
	.seh_endproc
	.text
.Letext0:
	.file 8 "C:/Qt/Tools/mingw1530_64/include/c++/15.3.0/type_traits"
	.file 9 "C:/Qt/Tools/mingw1530_64/include/c++/15.3.0/concepts"
	.file 10 "C:/Qt/Tools/mingw1530_64/include/c++/15.3.0/bits/iterator_concepts.h"
	.file 11 "C:/Qt/Tools/mingw1530_64/include/c++/15.3.0/compare"
	.file 12 "C:/Qt/Tools/mingw1530_64/include/c++/15.3.0/bits/utility.h"
	.file 13 "C:/Qt/Tools/mingw1530_64/include/c++/15.3.0/cstdint"
	.file 14 "C:/Qt/Tools/mingw1530_64/include/c++/15.3.0/cwchar"
	.file 15 "C:/Qt/Tools/mingw1530_64/include/c++/15.3.0/bits/uses_allocator.h"
	.file 16 "C:/Qt/Tools/mingw1530_64/include/c++/15.3.0/numbers"
	.file 17 "C:/Qt/Tools/mingw1530_64/include/c++/15.3.0/bits/exception_ptr.h"
	.file 18 "C:/Qt/Tools/mingw1530_64/include/c++/15.3.0/clocale"
	.file 19 "C:/Qt/Tools/mingw1530_64/include/c++/15.3.0/debug/debug.h"
	.file 20 "C:/Qt/Tools/mingw1530_64/include/c++/15.3.0/cstdlib"
	.file 21 "C:/Qt/Tools/mingw1530_64/include/c++/15.3.0/cstdio"
	.file 22 "C:/Qt/Tools/mingw1530_64/include/c++/15.3.0/cstddef"
	.file 23 "C:/Qt/Tools/mingw1530_64/include/c++/15.3.0/bits/memory_resource.h"
	.file 24 "C:/Qt/Tools/mingw1530_64/include/c++/15.3.0/system_error"
	.file 25 "C:/Qt/Tools/mingw1530_64/include/c++/15.3.0/cwctype"
	.file 26 "C:/Qt/Tools/mingw1530_64/include/c++/15.3.0/ctime"
	.file 27 "C:/Qt/Tools/mingw1530_64/include/c++/15.3.0/bits/chrono.h"
	.file 28 "C:/Qt/Tools/mingw1530_64/include/c++/15.3.0/charconv"
	.file 29 "C:/Qt/Tools/mingw1530_64/include/c++/15.3.0/x86_64-w64-mingw32/bits/error_constants.h"
	.file 30 "C:/Qt/Tools/mingw1530_64/include/c++/15.3.0/bits/unicode.h"
	.file 31 "C:/Qt/Tools/mingw1530_64/include/c++/15.3.0/bits/stl_pair.h"
	.file 32 "C:/Qt/Tools/mingw1530_64/include/c++/15.3.0/bits/formatfwd.h"
	.file 33 "C:/Qt/Tools/mingw1530_64/include/c++/15.3.0/format"
	.file 34 "C:/Qt/Tools/mingw1530_64/include/c++/15.3.0/bits/parse_numbers.h"
	.file 35 "C:/Qt/Tools/mingw1530_64/x86_64-w64-mingw32/include/corecrt.h"
	.file 36 "C:/Qt/Tools/mingw1530_64/x86_64-w64-mingw32/include/locale.h"
	.file 37 "C:/Qt/Tools/mingw1530_64/lib/gcc/x86_64-w64-mingw32/15.3.0/include/stddef.h"
	.file 38 "C:/Qt/Tools/mingw1530_64/x86_64-w64-mingw32/include/stdint.h"
	.file 39 "C:/Qt/Tools/mingw1530_64/x86_64-w64-mingw32/include/time.h"
	.file 40 "C:/Qt/Tools/mingw1530_64/x86_64-w64-mingw32/include/pthread.h"
	.file 41 "C:/Qt/Tools/mingw1530_64/include/c++/15.3.0/x86_64-w64-mingw32/bits/gthr-default.h"
	.file 42 "C:/Qt/Tools/mingw1530_64/include/c++/15.3.0/bits/predefined_ops.h"
	.file 43 "C:/Qt/Tools/mingw1530_64/x86_64-w64-mingw32/include/wchar.h"
	.file 44 "C:/Qt/Tools/mingw1530_64/x86_64-w64-mingw32/include/swprintf.inl"
	.file 45 "C:/Qt/Tools/mingw1530_64/x86_64-w64-mingw32/include/stdio.h"
	.file 46 "C:/Qt/Tools/mingw1530_64/include/c++/15.3.0/bits/ptr_traits.h"
	.file 47 "C:/Qt/Tools/mingw1530_64/x86_64-w64-mingw32/include/stdlib.h"
	.file 48 "C:/Qt/Tools/mingw1530_64/x86_64-w64-mingw32/include/process.h"
	.file 49 "C:/Qt/Tools/mingw1530_64/x86_64-w64-mingw32/include/wctype.h"
	.file 50 "C:/Qt/Tools/mingw1530_64/x86_64-w64-mingw32/include/corecrt_wctype.h"
	.file 51 "C:/Qt/Tools/mingw1530_64/include/c++/15.3.0/new"
	.file 52 "C:/Qt/Tools/mingw1530_64/include/c++/15.3.0/exception"
	.file 53 "C:/Qt/Tools/mingw1530_64/include/c++/15.3.0/string_view"
	.section	.rdata$.refptr._ZTVNSt6thread6_StateE, "dr"
	.p2align	3, 0
	.globl	.refptr._ZTVNSt6thread6_StateE
	.linkonce	discard
.refptr._ZTVNSt6thread6_StateE:
	.quad	_ZTVNSt6thread6_StateE
