	.file	"_ch134_objsys.cpp"
	.intel_syntax noprefix
	.text
	.section	.text$_ZNSt15_Sp_counted_ptrIP6FActorLN9__gnu_cxx12_Lock_policyE2EED1Ev,"x"
	.linkonce discard
	.align 2
	.p2align 4
	.globl	_ZNSt15_Sp_counted_ptrIP6FActorLN9__gnu_cxx12_Lock_policyE2EED1Ev
	.def	_ZNSt15_Sp_counted_ptrIP6FActorLN9__gnu_cxx12_Lock_policyE2EED1Ev;	.scl	2;	.type	32;	.endef
	.seh_proc	_ZNSt15_Sp_counted_ptrIP6FActorLN9__gnu_cxx12_Lock_policyE2EED1Ev
_ZNSt15_Sp_counted_ptrIP6FActorLN9__gnu_cxx12_Lock_policyE2EED1Ev:
.LFB4010:
	.seh_endprologue
	ret
	.seh_endproc
	.section	.text$_ZNSt15_Sp_counted_ptrIP6FActorLN9__gnu_cxx12_Lock_policyE2EE14_M_get_deleterERKSt9type_info,"x"
	.linkonce discard
	.align 2
	.p2align 4
	.globl	_ZNSt15_Sp_counted_ptrIP6FActorLN9__gnu_cxx12_Lock_policyE2EE14_M_get_deleterERKSt9type_info
	.def	_ZNSt15_Sp_counted_ptrIP6FActorLN9__gnu_cxx12_Lock_policyE2EE14_M_get_deleterERKSt9type_info;	.scl	2;	.type	32;	.endef
	.seh_proc	_ZNSt15_Sp_counted_ptrIP6FActorLN9__gnu_cxx12_Lock_policyE2EE14_M_get_deleterERKSt9type_info
_ZNSt15_Sp_counted_ptrIP6FActorLN9__gnu_cxx12_Lock_policyE2EE14_M_get_deleterERKSt9type_info:
.LFB4016:
	.seh_endprologue
	xor	eax, eax
	ret
	.seh_endproc
	.section	.text$_ZNSt15_Sp_counted_ptrIP6FActorLN9__gnu_cxx12_Lock_policyE2EED0Ev,"x"
	.linkonce discard
	.align 2
	.p2align 4
	.globl	_ZNSt15_Sp_counted_ptrIP6FActorLN9__gnu_cxx12_Lock_policyE2EED0Ev
	.def	_ZNSt15_Sp_counted_ptrIP6FActorLN9__gnu_cxx12_Lock_policyE2EED0Ev;	.scl	2;	.type	32;	.endef
	.seh_proc	_ZNSt15_Sp_counted_ptrIP6FActorLN9__gnu_cxx12_Lock_policyE2EED0Ev
_ZNSt15_Sp_counted_ptrIP6FActorLN9__gnu_cxx12_Lock_policyE2EED0Ev:
.LFB4011:
	.seh_endprologue
	mov	edx, 24
	jmp	_ZdlPvy
	.seh_endproc
	.section	.text$_ZNSt15_Sp_counted_ptrIP6FActorLN9__gnu_cxx12_Lock_policyE2EE10_M_destroyEv,"x"
	.linkonce discard
	.align 2
	.p2align 4
	.globl	_ZNSt15_Sp_counted_ptrIP6FActorLN9__gnu_cxx12_Lock_policyE2EE10_M_destroyEv
	.def	_ZNSt15_Sp_counted_ptrIP6FActorLN9__gnu_cxx12_Lock_policyE2EE10_M_destroyEv;	.scl	2;	.type	32;	.endef
	.seh_proc	_ZNSt15_Sp_counted_ptrIP6FActorLN9__gnu_cxx12_Lock_policyE2EE10_M_destroyEv
_ZNSt15_Sp_counted_ptrIP6FActorLN9__gnu_cxx12_Lock_policyE2EE10_M_destroyEv:
.LFB4015:
	.seh_endprologue
	mov	edx, 24
	jmp	_ZdlPvy
	.seh_endproc
	.text
	.align 2
	.p2align 4
	.def	_ZNKSt10_HashtableINSt7__cxx1112basic_stringIcSt11char_traitsIcESaIcEEESt4pairIKS5_PK6FClassESaISB_ENSt8__detail10_Select1stESt8equal_toIS5_ESt4hashIS5_ENSD_18_Mod_range_hashingENSD_20_Default_ranged_hashENSD_20_Prime_rehash_policyENSD_17_Hashtable_traitsILb1ELb0ELb1EEEE19_M_find_before_nodeEyRS7_y.isra.0;	.scl	3;	.type	32;	.endef
	.seh_proc	_ZNKSt10_HashtableINSt7__cxx1112basic_stringIcSt11char_traitsIcESaIcEEESt4pairIKS5_PK6FClassESaISB_ENSt8__detail10_Select1stESt8equal_toIS5_ESt4hashIS5_ENSD_18_Mod_range_hashingENSD_20_Default_ranged_hashENSD_20_Prime_rehash_policyENSD_17_Hashtable_traitsILb1ELb0ELb1EEEE19_M_find_before_nodeEyRS7_y.isra.0
_ZNKSt10_HashtableINSt7__cxx1112basic_stringIcSt11char_traitsIcESaIcEEESt4pairIKS5_PK6FClassESaISB_ENSt8__detail10_Select1stESt8equal_toIS5_ESt4hashIS5_ENSD_18_Mod_range_hashingENSD_20_Default_ranged_hashENSD_20_Prime_rehash_policyENSD_17_Hashtable_traitsILb1ELb0ELb1EEEE19_M_find_before_nodeEyRS7_y.isra.0:
.LFB4031:
	push	r13
	.seh_pushreg	r13
	push	r12
	.seh_pushreg	r12
	push	rbp
	.seh_pushreg	rbp
	push	rdi
	.seh_pushreg	rdi
	push	rsi
	.seh_pushreg	rsi
	push	rbx
	.seh_pushreg	rbx
	sub	rsp, 40
	.seh_stackalloc	40
	.seh_endprologue
	mov	rdi, QWORD PTR [rcx+r8*8]
	mov	r12, QWORD PTR 128[rsp]
	test	rdi, rdi
	mov	rsi, rdx
	mov	rbp, r8
	mov	r13, r9
	je	.L6
	mov	rbx, QWORD PTR [rdi]
	mov	rcx, QWORD PTR 48[rbx]
	jmp	.L9
	.p2align 4,,10
	.p2align 3
.L8:
	mov	r10, QWORD PTR [rbx]
	test	r10, r10
	je	.L10
	mov	rcx, QWORD PTR 48[r10]
	xor	edx, edx
	mov	rdi, rbx
	mov	rax, rcx
	div	rsi
	cmp	rbp, rdx
	jne	.L10
	mov	rbx, r10
.L9:
	cmp	r12, rcx
	jne	.L8
	mov	r8, QWORD PTR 8[r13]
	cmp	r8, QWORD PTR 16[rbx]
	jne	.L8
	test	r8, r8
	je	.L6
	mov	rdx, QWORD PTR 8[rbx]
	mov	rcx, QWORD PTR 0[r13]
	call	memcmp
	test	eax, eax
	jne	.L8
.L6:
	mov	rax, rdi
	add	rsp, 40
	pop	rbx
	pop	rsi
	pop	rdi
	pop	rbp
	pop	r12
	pop	r13
	ret
	.p2align 4,,10
	.p2align 3
.L10:
	xor	edi, edi
	mov	rax, rdi
	add	rsp, 40
	pop	rbx
	pop	rsi
	pop	rdi
	pop	rbp
	pop	r12
	pop	r13
	ret
	.seh_endproc
	.align 2
	.p2align 4
	.def	_ZNSt7__cxx1112basic_stringIcSt11char_traitsIcESaIcEE6assignEPKc.isra.0;	.scl	3;	.type	32;	.endef
	.seh_proc	_ZNSt7__cxx1112basic_stringIcSt11char_traitsIcESaIcEE6assignEPKc.isra.0
_ZNSt7__cxx1112basic_stringIcSt11char_traitsIcESaIcEE6assignEPKc.isra.0:
.LFB4032:
	push	rsi
	.seh_pushreg	rsi
	push	rbx
	.seh_pushreg	rbx
	sub	rsp, 56
	.seh_stackalloc	56
	.seh_endprologue
	mov	rbx, rcx
	mov	rcx, rdx
	mov	rsi, rdx
	call	strlen
	mov	r9, rsi
	xor	edx, edx
	mov	rcx, rbx
	mov	QWORD PTR 32[rsp], rax
	mov	r8, QWORD PTR 8[rbx]
	call	_ZNSt7__cxx1112basic_stringIcSt11char_traitsIcESaIcEE10_M_replaceEyyPKcy
	nop
	add	rsp, 56
	pop	rbx
	pop	rsi
	ret
	.seh_endproc
	.section .rdata,"dr"
	.align 8
.LC0:
	.ascii "basic_string: construction from null is not valid\0"
	.text
	.align 2
	.p2align 4
	.def	_ZNSt7__cxx1112basic_stringIcSt11char_traitsIcESaIcEEC1IS3_EEPKcRKS3_.isra.0;	.scl	3;	.type	32;	.endef
	.seh_proc	_ZNSt7__cxx1112basic_stringIcSt11char_traitsIcESaIcEEC1IS3_EEPKcRKS3_.isra.0
_ZNSt7__cxx1112basic_stringIcSt11char_traitsIcESaIcEEC1IS3_EEPKcRKS3_.isra.0:
.LFB4033:
	push	rbp
	.seh_pushreg	rbp
	push	rdi
	.seh_pushreg	rdi
	push	rsi
	.seh_pushreg	rsi
	push	rbx
	.seh_pushreg	rbx
	sub	rsp, 56
	.seh_stackalloc	56
	.seh_endprologue
	lea	rdi, 16[rcx]
	test	rdx, rdx
	mov	rbx, rcx
	mov	rsi, rdx
	mov	QWORD PTR [rcx], rdi
	je	.L25
	mov	rcx, rdx
	call	strlen
	lea	rbp, [rsi+rax]
	cmp	rax, 15
	mov	QWORD PTR 40[rsp], rax
	ja	.L26
.L24:
	mov	rdx, rsi
	mov	r8, rbp
	mov	rcx, rdi
	call	_ZNSt7__cxx1112basic_stringIcSt11char_traitsIcESaIcEE13_S_copy_charsEPcPKcS7_
	mov	rax, QWORD PTR 40[rsp]
	mov	rdx, QWORD PTR [rbx]
	mov	QWORD PTR 8[rbx], rax
	mov	BYTE PTR [rdx+rax], 0
	add	rsp, 56
	pop	rbx
	pop	rsi
	pop	rdi
	pop	rbp
	ret
.L26:
	lea	rdx, 40[rsp]
	xor	r8d, r8d
	mov	rcx, rbx
	call	_ZNSt7__cxx1112basic_stringIcSt11char_traitsIcESaIcEE9_M_createERyy
	mov	rdi, rax
	mov	QWORD PTR [rbx], rax
	mov	rax, QWORD PTR 40[rsp]
	mov	QWORD PTR 16[rbx], rax
	jmp	.L24
.L25:
	lea	rcx, .LC0[rip]
	call	_ZSt19__throw_logic_errorPKc
	nop
	.seh_endproc
	.p2align 4
	.def	__tcf_0;	.scl	3;	.type	32;	.endef
	.seh_proc	__tcf_0
__tcf_0:
.LFB3023:
	push	rsi
	.seh_pushreg	rsi
	push	rbx
	.seh_pushreg	rbx
	sub	rsp, 40
	.seh_stackalloc	40
	.seh_endprologue
	mov	rsi, QWORD PTR _ZZN6FClass8RegistryB5cxx11EvE1m[rip+16]
	test	rsi, rsi
	je	.L28
	.p2align 4,,10
	.p2align 3
.L30:
	mov	rbx, rsi
	mov	rsi, QWORD PTR [rsi]
	mov	rcx, QWORD PTR 8[rbx]
	lea	rax, 24[rbx]
	cmp	rcx, rax
	je	.L29
	mov	rax, QWORD PTR 24[rbx]
	lea	rdx, 1[rax]
	call	_ZdlPvy
.L29:
	mov	edx, 56
	mov	rcx, rbx
	call	_ZdlPvy
	test	rsi, rsi
	jne	.L30
.L28:
	mov	rax, QWORD PTR _ZZN6FClass8RegistryB5cxx11EvE1m[rip+8]
	xor	edx, edx
	mov	rcx, QWORD PTR _ZZN6FClass8RegistryB5cxx11EvE1m[rip]
	lea	r8, 0[0+rax*8]
	call	memset
	mov	rcx, QWORD PTR _ZZN6FClass8RegistryB5cxx11EvE1m[rip]
	lea	rax, _ZZN6FClass8RegistryB5cxx11EvE1m[rip+48]
	mov	QWORD PTR _ZZN6FClass8RegistryB5cxx11EvE1m[rip+24], 0
	mov	rdx, QWORD PTR _ZZN6FClass8RegistryB5cxx11EvE1m[rip+8]
	mov	QWORD PTR _ZZN6FClass8RegistryB5cxx11EvE1m[rip+16], 0
	cmp	rcx, rax
	je	.L27
	sal	rdx, 3
	add	rsp, 40
	pop	rbx
	pop	rsi
	jmp	_ZdlPvy
	.p2align 4,,10
	.p2align 3
.L27:
	add	rsp, 40
	pop	rbx
	pop	rsi
	ret
	.seh_endproc
	.p2align 4
	.def	__tcf_1;	.scl	3;	.type	32;	.endef
	.seh_proc	__tcf_1
__tcf_1:
.LFB4013:
	push	rsi
	.seh_pushreg	rsi
	push	rbx
	.seh_pushreg	rbx
	sub	rsp, 40
	.seh_stackalloc	40
	.seh_endprologue
	mov	rsi, QWORD PTR _ZN6FActor11StaticClassE[rip+48]
	mov	rbx, QWORD PTR _ZN6FActor11StaticClassE[rip+40]
	cmp	rsi, rbx
	je	.L37
	.p2align 4,,10
	.p2align 3
.L39:
	mov	rcx, QWORD PTR [rbx]
	lea	rax, 16[rbx]
	cmp	rcx, rax
	je	.L38
	mov	rax, QWORD PTR 16[rbx]
	lea	rdx, 1[rax]
	call	_ZdlPvy
.L38:
	add	rbx, 48
	cmp	rsi, rbx
	jne	.L39
	mov	rbx, QWORD PTR _ZN6FActor11StaticClassE[rip+40]
.L37:
	test	rbx, rbx
	je	.L40
	mov	rdx, QWORD PTR _ZN6FActor11StaticClassE[rip+56]
	mov	rcx, rbx
	sub	rdx, rbx
	call	_ZdlPvy
.L40:
	mov	rcx, QWORD PTR _ZN6FActor11StaticClassE[rip]
	lea	rax, _ZN6FActor11StaticClassE[rip+16]
	cmp	rcx, rax
	je	.L36
	mov	rax, QWORD PTR _ZN6FActor11StaticClassE[rip+16]
	lea	rdx, 1[rax]
	add	rsp, 40
	pop	rbx
	pop	rsi
	jmp	_ZdlPvy
	.p2align 4,,10
	.p2align 3
.L36:
	add	rsp, 40
	pop	rbx
	pop	rsi
	ret
	.seh_endproc
	.section .rdata,"dr"
.LC1:
	.ascii "FActor\0"
	.text
	.p2align 4
	.globl	_Z9NewObjectPK6FClass
	.def	_Z9NewObjectPK6FClass;	.scl	2;	.type	32;	.endef
	.seh_proc	_Z9NewObjectPK6FClass
_Z9NewObjectPK6FClass:
.LFB3082:
	sub	rsp, 40
	.seh_stackalloc	40
	.seh_endprologue
	xor	eax, eax
	test	rcx, rcx
	je	.L46
	cmp	QWORD PTR 8[rcx], 6
	je	.L53
.L46:
	add	rsp, 40
	ret
	.p2align 4,,10
	.p2align 3
.L53:
	mov	rax, QWORD PTR [rcx]
	cmp	DWORD PTR [rax], 1952661830
	je	.L54
.L48:
	xor	eax, eax
	add	rsp, 40
	ret
	.p2align 4,,10
	.p2align 3
.L54:
	cmp	WORD PTR 4[rax], 29295
	jne	.L48
	mov	ecx, 64
	call	_Znwy
	lea	rdx, _ZN6FActor11StaticClassE[rip]
	pxor	xmm0, xmm0
	mov	QWORD PTR [rax], rdx
	lea	rdx, 24[rax]
	mov	QWORD PTR 8[rax], rdx
	mov	QWORD PTR 16[rax], 0
	mov	BYTE PTR 24[rax], 0
	movups	XMMWORD PTR 48[rax], xmm0
	mov	DWORD PTR 40[rax], 100
	jmp	.L46
	.seh_endproc
	.section	.text$_ZNSt16_Sp_counted_baseILN9__gnu_cxx12_Lock_policyE2EE24_M_release_last_use_coldEv,"x"
	.linkonce discard
	.align 2
	.p2align 4
	.globl	_ZNSt16_Sp_counted_baseILN9__gnu_cxx12_Lock_policyE2EE24_M_release_last_use_coldEv
	.def	_ZNSt16_Sp_counted_baseILN9__gnu_cxx12_Lock_policyE2EE24_M_release_last_use_coldEv;	.scl	2;	.type	32;	.endef
	.seh_proc	_ZNSt16_Sp_counted_baseILN9__gnu_cxx12_Lock_policyE2EE24_M_release_last_use_coldEv
_ZNSt16_Sp_counted_baseILN9__gnu_cxx12_Lock_policyE2EE24_M_release_last_use_coldEv:
.LFB3356:
	push	rbx
	.seh_pushreg	rbx
	sub	rsp, 32
	.seh_stackalloc	32
	.seh_endprologue
	mov	rax, QWORD PTR [rcx]
	mov	rbx, rcx
	call	[QWORD PTR 16[rax]]
	lock sub	DWORD PTR 12[rbx], 1
	jne	.L55
	mov	rax, QWORD PTR [rbx]
	mov	rcx, rbx
	mov	rax, QWORD PTR 24[rax]
	add	rsp, 32
	pop	rbx
	rex.W jmp	rax
	.p2align 4,,10
	.p2align 3
.L55:
	add	rsp, 32
	pop	rbx
	ret
	.seh_endproc
	.section	.text$_ZNSt16_Sp_counted_baseILN9__gnu_cxx12_Lock_policyE2EE10_M_releaseEv,"x"
	.linkonce discard
	.align 2
	.p2align 4
	.globl	_ZNSt16_Sp_counted_baseILN9__gnu_cxx12_Lock_policyE2EE10_M_releaseEv
	.def	_ZNSt16_Sp_counted_baseILN9__gnu_cxx12_Lock_policyE2EE10_M_releaseEv;	.scl	2;	.type	32;	.endef
	.seh_proc	_ZNSt16_Sp_counted_baseILN9__gnu_cxx12_Lock_policyE2EE10_M_releaseEv
_ZNSt16_Sp_counted_baseILN9__gnu_cxx12_Lock_policyE2EE10_M_releaseEv:
.LFB2598:
	push	rbx
	.seh_pushreg	rbx
	sub	rsp, 32
	.seh_stackalloc	32
	.seh_endprologue
	movabs	rdx, 4294967297
	lea	rax, 8[rcx]
	mov	rbx, rcx
	mov	rcx, QWORD PTR 8[rcx]
	cmp	rcx, rdx
	je	.L60
	lock sub	DWORD PTR [rax], 1
	je	.L61
	add	rsp, 32
	pop	rbx
	ret
	.p2align 4,,10
	.p2align 3
.L60:
	mov	rax, QWORD PTR [rbx]
	mov	rcx, rbx
	mov	QWORD PTR 8[rbx], 0
	call	[QWORD PTR 16[rax]]
	mov	rax, QWORD PTR [rbx]
	mov	rcx, rbx
	mov	rax, QWORD PTR 24[rax]
	add	rsp, 32
	pop	rbx
	rex.W jmp	rax
	.p2align 4,,10
	.p2align 3
.L61:
	mov	rcx, rbx
	add	rsp, 32
	pop	rbx
	jmp	_ZNSt16_Sp_counted_baseILN9__gnu_cxx12_Lock_policyE2EE24_M_release_last_use_coldEv
	.seh_endproc
	.section	.text$_ZNSt15_Sp_counted_ptrIP6FActorLN9__gnu_cxx12_Lock_policyE2EE10_M_disposeEv,"x"
	.linkonce discard
	.align 2
	.p2align 4
	.globl	_ZNSt15_Sp_counted_ptrIP6FActorLN9__gnu_cxx12_Lock_policyE2EE10_M_disposeEv
	.def	_ZNSt15_Sp_counted_ptrIP6FActorLN9__gnu_cxx12_Lock_policyE2EE10_M_disposeEv;	.scl	2;	.type	32;	.endef
	.seh_proc	_ZNSt15_Sp_counted_ptrIP6FActorLN9__gnu_cxx12_Lock_policyE2EE10_M_disposeEv
_ZNSt15_Sp_counted_ptrIP6FActorLN9__gnu_cxx12_Lock_policyE2EE10_M_disposeEv:
.LFB4014:
	push	rsi
	.seh_pushreg	rsi
	push	rbx
	.seh_pushreg	rbx
	sub	rsp, 40
	.seh_stackalloc	40
	.seh_endprologue
	mov	rbx, QWORD PTR 16[rcx]
	test	rbx, rbx
	je	.L62
	mov	rsi, QWORD PTR 56[rbx]
	test	rsi, rsi
	je	.L65
	mov	rcx, QWORD PTR 8[rsi]
	lea	rax, 8[rsi]
	movabs	rdx, 4294967297
	cmp	rcx, rdx
	je	.L72
	lock sub	DWORD PTR [rax], 1
	je	.L73
.L65:
	mov	rcx, QWORD PTR 8[rbx]
	lea	rax, 24[rbx]
	cmp	rcx, rax
	je	.L68
.L74:
	mov	rax, QWORD PTR 24[rbx]
	lea	rdx, 1[rax]
	call	_ZdlPvy
.L68:
	mov	edx, 64
	mov	rcx, rbx
	add	rsp, 40
	pop	rbx
	pop	rsi
	jmp	_ZdlPvy
	.p2align 4,,10
	.p2align 3
.L62:
	add	rsp, 40
	pop	rbx
	pop	rsi
	ret
	.p2align 4,,10
	.p2align 3
.L72:
	mov	rax, QWORD PTR [rsi]
	mov	rcx, rsi
	mov	QWORD PTR 8[rsi], 0
	call	[QWORD PTR 16[rax]]
	mov	rax, QWORD PTR [rsi]
	mov	rcx, rsi
	call	[QWORD PTR 24[rax]]
	mov	rcx, QWORD PTR 8[rbx]
	lea	rax, 24[rbx]
	cmp	rcx, rax
	jne	.L74
	jmp	.L68
	.p2align 4,,10
	.p2align 3
.L73:
	mov	rcx, rsi
	call	_ZNSt16_Sp_counted_baseILN9__gnu_cxx12_Lock_policyE2EE24_M_release_last_use_coldEv
	jmp	.L65
	.seh_endproc
	.section	.text$_ZNSt10_HashtableINSt7__cxx1112basic_stringIcSt11char_traitsIcESaIcEEESt4pairIKS5_PK6FClassESaISB_ENSt8__detail10_Select1stESt8equal_toIS5_ESt4hashIS5_ENSD_18_Mod_range_hashingENSD_20_Default_ranged_hashENSD_20_Prime_rehash_policyENSD_17_Hashtable_traitsILb1ELb0ELb1EEEE4findERS7_,"x"
	.linkonce discard
	.align 2
	.p2align 4
	.globl	_ZNSt10_HashtableINSt7__cxx1112basic_stringIcSt11char_traitsIcESaIcEEESt4pairIKS5_PK6FClassESaISB_ENSt8__detail10_Select1stESt8equal_toIS5_ESt4hashIS5_ENSD_18_Mod_range_hashingENSD_20_Default_ranged_hashENSD_20_Prime_rehash_policyENSD_17_Hashtable_traitsILb1ELb0ELb1EEEE4findERS7_
	.def	_ZNSt10_HashtableINSt7__cxx1112basic_stringIcSt11char_traitsIcESaIcEEESt4pairIKS5_PK6FClassESaISB_ENSt8__detail10_Select1stESt8equal_toIS5_ESt4hashIS5_ENSD_18_Mod_range_hashingENSD_20_Default_ranged_hashENSD_20_Prime_rehash_policyENSD_17_Hashtable_traitsILb1ELb0ELb1EEEE4findERS7_;	.scl	2;	.type	32;	.endef
	.seh_proc	_ZNSt10_HashtableINSt7__cxx1112basic_stringIcSt11char_traitsIcESaIcEEESt4pairIKS5_PK6FClassESaISB_ENSt8__detail10_Select1stESt8equal_toIS5_ESt4hashIS5_ENSD_18_Mod_range_hashingENSD_20_Default_ranged_hashENSD_20_Prime_rehash_policyENSD_17_Hashtable_traitsILb1ELb0ELb1EEEE4findERS7_
_ZNSt10_HashtableINSt7__cxx1112basic_stringIcSt11char_traitsIcESaIcEEESt4pairIKS5_PK6FClassESaISB_ENSt8__detail10_Select1stESt8equal_toIS5_ESt4hashIS5_ENSD_18_Mod_range_hashingENSD_20_Default_ranged_hashENSD_20_Prime_rehash_policyENSD_17_Hashtable_traitsILb1ELb0ELb1EEEE4findERS7_:
.LFB3543:
	push	rbp
	.seh_pushreg	rbp
	push	rdi
	.seh_pushreg	rdi
	push	rsi
	.seh_pushreg	rsi
	push	rbx
	.seh_pushreg	rbx
	sub	rsp, 56
	.seh_stackalloc	56
	.seh_endprologue
	cmp	QWORD PTR 24[rcx], 20
	mov	rbx, rcx
	mov	rdi, rdx
	ja	.L76
	mov	rbx, QWORD PTR 16[rcx]
	test	rbx, rbx
	je	.L77
	mov	rsi, QWORD PTR 8[rdx]
	jmp	.L80
	.p2align 4,,10
	.p2align 3
.L78:
	mov	rbx, QWORD PTR [rbx]
	test	rbx, rbx
	je	.L77
.L80:
	cmp	rsi, QWORD PTR 16[rbx]
	jne	.L78
	test	rsi, rsi
	je	.L77
	mov	rbp, QWORD PTR [rdi]
.L79:
	mov	rdx, QWORD PTR 8[rbx]
	mov	r8, rsi
	mov	rcx, rbp
	call	memcmp
	test	eax, eax
	je	.L77
	mov	rbx, QWORD PTR [rbx]
	test	rbx, rbx
	je	.L77
	cmp	QWORD PTR 16[rbx], rsi
	je	.L79
	mov	rbx, QWORD PTR [rbx]
	test	rbx, rbx
	jne	.L80
.L77:
	mov	rax, rbx
	add	rsp, 56
	pop	rbx
	pop	rsi
	pop	rdi
	pop	rbp
	ret
	.p2align 4,,10
	.p2align 3
.L76:
	mov	rdx, QWORD PTR 8[rdx]
	mov	r8d, 3339675911
	mov	rcx, QWORD PTR [rdi]
	call	_ZSt11_Hash_bytesPKvyy
	mov	r10, QWORD PTR 8[rbx]
	xor	edx, edx
	mov	r9, rdi
	mov	rcx, rax
	div	r10
	mov	rax, QWORD PTR [rbx]
	mov	r8, rdx
	mov	QWORD PTR 32[rsp], rcx
	mov	rdx, r10
	mov	rcx, rax
	call	_ZNKSt10_HashtableINSt7__cxx1112basic_stringIcSt11char_traitsIcESaIcEEESt4pairIKS5_PK6FClassESaISB_ENSt8__detail10_Select1stESt8equal_toIS5_ESt4hashIS5_ENSD_18_Mod_range_hashingENSD_20_Default_ranged_hashENSD_20_Prime_rehash_policyENSD_17_Hashtable_traitsILb1ELb0ELb1EEEE19_M_find_before_nodeEyRS7_y.isra.0
	test	rax, rax
	mov	rbx, rax
	je	.L77
	mov	rbx, QWORD PTR [rax]
	mov	rax, rbx
	add	rsp, 56
	pop	rbx
	pop	rsi
	pop	rdi
	pop	rbp
	ret
	.def	__gxx_personality_seh0;	.scl	2;	.type	32;	.endef
	.seh_handler	__gxx_personality_seh0, @unwind, @except
	.seh_handlerdata
.LLSDA3543:
	.byte	0xff
	.byte	0xff
	.byte	0x1
	.uleb128 .LLSDACSE3543-.LLSDACSB3543
.LLSDACSB3543:
.LLSDACSE3543:
	.section	.text$_ZNSt10_HashtableINSt7__cxx1112basic_stringIcSt11char_traitsIcESaIcEEESt4pairIKS5_PK6FClassESaISB_ENSt8__detail10_Select1stESt8equal_toIS5_ESt4hashIS5_ENSD_18_Mod_range_hashingENSD_20_Default_ranged_hashENSD_20_Prime_rehash_policyENSD_17_Hashtable_traitsILb1ELb0ELb1EEEE4findERS7_,"x"
	.linkonce discard
	.seh_endproc
	.section .rdata,"dr"
.LC2:
	.ascii "vector::_M_realloc_insert\0"
	.section	.text$_ZNSt6vectorIP7FObjectSaIS1_EE17_M_realloc_insertIJRKS1_EEEvN9__gnu_cxx17__normal_iteratorIPS1_S3_EEDpOT_,"x"
	.linkonce discard
	.align 2
	.p2align 4
	.globl	_ZNSt6vectorIP7FObjectSaIS1_EE17_M_realloc_insertIJRKS1_EEEvN9__gnu_cxx17__normal_iteratorIPS1_S3_EEDpOT_
	.def	_ZNSt6vectorIP7FObjectSaIS1_EE17_M_realloc_insertIJRKS1_EEEvN9__gnu_cxx17__normal_iteratorIPS1_S3_EEDpOT_;	.scl	2;	.type	32;	.endef
	.seh_proc	_ZNSt6vectorIP7FObjectSaIS1_EE17_M_realloc_insertIJRKS1_EEEvN9__gnu_cxx17__normal_iteratorIPS1_S3_EEDpOT_
_ZNSt6vectorIP7FObjectSaIS1_EE17_M_realloc_insertIJRKS1_EEEvN9__gnu_cxx17__normal_iteratorIPS1_S3_EEDpOT_:
.LFB3586:
	push	r14
	.seh_pushreg	r14
	push	r13
	.seh_pushreg	r13
	push	r12
	.seh_pushreg	r12
	push	rbp
	.seh_pushreg	rbp
	push	rdi
	.seh_pushreg	rdi
	push	rsi
	.seh_pushreg	rsi
	push	rbx
	.seh_pushreg	rbx
	sub	rsp, 48
	.seh_stackalloc	48
	movaps	XMMWORD PTR 32[rsp], xmm6
	.seh_savexmm	xmm6, 32
	.seh_endprologue
	mov	rdi, QWORD PTR 8[rcx]
	mov	rbp, QWORD PTR [rcx]
	mov	rax, rdi
	mov	r12, rdx
	mov	rsi, rcx
	movabs	rdx, 1152921504606846975
	sub	rax, rbp
	mov	r14, r8
	sar	rax, 3
	cmp	rax, rdx
	je	.L120
	mov	r13, r12
	sub	r13, rbp
	cmp	rbp, rdi
	je	.L121
	lea	rdx, [rax+rax]
	cmp	rdx, rax
	jb	.L114
	test	rdx, rdx
	jne	.L122
	xor	ebx, ebx
	xor	ecx, ecx
.L105:
	mov	rax, QWORD PTR [r14]
	lea	r14, 8[rcx+r13]
	sub	rdi, r12
	movq	xmm6, rcx
	test	r13, r13
	mov	QWORD PTR [rcx+r13], rax
	lea	rax, [r14+rdi]
	movq	xmm0, rax
	punpcklqdq	xmm6, xmm0
	jg	.L123
	test	rdi, rdi
	jle	.L109
	mov	r8, rdi
	mov	rdx, r12
	mov	rcx, r14
	call	memcpy
.L109:
	test	rbp, rbp
	jne	.L108
.L111:
	movups	XMMWORD PTR [rsi], xmm6
	mov	QWORD PTR 16[rsi], rbx
	movaps	xmm6, XMMWORD PTR 32[rsp]
	add	rsp, 48
	pop	rbx
	pop	rsi
	pop	rdi
	pop	rbp
	pop	r12
	pop	r13
	pop	r14
	ret
	.p2align 4,,10
	.p2align 3
.L114:
	movabs	rbx, 9223372036854775800
.L104:
	mov	rcx, rbx
	call	_Znwy
	mov	rcx, rax
	add	rbx, rax
	jmp	.L105
	.p2align 4,,10
	.p2align 3
.L123:
	mov	r8, r13
	mov	rdx, rbp
	call	memmove
	test	rdi, rdi
	jg	.L124
.L108:
	mov	rdx, QWORD PTR 16[rsi]
	mov	rcx, rbp
	sub	rdx, rbp
	call	_ZdlPvy
	jmp	.L111
	.p2align 4,,10
	.p2align 3
.L121:
	add	rax, 1
	jc	.L114
	movabs	rdx, 1152921504606846975
	cmp	rax, rdx
	mov	rbx, rdx
	cmovbe	rbx, rax
	sal	rbx, 3
	jmp	.L104
	.p2align 4,,10
	.p2align 3
.L124:
	mov	rdx, r12
	mov	rcx, r14
	mov	r8, rdi
	call	memcpy
	mov	rdx, QWORD PTR 16[rsi]
	mov	rcx, rbp
	sub	rdx, rbp
	call	_ZdlPvy
	jmp	.L111
.L122:
	movabs	rax, 1152921504606846975
	cmp	rdx, rax
	cmova	rdx, rax
	lea	rbx, 0[0+rdx*8]
	jmp	.L104
.L120:
	lea	rcx, .LC2[rip]
	call	_ZSt20__throw_length_errorPKc
	nop
	.seh_endproc
	.text
	.p2align 4
	.globl	_Z13MarkReachableP7FObjectRSt6vectorIS0_SaIS0_EE
	.def	_Z13MarkReachableP7FObjectRSt6vectorIS0_SaIS0_EE;	.scl	2;	.type	32;	.endef
	.seh_proc	_Z13MarkReachableP7FObjectRSt6vectorIS0_SaIS0_EE
_Z13MarkReachableP7FObjectRSt6vectorIS0_SaIS0_EE:
.LFB3083:
	sub	rsp, 40
	.seh_stackalloc	40
	.seh_endprologue
	mov	rax, rcx
	mov	QWORD PTR 48[rsp], rcx
	mov	rcx, rdx
	test	rax, rax
	je	.L125
	mov	rdx, QWORD PTR 8[rdx]
	cmp	rdx, QWORD PTR 16[rcx]
	je	.L127
	mov	QWORD PTR [rdx], rax
	add	rdx, 8
	mov	QWORD PTR 8[rcx], rdx
.L125:
	add	rsp, 40
	ret
	.p2align 4,,10
	.p2align 3
.L127:
	lea	r8, 48[rsp]
	call	_ZNSt6vectorIP7FObjectSaIS1_EE17_M_realloc_insertIJRKS1_EEEvN9__gnu_cxx17__normal_iteratorIPS1_S3_EEDpOT_
	nop
	add	rsp, 40
	ret
	.seh_endproc
	.section	.text$_ZNSt6vectorI9FPropertySaIS0_EE17_M_realloc_insertIJS0_EEEvN9__gnu_cxx17__normal_iteratorIPS0_S2_EEDpOT_,"x"
	.linkonce discard
	.align 2
	.p2align 4
	.globl	_ZNSt6vectorI9FPropertySaIS0_EE17_M_realloc_insertIJS0_EEEvN9__gnu_cxx17__normal_iteratorIPS0_S2_EEDpOT_
	.def	_ZNSt6vectorI9FPropertySaIS0_EE17_M_realloc_insertIJS0_EEEvN9__gnu_cxx17__normal_iteratorIPS0_S2_EEDpOT_;	.scl	2;	.type	32;	.endef
	.seh_proc	_ZNSt6vectorI9FPropertySaIS0_EE17_M_realloc_insertIJS0_EEEvN9__gnu_cxx17__normal_iteratorIPS0_S2_EEDpOT_
_ZNSt6vectorI9FPropertySaIS0_EE17_M_realloc_insertIJS0_EEEvN9__gnu_cxx17__normal_iteratorIPS0_S2_EEDpOT_:
.LFB3709:
	push	r15
	.seh_pushreg	r15
	push	r14
	.seh_pushreg	r14
	push	r13
	.seh_pushreg	r13
	push	r12
	.seh_pushreg	r12
	push	rbp
	.seh_pushreg	rbp
	push	rdi
	.seh_pushreg	rdi
	push	rsi
	.seh_pushreg	rsi
	push	rbx
	.seh_pushreg	rbx
	sub	rsp, 72
	.seh_stackalloc	72
	movaps	XMMWORD PTR 48[rsp], xmm6
	.seh_savexmm	xmm6, 48
	.seh_endprologue
	mov	rsi, QWORD PTR 8[rcx]
	mov	rdi, QWORD PTR [rcx]
	mov	rax, rsi
	mov	rbx, rdx
	mov	rbp, rcx
	movabs	rdx, -6148914691236517205
	sub	rax, rdi
	mov	r14, r8
	sar	rax, 4
	imul	rax, rdx
	movabs	rdx, 192153584101141162
	cmp	rax, rdx
	je	.L190
	mov	r15, rbx
	sub	r15, rdi
	cmp	rdi, rsi
	je	.L191
	lea	rdx, [rax+rax]
	cmp	rdx, rax
	jb	.L168
	test	rdx, rdx
	jne	.L192
	mov	r13d, 48
	xor	r12d, r12d
	xor	r11d, r11d
.L137:
	mov	r9, QWORD PTR [r14]
	lea	rax, [r11+r15]
	lea	rdx, 16[r14]
	mov	r8, QWORD PTR 8[r14]
	lea	rcx, 16[rax]
	mov	QWORD PTR [rax], rcx
	cmp	r9, rdx
	je	.L193
	mov	rcx, QWORD PTR 16[r14]
	mov	QWORD PTR [rax], r9
	mov	QWORD PTR 16[rax], rcx
.L145:
	mov	QWORD PTR [r14], rdx
	mov	rdx, QWORD PTR 32[r14]
	cmp	rbx, rdi
	mov	QWORD PTR 8[rax], r8
	mov	QWORD PTR 8[r14], 0
	mov	BYTE PTR 16[r14], 0
	mov	QWORD PTR 32[rax], rdx
	movzx	edx, BYTE PTR 40[r14]
	mov	BYTE PTR 40[rax], dl
	je	.L146
	lea	rcx, 16[rdi]
	mov	rdx, rdi
	mov	rax, r11
	jmp	.L155
	.p2align 4,,10
	.p2align 3
.L147:
	mov	QWORD PTR [rax], r8
	mov	r8, QWORD PTR 16[rdx]
	mov	QWORD PTR 16[rax], r8
.L189:
	mov	r8, QWORD PTR 8[rdx]
.L154:
	mov	QWORD PTR 8[rax], r8
	mov	r8, QWORD PTR 32[rdx]
	add	rdx, 48
	add	rax, 48
	add	rcx, 48
	mov	QWORD PTR -16[rax], r8
	movzx	r8d, BYTE PTR -8[rdx]
	mov	BYTE PTR -8[rax], r8b
	cmp	rdx, rbx
	je	.L194
.L155:
	lea	r9, 16[rax]
	mov	QWORD PTR [rax], r9
	mov	r8, QWORD PTR [rdx]
	cmp	r8, rcx
	jne	.L147
	mov	r8, QWORD PTR 8[rdx]
	lea	r10, 1[r8]
	cmp	r10d, 8
	jnb	.L148
	test	r10b, 4
	jne	.L195
	test	r10d, r10d
	je	.L154
	movzx	r8d, BYTE PTR [rcx]
	test	r10b, 2
	mov	BYTE PTR [r9], r8b
	je	.L189
	mov	r10d, r10d
	movzx	r8d, WORD PTR -2[rcx+r10]
	mov	WORD PTR -2[r9+r10], r8w
	mov	r8, QWORD PTR 8[rdx]
	jmp	.L154
	.p2align 4,,10
	.p2align 3
.L168:
	movabs	r12, 9223372036854775776
.L136:
	mov	rcx, r12
	call	_Znwy
	lea	r13, 48[rax]
	mov	r11, rax
	add	r12, rax
	jmp	.L137
	.p2align 4,,10
	.p2align 3
.L194:
	lea	rax, -48[rbx]
	movabs	rdx, 768614336404564651
	sub	rax, rdi
	shr	rax, 4
	imul	rax, rdx
	movabs	rdx, 1152921504606846975
	and	rax, rdx
	lea	rax, [rax+rax*2]
	sal	rax, 4
	lea	r13, 96[r11+rax]
.L146:
	cmp	rbx, rsi
	je	.L156
	lea	rcx, 16[rbx]
	mov	rdx, rbx
	mov	rax, r13
	jmp	.L165
	.p2align 4,,10
	.p2align 3
.L157:
	mov	r8, QWORD PTR 16[rdx]
	mov	QWORD PTR [rax], r10
	mov	QWORD PTR 16[rax], r8
.L164:
	mov	r8, QWORD PTR 32[rdx]
	add	rdx, 48
	mov	QWORD PTR 8[rax], r9
	add	rcx, 48
	add	rax, 48
	mov	QWORD PTR -16[rax], r8
	movzx	r8d, BYTE PTR -8[rdx]
	mov	BYTE PTR -8[rax], r8b
	cmp	rdx, rsi
	je	.L196
.L165:
	mov	r10, QWORD PTR [rdx]
	lea	r8, 16[rax]
	mov	r9, QWORD PTR 8[rdx]
	mov	QWORD PTR [rax], r8
	cmp	r10, rcx
	jne	.L157
	lea	r10, 1[r9]
	cmp	r10d, 8
	jnb	.L158
	test	r10b, 4
	jne	.L197
	test	r10d, r10d
	je	.L164
	movzx	r14d, BYTE PTR [rcx]
	test	r10b, 2
	mov	BYTE PTR [r8], r14b
	je	.L164
	mov	r10d, r10d
	movzx	r14d, WORD PTR -2[rcx+r10]
	mov	WORD PTR -2[r8+r10], r14w
	jmp	.L164
	.p2align 4,,10
	.p2align 3
.L196:
	sub	rdx, rbx
	lea	rax, -48[rdx]
	movabs	rdx, 768614336404564651
	shr	rax, 4
	imul	rax, rdx
	movabs	rdx, 1152921504606846975
	and	rax, rdx
	lea	rax, 3[rax+rax*2]
	sal	rax, 4
	add	r13, rax
.L156:
	movq	xmm6, r11
	movq	xmm0, r13
	test	rdi, rdi
	punpcklqdq	xmm6, xmm0
	je	.L166
	mov	rdx, QWORD PTR 16[rbp]
	mov	rcx, rdi
	sub	rdx, rdi
	call	_ZdlPvy
.L166:
	movups	XMMWORD PTR 0[rbp], xmm6
	mov	QWORD PTR 16[rbp], r12
	movaps	xmm6, XMMWORD PTR 48[rsp]
	add	rsp, 72
	pop	rbx
	pop	rsi
	pop	rdi
	pop	rbp
	pop	r12
	pop	r13
	pop	r14
	pop	r15
	ret
	.p2align 4,,10
	.p2align 3
.L158:
	mov	r14d, r10d
	sub	r10d, 1
	mov	r15, QWORD PTR -8[rcx+r14]
	cmp	r10d, 8
	mov	QWORD PTR -8[r8+r14], r15
	jb	.L164
	and	r10d, -8
	xor	r14d, r14d
	mov	QWORD PTR 40[rsp], rax
.L162:
	mov	r15d, r14d
	add	r14d, 8
	mov	rax, QWORD PTR [rcx+r15]
	cmp	r14d, r10d
	mov	QWORD PTR [r8+r15], rax
	jb	.L162
	mov	rax, QWORD PTR 40[rsp]
	jmp	.L164
	.p2align 4,,10
	.p2align 3
.L148:
	mov	r8d, r10d
	sub	r10d, 1
	mov	r13, QWORD PTR -8[rcx+r8]
	cmp	r10d, 8
	mov	QWORD PTR -8[r9+r8], r13
	jb	.L189
	and	r10d, -8
	xor	r8d, r8d
.L152:
	mov	r13d, r8d
	add	r8d, 8
	mov	r14, QWORD PTR [rcx+r13]
	cmp	r8d, r10d
	mov	QWORD PTR [r9+r13], r14
	jb	.L152
	jmp	.L189
	.p2align 4,,10
	.p2align 3
.L191:
	add	rax, 1
	jc	.L168
	movabs	rdx, 192153584101141162
	cmp	rax, rdx
	cmova	rax, rdx
	lea	r12, [rax+rax*2]
	sal	r12, 4
	jmp	.L136
	.p2align 4,,10
	.p2align 3
.L193:
	lea	r9, 1[r8]
	cmp	r9d, 8
	jnb	.L139
	test	r9b, 4
	jne	.L198
	test	r9d, r9d
	je	.L145
	movzx	r10d, BYTE PTR 16[r14]
	test	r9b, 2
	mov	BYTE PTR 16[rax], r10b
	je	.L145
	mov	r9d, r9d
	movzx	r10d, WORD PTR -2[rdx+r9]
	mov	WORD PTR -2[rcx+r9], r10w
	jmp	.L145
	.p2align 4,,10
	.p2align 3
.L139:
	mov	r10d, r9d
	sub	r9d, 1
	mov	r15, QWORD PTR -8[rdx+r10]
	cmp	r9d, 8
	mov	QWORD PTR -8[rcx+r10], r15
	jb	.L145
	and	r9d, -8
	xor	r10d, r10d
	mov	QWORD PTR 40[rsp], rax
.L143:
	mov	r15d, r10d
	add	r10d, 8
	mov	rax, QWORD PTR [rdx+r15]
	cmp	r10d, r9d
	mov	QWORD PTR [rcx+r15], rax
	jb	.L143
	mov	rax, QWORD PTR 40[rsp]
	jmp	.L145
.L197:
	mov	r14d, DWORD PTR [rcx]
	mov	r10d, r10d
	mov	DWORD PTR [r8], r14d
	mov	r14d, DWORD PTR -4[rcx+r10]
	mov	DWORD PTR -4[r8+r10], r14d
	jmp	.L164
.L195:
	mov	r8d, DWORD PTR [rcx]
	mov	r10d, r10d
	mov	DWORD PTR [r9], r8d
	mov	r8d, DWORD PTR -4[rcx+r10]
	mov	DWORD PTR -4[r9+r10], r8d
	mov	r8, QWORD PTR 8[rdx]
	jmp	.L154
.L198:
	mov	r10d, DWORD PTR 16[r14]
	mov	r9d, r9d
	mov	DWORD PTR 16[rax], r10d
	mov	r10d, DWORD PTR -4[rdx+r9]
	mov	DWORD PTR -4[rcx+r9], r10d
	jmp	.L145
.L192:
	movabs	rax, 192153584101141162
	cmp	rdx, rax
	cmova	rdx, rax
	lea	r12, [rdx+rdx*2]
	sal	r12, 4
	jmp	.L136
.L190:
	lea	rcx, .LC2[rip]
	call	_ZSt20__throw_length_errorPKc
	nop
	.seh_endproc
	.section	.text.startup,"x"
	.align 2
	.p2align 4
	.def	_ZNSt6vectorI9FPropertySaIS0_EE12emplace_backIJS0_EEERS0_DpOT_.isra.0;	.scl	3;	.type	32;	.endef
	.seh_proc	_ZNSt6vectorI9FPropertySaIS0_EE12emplace_backIJS0_EEERS0_DpOT_.isra.0
_ZNSt6vectorI9FPropertySaIS0_EE12emplace_backIJS0_EEERS0_DpOT_.isra.0:
.LFB4051:
	push	rdi
	.seh_pushreg	rdi
	push	rsi
	.seh_pushreg	rsi
	push	rbx
	.seh_pushreg	rbx
	sub	rsp, 32
	.seh_stackalloc	32
	.seh_endprologue
	mov	rdi, QWORD PTR 8[rcx]
	cmp	rdi, QWORD PTR 16[rcx]
	mov	rbx, rcx
	mov	rsi, rdx
	je	.L200
	mov	rcx, rdi
	call	_ZNSt7__cxx1112basic_stringIcSt11char_traitsIcESaIcEEC1EOS4_
	mov	rax, QWORD PTR 32[rsi]
	mov	QWORD PTR 32[rdi], rax
	movzx	eax, BYTE PTR 40[rsi]
	mov	BYTE PTR 40[rdi], al
	add	QWORD PTR 8[rbx], 48
	add	rsp, 32
	pop	rbx
	pop	rsi
	pop	rdi
	ret
.L200:
	mov	r8, rdx
	mov	rdx, rdi
	add	rsp, 32
	pop	rbx
	pop	rsi
	pop	rdi
	jmp	_ZNSt6vectorI9FPropertySaIS0_EE17_M_realloc_insertIJS0_EEEvN9__gnu_cxx17__normal_iteratorIPS0_S2_EEDpOT_
	.seh_endproc
	.section	.text$_ZNSt10_HashtableINSt7__cxx1112basic_stringIcSt11char_traitsIcESaIcEEESt4pairIKS5_PK6FClassESaISB_ENSt8__detail10_Select1stESt8equal_toIS5_ESt4hashIS5_ENSD_18_Mod_range_hashingENSD_20_Default_ranged_hashENSD_20_Prime_rehash_policyENSD_17_Hashtable_traitsILb1ELb0ELb1EEEE9_M_rehashEyRKy,"x"
	.linkonce discard
	.align 2
	.p2align 4
	.globl	_ZNSt10_HashtableINSt7__cxx1112basic_stringIcSt11char_traitsIcESaIcEEESt4pairIKS5_PK6FClassESaISB_ENSt8__detail10_Select1stESt8equal_toIS5_ESt4hashIS5_ENSD_18_Mod_range_hashingENSD_20_Default_ranged_hashENSD_20_Prime_rehash_policyENSD_17_Hashtable_traitsILb1ELb0ELb1EEEE9_M_rehashEyRKy
	.def	_ZNSt10_HashtableINSt7__cxx1112basic_stringIcSt11char_traitsIcESaIcEEESt4pairIKS5_PK6FClassESaISB_ENSt8__detail10_Select1stESt8equal_toIS5_ESt4hashIS5_ENSD_18_Mod_range_hashingENSD_20_Default_ranged_hashENSD_20_Prime_rehash_policyENSD_17_Hashtable_traitsILb1ELb0ELb1EEEE9_M_rehashEyRKy;	.scl	2;	.type	32;	.endef
	.seh_proc	_ZNSt10_HashtableINSt7__cxx1112basic_stringIcSt11char_traitsIcESaIcEEESt4pairIKS5_PK6FClassESaISB_ENSt8__detail10_Select1stESt8equal_toIS5_ESt4hashIS5_ENSD_18_Mod_range_hashingENSD_20_Default_ranged_hashENSD_20_Prime_rehash_policyENSD_17_Hashtable_traitsILb1ELb0ELb1EEEE9_M_rehashEyRKy
_ZNSt10_HashtableINSt7__cxx1112basic_stringIcSt11char_traitsIcESaIcEEESt4pairIKS5_PK6FClassESaISB_ENSt8__detail10_Select1stESt8equal_toIS5_ESt4hashIS5_ENSD_18_Mod_range_hashingENSD_20_Default_ranged_hashENSD_20_Prime_rehash_policyENSD_17_Hashtable_traitsILb1ELb0ELb1EEEE9_M_rehashEyRKy:
.LFB3852:
	push	rbp
	.seh_pushreg	rbp
	push	rdi
	.seh_pushreg	rdi
	push	rsi
	.seh_pushreg	rsi
	push	rbx
	.seh_pushreg	rbx
	sub	rsp, 40
	.seh_stackalloc	40
	.seh_endprologue
	cmp	rdx, 1
	mov	rsi, rcx
	mov	rbx, rdx
	mov	rdi, r8
	je	.L223
	movabs	rax, 1152921504606846975
	cmp	rax, rdx
	jb	.L224
	lea	rbp, 0[0+rdx*8]
	mov	rcx, rbp
.LEHB0:
	call	_Znwy
	mov	r8, rbp
	xor	edx, edx
	mov	rcx, rax
	lea	rbp, 48[rsi]
	mov	rdi, rax
	call	memset
.L205:
	mov	r8, QWORD PTR 16[rsi]
	mov	QWORD PTR 16[rsi], 0
	test	r8, r8
	je	.L208
	lea	r11, 16[rsi]
	xor	r10d, r10d
	jmp	.L212
	.p2align 4,,10
	.p2align 3
.L209:
	mov	rdx, QWORD PTR [r9]
	test	r8, r8
	mov	QWORD PTR [rcx], rdx
	mov	rax, QWORD PTR [rax]
	mov	QWORD PTR [rax], rcx
	je	.L208
.L212:
	mov	rcx, r8
	xor	edx, edx
	mov	r8, QWORD PTR [r8]
	mov	rax, QWORD PTR 48[rcx]
	div	rbx
	lea	rax, [rdi+rdx*8]
	mov	r9, QWORD PTR [rax]
	test	r9, r9
	jne	.L209
	mov	r9, QWORD PTR 16[rsi]
	mov	QWORD PTR [rcx], r9
	mov	QWORD PTR 16[rsi], rcx
	mov	QWORD PTR [rax], r11
	cmp	QWORD PTR [rcx], 0
	je	.L210
	mov	QWORD PTR [rdi+r10*8], rcx
.L210:
	test	r8, r8
	mov	r10, rdx
	jne	.L212
.L208:
	mov	rcx, QWORD PTR [rsi]
	mov	rdx, QWORD PTR 8[rsi]
	cmp	rcx, rbp
	je	.L213
	sal	rdx, 3
	call	_ZdlPvy
.L213:
	mov	QWORD PTR 8[rsi], rbx
	mov	QWORD PTR [rsi], rdi
	add	rsp, 40
	pop	rbx
	pop	rsi
	pop	rdi
	pop	rbp
	ret
	.p2align 4,,10
	.p2align 3
.L223:
	lea	rbp, 48[rcx]
	mov	QWORD PTR 48[rcx], 0
	mov	rdi, rbp
	jmp	.L205
	.p2align 4,,10
	.p2align 3
.L224:
	movabs	rax, 2305843009213693951
	cmp	rax, rdx
	jnb	.L207
	call	_ZSt28__throw_bad_array_new_lengthv
.L207:
	call	_ZSt17__throw_bad_allocv
.LEHE0:
.L216:
	mov	rcx, rax
	call	__cxa_begin_catch
	mov	rax, QWORD PTR [rdi]
	mov	QWORD PTR 40[rsi], rax
.LEHB1:
	call	__cxa_rethrow
.LEHE1:
.L217:
	mov	rbx, rax
	call	__cxa_end_catch
	mov	rcx, rbx
.LEHB2:
	call	_Unwind_Resume
	nop
.LEHE2:
	.seh_handler	__gxx_personality_seh0, @unwind, @except
	.seh_handlerdata
	.align 4
.LLSDA3852:
	.byte	0xff
	.byte	0x9b
	.uleb128 .LLSDATT3852-.LLSDATTD3852
.LLSDATTD3852:
	.byte	0x1
	.uleb128 .LLSDACSE3852-.LLSDACSB3852
.LLSDACSB3852:
	.uleb128 .LEHB0-.LFB3852
	.uleb128 .LEHE0-.LEHB0
	.uleb128 .L216-.LFB3852
	.uleb128 0x1
	.uleb128 .LEHB1-.LFB3852
	.uleb128 .LEHE1-.LEHB1
	.uleb128 .L217-.LFB3852
	.uleb128 0
	.uleb128 .LEHB2-.LFB3852
	.uleb128 .LEHE2-.LEHB2
	.uleb128 0
	.uleb128 0
.LLSDACSE3852:
	.byte	0x1
	.byte	0
	.align 4
	.long	0

.LLSDATT3852:
	.section	.text$_ZNSt10_HashtableINSt7__cxx1112basic_stringIcSt11char_traitsIcESaIcEEESt4pairIKS5_PK6FClassESaISB_ENSt8__detail10_Select1stESt8equal_toIS5_ESt4hashIS5_ENSD_18_Mod_range_hashingENSD_20_Default_ranged_hashENSD_20_Prime_rehash_policyENSD_17_Hashtable_traitsILb1ELb0ELb1EEEE9_M_rehashEyRKy,"x"
	.linkonce discard
	.seh_endproc
	.section	.text$_ZNSt8__detail9_Map_baseINSt7__cxx1112basic_stringIcSt11char_traitsIcESaIcEEESt4pairIKS6_PK6FClassESaISC_ENS_10_Select1stESt8equal_toIS6_ESt4hashIS6_ENS_18_Mod_range_hashingENS_20_Default_ranged_hashENS_20_Prime_rehash_policyENS_17_Hashtable_traitsILb1ELb0ELb1EEELb1EEixEOS6_,"x"
	.linkonce discard
	.align 2
	.p2align 4
	.globl	_ZNSt8__detail9_Map_baseINSt7__cxx1112basic_stringIcSt11char_traitsIcESaIcEEESt4pairIKS6_PK6FClassESaISC_ENS_10_Select1stESt8equal_toIS6_ESt4hashIS6_ENS_18_Mod_range_hashingENS_20_Default_ranged_hashENS_20_Prime_rehash_policyENS_17_Hashtable_traitsILb1ELb0ELb1EEELb1EEixEOS6_
	.def	_ZNSt8__detail9_Map_baseINSt7__cxx1112basic_stringIcSt11char_traitsIcESaIcEEESt4pairIKS6_PK6FClassESaISC_ENS_10_Select1stESt8equal_toIS6_ESt4hashIS6_ENS_18_Mod_range_hashingENS_20_Default_ranged_hashENS_20_Prime_rehash_policyENS_17_Hashtable_traitsILb1ELb0ELb1EEELb1EEixEOS6_;	.scl	2;	.type	32;	.endef
	.seh_proc	_ZNSt8__detail9_Map_baseINSt7__cxx1112basic_stringIcSt11char_traitsIcESaIcEEESt4pairIKS6_PK6FClassESaISC_ENS_10_Select1stESt8equal_toIS6_ESt4hashIS6_ENS_18_Mod_range_hashingENS_20_Default_ranged_hashENS_20_Prime_rehash_policyENS_17_Hashtable_traitsILb1ELb0ELb1EEELb1EEixEOS6_
_ZNSt8__detail9_Map_baseINSt7__cxx1112basic_stringIcSt11char_traitsIcESaIcEEESt4pairIKS6_PK6FClassESaISC_ENS_10_Select1stESt8equal_toIS6_ESt4hashIS6_ENS_18_Mod_range_hashingENS_20_Default_ranged_hashENS_20_Prime_rehash_policyENS_17_Hashtable_traitsILb1ELb0ELb1EEELb1EEixEOS6_:
.LFB3569:
	push	r12
	.seh_pushreg	r12
	push	rbp
	.seh_pushreg	rbp
	push	rdi
	.seh_pushreg	rdi
	push	rsi
	.seh_pushreg	rsi
	push	rbx
	.seh_pushreg	rbx
	sub	rsp, 80
	.seh_stackalloc	80
	.seh_endprologue
	mov	r8d, 3339675911
	mov	rsi, rdx
	mov	rdi, rcx
	mov	rdx, QWORD PTR 8[rdx]
	mov	rcx, QWORD PTR [rsi]
	call	_ZSt11_Hash_bytesPKvyy
	mov	r10, QWORD PTR 8[rdi]
	xor	edx, edx
	mov	r9, rsi
	mov	rcx, QWORD PTR [rdi]
	mov	rbp, rax
	mov	QWORD PTR 32[rsp], rbp
	div	r10
	mov	r8, rdx
	mov	r12, rdx
	mov	rdx, r10
	call	_ZNKSt10_HashtableINSt7__cxx1112basic_stringIcSt11char_traitsIcESaIcEEESt4pairIKS5_PK6FClassESaISB_ENSt8__detail10_Select1stESt8equal_toIS5_ESt4hashIS5_ENSD_18_Mod_range_hashingENSD_20_Default_ranged_hashENSD_20_Prime_rehash_policyENSD_17_Hashtable_traitsILb1ELb0ELb1EEEE19_M_find_before_nodeEyRS7_y.isra.0
	test	rax, rax
	je	.L226
	mov	rbx, QWORD PTR [rax]
	test	rbx, rbx
	je	.L227
	lea	rax, 40[rbx]
	add	rsp, 80
	pop	rbx
	pop	rsi
	pop	rdi
	pop	rbp
	pop	r12
	ret
	.p2align 4,,10
	.p2align 3
.L226:
	mov	ecx, 56
.LEHB3:
	call	_Znwy
.LEHE3:
	mov	rdx, QWORD PTR [rsi]
	lea	rcx, 24[rax]
	mov	rbx, rax
	mov	QWORD PTR [rax], 0
	mov	QWORD PTR 8[rax], rcx
	lea	rax, 16[rsi]
	cmp	rax, rdx
	je	.L243
.L229:
	mov	QWORD PTR 8[rbx], rdx
	mov	rdx, QWORD PTR 16[rsi]
	mov	QWORD PTR 24[rbx], rdx
	mov	rdx, QWORD PTR 8[rsi]
.L231:
	mov	QWORD PTR 8[rsi], 0
	lea	rcx, 48[rsp]
	mov	BYTE PTR 16[rsi], 0
	mov	QWORD PTR 16[rbx], rdx
	lea	rdx, 32[rdi]
	mov	QWORD PTR [rsi], rax
	mov	rax, QWORD PTR 40[rdi]
	mov	QWORD PTR 40[rbx], 0
	mov	QWORD PTR 32[rsp], 1
	mov	r9, QWORD PTR 24[rdi]
	mov	r8, QWORD PTR 8[rdi]
	mov	QWORD PTR 72[rsp], rax
.LEHB4:
	call	_ZNKSt8__detail20_Prime_rehash_policy14_M_need_rehashEyyy
.LEHE4:
	cmp	BYTE PTR 48[rsp], 0
	mov	rdx, QWORD PTR 56[rsp]
	jne	.L256
.L238:
	mov	r8, QWORD PTR [rdi]
	mov	QWORD PTR 48[rbx], rbp
	lea	rcx, [r8+r12*8]
	mov	rax, QWORD PTR [rcx]
	test	rax, rax
	je	.L239
	mov	rax, QWORD PTR [rax]
	mov	QWORD PTR [rbx], rax
	mov	rax, QWORD PTR [rcx]
	mov	QWORD PTR [rax], rbx
.L240:
	add	QWORD PTR 24[rdi], 1
	lea	rax, 40[rbx]
	add	rsp, 80
	pop	rbx
	pop	rsi
	pop	rdi
	pop	rbp
	pop	r12
	ret
	.p2align 4,,10
	.p2align 3
.L227:
	mov	ecx, 56
.LEHB5:
	call	_Znwy
.LEHE5:
	mov	rdx, QWORD PTR [rsi]
	lea	rcx, 24[rax]
	mov	rbx, rax
	mov	QWORD PTR [rax], 0
	mov	QWORD PTR 8[rax], rcx
	lea	rax, 16[rsi]
	cmp	rdx, rax
	jne	.L229
.L243:
	mov	rdx, QWORD PTR 8[rsi]
	lea	r8, 1[rdx]
	cmp	r8d, 8
	jnb	.L232
	test	r8b, 4
	jne	.L257
	test	r8d, r8d
	je	.L231
	movzx	edx, BYTE PTR [rax]
	test	r8b, 2
	mov	BYTE PTR [rcx], dl
	jne	.L252
.L254:
	mov	rdx, QWORD PTR 8[rsi]
	jmp	.L231
	.p2align 4,,10
	.p2align 3
.L256:
	lea	r8, 72[rsp]
	mov	rcx, rdi
.LEHB6:
	call	_ZNSt10_HashtableINSt7__cxx1112basic_stringIcSt11char_traitsIcESaIcEEESt4pairIKS5_PK6FClassESaISB_ENSt8__detail10_Select1stESt8equal_toIS5_ESt4hashIS5_ENSD_18_Mod_range_hashingENSD_20_Default_ranged_hashENSD_20_Prime_rehash_policyENSD_17_Hashtable_traitsILb1ELb0ELb1EEEE9_M_rehashEyRKy
.LEHE6:
	mov	rax, rbp
	xor	edx, edx
	div	QWORD PTR 8[rdi]
	mov	r12, rdx
	jmp	.L238
	.p2align 4,,10
	.p2align 3
.L239:
	mov	rax, QWORD PTR 16[rdi]
	mov	QWORD PTR 16[rdi], rbx
	test	rax, rax
	mov	QWORD PTR [rbx], rax
	je	.L241
	mov	rax, QWORD PTR 48[rax]
	xor	edx, edx
	div	QWORD PTR 8[rdi]
	mov	QWORD PTR [r8+rdx*8], rbx
.L241:
	lea	rax, 16[rdi]
	mov	QWORD PTR [rcx], rax
	jmp	.L240
	.p2align 4,,10
	.p2align 3
.L232:
	mov	edx, r8d
	sub	r8d, 1
	mov	r9, QWORD PTR -8[rax+rdx]
	cmp	r8d, 8
	mov	QWORD PTR -8[rcx+rdx], r9
	jb	.L254
	and	r8d, -8
	xor	edx, edx
.L236:
	mov	r9d, edx
	add	edx, 8
	mov	r10, QWORD PTR [rax+r9]
	cmp	edx, r8d
	mov	QWORD PTR [rcx+r9], r10
	jb	.L236
	jmp	.L254
.L257:
	mov	edx, DWORD PTR [rax]
	mov	r8d, r8d
	mov	DWORD PTR [rcx], edx
	mov	edx, DWORD PTR -4[rax+r8]
	mov	DWORD PTR -4[rcx+r8], edx
	mov	rdx, QWORD PTR 8[rsi]
	jmp	.L231
.L252:
	mov	r8d, r8d
	movzx	edx, WORD PTR -2[rax+r8]
	mov	WORD PTR -2[rcx+r8], dx
	mov	rdx, QWORD PTR 8[rsi]
	jmp	.L231
.L244:
	lea	rcx, 8[rbx]
	mov	rsi, rax
	call	_ZNSt7__cxx1112basic_stringIcSt11char_traitsIcESaIcEE10_M_disposeEv
	mov	rcx, rbx
	mov	edx, 56
	call	_ZdlPvy
	mov	rcx, rsi
.LEHB7:
	call	_Unwind_Resume
	nop
.LEHE7:
	.seh_handler	__gxx_personality_seh0, @unwind, @except
	.seh_handlerdata
.LLSDA3569:
	.byte	0xff
	.byte	0xff
	.byte	0x1
	.uleb128 .LLSDACSE3569-.LLSDACSB3569
.LLSDACSB3569:
	.uleb128 .LEHB3-.LFB3569
	.uleb128 .LEHE3-.LEHB3
	.uleb128 0
	.uleb128 0
	.uleb128 .LEHB4-.LFB3569
	.uleb128 .LEHE4-.LEHB4
	.uleb128 .L244-.LFB3569
	.uleb128 0
	.uleb128 .LEHB5-.LFB3569
	.uleb128 .LEHE5-.LEHB5
	.uleb128 0
	.uleb128 0
	.uleb128 .LEHB6-.LFB3569
	.uleb128 .LEHE6-.LEHB6
	.uleb128 .L244-.LFB3569
	.uleb128 0
	.uleb128 .LEHB7-.LFB3569
	.uleb128 .LEHE7-.LEHB7
	.uleb128 0
	.uleb128 0
.LLSDACSE3569:
	.section	.text$_ZNSt8__detail9_Map_baseINSt7__cxx1112basic_stringIcSt11char_traitsIcESaIcEEESt4pairIKS6_PK6FClassESaISC_ENS_10_Select1stESt8equal_toIS6_ESt4hashIS6_ENS_18_Mod_range_hashingENS_20_Default_ranged_hashENS_20_Prime_rehash_policyENS_17_Hashtable_traitsILb1ELb0ELb1EEELb1EEixEOS6_,"x"
	.linkonce discard
	.seh_endproc
	.section	.text$_ZN6FActorD1Ev,"x"
	.linkonce discard
	.align 2
	.p2align 4
	.globl	_ZN6FActorD1Ev
	.def	_ZN6FActorD1Ev;	.scl	2;	.type	32;	.endef
	.seh_proc	_ZN6FActorD1Ev
_ZN6FActorD1Ev:
.LFB3862:
	push	rsi
	.seh_pushreg	rsi
	push	rbx
	.seh_pushreg	rbx
	sub	rsp, 40
	.seh_stackalloc	40
	.seh_endprologue
	mov	rsi, QWORD PTR 56[rcx]
	test	rsi, rsi
	mov	rbx, rcx
	je	.L260
	mov	rcx, QWORD PTR 8[rsi]
	lea	rax, 8[rsi]
	movabs	rdx, 4294967297
	cmp	rcx, rdx
	je	.L267
	lock sub	DWORD PTR [rax], 1
	je	.L268
.L260:
	mov	rcx, QWORD PTR 8[rbx]
	lea	rax, 24[rbx]
	cmp	rcx, rax
	je	.L258
.L269:
	mov	rdx, QWORD PTR 24[rbx]
	add	rdx, 1
	add	rsp, 40
	pop	rbx
	pop	rsi
	jmp	_ZdlPvy
	.p2align 4,,10
	.p2align 3
.L267:
	mov	rax, QWORD PTR [rsi]
	mov	rcx, rsi
	mov	QWORD PTR 8[rsi], 0
	call	[QWORD PTR 16[rax]]
	mov	rax, QWORD PTR [rsi]
	mov	rcx, rsi
	call	[QWORD PTR 24[rax]]
	mov	rcx, QWORD PTR 8[rbx]
	lea	rax, 24[rbx]
	cmp	rcx, rax
	jne	.L269
.L258:
	add	rsp, 40
	pop	rbx
	pop	rsi
	ret
	.p2align 4,,10
	.p2align 3
.L268:
	mov	rcx, rsi
	call	_ZNSt16_Sp_counted_baseILN9__gnu_cxx12_Lock_policyE2EE24_M_release_last_use_coldEv
	jmp	.L260
	.seh_endproc
	.def	__main;	.scl	2;	.type	32;	.endef
	.section .rdata,"dr"
.LC3:
	.ascii "Hero\0"
	.section	.text.startup,"x"
	.p2align 4
	.globl	main
	.def	main;	.scl	2;	.type	32;	.endef
	.seh_proc	main
main:
.LFB3084:
	push	r12
	.seh_pushreg	r12
	push	rbp
	.seh_pushreg	rbp
	push	rdi
	.seh_pushreg	rdi
	push	rsi
	.seh_pushreg	rsi
	push	rbx
	.seh_pushreg	rbx
	sub	rsp, 96
	.seh_stackalloc	96
	movaps	XMMWORD PTR 80[rsp], xmm6
	.seh_savexmm	xmm6, 80
	.seh_endprologue
	lea	rdi, _ZN6FActor11StaticClassE[rip]
	pxor	xmm6, xmm6
	call	__main
	mov	ecx, 64
.LEHB8:
	call	_Znwy
	lea	rdx, .LC3[rip]
	mov	QWORD PTR [rax], rdi
	lea	rcx, 8[rax]
	mov	rbx, rax
	lea	rax, 24[rax]
	mov	QWORD PTR 16[rbx], 0
	mov	QWORD PTR 8[rbx], rax
	mov	BYTE PTR 24[rbx], 0
	movups	XMMWORD PTR 48[rbx], xmm6
	mov	DWORD PTR 40[rbx], 100
	call	_ZNSt7__cxx1112basic_stringIcSt11char_traitsIcESaIcEE6assignEPKc.isra.0
	mov	ecx, 64
	mov	DWORD PTR 40[rbx], 80
	call	_Znwy
.LEHE8:
	mov	ecx, 24
	mov	rsi, rax
	mov	QWORD PTR [rax], rdi
	lea	rax, 24[rax]
	mov	QWORD PTR 16[rsi], 0
	mov	QWORD PTR 8[rsi], rax
	mov	BYTE PTR 24[rsi], 0
	movups	XMMWORD PTR 48[rsi], xmm6
	mov	DWORD PTR 40[rsi], 100
.LEHB9:
	call	_Znwy
.LEHE9:
	mov	rcx, QWORD PTR 56[rbx]
	lea	rdi, _ZTVSt15_Sp_counted_ptrIP6FActorLN9__gnu_cxx12_Lock_policyE2EE[rip+16]
	movq	xmm0, rsi
	movq	xmm1, rax
	mov	rdx, QWORD PTR .LC4[rip]
	punpcklqdq	xmm0, xmm1
	mov	QWORD PTR [rax], rdi
	mov	QWORD PTR 16[rax], rsi
	movups	XMMWORD PTR 48[rbx], xmm0
	test	rcx, rcx
	mov	QWORD PTR 8[rax], rdx
	je	.L272
	call	_ZNSt16_Sp_counted_baseILN9__gnu_cxx12_Lock_policyE2EE10_M_releaseEv
.L272:
	lea	rdi, 48[rsp]
	mov	rbp, QWORD PTR [rbx]
	lea	rdx, .LC1[rip]
	mov	rcx, rdi
.LEHB10:
	call	_ZNSt7__cxx1112basic_stringIcSt11char_traitsIcESaIcEEC1IS3_EEPKcRKS3_.isra.0
.LEHE10:
	movzx	eax, BYTE PTR _ZGVZN6FClass8RegistryB5cxx11EvE1m[rip]
	test	al, al
	je	.L305
.L276:
	lea	rcx, _ZZN6FClass8RegistryB5cxx11EvE1m[rip]
	mov	rdx, rdi
	call	_ZNSt10_HashtableINSt7__cxx1112basic_stringIcSt11char_traitsIcESaIcEEESt4pairIKS5_PK6FClassESaISB_ENSt8__detail10_Select1stESt8equal_toIS5_ESt4hashIS5_ENSD_18_Mod_range_hashingENSD_20_Default_ranged_hashENSD_20_Prime_rehash_policyENSD_17_Hashtable_traitsILb1ELb0ELb1EEEE4findERS7_
	mov	rsi, rax
	movzx	eax, BYTE PTR _ZGVZN6FClass8RegistryB5cxx11EvE1m[rip]
	test	al, al
	je	.L306
.L279:
	test	rsi, rsi
	je	.L281
	mov	rsi, QWORD PTR 40[rsi]
.L281:
	mov	rcx, rsi
.LEHB11:
	call	_Z9NewObjectPK6FClass
.LEHE11:
	mov	rcx, rdi
	mov	rsi, rax
	call	_ZNSt7__cxx1112basic_stringIcSt11char_traitsIcESaIcEE10_M_disposeEv
	lea	r8, 40[rsp]
	xor	edx, edx
	mov	rcx, rdi
	pxor	xmm0, xmm0
	mov	QWORD PTR 40[rsp], rbx
	movaps	XMMWORD PTR 48[rsp], xmm0
	mov	QWORD PTR 64[rsp], 0
.LEHB12:
	call	_ZNSt6vectorIP7FObjectSaIS1_EE17_M_realloc_insertIJRKS1_EEEvN9__gnu_cxx17__normal_iteratorIPS1_S3_EEDpOT_
.LEHE12:
	mov	rcx, QWORD PTR 48[rsp]
	xor	ebx, ebx
	mov	rdx, QWORD PTR 56[rsp]
	sub	rdx, rcx
	sar	rdx, 3
	test	rsi, rsi
	sete	bl
	cmp	rbp, 1
	adc	ebx, edx
	test	rcx, rcx
	je	.L270
	mov	rdx, QWORD PTR 64[rsp]
	sub	rdx, rcx
	call	_ZdlPvy
	nop
.L270:
	movaps	xmm6, XMMWORD PTR 80[rsp]
	mov	eax, ebx
	add	rsp, 96
	pop	rbx
	pop	rsi
	pop	rdi
	pop	rbp
	pop	r12
	ret
.L305:
	lea	rsi, _ZGVZN6FClass8RegistryB5cxx11EvE1m[rip]
	mov	rcx, rsi
	call	__cxa_guard_acquire
	test	eax, eax
	je	.L276
	lea	rax, _ZZN6FClass8RegistryB5cxx11EvE1m[rip+48]
	xor	ecx, ecx
	xor	r8d, r8d
	mov	QWORD PTR _ZZN6FClass8RegistryB5cxx11EvE1m[rip+8], 1
	mov	QWORD PTR _ZZN6FClass8RegistryB5cxx11EvE1m[rip+16], rcx
	mov	QWORD PTR _ZZN6FClass8RegistryB5cxx11EvE1m[rip+24], rcx
	lea	rcx, __tcf_0[rip]
	mov	QWORD PTR _ZZN6FClass8RegistryB5cxx11EvE1m[rip+40], r8
	mov	QWORD PTR _ZZN6FClass8RegistryB5cxx11EvE1m[rip+48], r8
	mov	QWORD PTR _ZZN6FClass8RegistryB5cxx11EvE1m[rip], rax
	mov	DWORD PTR _ZZN6FClass8RegistryB5cxx11EvE1m[rip+32], 0x3f800000
	call	atexit
	mov	rcx, rsi
	call	__cxa_guard_release
	jmp	.L276
.L306:
	lea	r12, _ZGVZN6FClass8RegistryB5cxx11EvE1m[rip]
	mov	rcx, r12
	call	__cxa_guard_acquire
	test	eax, eax
	je	.L279
	lea	rax, _ZZN6FClass8RegistryB5cxx11EvE1m[rip+48]
	xor	edx, edx
	mov	QWORD PTR _ZZN6FClass8RegistryB5cxx11EvE1m[rip+8], 1
	mov	QWORD PTR _ZZN6FClass8RegistryB5cxx11EvE1m[rip], rax
	lea	rcx, __tcf_0[rip]
	xor	eax, eax
	mov	QWORD PTR _ZZN6FClass8RegistryB5cxx11EvE1m[rip+40], rdx
	mov	QWORD PTR _ZZN6FClass8RegistryB5cxx11EvE1m[rip+48], rdx
	mov	QWORD PTR _ZZN6FClass8RegistryB5cxx11EvE1m[rip+16], rax
	mov	QWORD PTR _ZZN6FClass8RegistryB5cxx11EvE1m[rip+24], rax
	mov	DWORD PTR _ZZN6FClass8RegistryB5cxx11EvE1m[rip+32], 0x3f800000
	call	atexit
	mov	rcx, r12
	call	__cxa_guard_release
	jmp	.L279
.L287:
	mov	rcx, QWORD PTR 48[rsp]
	mov	rbx, rax
	mov	rdx, QWORD PTR 64[rsp]
	sub	rdx, rcx
	test	rcx, rcx
	je	.L285
	call	_ZdlPvy
.L285:
	mov	rcx, rbx
.LEHB13:
	call	_Unwind_Resume
.L286:
	mov	rbx, rax
	mov	rcx, rdi
	call	_ZNSt7__cxx1112basic_stringIcSt11char_traitsIcESaIcEE10_M_disposeEv
	mov	rcx, rbx
	call	_Unwind_Resume
.LEHE13:
.L289:
	mov	rcx, rax
	call	__cxa_begin_catch
	mov	rcx, rsi
	call	_ZN6FActorD1Ev
	mov	edx, 64
	mov	rcx, rsi
	call	_ZdlPvy
.LEHB14:
	call	__cxa_rethrow
.LEHE14:
.L288:
	mov	rbx, rax
	call	__cxa_end_catch
	mov	rcx, rbx
.LEHB15:
	call	_Unwind_Resume
	nop
.LEHE15:
	.seh_handler	__gxx_personality_seh0, @unwind, @except
	.seh_handlerdata
	.align 4
.LLSDA3084:
	.byte	0xff
	.byte	0x9b
	.uleb128 .LLSDATT3084-.LLSDATTD3084
.LLSDATTD3084:
	.byte	0x1
	.uleb128 .LLSDACSE3084-.LLSDACSB3084
.LLSDACSB3084:
	.uleb128 .LEHB8-.LFB3084
	.uleb128 .LEHE8-.LEHB8
	.uleb128 0
	.uleb128 0
	.uleb128 .LEHB9-.LFB3084
	.uleb128 .LEHE9-.LEHB9
	.uleb128 .L289-.LFB3084
	.uleb128 0x1
	.uleb128 .LEHB10-.LFB3084
	.uleb128 .LEHE10-.LEHB10
	.uleb128 0
	.uleb128 0
	.uleb128 .LEHB11-.LFB3084
	.uleb128 .LEHE11-.LEHB11
	.uleb128 .L286-.LFB3084
	.uleb128 0
	.uleb128 .LEHB12-.LFB3084
	.uleb128 .LEHE12-.LEHB12
	.uleb128 .L287-.LFB3084
	.uleb128 0
	.uleb128 .LEHB13-.LFB3084
	.uleb128 .LEHE13-.LEHB13
	.uleb128 0
	.uleb128 0
	.uleb128 .LEHB14-.LFB3084
	.uleb128 .LEHE14-.LEHB14
	.uleb128 .L288-.LFB3084
	.uleb128 0
	.uleb128 .LEHB15-.LFB3084
	.uleb128 .LEHE15-.LEHB15
	.uleb128 0
	.uleb128 0
.LLSDACSE3084:
	.byte	0x1
	.byte	0
	.align 4
	.long	0

.LLSDATT3084:
	.section	.text.startup,"x"
	.seh_endproc
	.section .rdata,"dr"
.LC7:
	.ascii "Health\0"
.LC8:
	.ascii "Target\0"
	.section	.text.startup,"x"
	.p2align 4
	.def	_GLOBAL__sub_I__ZN6FActor11StaticClassE;	.scl	3;	.type	32;	.endef
	.seh_proc	_GLOBAL__sub_I__ZN6FActor11StaticClassE
_GLOBAL__sub_I__ZN6FActor11StaticClassE:
.LFB4017:
	push	r12
	.seh_pushreg	r12
	push	rbp
	.seh_pushreg	rbp
	push	rdi
	.seh_pushreg	rdi
	push	rsi
	.seh_pushreg	rsi
	push	rbx
	.seh_pushreg	rbx
	sub	rsp, 80
	.seh_stackalloc	80
	.seh_endprologue
	lea	rsi, _ZN6FActor11StaticClassE[rip]
	pxor	xmm0, xmm0
	mov	QWORD PTR _ZN6FActor11StaticClassE[rip+8], 0
	lea	rax, 16[rsi]
	mov	rcx, rsi
	mov	BYTE PTR _ZN6FActor11StaticClassE[rip+16], 0
	lea	rbp, .LC1[rip]
	mov	QWORD PTR _ZN6FActor11StaticClassE[rip], rax
	mov	rdx, rbp
	movups	XMMWORD PTR _ZN6FActor11StaticClassE[rip+40], xmm0
	mov	QWORD PTR _ZN6FActor11StaticClassE[rip+56], 0
.LEHB16:
	call	_ZNSt7__cxx1112basic_stringIcSt11char_traitsIcESaIcEE6assignEPKc.isra.0
	lea	rdi, 32[rsp]
	mov	ecx, 6
	xor	eax, eax
	mov	QWORD PTR _ZN6FActor11StaticClassE[rip+32], 0
	rep stosq
	lea	rbx, 32[rsp]
	mov	QWORD PTR 64[rsp], 40
	lea	rdx, .LC7[rip]
	mov	rcx, rbx
	call	_ZNSt7__cxx1112basic_stringIcSt11char_traitsIcESaIcEEC1IS3_EEPKcRKS3_.isra.0
.LEHE16:
	lea	r12, 40[rsi]
	mov	rdx, rbx
	mov	rcx, r12
.LEHB17:
	call	_ZNSt6vectorI9FPropertySaIS0_EE12emplace_backIJS0_EEERS0_DpOT_.isra.0
.LEHE17:
	mov	rcx, rbx
	mov	rdi, rbx
	call	_ZNSt7__cxx1112basic_stringIcSt11char_traitsIcESaIcEE10_M_disposeEv
	mov	ecx, 6
	xor	eax, eax
	rep stosq
	lea	rdx, .LC8[rip]
	mov	rcx, rbx
	mov	BYTE PTR 72[rsp], 1
	mov	QWORD PTR 64[rsp], 48
.LEHB18:
	call	_ZNSt7__cxx1112basic_stringIcSt11char_traitsIcESaIcEEC1IS3_EEPKcRKS3_.isra.0
.LEHE18:
	mov	rdx, rbx
	mov	rcx, r12
.LEHB19:
	call	_ZNSt6vectorI9FPropertySaIS0_EE12emplace_backIJS0_EEERS0_DpOT_.isra.0
.LEHE19:
	mov	rcx, rbx
	call	_ZNSt7__cxx1112basic_stringIcSt11char_traitsIcESaIcEE10_M_disposeEv
	movzx	eax, BYTE PTR _ZGVZN6FClass8RegistryB5cxx11EvE1m[rip]
	test	al, al
	je	.L330
.L309:
	mov	rdx, rbp
	mov	rcx, rbx
.LEHB20:
	call	_ZNSt7__cxx1112basic_stringIcSt11char_traitsIcESaIcEEC1IS3_EEPKcRKS3_.isra.0
.LEHE20:
	lea	rcx, _ZZN6FClass8RegistryB5cxx11EvE1m[rip]
	mov	rdx, rbx
.LEHB21:
	call	_ZNSt8__detail9_Map_baseINSt7__cxx1112basic_stringIcSt11char_traitsIcESaIcEEESt4pairIKS6_PK6FClassESaISC_ENS_10_Select1stESt8equal_toIS6_ESt4hashIS6_ENS_18_Mod_range_hashingENS_20_Default_ranged_hashENS_20_Prime_rehash_policyENS_17_Hashtable_traitsILb1ELb0ELb1EEELb1EEixEOS6_
.LEHE21:
	mov	rcx, rbx
	mov	QWORD PTR [rax], rsi
	call	_ZNSt7__cxx1112basic_stringIcSt11char_traitsIcESaIcEE10_M_disposeEv
	lea	rcx, __tcf_1[rip]
	add	rsp, 80
	pop	rbx
	pop	rsi
	pop	rdi
	pop	rbp
	pop	r12
	jmp	atexit
.L330:
	lea	rdi, _ZGVZN6FClass8RegistryB5cxx11EvE1m[rip]
	mov	rcx, rdi
	call	__cxa_guard_acquire
	test	eax, eax
	je	.L309
	lea	rax, _ZZN6FClass8RegistryB5cxx11EvE1m[rip+48]
	xor	edx, edx
	mov	QWORD PTR _ZZN6FClass8RegistryB5cxx11EvE1m[rip+8], 1
	mov	QWORD PTR _ZZN6FClass8RegistryB5cxx11EvE1m[rip], rax
	lea	rcx, __tcf_0[rip]
	xor	eax, eax
	mov	QWORD PTR _ZZN6FClass8RegistryB5cxx11EvE1m[rip+40], rdx
	mov	QWORD PTR _ZZN6FClass8RegistryB5cxx11EvE1m[rip+48], rdx
	mov	QWORD PTR _ZZN6FClass8RegistryB5cxx11EvE1m[rip+16], rax
	mov	QWORD PTR _ZZN6FClass8RegistryB5cxx11EvE1m[rip+24], rax
	mov	DWORD PTR _ZZN6FClass8RegistryB5cxx11EvE1m[rip+32], 0x3f800000
	call	atexit
	mov	rcx, rdi
	call	__cxa_guard_release
	jmp	.L309
.L322:
.L329:
	mov	rdi, rax
	mov	rcx, rbx
	call	_ZNSt7__cxx1112basic_stringIcSt11char_traitsIcESaIcEE10_M_disposeEv
	mov	rbx, rdi
.L312:
	mov	rbp, QWORD PTR _ZN6FActor11StaticClassE[rip+48]
	mov	rdi, QWORD PTR _ZN6FActor11StaticClassE[rip+40]
.L315:
	cmp	rbp, rdi
	je	.L331
	mov	rcx, QWORD PTR [rdi]
	lea	rax, 16[rdi]
	cmp	rcx, rax
	je	.L316
	mov	rax, QWORD PTR 16[rdi]
	lea	rdx, 1[rax]
	call	_ZdlPvy
.L316:
	add	rdi, 48
	jmp	.L315
.L321:
	jmp	.L329
.L320:
	jmp	.L329
.L319:
	mov	rbx, rax
	jmp	.L312
.L331:
	mov	rcx, QWORD PTR _ZN6FActor11StaticClassE[rip+40]
	mov	rdx, QWORD PTR _ZN6FActor11StaticClassE[rip+56]
	sub	rdx, rcx
	test	rcx, rcx
	je	.L318
	call	_ZdlPvy
.L318:
	mov	rcx, rsi
	call	_ZNSt7__cxx1112basic_stringIcSt11char_traitsIcESaIcEE10_M_disposeEv
	mov	rcx, rbx
.LEHB22:
	call	_Unwind_Resume
	nop
.LEHE22:
	.seh_handler	__gxx_personality_seh0, @unwind, @except
	.seh_handlerdata
.LLSDA4017:
	.byte	0xff
	.byte	0xff
	.byte	0x1
	.uleb128 .LLSDACSE4017-.LLSDACSB4017
.LLSDACSB4017:
	.uleb128 .LEHB16-.LFB4017
	.uleb128 .LEHE16-.LEHB16
	.uleb128 .L319-.LFB4017
	.uleb128 0
	.uleb128 .LEHB17-.LFB4017
	.uleb128 .LEHE17-.LEHB17
	.uleb128 .L320-.LFB4017
	.uleb128 0
	.uleb128 .LEHB18-.LFB4017
	.uleb128 .LEHE18-.LEHB18
	.uleb128 .L319-.LFB4017
	.uleb128 0
	.uleb128 .LEHB19-.LFB4017
	.uleb128 .LEHE19-.LEHB19
	.uleb128 .L321-.LFB4017
	.uleb128 0
	.uleb128 .LEHB20-.LFB4017
	.uleb128 .LEHE20-.LEHB20
	.uleb128 .L319-.LFB4017
	.uleb128 0
	.uleb128 .LEHB21-.LFB4017
	.uleb128 .LEHE21-.LEHB21
	.uleb128 .L322-.LFB4017
	.uleb128 0
	.uleb128 .LEHB22-.LFB4017
	.uleb128 .LEHE22-.LEHB22
	.uleb128 0
	.uleb128 0
.LLSDACSE4017:
	.section	.text.startup,"x"
	.seh_endproc
	.section	.ctors,"w"
	.align 8
	.quad	_GLOBAL__sub_I__ZN6FActor11StaticClassE
	.globl	_ZTSSt11_Mutex_baseILN9__gnu_cxx12_Lock_policyE2EE
	.section	.rdata$_ZTSSt11_Mutex_baseILN9__gnu_cxx12_Lock_policyE2EE,"dr"
	.linkonce same_size
	.align 32
_ZTSSt11_Mutex_baseILN9__gnu_cxx12_Lock_policyE2EE:
	.ascii "St11_Mutex_baseILN9__gnu_cxx12_Lock_policyE2EE\0"
	.globl	_ZTISt11_Mutex_baseILN9__gnu_cxx12_Lock_policyE2EE
	.section	.rdata$_ZTISt11_Mutex_baseILN9__gnu_cxx12_Lock_policyE2EE,"dr"
	.linkonce same_size
	.align 8
_ZTISt11_Mutex_baseILN9__gnu_cxx12_Lock_policyE2EE:
	.quad	_ZTVN10__cxxabiv117__class_type_infoE+16
	.quad	_ZTSSt11_Mutex_baseILN9__gnu_cxx12_Lock_policyE2EE
	.globl	_ZTSSt16_Sp_counted_baseILN9__gnu_cxx12_Lock_policyE2EE
	.section	.rdata$_ZTSSt16_Sp_counted_baseILN9__gnu_cxx12_Lock_policyE2EE,"dr"
	.linkonce same_size
	.align 32
_ZTSSt16_Sp_counted_baseILN9__gnu_cxx12_Lock_policyE2EE:
	.ascii "St16_Sp_counted_baseILN9__gnu_cxx12_Lock_policyE2EE\0"
	.globl	_ZTISt16_Sp_counted_baseILN9__gnu_cxx12_Lock_policyE2EE
	.section	.rdata$_ZTISt16_Sp_counted_baseILN9__gnu_cxx12_Lock_policyE2EE,"dr"
	.linkonce same_size
	.align 8
_ZTISt16_Sp_counted_baseILN9__gnu_cxx12_Lock_policyE2EE:
	.quad	_ZTVN10__cxxabiv120__si_class_type_infoE+16
	.quad	_ZTSSt16_Sp_counted_baseILN9__gnu_cxx12_Lock_policyE2EE
	.quad	_ZTISt11_Mutex_baseILN9__gnu_cxx12_Lock_policyE2EE
	.globl	_ZTSSt15_Sp_counted_ptrIP6FActorLN9__gnu_cxx12_Lock_policyE2EE
	.section	.rdata$_ZTSSt15_Sp_counted_ptrIP6FActorLN9__gnu_cxx12_Lock_policyE2EE,"dr"
	.linkonce same_size
	.align 32
_ZTSSt15_Sp_counted_ptrIP6FActorLN9__gnu_cxx12_Lock_policyE2EE:
	.ascii "St15_Sp_counted_ptrIP6FActorLN9__gnu_cxx12_Lock_policyE2EE\0"
	.globl	_ZTISt15_Sp_counted_ptrIP6FActorLN9__gnu_cxx12_Lock_policyE2EE
	.section	.rdata$_ZTISt15_Sp_counted_ptrIP6FActorLN9__gnu_cxx12_Lock_policyE2EE,"dr"
	.linkonce same_size
	.align 8
_ZTISt15_Sp_counted_ptrIP6FActorLN9__gnu_cxx12_Lock_policyE2EE:
	.quad	_ZTVN10__cxxabiv120__si_class_type_infoE+16
	.quad	_ZTSSt15_Sp_counted_ptrIP6FActorLN9__gnu_cxx12_Lock_policyE2EE
	.quad	_ZTISt16_Sp_counted_baseILN9__gnu_cxx12_Lock_policyE2EE
	.globl	_ZTVSt15_Sp_counted_ptrIP6FActorLN9__gnu_cxx12_Lock_policyE2EE
	.section	.rdata$_ZTVSt15_Sp_counted_ptrIP6FActorLN9__gnu_cxx12_Lock_policyE2EE,"dr"
	.linkonce same_size
	.align 8
_ZTVSt15_Sp_counted_ptrIP6FActorLN9__gnu_cxx12_Lock_policyE2EE:
	.quad	0
	.quad	_ZTISt15_Sp_counted_ptrIP6FActorLN9__gnu_cxx12_Lock_policyE2EE
	.quad	_ZNSt15_Sp_counted_ptrIP6FActorLN9__gnu_cxx12_Lock_policyE2EED1Ev
	.quad	_ZNSt15_Sp_counted_ptrIP6FActorLN9__gnu_cxx12_Lock_policyE2EED0Ev
	.quad	_ZNSt15_Sp_counted_ptrIP6FActorLN9__gnu_cxx12_Lock_policyE2EE10_M_disposeEv
	.quad	_ZNSt15_Sp_counted_ptrIP6FActorLN9__gnu_cxx12_Lock_policyE2EE10_M_destroyEv
	.quad	_ZNSt15_Sp_counted_ptrIP6FActorLN9__gnu_cxx12_Lock_policyE2EE14_M_get_deleterERKSt9type_info
	.globl	_ZN6FActor11StaticClassE
	.bss
	.align 32
_ZN6FActor11StaticClassE:
	.space 64
	.globl	_ZGVZN6FClass8RegistryB5cxx11EvE1m
	.section	.data$_ZGVZN6FClass8RegistryB5cxx11EvE1m,"w"
	.linkonce same_size
	.align 8
_ZGVZN6FClass8RegistryB5cxx11EvE1m:
	.space 8
	.globl	_ZZN6FClass8RegistryB5cxx11EvE1m
	.section	.data$_ZZN6FClass8RegistryB5cxx11EvE1m,"w"
	.linkonce same_size
	.align 32
_ZZN6FClass8RegistryB5cxx11EvE1m:
	.space 56
	.section .rdata,"dr"
	.align 8
.LC4:
	.long	1
	.long	1
	.ident	"GCC: (x86_64-posix-seh-rev1, Built by MinGW-Builds project) 13.1.0"
	.def	_ZdlPvy;	.scl	2;	.type	32;	.endef
	.def	memcmp;	.scl	2;	.type	32;	.endef
	.def	strlen;	.scl	2;	.type	32;	.endef
	.def	_ZNSt7__cxx1112basic_stringIcSt11char_traitsIcESaIcEE10_M_replaceEyyPKcy;	.scl	2;	.type	32;	.endef
	.def	_ZNSt7__cxx1112basic_stringIcSt11char_traitsIcESaIcEE13_S_copy_charsEPcPKcS7_;	.scl	2;	.type	32;	.endef
	.def	_ZNSt7__cxx1112basic_stringIcSt11char_traitsIcESaIcEE9_M_createERyy;	.scl	2;	.type	32;	.endef
	.def	_ZSt19__throw_logic_errorPKc;	.scl	2;	.type	32;	.endef
	.def	memset;	.scl	2;	.type	32;	.endef
	.def	_Znwy;	.scl	2;	.type	32;	.endef
	.def	_ZSt11_Hash_bytesPKvyy;	.scl	2;	.type	32;	.endef
	.def	memcpy;	.scl	2;	.type	32;	.endef
	.def	memmove;	.scl	2;	.type	32;	.endef
	.def	_ZSt20__throw_length_errorPKc;	.scl	2;	.type	32;	.endef
	.def	_ZNSt7__cxx1112basic_stringIcSt11char_traitsIcESaIcEEC1EOS4_;	.scl	2;	.type	32;	.endef
	.def	_ZSt28__throw_bad_array_new_lengthv;	.scl	2;	.type	32;	.endef
	.def	_ZSt17__throw_bad_allocv;	.scl	2;	.type	32;	.endef
	.def	__cxa_begin_catch;	.scl	2;	.type	32;	.endef
	.def	__cxa_rethrow;	.scl	2;	.type	32;	.endef
	.def	__cxa_end_catch;	.scl	2;	.type	32;	.endef
	.def	_Unwind_Resume;	.scl	2;	.type	32;	.endef
	.def	_ZNKSt8__detail20_Prime_rehash_policy14_M_need_rehashEyyy;	.scl	2;	.type	32;	.endef
	.def	_ZNSt7__cxx1112basic_stringIcSt11char_traitsIcESaIcEE10_M_disposeEv;	.scl	2;	.type	32;	.endef
	.def	__cxa_guard_acquire;	.scl	2;	.type	32;	.endef
	.def	atexit;	.scl	2;	.type	32;	.endef
	.def	__cxa_guard_release;	.scl	2;	.type	32;	.endef
