	.file	"_ch144_noexcept.cpp"
	.intel_syntax noprefix
	.text
.Ltext0:
	.cfi_sections	.debug_frame
	.file 0 "C:/CodeLearnling/note/note/C++/CPP-Bible" "Examples/_ch144_noexcept.cpp"
	.section	.text$_ZSt21is_constant_evaluatedv,"x"
	.linkonce discard
	.globl	_ZSt21is_constant_evaluatedv
	.def	_ZSt21is_constant_evaluatedv;	.scl	2;	.type	32;	.endef
	.seh_proc	_ZSt21is_constant_evaluatedv
_ZSt21is_constant_evaluatedv:
.LFB15:
	.file 1 "C:/Qt/Tools/mingw1530_64/include/c++/15.3.0/type_traits"
	.loc 1 4008 3
	.cfi_startproc
	push	rbp
	.seh_pushreg	rbp
	.cfi_def_cfa_offset 16
	.cfi_offset 6, -16
	mov	rbp, rsp
	.seh_setframe	rbp, 0
	.cfi_def_cfa_register 6
	.seh_endprologue
	.loc 1 4010 49
	mov	eax, 0
	.loc 1 4014 3
	pop	rbp
	.cfi_restore 6
	.cfi_def_cfa 7, 8
	ret
	.cfi_endproc
.LFE15:
	.seh_endproc
	.section	.text$_ZnwyPv,"x"
	.linkonce discard
	.globl	_ZnwyPv
	.def	_ZnwyPv;	.scl	2;	.type	32;	.endef
	.seh_proc	_ZnwyPv
_ZnwyPv:
.LFB220:
	.file 2 "C:/Qt/Tools/mingw1530_64/include/c++/15.3.0/new"
	.loc 2 208 1
	.cfi_startproc
	push	rbp
	.seh_pushreg	rbp
	.cfi_def_cfa_offset 16
	.cfi_offset 6, -16
	mov	rbp, rsp
	.seh_setframe	rbp, 0
	.cfi_def_cfa_register 6
	.seh_endprologue
	mov	QWORD PTR 16[rbp], rcx
	mov	QWORD PTR 24[rbp], rdx
	.loc 2 208 10
	mov	rax, QWORD PTR 24[rbp]
	.loc 2 208 15
	pop	rbp
	.cfi_restore 6
	.cfi_def_cfa 7, 8
	ret
	.cfi_endproc
.LFE220:
	.seh_endproc
	.section	.text$_ZdlPvS_,"x"
	.linkonce discard
	.globl	_ZdlPvS_
	.def	_ZdlPvS_;	.scl	2;	.type	32;	.endef
	.seh_proc	_ZdlPvS_
_ZdlPvS_:
.LFB222:
	.loc 2 219 1
	.cfi_startproc
	push	rbp
	.seh_pushreg	rbp
	.cfi_def_cfa_offset 16
	.cfi_offset 6, -16
	mov	rbp, rsp
	.seh_setframe	rbp, 0
	.cfi_def_cfa_register 6
	.seh_endprologue
	mov	QWORD PTR 16[rbp], rcx
	mov	QWORD PTR 24[rbp], rdx
	.loc 2 219 3
	nop
	pop	rbp
	.cfi_restore 6
	.cfi_def_cfa 7, 8
	ret
	.cfi_endproc
.LFE222:
	.seh_endproc
	.section	.text$_ZN8CopyOnlyC1Ei,"x"
	.linkonce discard
	.align 2
	.globl	_ZN8CopyOnlyC1Ei
	.def	_ZN8CopyOnlyC1Ei;	.scl	2;	.type	32;	.endef
	.seh_proc	_ZN8CopyOnlyC1Ei
_ZN8CopyOnlyC1Ei:
.LFB1721:
	.file 3 "Examples/_ch144_noexcept.cpp"
	.loc 3 7 5
	.cfi_startproc
	push	rbp
	.seh_pushreg	rbp
	.cfi_def_cfa_offset 16
	.cfi_offset 6, -16
	mov	rbp, rsp
	.seh_setframe	rbp, 0
	.cfi_def_cfa_register 6
	.seh_endprologue
	mov	QWORD PTR 16[rbp], rcx
	mov	DWORD PTR 24[rbp], edx
.LBB268:
	.loc 3 7 23
	mov	rax, QWORD PTR 16[rbp]
	mov	edx, DWORD PTR 24[rbp]
	mov	DWORD PTR [rax], edx
.LBE268:
	.loc 3 7 29
	nop
	pop	rbp
	.cfi_restore 6
	.cfi_def_cfa 7, 8
	ret
	.cfi_endproc
.LFE1721:
	.seh_endproc
	.section	.text$_ZN12NoexceptMoveC1Ei,"x"
	.linkonce discard
	.align 2
	.globl	_ZN12NoexceptMoveC1Ei
	.def	_ZN12NoexceptMoveC1Ei;	.scl	2;	.type	32;	.endef
	.seh_proc	_ZN12NoexceptMoveC1Ei
_ZN12NoexceptMoveC1Ei:
.LFB1724:
	.loc 3 14 5
	.cfi_startproc
	push	rbp
	.seh_pushreg	rbp
	.cfi_def_cfa_offset 16
	.cfi_offset 6, -16
	mov	rbp, rsp
	.seh_setframe	rbp, 0
	.cfi_def_cfa_register 6
	.seh_endprologue
	mov	QWORD PTR 16[rbp], rcx
	mov	DWORD PTR 24[rbp], edx
.LBB269:
	.loc 3 14 27
	mov	rax, QWORD PTR 16[rbp]
	mov	edx, DWORD PTR 24[rbp]
	mov	DWORD PTR [rax], edx
.LBE269:
	.loc 3 14 33
	nop
	pop	rbp
	.cfi_restore 6
	.cfi_def_cfa 7, 8
	ret
	.cfi_endproc
.LFE1724:
	.seh_endproc
	.section	.text$_ZNSt12_Vector_baseI8CopyOnlySaIS0_EE12_Vector_implD1Ev,"x"
	.linkonce discard
	.align 2
	.globl	_ZNSt12_Vector_baseI8CopyOnlySaIS0_EE12_Vector_implD1Ev
	.def	_ZNSt12_Vector_baseI8CopyOnlySaIS0_EE12_Vector_implD1Ev;	.scl	2;	.type	32;	.endef
	.seh_proc	_ZNSt12_Vector_baseI8CopyOnlySaIS0_EE12_Vector_implD1Ev
_ZNSt12_Vector_baseI8CopyOnlySaIS0_EE12_Vector_implD1Ev:
.LFB1731:
	.file 4 "C:/Qt/Tools/mingw1530_64/include/c++/15.3.0/bits/stl_vector.h"
	.loc 4 139 14
	.cfi_startproc
	push	rbp
	.seh_pushreg	rbp
	.cfi_def_cfa_offset 16
	.cfi_offset 6, -16
	mov	rbp, rsp
	.seh_setframe	rbp, 0
	.cfi_def_cfa_register 6
	sub	rsp, 16
	.seh_stackalloc	16
	.seh_endprologue
	mov	QWORD PTR 16[rbp], rcx
	mov	rax, QWORD PTR 16[rbp]
	mov	QWORD PTR -8[rbp], rax
.LBB270:
.LBB271:
.LBB272:
	.file 5 "C:/Qt/Tools/mingw1530_64/include/c++/15.3.0/bits/allocator.h"
	.loc 5 189 39
	nop
.LBE272:
.LBE271:
.LBE270:
	.loc 4 139 14
	nop
	add	rsp, 16
	pop	rbp
	.cfi_restore 6
	.cfi_def_cfa 7, 8
	ret
	.cfi_endproc
.LFE1731:
	.seh_endproc
	.text
	.globl	_Z9fill_copyv
	.def	_Z9fill_copyv;	.scl	2;	.type	32;	.endef
	.seh_proc	_Z9fill_copyv
_Z9fill_copyv:
.LFB1725:
	.loc 3 19 35
	.cfi_startproc
	push	rbp
	.seh_pushreg	rbp
	.cfi_def_cfa_offset 16
	.cfi_offset 6, -16
	push	rbx
	.seh_pushreg	rbx
	.cfi_def_cfa_offset 24
	.cfi_offset 3, -24
	sub	rsp, 56
	.seh_stackalloc	56
	.cfi_def_cfa_offset 80
	lea	rbp, 48[rsp]
	.seh_setframe	rbp, 48
	.cfi_def_cfa 6, 32
	.seh_endprologue
	mov	QWORD PTR 32[rbp], rcx
	.loc 3 20 27
	mov	rax, QWORD PTR 32[rbp]
	pxor	xmm0, xmm0
	movups	XMMWORD PTR [rax], xmm0
	movq	QWORD PTR 16[rax], xmm0
.LBB273:
	.loc 3 21 14
	mov	DWORD PTR -4[rbp], 0
	.loc 3 21 5
	jmp	.L10
.L11:
	.loc 3 21 56 discriminator 7
	mov	edx, DWORD PTR -4[rbp]
	lea	rax, -8[rbp]
	mov	rcx, rax
	call	_ZN8CopyOnlyC1Ei
	.loc 3 21 45 discriminator 7
	lea	rdx, -8[rbp]
	mov	rax, QWORD PTR 32[rbp]
	mov	rcx, rax
.LEHB0:
	call	_ZNSt6vectorI8CopyOnlySaIS0_EE9push_backEOS0_
.LEHE0:
	.loc 3 21 5 discriminator 5
	add	DWORD PTR -4[rbp], 1
.L10:
	.loc 3 21 23 discriminator 6
	cmp	DWORD PTR -4[rbp], 15
	jle	.L11
.LBE273:
	.loc 3 22 12
	jmp	.L15
.L14:
	.loc 3 23 1
	mov	rbx, rax
	mov	rax, QWORD PTR 32[rbp]
	mov	rcx, rax
	call	_ZNSt6vectorI8CopyOnlySaIS0_EED1Ev
	mov	rax, rbx
	mov	rcx, rax
.LEHB1:
	call	_Unwind_Resume
.LEHE1:
.L15:
	mov	rax, QWORD PTR 32[rbp]
	add	rsp, 56
	pop	rbx
	.cfi_restore 3
	pop	rbp
	.cfi_restore 6
	.cfi_def_cfa 7, -40
	ret
	.cfi_endproc
.LFE1725:
	.seh_handler	__gxx_personality_seh0, @unwind, @except
	.seh_handlerdata
.LLSDA1725:
	.byte	0xff
	.byte	0xff
	.byte	0x1
	.uleb128 .LLSDACSE1725-.LLSDACSB1725
.LLSDACSB1725:
	.uleb128 .LEHB0-.LFB1725
	.uleb128 .LEHE0-.LEHB0
	.uleb128 .L14-.LFB1725
	.uleb128 0
	.uleb128 .LEHB1-.LFB1725
	.uleb128 .LEHE1-.LEHB1
	.uleb128 0
	.uleb128 0
.LLSDACSE1725:
	.text
	.seh_endproc
	.section	.text$_ZNSt12_Vector_baseI12NoexceptMoveSaIS0_EE12_Vector_implD1Ev,"x"
	.linkonce discard
	.align 2
	.globl	_ZNSt12_Vector_baseI12NoexceptMoveSaIS0_EE12_Vector_implD1Ev
	.def	_ZNSt12_Vector_baseI12NoexceptMoveSaIS0_EE12_Vector_implD1Ev;	.scl	2;	.type	32;	.endef
	.seh_proc	_ZNSt12_Vector_baseI12NoexceptMoveSaIS0_EE12_Vector_implD1Ev
_ZNSt12_Vector_baseI12NoexceptMoveSaIS0_EE12_Vector_implD1Ev:
.LFB1760:
	.loc 4 139 14
	.cfi_startproc
	push	rbp
	.seh_pushreg	rbp
	.cfi_def_cfa_offset 16
	.cfi_offset 6, -16
	mov	rbp, rsp
	.seh_setframe	rbp, 0
	.cfi_def_cfa_register 6
	sub	rsp, 16
	.seh_stackalloc	16
	.seh_endprologue
	mov	QWORD PTR 16[rbp], rcx
	mov	rax, QWORD PTR 16[rbp]
	mov	QWORD PTR -8[rbp], rax
.LBB274:
.LBB275:
.LBB276:
	.loc 5 189 39
	nop
.LBE276:
.LBE275:
.LBE274:
	.loc 4 139 14
	nop
	add	rsp, 16
	pop	rbp
	.cfi_restore 6
	.cfi_def_cfa 7, 8
	ret
	.cfi_endproc
.LFE1760:
	.seh_endproc
	.text
	.globl	_Z9fill_movev
	.def	_Z9fill_movev;	.scl	2;	.type	32;	.endef
	.seh_proc	_Z9fill_movev
_Z9fill_movev:
.LFB1754:
	.loc 3 25 39
	.cfi_startproc
	push	rbp
	.seh_pushreg	rbp
	.cfi_def_cfa_offset 16
	.cfi_offset 6, -16
	push	rbx
	.seh_pushreg	rbx
	.cfi_def_cfa_offset 24
	.cfi_offset 3, -24
	sub	rsp, 56
	.seh_stackalloc	56
	.cfi_def_cfa_offset 80
	lea	rbp, 48[rsp]
	.seh_setframe	rbp, 48
	.cfi_def_cfa 6, 32
	.seh_endprologue
	mov	QWORD PTR 32[rbp], rcx
	.loc 3 26 31
	mov	rax, QWORD PTR 32[rbp]
	pxor	xmm0, xmm0
	movups	XMMWORD PTR [rax], xmm0
	movq	QWORD PTR 16[rax], xmm0
.LBB277:
	.loc 3 27 14
	mov	DWORD PTR -4[rbp], 0
	.loc 3 27 5
	jmp	.L18
.L19:
	.loc 3 27 60 discriminator 7
	mov	edx, DWORD PTR -4[rbp]
	lea	rax, -8[rbp]
	mov	rcx, rax
	call	_ZN12NoexceptMoveC1Ei
	.loc 3 27 45 discriminator 7
	lea	rdx, -8[rbp]
	mov	rax, QWORD PTR 32[rbp]
	mov	rcx, rax
.LEHB2:
	call	_ZNSt6vectorI12NoexceptMoveSaIS0_EE9push_backEOS0_
.LEHE2:
	.loc 3 27 5 discriminator 5
	add	DWORD PTR -4[rbp], 1
.L18:
	.loc 3 27 23 discriminator 6
	cmp	DWORD PTR -4[rbp], 15
	jle	.L19
.LBE277:
	.loc 3 28 12
	jmp	.L23
.L22:
	.loc 3 29 1
	mov	rbx, rax
	mov	rax, QWORD PTR 32[rbp]
	mov	rcx, rax
	call	_ZNSt6vectorI12NoexceptMoveSaIS0_EED1Ev
	mov	rax, rbx
	mov	rcx, rax
.LEHB3:
	call	_Unwind_Resume
.LEHE3:
.L23:
	mov	rax, QWORD PTR 32[rbp]
	add	rsp, 56
	pop	rbx
	.cfi_restore 3
	pop	rbp
	.cfi_restore 6
	.cfi_def_cfa 7, -40
	ret
	.cfi_endproc
.LFE1754:
	.seh_handler	__gxx_personality_seh0, @unwind, @except
	.seh_handlerdata
.LLSDA1754:
	.byte	0xff
	.byte	0xff
	.byte	0x1
	.uleb128 .LLSDACSE1754-.LLSDACSB1754
.LLSDACSB1754:
	.uleb128 .LEHB2-.LFB1754
	.uleb128 .LEHE2-.LEHB2
	.uleb128 .L22-.LFB1754
	.uleb128 0
	.uleb128 .LEHB3-.LFB1754
	.uleb128 .LEHE3-.LEHB3
	.uleb128 0
	.uleb128 0
.LLSDACSE1754:
	.text
	.seh_endproc
	.section	.text$_ZNSt12_Vector_baseI8CopyOnlySaIS0_EED2Ev,"x"
	.linkonce discard
	.align 2
	.globl	_ZNSt12_Vector_baseI8CopyOnlySaIS0_EED2Ev
	.def	_ZNSt12_Vector_baseI8CopyOnlySaIS0_EED2Ev;	.scl	2;	.type	32;	.endef
	.seh_proc	_ZNSt12_Vector_baseI8CopyOnlySaIS0_EED2Ev
_ZNSt12_Vector_baseI8CopyOnlySaIS0_EED2Ev:
.LFB1792:
	.loc 4 373 7
	.cfi_startproc
	push	rbp
	.seh_pushreg	rbp
	.cfi_def_cfa_offset 16
	.cfi_offset 6, -16
	mov	rbp, rsp
	.seh_setframe	rbp, 0
	.cfi_def_cfa_register 6
	sub	rsp, 32
	.seh_stackalloc	32
	.seh_endprologue
	mov	QWORD PTR 16[rbp], rcx
.LBB278:
	.loc 4 376 17
	mov	rax, QWORD PTR 16[rbp]
	mov	rdx, QWORD PTR 16[rax]
	.loc 4 376 45
	mov	rax, QWORD PTR 16[rbp]
	mov	rax, QWORD PTR [rax]
	.loc 4 376 35
	sub	rdx, rax
	mov	rax, rdx
	sar	rax, 2
	.loc 4 375 15
	mov	rcx, rax
	mov	rax, QWORD PTR 16[rbp]
	mov	rdx, QWORD PTR [rax]
	mov	rax, QWORD PTR 16[rbp]
	mov	r8, rcx
	mov	rcx, rax
	call	_ZNSt12_Vector_baseI8CopyOnlySaIS0_EE13_M_deallocateEPS0_y
	.loc 4 377 7
	mov	rax, QWORD PTR 16[rbp]
	mov	rcx, rax
	call	_ZNSt12_Vector_baseI8CopyOnlySaIS0_EE12_Vector_implD1Ev
.LBE278:
	nop
	add	rsp, 32
	pop	rbp
	.cfi_restore 6
	.cfi_def_cfa 7, 8
	ret
	.cfi_endproc
.LFE1792:
	.seh_handler	__gxx_personality_seh0, @unwind, @except
	.seh_handlerdata
.LLSDA1792:
	.byte	0xff
	.byte	0xff
	.byte	0x1
	.uleb128 .LLSDACSE1792-.LLSDACSB1792
.LLSDACSB1792:
.LLSDACSE1792:
	.section	.text$_ZNSt12_Vector_baseI8CopyOnlySaIS0_EED2Ev,"x"
	.linkonce discard
	.seh_endproc
	.section	.text$_ZNSt6vectorI8CopyOnlySaIS0_EED1Ev,"x"
	.linkonce discard
	.align 2
	.globl	_ZNSt6vectorI8CopyOnlySaIS0_EED1Ev
	.def	_ZNSt6vectorI8CopyOnlySaIS0_EED1Ev;	.scl	2;	.type	32;	.endef
	.seh_proc	_ZNSt6vectorI8CopyOnlySaIS0_EED1Ev
_ZNSt6vectorI8CopyOnlySaIS0_EED1Ev:
.LFB1796:
	.loc 4 800 7
	.cfi_startproc
	push	rbp
	.seh_pushreg	rbp
	.cfi_def_cfa_offset 16
	.cfi_offset 6, -16
	mov	rbp, rsp
	.seh_setframe	rbp, 0
	.cfi_def_cfa_register 6
	sub	rsp, 64
	.seh_stackalloc	64
	.seh_endprologue
	mov	QWORD PTR 16[rbp], rcx
.LBB279:
	.loc 4 803 28
	mov	rax, QWORD PTR 16[rbp]
	mov	rcx, rax
	call	_ZNSt12_Vector_baseI8CopyOnlySaIS0_EE19_M_get_Tp_allocatorEv
	.loc 4 802 54
	mov	rdx, QWORD PTR 16[rbp]
	mov	rdx, QWORD PTR 8[rdx]
	.loc 4 802 30
	mov	rcx, QWORD PTR 16[rbp]
	mov	rcx, QWORD PTR [rcx]
	mov	QWORD PTR -8[rbp], rcx
	mov	QWORD PTR -16[rbp], rdx
	mov	QWORD PTR -24[rbp], rax
.LBB280:
.LBB281:
	.file 6 "C:/Qt/Tools/mingw1530_64/include/c++/15.3.0/bits/alloc_traits.h"
	.loc 6 1045 20
	mov	rdx, QWORD PTR -16[rbp]
	mov	rax, QWORD PTR -8[rbp]
	mov	rcx, rax
	call	_ZSt8_DestroyIP8CopyOnlyEvT_S2_
	.loc 6 1046 5
	nop
.LBE281:
.LBE280:
	.loc 4 805 7
	mov	rax, QWORD PTR 16[rbp]
	mov	rcx, rax
	call	_ZNSt12_Vector_baseI8CopyOnlySaIS0_EED2Ev
.LBE279:
	nop
	add	rsp, 64
	pop	rbp
	.cfi_restore 6
	.cfi_def_cfa 7, 8
	ret
	.cfi_endproc
.LFE1796:
	.seh_handler	__gxx_personality_seh0, @unwind, @except
	.seh_handlerdata
.LLSDA1796:
	.byte	0xff
	.byte	0xff
	.byte	0x1
	.uleb128 .LLSDACSE1796-.LLSDACSB1796
.LLSDACSB1796:
.LLSDACSE1796:
	.section	.text$_ZNSt6vectorI8CopyOnlySaIS0_EED1Ev,"x"
	.linkonce discard
	.seh_endproc
	.section	.text$_ZNSt6vectorI8CopyOnlySaIS0_EE9push_backEOS0_,"x"
	.linkonce discard
	.align 2
	.globl	_ZNSt6vectorI8CopyOnlySaIS0_EE9push_backEOS0_
	.def	_ZNSt6vectorI8CopyOnlySaIS0_EE9push_backEOS0_;	.scl	2;	.type	32;	.endef
	.seh_proc	_ZNSt6vectorI8CopyOnlySaIS0_EE9push_backEOS0_
_ZNSt6vectorI8CopyOnlySaIS0_EE9push_backEOS0_:
.LFB1797:
	.loc 4 1433 7
	.cfi_startproc
	push	rbp
	.seh_pushreg	rbp
	.cfi_def_cfa_offset 16
	.cfi_offset 6, -16
	mov	rbp, rsp
	.seh_setframe	rbp, 0
	.cfi_def_cfa_register 6
	sub	rsp, 48
	.seh_stackalloc	48
	.seh_endprologue
	mov	QWORD PTR 16[rbp], rcx
	mov	QWORD PTR 24[rbp], rdx
	mov	rax, QWORD PTR 24[rbp]
	mov	QWORD PTR -8[rbp], rax
.LBB282:
.LBB283:
	.file 7 "C:/Qt/Tools/mingw1530_64/include/c++/15.3.0/bits/move.h"
	.loc 7 139 74
	mov	rdx, QWORD PTR -8[rbp]
.LBE283:
.LBE282:
	.loc 4 1434 21 discriminator 1
	mov	rax, QWORD PTR 16[rbp]
	mov	rcx, rax
	call	_ZNSt6vectorI8CopyOnlySaIS0_EE12emplace_backIJS0_EEERS0_DpOT_
	.loc 4 1434 39
	nop
	add	rsp, 48
	pop	rbp
	.cfi_restore 6
	.cfi_def_cfa 7, 8
	ret
	.cfi_endproc
.LFE1797:
	.seh_endproc
	.section	.text$_ZNSt12_Vector_baseI12NoexceptMoveSaIS0_EED2Ev,"x"
	.linkonce discard
	.align 2
	.globl	_ZNSt12_Vector_baseI12NoexceptMoveSaIS0_EED2Ev
	.def	_ZNSt12_Vector_baseI12NoexceptMoveSaIS0_EED2Ev;	.scl	2;	.type	32;	.endef
	.seh_proc	_ZNSt12_Vector_baseI12NoexceptMoveSaIS0_EED2Ev
_ZNSt12_Vector_baseI12NoexceptMoveSaIS0_EED2Ev:
.LFB1805:
	.loc 4 373 7
	.cfi_startproc
	push	rbp
	.seh_pushreg	rbp
	.cfi_def_cfa_offset 16
	.cfi_offset 6, -16
	mov	rbp, rsp
	.seh_setframe	rbp, 0
	.cfi_def_cfa_register 6
	sub	rsp, 32
	.seh_stackalloc	32
	.seh_endprologue
	mov	QWORD PTR 16[rbp], rcx
.LBB284:
	.loc 4 376 17
	mov	rax, QWORD PTR 16[rbp]
	mov	rdx, QWORD PTR 16[rax]
	.loc 4 376 45
	mov	rax, QWORD PTR 16[rbp]
	mov	rax, QWORD PTR [rax]
	.loc 4 376 35
	sub	rdx, rax
	mov	rax, rdx
	sar	rax, 2
	.loc 4 375 15
	mov	rcx, rax
	mov	rax, QWORD PTR 16[rbp]
	mov	rdx, QWORD PTR [rax]
	mov	rax, QWORD PTR 16[rbp]
	mov	r8, rcx
	mov	rcx, rax
	call	_ZNSt12_Vector_baseI12NoexceptMoveSaIS0_EE13_M_deallocateEPS0_y
	.loc 4 377 7
	mov	rax, QWORD PTR 16[rbp]
	mov	rcx, rax
	call	_ZNSt12_Vector_baseI12NoexceptMoveSaIS0_EE12_Vector_implD1Ev
.LBE284:
	nop
	add	rsp, 32
	pop	rbp
	.cfi_restore 6
	.cfi_def_cfa 7, 8
	ret
	.cfi_endproc
.LFE1805:
	.seh_handler	__gxx_personality_seh0, @unwind, @except
	.seh_handlerdata
.LLSDA1805:
	.byte	0xff
	.byte	0xff
	.byte	0x1
	.uleb128 .LLSDACSE1805-.LLSDACSB1805
.LLSDACSB1805:
.LLSDACSE1805:
	.section	.text$_ZNSt12_Vector_baseI12NoexceptMoveSaIS0_EED2Ev,"x"
	.linkonce discard
	.seh_endproc
	.section	.text$_ZNSt6vectorI12NoexceptMoveSaIS0_EED1Ev,"x"
	.linkonce discard
	.align 2
	.globl	_ZNSt6vectorI12NoexceptMoveSaIS0_EED1Ev
	.def	_ZNSt6vectorI12NoexceptMoveSaIS0_EED1Ev;	.scl	2;	.type	32;	.endef
	.seh_proc	_ZNSt6vectorI12NoexceptMoveSaIS0_EED1Ev
_ZNSt6vectorI12NoexceptMoveSaIS0_EED1Ev:
.LFB1809:
	.loc 4 800 7
	.cfi_startproc
	push	rbp
	.seh_pushreg	rbp
	.cfi_def_cfa_offset 16
	.cfi_offset 6, -16
	mov	rbp, rsp
	.seh_setframe	rbp, 0
	.cfi_def_cfa_register 6
	sub	rsp, 64
	.seh_stackalloc	64
	.seh_endprologue
	mov	QWORD PTR 16[rbp], rcx
.LBB285:
	.loc 4 803 28
	mov	rax, QWORD PTR 16[rbp]
	mov	rcx, rax
	call	_ZNSt12_Vector_baseI12NoexceptMoveSaIS0_EE19_M_get_Tp_allocatorEv
	.loc 4 802 54
	mov	rdx, QWORD PTR 16[rbp]
	mov	rdx, QWORD PTR 8[rdx]
	.loc 4 802 30
	mov	rcx, QWORD PTR 16[rbp]
	mov	rcx, QWORD PTR [rcx]
	mov	QWORD PTR -8[rbp], rcx
	mov	QWORD PTR -16[rbp], rdx
	mov	QWORD PTR -24[rbp], rax
.LBB286:
.LBB287:
	.loc 6 1045 20
	mov	rdx, QWORD PTR -16[rbp]
	mov	rax, QWORD PTR -8[rbp]
	mov	rcx, rax
	call	_ZSt8_DestroyIP12NoexceptMoveEvT_S2_
	.loc 6 1046 5
	nop
.LBE287:
.LBE286:
	.loc 4 805 7
	mov	rax, QWORD PTR 16[rbp]
	mov	rcx, rax
	call	_ZNSt12_Vector_baseI12NoexceptMoveSaIS0_EED2Ev
.LBE285:
	nop
	add	rsp, 64
	pop	rbp
	.cfi_restore 6
	.cfi_def_cfa 7, 8
	ret
	.cfi_endproc
.LFE1809:
	.seh_handler	__gxx_personality_seh0, @unwind, @except
	.seh_handlerdata
.LLSDA1809:
	.byte	0xff
	.byte	0xff
	.byte	0x1
	.uleb128 .LLSDACSE1809-.LLSDACSB1809
.LLSDACSB1809:
.LLSDACSE1809:
	.section	.text$_ZNSt6vectorI12NoexceptMoveSaIS0_EED1Ev,"x"
	.linkonce discard
	.seh_endproc
	.section	.text$_ZNSt6vectorI12NoexceptMoveSaIS0_EE9push_backEOS0_,"x"
	.linkonce discard
	.align 2
	.globl	_ZNSt6vectorI12NoexceptMoveSaIS0_EE9push_backEOS0_
	.def	_ZNSt6vectorI12NoexceptMoveSaIS0_EE9push_backEOS0_;	.scl	2;	.type	32;	.endef
	.seh_proc	_ZNSt6vectorI12NoexceptMoveSaIS0_EE9push_backEOS0_
_ZNSt6vectorI12NoexceptMoveSaIS0_EE9push_backEOS0_:
.LFB1810:
	.loc 4 1433 7
	.cfi_startproc
	push	rbp
	.seh_pushreg	rbp
	.cfi_def_cfa_offset 16
	.cfi_offset 6, -16
	mov	rbp, rsp
	.seh_setframe	rbp, 0
	.cfi_def_cfa_register 6
	sub	rsp, 48
	.seh_stackalloc	48
	.seh_endprologue
	mov	QWORD PTR 16[rbp], rcx
	mov	QWORD PTR 24[rbp], rdx
	mov	rax, QWORD PTR 24[rbp]
	mov	QWORD PTR -8[rbp], rax
.LBB288:
.LBB289:
	.loc 7 139 74
	mov	rdx, QWORD PTR -8[rbp]
.LBE289:
.LBE288:
	.loc 4 1434 21 discriminator 1
	mov	rax, QWORD PTR 16[rbp]
	mov	rcx, rax
	call	_ZNSt6vectorI12NoexceptMoveSaIS0_EE12emplace_backIJS0_EEERS0_DpOT_
	.loc 4 1434 39
	nop
	add	rsp, 48
	pop	rbp
	.cfi_restore 6
	.cfi_def_cfa 7, 8
	ret
	.cfi_endproc
.LFE1810:
	.seh_endproc
	.section	.text$_ZNSt12_Vector_baseI8CopyOnlySaIS0_EE13_M_deallocateEPS0_y,"x"
	.linkonce discard
	.align 2
	.globl	_ZNSt12_Vector_baseI8CopyOnlySaIS0_EE13_M_deallocateEPS0_y
	.def	_ZNSt12_Vector_baseI8CopyOnlySaIS0_EE13_M_deallocateEPS0_y;	.scl	2;	.type	32;	.endef
	.seh_proc	_ZNSt12_Vector_baseI8CopyOnlySaIS0_EE13_M_deallocateEPS0_y
_ZNSt12_Vector_baseI8CopyOnlySaIS0_EE13_M_deallocateEPS0_y:
.LFB1814:
	.loc 4 392 7
	.cfi_startproc
	push	rbp
	.seh_pushreg	rbp
	.cfi_def_cfa_offset 16
	.cfi_offset 6, -16
	mov	rbp, rsp
	.seh_setframe	rbp, 0
	.cfi_def_cfa_register 6
	sub	rsp, 80
	.seh_stackalloc	80
	.seh_endprologue
	mov	QWORD PTR 16[rbp], rcx
	mov	QWORD PTR 24[rbp], rdx
	mov	QWORD PTR 32[rbp], r8
	.loc 4 395 2
	cmp	QWORD PTR 24[rbp], 0
	je	.L37
	.loc 4 396 20
	mov	rax, QWORD PTR 16[rbp]
	mov	QWORD PTR -8[rbp], rax
	mov	rax, QWORD PTR 24[rbp]
	mov	QWORD PTR -16[rbp], rax
	mov	rax, QWORD PTR 32[rbp]
	mov	QWORD PTR -24[rbp], rax
	mov	rax, QWORD PTR -8[rbp]
	mov	QWORD PTR -32[rbp], rax
	mov	rax, QWORD PTR -16[rbp]
	mov	QWORD PTR -40[rbp], rax
	mov	rax, QWORD PTR -24[rbp]
	mov	QWORD PTR -48[rbp], rax
.LBB290:
.LBB291:
.LBB292:
.LBB293:
.LBB294:
.LBB295:
	.file 8 "C:/Qt/Tools/mingw1530_64/include/c++/15.3.0/x86_64-w64-mingw32/bits/c++config.h"
	.loc 8 586 49
	mov	eax, 0
.LBE295:
.LBE294:
	.loc 5 210 2 discriminator 1
	test	al, al
	je	.L35
	.loc 5 212 23
	mov	rax, QWORD PTR -40[rbp]
	mov	rcx, rax
	call	_ZdlPv
	.loc 5 213 6
	jmp	.L36
.L35:
	.loc 5 215 35
	mov	rcx, QWORD PTR -48[rbp]
	mov	rdx, QWORD PTR -40[rbp]
	mov	rax, QWORD PTR -32[rbp]
	mov	r8, rcx
	mov	rcx, rax
	call	_ZNSt15__new_allocatorI8CopyOnlyE10deallocateEPS0_y
.L36:
.LBE293:
.LBE292:
	.loc 6 649 35
	nop
.L37:
.LBE291:
.LBE290:
	.loc 4 397 7
	nop
	add	rsp, 80
	pop	rbp
	.cfi_restore 6
	.cfi_def_cfa 7, 8
	ret
	.cfi_endproc
.LFE1814:
	.seh_endproc
	.section	.text$_ZNSt12_Vector_baseI8CopyOnlySaIS0_EE19_M_get_Tp_allocatorEv,"x"
	.linkonce discard
	.align 2
	.globl	_ZNSt12_Vector_baseI8CopyOnlySaIS0_EE19_M_get_Tp_allocatorEv
	.def	_ZNSt12_Vector_baseI8CopyOnlySaIS0_EE19_M_get_Tp_allocatorEv;	.scl	2;	.type	32;	.endef
	.seh_proc	_ZNSt12_Vector_baseI8CopyOnlySaIS0_EE19_M_get_Tp_allocatorEv
_ZNSt12_Vector_baseI8CopyOnlySaIS0_EE19_M_get_Tp_allocatorEv:
.LFB1815:
	.loc 4 307 7
	.cfi_startproc
	push	rbp
	.seh_pushreg	rbp
	.cfi_def_cfa_offset 16
	.cfi_offset 6, -16
	mov	rbp, rsp
	.seh_setframe	rbp, 0
	.cfi_def_cfa_register 6
	.seh_endprologue
	mov	QWORD PTR 16[rbp], rcx
	.loc 4 308 22
	mov	rax, QWORD PTR 16[rbp]
	.loc 4 308 31
	pop	rbp
	.cfi_restore 6
	.cfi_def_cfa 7, 8
	ret
	.cfi_endproc
.LFE1815:
	.seh_endproc
	.section	.text$_ZNSt6vectorI8CopyOnlySaIS0_EE12emplace_backIJS0_EEERS0_DpOT_,"x"
	.linkonce discard
	.align 2
	.globl	_ZNSt6vectorI8CopyOnlySaIS0_EE12emplace_backIJS0_EEERS0_DpOT_
	.def	_ZNSt6vectorI8CopyOnlySaIS0_EE12emplace_backIJS0_EEERS0_DpOT_;	.scl	2;	.type	32;	.endef
	.seh_proc	_ZNSt6vectorI8CopyOnlySaIS0_EE12emplace_backIJS0_EEERS0_DpOT_
_ZNSt6vectorI8CopyOnlySaIS0_EE12emplace_backIJS0_EEERS0_DpOT_:
.LFB1818:
	.file 9 "C:/Qt/Tools/mingw1530_64/include/c++/15.3.0/bits/vector.tcc"
	.loc 9 111 7
	.cfi_startproc
	push	rbp
	.seh_pushreg	rbp
	.cfi_def_cfa_offset 16
	.cfi_offset 6, -16
	mov	rbp, rsp
	.seh_setframe	rbp, 0
	.cfi_def_cfa_register 6
	sub	rsp, 80
	.seh_stackalloc	80
	.seh_endprologue
	mov	QWORD PTR 16[rbp], rcx
	mov	QWORD PTR 24[rbp], rdx
	.loc 9 114 20
	mov	rax, QWORD PTR 16[rbp]
	mov	rdx, QWORD PTR 8[rax]
	.loc 9 114 47
	mov	rax, QWORD PTR 16[rbp]
	mov	rax, QWORD PTR 16[rax]
	.loc 9 114 2
	cmp	rdx, rax
	je	.L41
	mov	rax, QWORD PTR 24[rbp]
	mov	QWORD PTR -40[rbp], rax
.LBB296:
.LBB297:
	.loc 7 73 36
	mov	rdx, QWORD PTR -40[rbp]
.LBE297:
.LBE296:
	.loc 9 117 60 discriminator 1
	mov	rax, QWORD PTR 16[rbp]
	mov	rcx, QWORD PTR 8[rax]
	.loc 9 117 37 discriminator 1
	mov	rax, QWORD PTR 16[rbp]
	mov	QWORD PTR -8[rbp], rcx
	mov	QWORD PTR -16[rbp], rdx
	mov	QWORD PTR -24[rbp], rax
	mov	rax, QWORD PTR -16[rbp]
	mov	QWORD PTR -32[rbp], rax
.LBB298:
.LBB299:
.LBB300:
.LBB301:
	.loc 7 73 36
	mov	rdx, QWORD PTR -32[rbp]
.LBE301:
.LBE300:
	.loc 6 676 21 discriminator 1
	mov	rax, QWORD PTR -8[rbp]
	mov	rcx, rax
	call	_ZSt12construct_atI8CopyOnlyJS0_EQaant20is_unbounded_array_vIT_ErqXgsnwcvPvLi0E_S1_pispcl7declvalIT0_EEEEEPS1_S4_DpOS3_
	.loc 6 680 2
	nop
.LBE299:
.LBE298:
	.loc 9 119 22
	mov	rax, QWORD PTR 16[rbp]
	mov	rax, QWORD PTR 8[rax]
	.loc 9 119 6
	lea	rdx, 4[rax]
	mov	rax, QWORD PTR 16[rbp]
	mov	QWORD PTR 8[rax], rdx
	jmp	.L44
.L41:
	mov	rax, QWORD PTR 24[rbp]
	mov	QWORD PTR -48[rbp], rax
.LBB302:
.LBB303:
	.loc 7 73 36
	mov	rdx, QWORD PTR -48[rbp]
.LBE303:
.LBE302:
	.loc 9 123 21 discriminator 1
	mov	rax, QWORD PTR 16[rbp]
	mov	rcx, rax
	call	_ZNSt6vectorI8CopyOnlySaIS0_EE17_M_realloc_appendIJS0_EEEvDpOT_
.L44:
	.loc 9 125 13
	mov	rax, QWORD PTR 16[rbp]
	mov	rcx, rax
	call	_ZNSt6vectorI8CopyOnlySaIS0_EE4backEv
	.loc 9 127 7
	add	rsp, 80
	pop	rbp
	.cfi_restore 6
	.cfi_def_cfa 7, 8
	ret
	.cfi_endproc
.LFE1818:
	.seh_endproc
	.section	.text$_ZNSt12_Vector_baseI12NoexceptMoveSaIS0_EE13_M_deallocateEPS0_y,"x"
	.linkonce discard
	.align 2
	.globl	_ZNSt12_Vector_baseI12NoexceptMoveSaIS0_EE13_M_deallocateEPS0_y
	.def	_ZNSt12_Vector_baseI12NoexceptMoveSaIS0_EE13_M_deallocateEPS0_y;	.scl	2;	.type	32;	.endef
	.seh_proc	_ZNSt12_Vector_baseI12NoexceptMoveSaIS0_EE13_M_deallocateEPS0_y
_ZNSt12_Vector_baseI12NoexceptMoveSaIS0_EE13_M_deallocateEPS0_y:
.LFB1827:
	.loc 4 392 7
	.cfi_startproc
	push	rbp
	.seh_pushreg	rbp
	.cfi_def_cfa_offset 16
	.cfi_offset 6, -16
	mov	rbp, rsp
	.seh_setframe	rbp, 0
	.cfi_def_cfa_register 6
	sub	rsp, 80
	.seh_stackalloc	80
	.seh_endprologue
	mov	QWORD PTR 16[rbp], rcx
	mov	QWORD PTR 24[rbp], rdx
	mov	QWORD PTR 32[rbp], r8
	.loc 4 395 2
	cmp	QWORD PTR 24[rbp], 0
	je	.L52
	.loc 4 396 20
	mov	rax, QWORD PTR 16[rbp]
	mov	QWORD PTR -8[rbp], rax
	mov	rax, QWORD PTR 24[rbp]
	mov	QWORD PTR -16[rbp], rax
	mov	rax, QWORD PTR 32[rbp]
	mov	QWORD PTR -24[rbp], rax
	mov	rax, QWORD PTR -8[rbp]
	mov	QWORD PTR -32[rbp], rax
	mov	rax, QWORD PTR -16[rbp]
	mov	QWORD PTR -40[rbp], rax
	mov	rax, QWORD PTR -24[rbp]
	mov	QWORD PTR -48[rbp], rax
.LBB304:
.LBB305:
.LBB306:
.LBB307:
.LBB308:
.LBB309:
	.loc 8 586 49
	mov	eax, 0
.LBE309:
.LBE308:
	.loc 5 210 2 discriminator 1
	test	al, al
	je	.L50
	.loc 5 212 23
	mov	rax, QWORD PTR -40[rbp]
	mov	rcx, rax
	call	_ZdlPv
	.loc 5 213 6
	jmp	.L51
.L50:
	.loc 5 215 35
	mov	rcx, QWORD PTR -48[rbp]
	mov	rdx, QWORD PTR -40[rbp]
	mov	rax, QWORD PTR -32[rbp]
	mov	r8, rcx
	mov	rcx, rax
	call	_ZNSt15__new_allocatorI12NoexceptMoveE10deallocateEPS0_y
.L51:
.LBE307:
.LBE306:
	.loc 6 649 35
	nop
.L52:
.LBE305:
.LBE304:
	.loc 4 397 7
	nop
	add	rsp, 80
	pop	rbp
	.cfi_restore 6
	.cfi_def_cfa 7, 8
	ret
	.cfi_endproc
.LFE1827:
	.seh_endproc
	.section	.text$_ZNSt12_Vector_baseI12NoexceptMoveSaIS0_EE19_M_get_Tp_allocatorEv,"x"
	.linkonce discard
	.align 2
	.globl	_ZNSt12_Vector_baseI12NoexceptMoveSaIS0_EE19_M_get_Tp_allocatorEv
	.def	_ZNSt12_Vector_baseI12NoexceptMoveSaIS0_EE19_M_get_Tp_allocatorEv;	.scl	2;	.type	32;	.endef
	.seh_proc	_ZNSt12_Vector_baseI12NoexceptMoveSaIS0_EE19_M_get_Tp_allocatorEv
_ZNSt12_Vector_baseI12NoexceptMoveSaIS0_EE19_M_get_Tp_allocatorEv:
.LFB1828:
	.loc 4 307 7
	.cfi_startproc
	push	rbp
	.seh_pushreg	rbp
	.cfi_def_cfa_offset 16
	.cfi_offset 6, -16
	mov	rbp, rsp
	.seh_setframe	rbp, 0
	.cfi_def_cfa_register 6
	.seh_endprologue
	mov	QWORD PTR 16[rbp], rcx
	.loc 4 308 22
	mov	rax, QWORD PTR 16[rbp]
	.loc 4 308 31
	pop	rbp
	.cfi_restore 6
	.cfi_def_cfa 7, 8
	ret
	.cfi_endproc
.LFE1828:
	.seh_endproc
	.section	.text$_ZNSt6vectorI12NoexceptMoveSaIS0_EE12emplace_backIJS0_EEERS0_DpOT_,"x"
	.linkonce discard
	.align 2
	.globl	_ZNSt6vectorI12NoexceptMoveSaIS0_EE12emplace_backIJS0_EEERS0_DpOT_
	.def	_ZNSt6vectorI12NoexceptMoveSaIS0_EE12emplace_backIJS0_EEERS0_DpOT_;	.scl	2;	.type	32;	.endef
	.seh_proc	_ZNSt6vectorI12NoexceptMoveSaIS0_EE12emplace_backIJS0_EEERS0_DpOT_
_ZNSt6vectorI12NoexceptMoveSaIS0_EE12emplace_backIJS0_EEERS0_DpOT_:
.LFB1831:
	.loc 9 111 7
	.cfi_startproc
	push	rbp
	.seh_pushreg	rbp
	.cfi_def_cfa_offset 16
	.cfi_offset 6, -16
	mov	rbp, rsp
	.seh_setframe	rbp, 0
	.cfi_def_cfa_register 6
	sub	rsp, 80
	.seh_stackalloc	80
	.seh_endprologue
	mov	QWORD PTR 16[rbp], rcx
	mov	QWORD PTR 24[rbp], rdx
	.loc 9 114 20
	mov	rax, QWORD PTR 16[rbp]
	mov	rdx, QWORD PTR 8[rax]
	.loc 9 114 47
	mov	rax, QWORD PTR 16[rbp]
	mov	rax, QWORD PTR 16[rax]
	.loc 9 114 2
	cmp	rdx, rax
	je	.L56
	mov	rax, QWORD PTR 24[rbp]
	mov	QWORD PTR -40[rbp], rax
.LBB310:
.LBB311:
	.loc 7 73 36
	mov	rdx, QWORD PTR -40[rbp]
.LBE311:
.LBE310:
	.loc 9 117 60 discriminator 1
	mov	rax, QWORD PTR 16[rbp]
	mov	rcx, QWORD PTR 8[rax]
	.loc 9 117 37 discriminator 1
	mov	rax, QWORD PTR 16[rbp]
	mov	QWORD PTR -8[rbp], rcx
	mov	QWORD PTR -16[rbp], rdx
	mov	QWORD PTR -24[rbp], rax
	mov	rax, QWORD PTR -16[rbp]
	mov	QWORD PTR -32[rbp], rax
.LBB312:
.LBB313:
.LBB314:
.LBB315:
	.loc 7 73 36
	mov	rdx, QWORD PTR -32[rbp]
.LBE315:
.LBE314:
	.loc 6 676 21 discriminator 1
	mov	rax, QWORD PTR -8[rbp]
	mov	rcx, rax
	call	_ZSt12construct_atI12NoexceptMoveJS0_EQaant20is_unbounded_array_vIT_ErqXgsnwcvPvLi0E_S1_pispcl7declvalIT0_EEEEEPS1_S4_DpOS3_
	.loc 6 680 2
	nop
.LBE313:
.LBE312:
	.loc 9 119 22
	mov	rax, QWORD PTR 16[rbp]
	mov	rax, QWORD PTR 8[rax]
	.loc 9 119 6
	lea	rdx, 4[rax]
	mov	rax, QWORD PTR 16[rbp]
	mov	QWORD PTR 8[rax], rdx
	jmp	.L59
.L56:
	mov	rax, QWORD PTR 24[rbp]
	mov	QWORD PTR -48[rbp], rax
.LBB316:
.LBB317:
	.loc 7 73 36
	mov	rdx, QWORD PTR -48[rbp]
.LBE317:
.LBE316:
	.loc 9 123 21 discriminator 1
	mov	rax, QWORD PTR 16[rbp]
	mov	rcx, rax
	call	_ZNSt6vectorI12NoexceptMoveSaIS0_EE17_M_realloc_appendIJS0_EEEvDpOT_
.L59:
	.loc 9 125 13
	mov	rax, QWORD PTR 16[rbp]
	mov	rcx, rax
	call	_ZNSt6vectorI12NoexceptMoveSaIS0_EE4backEv
	.loc 9 127 7
	add	rsp, 80
	pop	rbp
	.cfi_restore 6
	.cfi_def_cfa 7, 8
	ret
	.cfi_endproc
.LFE1831:
	.seh_endproc
	.section	.text$_ZSt8_DestroyIP8CopyOnlyEvT_S2_,"x"
	.linkonce discard
	.globl	_ZSt8_DestroyIP8CopyOnlyEvT_S2_
	.def	_ZSt8_DestroyIP8CopyOnlyEvT_S2_;	.scl	2;	.type	32;	.endef
	.seh_proc	_ZSt8_DestroyIP8CopyOnlyEvT_S2_
_ZSt8_DestroyIP8CopyOnlyEvT_S2_:
.LFB1841:
	.file 10 "C:/Qt/Tools/mingw1530_64/include/c++/15.3.0/bits/stl_construct.h"
	.loc 10 219 5
	.cfi_startproc
	push	rbp
	.seh_pushreg	rbp
	.cfi_def_cfa_offset 16
	.cfi_offset 6, -16
	mov	rbp, rsp
	.seh_setframe	rbp, 0
	.cfi_def_cfa_register 6
	sub	rsp, 48
	.seh_stackalloc	48
	.seh_endprologue
	mov	QWORD PTR 16[rbp], rcx
	mov	QWORD PTR 24[rbp], rdx
.LBB318:
.LBB319:
	.loc 8 586 49
	mov	eax, 0
.LBE319:
.LBE318:
	.loc 10 228 12 discriminator 1
	test	al, al
	je	.L68
	.loc 10 229 2
	jmp	.L65
.L67:
	mov	rax, QWORD PTR 16[rbp]
	mov	QWORD PTR -8[rbp], rax
.LBB320:
.LBB321:
	.loc 7 53 37
	mov	rax, QWORD PTR -8[rbp]
.LBE321:
.LBE320:
	.loc 10 230 19 discriminator 1
	mov	rcx, rax
	call	_ZSt10destroy_atI8CopyOnlyEvPT_
	.loc 10 229 2 discriminator 2
	add	QWORD PTR 16[rbp], 4
.L65:
	.loc 10 229 17 discriminator 1
	mov	rax, QWORD PTR 16[rbp]
	cmp	rax, QWORD PTR 24[rbp]
	jne	.L67
.L68:
	.loc 10 236 5
	nop
	add	rsp, 48
	pop	rbp
	.cfi_restore 6
	.cfi_def_cfa 7, 8
	ret
	.cfi_endproc
.LFE1841:
	.seh_endproc
	.section	.text$_ZNKSt6vectorI8CopyOnlySaIS0_EE4sizeEv,"x"
	.linkonce discard
	.align 2
	.globl	_ZNKSt6vectorI8CopyOnlySaIS0_EE4sizeEv
	.def	_ZNKSt6vectorI8CopyOnlySaIS0_EE4sizeEv;	.scl	2;	.type	32;	.endef
	.seh_proc	_ZNKSt6vectorI8CopyOnlySaIS0_EE4sizeEv
_ZNKSt6vectorI8CopyOnlySaIS0_EE4sizeEv:
.LFB1846:
	.loc 4 1117 7
	.cfi_startproc
	push	rbp
	.seh_pushreg	rbp
	.cfi_def_cfa_offset 16
	.cfi_offset 6, -16
	mov	rbp, rsp
	.seh_setframe	rbp, 0
	.cfi_def_cfa_register 6
	sub	rsp, 16
	.seh_stackalloc	16
	.seh_endprologue
	mov	QWORD PTR 16[rbp], rcx
	.loc 4 1119 34
	mov	rax, QWORD PTR 16[rbp]
	mov	rdx, QWORD PTR 8[rax]
	.loc 4 1119 60
	mov	rax, QWORD PTR 16[rbp]
	mov	rax, QWORD PTR [rax]
	.loc 4 1119 44
	sub	rdx, rax
	.loc 4 1119 12
	mov	rax, rdx
	sar	rax, 2
	mov	QWORD PTR -8[rbp], rax
	.loc 4 1120 2
	cmp	QWORD PTR -8[rbp], 0
	.loc 4 1122 24
	mov	rax, QWORD PTR -8[rbp]
	.loc 4 1123 7
	add	rsp, 16
	pop	rbp
	.cfi_restore 6
	.cfi_def_cfa 7, 8
	ret
	.cfi_endproc
.LFE1846:
	.seh_endproc
	.section	.text$_ZSt3maxIyERKT_S2_S2_,"x"
	.linkonce discard
	.globl	_ZSt3maxIyERKT_S2_S2_
	.def	_ZSt3maxIyERKT_S2_S2_;	.scl	2;	.type	32;	.endef
	.seh_proc	_ZSt3maxIyERKT_S2_S2_
_ZSt3maxIyERKT_S2_S2_:
.LFB1847:
	.file 11 "C:/Qt/Tools/mingw1530_64/include/c++/15.3.0/bits/stl_algobase.h"
	.loc 11 258 5
	.cfi_startproc
	push	rbp
	.seh_pushreg	rbp
	.cfi_def_cfa_offset 16
	.cfi_offset 6, -16
	mov	rbp, rsp
	.seh_setframe	rbp, 0
	.cfi_def_cfa_register 6
	.seh_endprologue
	mov	QWORD PTR 16[rbp], rcx
	mov	QWORD PTR 24[rbp], rdx
	.loc 11 263 15
	mov	rax, QWORD PTR 16[rbp]
	mov	rdx, QWORD PTR [rax]
	mov	rax, QWORD PTR 24[rbp]
	mov	rax, QWORD PTR [rax]
	.loc 11 263 7
	cmp	rdx, rax
	jnb	.L73
	.loc 11 264 9
	mov	rax, QWORD PTR 24[rbp]
	jmp	.L74
.L73:
	.loc 11 265 14
	mov	rax, QWORD PTR 16[rbp]
.L74:
	.loc 11 266 5
	pop	rbp
	.cfi_restore 6
	.cfi_def_cfa 7, 8
	ret
	.cfi_endproc
.LFE1847:
	.seh_endproc
	.section	.text$_ZNKSt6vectorI8CopyOnlySaIS0_EE12_M_check_lenEyPKc,"x"
	.linkonce discard
	.align 2
	.globl	_ZNKSt6vectorI8CopyOnlySaIS0_EE12_M_check_lenEyPKc
	.def	_ZNKSt6vectorI8CopyOnlySaIS0_EE12_M_check_lenEyPKc;	.scl	2;	.type	32;	.endef
	.seh_proc	_ZNKSt6vectorI8CopyOnlySaIS0_EE12_M_check_lenEyPKc
_ZNKSt6vectorI8CopyOnlySaIS0_EE12_M_check_lenEyPKc:
.LFB1845:
	.loc 4 2202 7
	.cfi_startproc
	push	rbp
	.seh_pushreg	rbp
	.cfi_def_cfa_offset 16
	.cfi_offset 6, -16
	push	rbx
	.seh_pushreg	rbx
	.cfi_def_cfa_offset 24
	.cfi_offset 3, -24
	sub	rsp, 56
	.seh_stackalloc	56
	.cfi_def_cfa_offset 80
	lea	rbp, 48[rsp]
	.seh_setframe	rbp, 48
	.cfi_def_cfa 6, 32
	.seh_endprologue
	mov	QWORD PTR 32[rbp], rcx
	mov	QWORD PTR 40[rbp], rdx
	mov	QWORD PTR 48[rbp], r8
	.loc 4 2204 14
	mov	rax, QWORD PTR 32[rbp]
	mov	rcx, rax
	call	_ZNKSt6vectorI8CopyOnlySaIS0_EE8max_sizeEv
	mov	rbx, rax
	.loc 4 2204 23 discriminator 1
	mov	rax, QWORD PTR 32[rbp]
	mov	rcx, rax
	call	_ZNKSt6vectorI8CopyOnlySaIS0_EE4sizeEv
	.loc 4 2204 17 discriminator 2
	sub	rbx, rax
	mov	rdx, rbx
	.loc 4 2204 26 discriminator 2
	mov	rax, QWORD PTR 40[rbp]
	cmp	rdx, rax
	setb	al
	.loc 4 2204 2 discriminator 2
	test	al, al
	je	.L76
	.loc 4 2205 24
	mov	rax, QWORD PTR 48[rbp]
	mov	rcx, rax
	call	_ZSt20__throw_length_errorPKc
.L76:
	.loc 4 2207 30
	mov	rax, QWORD PTR 32[rbp]
	mov	rcx, rax
	call	_ZNKSt6vectorI8CopyOnlySaIS0_EE4sizeEv
	mov	rbx, rax
	.loc 4 2207 50 discriminator 1
	mov	rax, QWORD PTR 32[rbp]
	mov	rcx, rax
	call	_ZNKSt6vectorI8CopyOnlySaIS0_EE4sizeEv
	.loc 4 2207 50 is_stmt 0 discriminator 2
	mov	QWORD PTR -16[rbp], rax
	.loc 4 2207 45 is_stmt 1 discriminator 2
	lea	rdx, 40[rbp]
	lea	rax, -16[rbp]
	mov	rcx, rax
	call	_ZSt3maxIyERKT_S2_S2_
	.loc 4 2207 33 discriminator 3
	mov	rax, QWORD PTR [rax]
	.loc 4 2207 18 discriminator 3
	add	rax, rbx
	mov	QWORD PTR -8[rbp], rax
	.loc 4 2208 22
	mov	rax, QWORD PTR 32[rbp]
	mov	rcx, rax
	call	_ZNKSt6vectorI8CopyOnlySaIS0_EE4sizeEv
	.loc 4 2208 48 discriminator 1
	cmp	QWORD PTR -8[rbp], rax
	jb	.L77
	.loc 4 2208 44 discriminator 3
	mov	rax, QWORD PTR 32[rbp]
	mov	rcx, rax
	call	_ZNKSt6vectorI8CopyOnlySaIS0_EE8max_sizeEv
	.loc 4 2208 25 discriminator 4
	cmp	rax, QWORD PTR -8[rbp]
	jnb	.L78
.L77:
	.loc 4 2208 58 discriminator 5
	mov	rax, QWORD PTR 32[rbp]
	mov	rcx, rax
	call	_ZNKSt6vectorI8CopyOnlySaIS0_EE8max_sizeEv
	.loc 4 2208 63
	jmp	.L80
.L78:
	.loc 4 2208 63 is_stmt 0 discriminator 6
	mov	rax, QWORD PTR -8[rbp]
.L80:
	.loc 4 2209 7 is_stmt 1
	add	rsp, 56
	pop	rbx
	.cfi_restore 3
	pop	rbp
	.cfi_restore 6
	.cfi_def_cfa 7, -40
	ret
	.cfi_endproc
.LFE1845:
	.seh_endproc
	.section	.text$_ZNKSt6vectorI8CopyOnlySaIS0_EE8max_sizeEv,"x"
	.linkonce discard
	.align 2
	.globl	_ZNKSt6vectorI8CopyOnlySaIS0_EE8max_sizeEv
	.def	_ZNKSt6vectorI8CopyOnlySaIS0_EE8max_sizeEv;	.scl	2;	.type	32;	.endef
	.seh_proc	_ZNKSt6vectorI8CopyOnlySaIS0_EE8max_sizeEv
_ZNKSt6vectorI8CopyOnlySaIS0_EE8max_sizeEv:
.LFB1848:
	.loc 4 1128 7
	.cfi_startproc
	push	rbp
	.seh_pushreg	rbp
	.cfi_def_cfa_offset 16
	.cfi_offset 6, -16
	mov	rbp, rsp
	.seh_setframe	rbp, 0
	.cfi_def_cfa_register 6
	sub	rsp, 32
	.seh_stackalloc	32
	.seh_endprologue
	mov	QWORD PTR 16[rbp], rcx
	.loc 4 1129 47
	mov	rax, QWORD PTR 16[rbp]
	mov	rcx, rax
	call	_ZNKSt12_Vector_baseI8CopyOnlySaIS0_EE19_M_get_Tp_allocatorEv
	.loc 4 1129 27 discriminator 1
	mov	rcx, rax
	call	_ZNSt6vectorI8CopyOnlySaIS0_EE11_S_max_sizeERKS1_
	.loc 4 1129 52
	add	rsp, 32
	pop	rbp
	.cfi_restore 6
	.cfi_def_cfa 7, 8
	ret
	.cfi_endproc
.LFE1848:
	.seh_endproc
	.section	.text$_ZNKSt12_Vector_baseI8CopyOnlySaIS0_EE19_M_get_Tp_allocatorEv,"x"
	.linkonce discard
	.align 2
	.globl	_ZNKSt12_Vector_baseI8CopyOnlySaIS0_EE19_M_get_Tp_allocatorEv
	.def	_ZNKSt12_Vector_baseI8CopyOnlySaIS0_EE19_M_get_Tp_allocatorEv;	.scl	2;	.type	32;	.endef
	.seh_proc	_ZNKSt12_Vector_baseI8CopyOnlySaIS0_EE19_M_get_Tp_allocatorEv
_ZNKSt12_Vector_baseI8CopyOnlySaIS0_EE19_M_get_Tp_allocatorEv:
.LFB1849:
	.loc 4 312 7
	.cfi_startproc
	push	rbp
	.seh_pushreg	rbp
	.cfi_def_cfa_offset 16
	.cfi_offset 6, -16
	mov	rbp, rsp
	.seh_setframe	rbp, 0
	.cfi_def_cfa_register 6
	.seh_endprologue
	mov	QWORD PTR 16[rbp], rcx
	.loc 4 313 22
	mov	rax, QWORD PTR 16[rbp]
	.loc 4 313 31
	pop	rbp
	.cfi_restore 6
	.cfi_def_cfa 7, 8
	ret
	.cfi_endproc
.LFE1849:
	.seh_endproc
	.section	.text$_ZNSt6vectorI8CopyOnlySaIS0_EE11_S_max_sizeERKS1_,"x"
	.linkonce discard
	.globl	_ZNSt6vectorI8CopyOnlySaIS0_EE11_S_max_sizeERKS1_
	.def	_ZNSt6vectorI8CopyOnlySaIS0_EE11_S_max_sizeERKS1_;	.scl	2;	.type	32;	.endef
	.seh_proc	_ZNSt6vectorI8CopyOnlySaIS0_EE11_S_max_sizeERKS1_
_ZNSt6vectorI8CopyOnlySaIS0_EE11_S_max_sizeERKS1_:
.LFB1850:
	.loc 4 2222 7
	.cfi_startproc
	push	rbp
	.seh_pushreg	rbp
	.cfi_def_cfa_offset 16
	.cfi_offset 6, -16
	mov	rbp, rsp
	.seh_setframe	rbp, 0
	.cfi_def_cfa_register 6
	sub	rsp, 48
	.seh_stackalloc	48
	.seh_endprologue
	mov	QWORD PTR 16[rbp], rcx
	.loc 4 2227 15
	movabs	rax, 2305843009213693951
	mov	QWORD PTR -8[rbp], rax
	.loc 4 2229 15
	movabs	rax, 4611686018427387903
	mov	QWORD PTR -16[rbp], rax
	.loc 4 2230 19
	lea	rdx, -16[rbp]
	lea	rax, -8[rbp]
	mov	rcx, rax
	call	_ZSt3minIyERKT_S2_S2_
	.loc 4 2230 41 discriminator 1
	mov	rax, QWORD PTR [rax]
	.loc 4 2231 7
	add	rsp, 48
	pop	rbp
	.cfi_restore 6
	.cfi_def_cfa 7, 8
	ret
	.cfi_endproc
.LFE1850:
	.seh_endproc
	.section	.text$_ZSt3minIyERKT_S2_S2_,"x"
	.linkonce discard
	.globl	_ZSt3minIyERKT_S2_S2_
	.def	_ZSt3minIyERKT_S2_S2_;	.scl	2;	.type	32;	.endef
	.seh_proc	_ZSt3minIyERKT_S2_S2_
_ZSt3minIyERKT_S2_S2_:
.LFB1852:
	.loc 11 234 5
	.cfi_startproc
	push	rbp
	.seh_pushreg	rbp
	.cfi_def_cfa_offset 16
	.cfi_offset 6, -16
	mov	rbp, rsp
	.seh_setframe	rbp, 0
	.cfi_def_cfa_register 6
	.seh_endprologue
	mov	QWORD PTR 16[rbp], rcx
	mov	QWORD PTR 24[rbp], rdx
	.loc 11 239 15
	mov	rax, QWORD PTR 24[rbp]
	mov	rdx, QWORD PTR [rax]
	mov	rax, QWORD PTR 16[rbp]
	mov	rax, QWORD PTR [rax]
	.loc 11 239 7
	cmp	rdx, rax
	jnb	.L88
	.loc 11 240 9
	mov	rax, QWORD PTR 24[rbp]
	jmp	.L89
.L88:
	.loc 11 241 14
	mov	rax, QWORD PTR 16[rbp]
.L89:
	.loc 11 242 5
	pop	rbp
	.cfi_restore 6
	.cfi_def_cfa 7, 8
	ret
	.cfi_endproc
.LFE1852:
	.seh_endproc
	.section	.text$_ZNSt6vectorI8CopyOnlySaIS0_EE3endEv,"x"
	.linkonce discard
	.align 2
	.globl	_ZNSt6vectorI8CopyOnlySaIS0_EE3endEv
	.def	_ZNSt6vectorI8CopyOnlySaIS0_EE3endEv;	.scl	2;	.type	32;	.endef
	.seh_proc	_ZNSt6vectorI8CopyOnlySaIS0_EE3endEv
_ZNSt6vectorI8CopyOnlySaIS0_EE3endEv:
.LFB1854:
	.loc 4 1018 7
	.cfi_startproc
	push	rbp
	.seh_pushreg	rbp
	.cfi_def_cfa_offset 16
	.cfi_offset 6, -16
	mov	rbp, rsp
	.seh_setframe	rbp, 0
	.cfi_def_cfa_register 6
	sub	rsp, 16
	.seh_stackalloc	16
	.seh_endprologue
	mov	QWORD PTR 16[rbp], rcx
	.loc 4 1019 39
	mov	rax, QWORD PTR 16[rbp]
	add	rax, 8
	mov	QWORD PTR -8[rbp], rax
.LBB322:
.LBB323:
.LBB324:
	.file 12 "C:/Qt/Tools/mingw1530_64/include/c++/15.3.0/bits/stl_iterator.h"
	.loc 12 1059 9
	mov	rax, QWORD PTR -8[rbp]
	mov	rax, QWORD PTR [rax]
	mov	QWORD PTR -16[rbp], rax
.LBE324:
	.loc 12 1059 27
	nop
.LBE323:
.LBE322:
	.loc 4 1019 48 discriminator 1
	mov	rax, QWORD PTR -16[rbp]
	.loc 4 1019 51
	add	rsp, 16
	pop	rbp
	.cfi_restore 6
	.cfi_def_cfa 7, 8
	ret
	.cfi_endproc
.LFE1854:
	.seh_endproc
	.section	.text$_ZNSt6vectorI8CopyOnlySaIS0_EE5beginEv,"x"
	.linkonce discard
	.align 2
	.globl	_ZNSt6vectorI8CopyOnlySaIS0_EE5beginEv
	.def	_ZNSt6vectorI8CopyOnlySaIS0_EE5beginEv;	.scl	2;	.type	32;	.endef
	.seh_proc	_ZNSt6vectorI8CopyOnlySaIS0_EE5beginEv
_ZNSt6vectorI8CopyOnlySaIS0_EE5beginEv:
.LFB1855:
	.loc 4 998 7
	.cfi_startproc
	push	rbp
	.seh_pushreg	rbp
	.cfi_def_cfa_offset 16
	.cfi_offset 6, -16
	mov	rbp, rsp
	.seh_setframe	rbp, 0
	.cfi_def_cfa_register 6
	sub	rsp, 16
	.seh_stackalloc	16
	.seh_endprologue
	mov	QWORD PTR 16[rbp], rcx
	.loc 4 999 39
	mov	rax, QWORD PTR 16[rbp]
	mov	QWORD PTR -8[rbp], rax
.LBB325:
.LBB326:
.LBB327:
	.loc 12 1059 9
	mov	rax, QWORD PTR -8[rbp]
	mov	rax, QWORD PTR [rax]
	mov	QWORD PTR -16[rbp], rax
.LBE327:
	.loc 12 1059 27
	nop
.LBE326:
.LBE325:
	.loc 4 999 47 discriminator 1
	mov	rax, QWORD PTR -16[rbp]
	.loc 4 999 50
	add	rsp, 16
	pop	rbp
	.cfi_restore 6
	.cfi_def_cfa 7, 8
	ret
	.cfi_endproc
.LFE1855:
	.seh_endproc
	.section	.text$_ZZNSt6vectorI8CopyOnlySaIS0_EE17_M_realloc_appendIJS0_EEEvDpOT_EN11_Guard_eltsC1EPS0_RS1_,"x"
	.linkonce discard
	.align 2
	.globl	_ZZNSt6vectorI8CopyOnlySaIS0_EE17_M_realloc_appendIJS0_EEEvDpOT_EN11_Guard_eltsC1EPS0_RS1_
	.def	_ZZNSt6vectorI8CopyOnlySaIS0_EE17_M_realloc_appendIJS0_EEEvDpOT_EN11_Guard_eltsC1EPS0_RS1_;	.scl	2;	.type	32;	.endef
	.seh_proc	_ZZNSt6vectorI8CopyOnlySaIS0_EE17_M_realloc_appendIJS0_EEEvDpOT_EN11_Guard_eltsC1EPS0_RS1_
_ZZNSt6vectorI8CopyOnlySaIS0_EE17_M_realloc_appendIJS0_EEEvDpOT_EN11_Guard_eltsC1EPS0_RS1_:
.LFB1865:
	.loc 9 613 8
	.cfi_startproc
	push	rbp
	.seh_pushreg	rbp
	.cfi_def_cfa_offset 16
	.cfi_offset 6, -16
	mov	rbp, rsp
	.seh_setframe	rbp, 0
	.cfi_def_cfa_register 6
	.seh_endprologue
	mov	QWORD PTR 16[rbp], rcx
	mov	QWORD PTR 24[rbp], rdx
	mov	QWORD PTR 32[rbp], r8
.LBB328:
	.loc 9 614 10
	mov	rax, QWORD PTR 16[rbp]
	mov	rdx, QWORD PTR 24[rbp]
	mov	QWORD PTR [rax], rdx
	.loc 9 614 41
	mov	rax, QWORD PTR 24[rbp]
	lea	rdx, 4[rax]
	.loc 9 614 27
	mov	rax, QWORD PTR 16[rbp]
	mov	QWORD PTR 8[rax], rdx
	.loc 9 614 47
	mov	rax, QWORD PTR 16[rbp]
	mov	rdx, QWORD PTR 32[rbp]
	mov	QWORD PTR 16[rax], rdx
.LBE328:
	.loc 9 615 10
	nop
	pop	rbp
	.cfi_restore 6
	.cfi_def_cfa 7, 8
	ret
	.cfi_endproc
.LFE1865:
	.seh_endproc
	.section	.text$_ZZNSt6vectorI8CopyOnlySaIS0_EE17_M_realloc_appendIJS0_EEEvDpOT_EN11_Guard_eltsD1Ev,"x"
	.linkonce discard
	.align 2
	.globl	_ZZNSt6vectorI8CopyOnlySaIS0_EE17_M_realloc_appendIJS0_EEEvDpOT_EN11_Guard_eltsD1Ev
	.def	_ZZNSt6vectorI8CopyOnlySaIS0_EE17_M_realloc_appendIJS0_EEEvDpOT_EN11_Guard_eltsD1Ev;	.scl	2;	.type	32;	.endef
	.seh_proc	_ZZNSt6vectorI8CopyOnlySaIS0_EE17_M_realloc_appendIJS0_EEEvDpOT_EN11_Guard_eltsD1Ev
_ZZNSt6vectorI8CopyOnlySaIS0_EE17_M_realloc_appendIJS0_EEEvDpOT_EN11_Guard_eltsD1Ev:
.LFB1868:
	.loc 9 618 8
	.cfi_startproc
	push	rbp
	.seh_pushreg	rbp
	.cfi_def_cfa_offset 16
	.cfi_offset 6, -16
	mov	rbp, rsp
	.seh_setframe	rbp, 0
	.cfi_def_cfa_register 6
	sub	rsp, 64
	.seh_stackalloc	64
	.seh_endprologue
	mov	QWORD PTR 16[rbp], rcx
.LBB329:
	.loc 9 619 43
	mov	rax, QWORD PTR 16[rbp]
	mov	rax, QWORD PTR 16[rax]
	.loc 9 619 34
	mov	rdx, QWORD PTR 16[rbp]
	mov	rdx, QWORD PTR 8[rdx]
	.loc 9 619 24
	mov	rcx, QWORD PTR 16[rbp]
	mov	rcx, QWORD PTR [rcx]
	mov	QWORD PTR -8[rbp], rcx
	mov	QWORD PTR -16[rbp], rdx
	mov	QWORD PTR -24[rbp], rax
.LBB330:
.LBB331:
	.loc 6 1045 20
	mov	rdx, QWORD PTR -16[rbp]
	mov	rax, QWORD PTR -8[rbp]
	mov	rcx, rax
	call	_ZSt8_DestroyIP8CopyOnlyEvT_S2_
	.loc 6 1046 5
	nop
.LBE331:
.LBE330:
.LBE329:
	.loc 9 619 54
	nop
	add	rsp, 64
	pop	rbp
	.cfi_restore 6
	.cfi_def_cfa 7, 8
	ret
	.cfi_endproc
.LFE1868:
	.seh_endproc
	.section .rdata,"dr"
.LC0:
	.ascii "vector::_M_realloc_append\0"
	.section	.text$_ZNSt6vectorI8CopyOnlySaIS0_EE17_M_realloc_appendIJS0_EEEvDpOT_,"x"
	.linkonce discard
	.align 2
	.globl	_ZNSt6vectorI8CopyOnlySaIS0_EE17_M_realloc_appendIJS0_EEEvDpOT_
	.def	_ZNSt6vectorI8CopyOnlySaIS0_EE17_M_realloc_appendIJS0_EEEvDpOT_;	.scl	2;	.type	32;	.endef
	.seh_proc	_ZNSt6vectorI8CopyOnlySaIS0_EE17_M_realloc_appendIJS0_EEEvDpOT_
_ZNSt6vectorI8CopyOnlySaIS0_EE17_M_realloc_appendIJS0_EEEvDpOT_:
.LFB1844:
	.loc 9 557 7
	.cfi_startproc
	push	rbp
	.seh_pushreg	rbp
	.cfi_def_cfa_offset 16
	.cfi_offset 6, -16
	push	rbx
	.seh_pushreg	rbx
	.cfi_def_cfa_offset 24
	.cfi_offset 3, -24
	sub	rsp, 232
	.seh_stackalloc	232
	.cfi_def_cfa_offset 256
	lea	rbp, 224[rsp]
	.seh_setframe	rbp, 224
	.cfi_def_cfa 6, 32
	.seh_endprologue
	mov	QWORD PTR 32[rbp], rcx
	mov	QWORD PTR 40[rbp], rdx
	.loc 9 566 43
	lea	rdx, .LC0[rip]
	mov	rax, QWORD PTR 32[rbp]
	mov	r8, rdx
	mov	edx, 1
	mov	rcx, rax
.LEHB4:
	call	_ZNKSt6vectorI8CopyOnlySaIS0_EE12_M_check_lenEyPKc
	.loc 9 566 43 is_stmt 0 discriminator 1
	mov	QWORD PTR -8[rbp], rax
	.loc 9 567 7 is_stmt 1
	cmp	QWORD PTR -8[rbp], 0
	.loc 9 569 15
	mov	rax, QWORD PTR 32[rbp]
	mov	rax, QWORD PTR [rax]
	mov	QWORD PTR -16[rbp], rax
	.loc 9 570 15
	mov	rax, QWORD PTR 32[rbp]
	mov	rax, QWORD PTR 8[rax]
	mov	QWORD PTR -24[rbp], rax
	.loc 9 571 46
	mov	rax, QWORD PTR 32[rbp]
	mov	rcx, rax
	call	_ZNSt6vectorI8CopyOnlySaIS0_EE5beginEv
	mov	QWORD PTR -136[rbp], rax
	.loc 9 571 36 discriminator 1
	mov	rax, QWORD PTR 32[rbp]
	mov	rcx, rax
	call	_ZNSt6vectorI8CopyOnlySaIS0_EE3endEv
	mov	QWORD PTR -128[rbp], rax
	lea	rax, -128[rbp]
	mov	QWORD PTR -104[rbp], rax
.LBB332:
.LBB333:
.LBB334:
.LBB335:
	.loc 12 1166 16
	mov	rax, QWORD PTR -104[rbp]
.LBE335:
.LBE334:
	.loc 12 1340 27 discriminator 1
	mov	rdx, QWORD PTR [rax]
	lea	rax, -136[rbp]
	mov	QWORD PTR -112[rbp], rax
.LBB336:
.LBB337:
	.loc 12 1166 16
	mov	rax, QWORD PTR -112[rbp]
.LBE337:
.LBE336:
	.loc 12 1340 27 discriminator 2
	mov	rax, QWORD PTR [rax]
	sub	rdx, rax
	.loc 12 1340 40 discriminator 2
	mov	rax, rdx
	sar	rax, 2
.LBE333:
.LBE332:
	.loc 9 571 23 discriminator 3
	mov	QWORD PTR -32[rbp], rax
	.loc 9 572 44
	mov	rax, QWORD PTR 32[rbp]
	mov	rdx, QWORD PTR -8[rbp]
	mov	rcx, rax
	call	_ZNSt12_Vector_baseI8CopyOnlySaIS0_EE11_M_allocateEy
.LEHE4:
	.loc 9 572 44 is_stmt 0 discriminator 1
	mov	QWORD PTR -40[rbp], rax
	.loc 9 573 15 is_stmt 1
	mov	rax, QWORD PTR -40[rbp]
	mov	QWORD PTR -48[rbp], rax
.LBB338:
	.loc 9 576 15
	mov	r8, QWORD PTR 32[rbp]
	mov	rcx, QWORD PTR -8[rbp]
	mov	rdx, QWORD PTR -40[rbp]
	lea	rax, -160[rbp]
	mov	r9, r8
	mov	r8, rcx
	mov	rcx, rax
	call	_ZNSt6vectorI8CopyOnlySaIS0_EE12_Guard_allocC1EPS0_yRSt12_Vector_baseIS0_S1_E
	mov	rax, QWORD PTR 40[rbp]
	mov	QWORD PTR -96[rbp], rax
.LBB339:
.LBB340:
	.loc 7 73 36
	mov	rdx, QWORD PTR -96[rbp]
.LBE340:
.LBE339:
	.loc 9 587 36
	mov	rax, QWORD PTR -32[rbp]
	lea	rcx, 0[0+rax*4]
	mov	rax, QWORD PTR -40[rbp]
	add	rax, rcx
	mov	QWORD PTR -120[rbp], rax
.LBB341:
.LBB342:
	.file 13 "C:/Qt/Tools/mingw1530_64/include/c++/15.3.0/bits/ptr_traits.h"
	.loc 13 264 29
	mov	rax, QWORD PTR -120[rbp]
	mov	QWORD PTR -88[rbp], rax
.LBB343:
.LBB344:
	.loc 13 236 14
	mov	rcx, QWORD PTR -88[rbp]
.LBE344:
.LBE343:
	.loc 13 264 35
	nop
.LBE342:
.LBE341:
	.loc 9 586 33 discriminator 2
	mov	rax, QWORD PTR 32[rbp]
	mov	QWORD PTR -56[rbp], rcx
	mov	QWORD PTR -64[rbp], rdx
	mov	QWORD PTR -72[rbp], rax
	mov	rax, QWORD PTR -64[rbp]
	mov	QWORD PTR -80[rbp], rax
.LBB345:
.LBB346:
.LBB347:
.LBB348:
	.loc 7 73 36
	mov	rdx, QWORD PTR -80[rbp]
.LBE348:
.LBE347:
	.loc 6 676 21 discriminator 1
	mov	rax, QWORD PTR -56[rbp]
	mov	rcx, rax
	call	_ZSt12construct_atI8CopyOnlyJS0_EQaant20is_unbounded_array_vIT_ErqXgsnwcvPvLi0E_S1_pispcl7declvalIT0_EEEEEPS1_S4_DpOS3_
	.loc 6 680 2
	nop
.LBE346:
.LBE345:
.LBB349:
.LBB350:
	.loc 9 626 54
	mov	rcx, QWORD PTR 32[rbp]
	.loc 9 626 43
	mov	rax, QWORD PTR -32[rbp]
	lea	rdx, 0[0+rax*4]
	.loc 9 626 18
	mov	rax, QWORD PTR -40[rbp]
	add	rdx, rax
	lea	rax, -192[rbp]
	mov	r8, rcx
	mov	rcx, rax
	call	_ZZNSt6vectorI8CopyOnlySaIS0_EE17_M_realloc_appendIJS0_EEEvDpOT_EN11_Guard_eltsC1EPS0_RS1_
	.loc 9 630 41
	mov	rax, QWORD PTR 32[rbp]
	mov	rcx, rax
	call	_ZNSt12_Vector_baseI8CopyOnlySaIS0_EE19_M_get_Tp_allocatorEv
	mov	rcx, rax
	.loc 9 628 60
	mov	r8, QWORD PTR -40[rbp]
	mov	rdx, QWORD PTR -24[rbp]
	mov	rax, QWORD PTR -16[rbp]
	mov	r9, rcx
	mov	rcx, rax
.LEHB5:
	call	_ZSt34__uninitialized_move_if_noexcept_aIP8CopyOnlyS1_SaIS0_EET0_T_S4_S3_RT1_
.LEHE5:
	.loc 9 628 60 is_stmt 0 discriminator 2
	mov	QWORD PTR -48[rbp], rax
	.loc 9 632 6 is_stmt 1
	add	QWORD PTR -48[rbp], 4
	.loc 9 635 28
	mov	rax, QWORD PTR -16[rbp]
	mov	QWORD PTR -192[rbp], rax
	.loc 9 636 27
	mov	rax, QWORD PTR -24[rbp]
	mov	QWORD PTR -184[rbp], rax
	.loc 9 637 4
	lea	rax, -192[rbp]
	mov	rcx, rax
	call	_ZZNSt6vectorI8CopyOnlySaIS0_EE17_M_realloc_appendIJS0_EEEvDpOT_EN11_Guard_eltsD1Ev
.LBE350:
.LBE349:
	.loc 9 638 21
	mov	rax, QWORD PTR -16[rbp]
	mov	QWORD PTR -160[rbp], rax
	.loc 9 639 33
	mov	rax, QWORD PTR 32[rbp]
	mov	rax, QWORD PTR 16[rax]
	.loc 9 639 51
	sub	rax, QWORD PTR -16[rbp]
	sar	rax, 2
	.loc 9 639 17
	mov	QWORD PTR -152[rbp], rax
	.loc 9 640 7
	lea	rax, -160[rbp]
	mov	rcx, rax
	call	_ZNSt6vectorI8CopyOnlySaIS0_EE12_Guard_allocD1Ev
.LBE338:
	.loc 9 644 30
	mov	rax, QWORD PTR 32[rbp]
	mov	rdx, QWORD PTR -40[rbp]
	mov	QWORD PTR [rax], rdx
	.loc 9 645 31
	mov	rax, QWORD PTR 32[rbp]
	mov	rdx, QWORD PTR -48[rbp]
	mov	QWORD PTR 8[rax], rdx
	.loc 9 646 53
	mov	rax, QWORD PTR -8[rbp]
	lea	rdx, 0[0+rax*4]
	mov	rax, QWORD PTR -40[rbp]
	add	rdx, rax
	.loc 9 646 39
	mov	rax, QWORD PTR 32[rbp]
	mov	QWORD PTR 16[rax], rdx
	.loc 9 647 5
	jmp	.L107
.L106:
.LBB353:
.LBB352:
.LBB351:
	.loc 9 637 4
	mov	rbx, rax
	lea	rax, -192[rbp]
	mov	rcx, rax
	call	_ZZNSt6vectorI8CopyOnlySaIS0_EE17_M_realloc_appendIJS0_EEEvDpOT_EN11_Guard_eltsD1Ev
.LBE351:
.LBE352:
	.loc 9 640 7
	lea	rax, -160[rbp]
	mov	rcx, rax
	call	_ZNSt6vectorI8CopyOnlySaIS0_EE12_Guard_allocD1Ev
	mov	rax, rbx
	mov	rcx, rax
.LEHB6:
	call	_Unwind_Resume
	nop
.LEHE6:
.L107:
.LBE353:
	.loc 9 647 5
	add	rsp, 232
	pop	rbx
	.cfi_restore 3
	pop	rbp
	.cfi_restore 6
	.cfi_def_cfa 7, -216
	ret
	.cfi_endproc
.LFE1844:
	.seh_handler	__gxx_personality_seh0, @unwind, @except
	.seh_handlerdata
.LLSDA1844:
	.byte	0xff
	.byte	0xff
	.byte	0x1
	.uleb128 .LLSDACSE1844-.LLSDACSB1844
.LLSDACSB1844:
	.uleb128 .LEHB4-.LFB1844
	.uleb128 .LEHE4-.LEHB4
	.uleb128 0
	.uleb128 0
	.uleb128 .LEHB5-.LFB1844
	.uleb128 .LEHE5-.LEHB5
	.uleb128 .L106-.LFB1844
	.uleb128 0
	.uleb128 .LEHB6-.LFB1844
	.uleb128 .LEHE6-.LEHB6
	.uleb128 0
	.uleb128 0
.LLSDACSE1844:
	.section	.text$_ZNSt6vectorI8CopyOnlySaIS0_EE17_M_realloc_appendIJS0_EEEvDpOT_,"x"
	.linkonce discard
	.seh_endproc
	.section .rdata,"dr"
.LC1:
	.ascii "!this->empty()\0"
	.align 8
.LC2:
	.ascii "constexpr std::vector<_Tp, _Alloc>::reference std::vector<_Tp, _Alloc>::back() [with _Tp = CopyOnly; _Alloc = std::allocator<CopyOnly>; reference = CopyOnly&]\0"
	.align 8
.LC3:
	.ascii "C:/Qt/Tools/mingw1530_64/include/c++/15.3.0/bits/stl_vector.h\0"
	.section	.text$_ZNSt6vectorI8CopyOnlySaIS0_EE4backEv,"x"
	.linkonce discard
	.align 2
	.globl	_ZNSt6vectorI8CopyOnlySaIS0_EE4backEv
	.def	_ZNSt6vectorI8CopyOnlySaIS0_EE4backEv;	.scl	2;	.type	32;	.endef
	.seh_proc	_ZNSt6vectorI8CopyOnlySaIS0_EE4backEv
_ZNSt6vectorI8CopyOnlySaIS0_EE4backEv:
.LFB1869:
	.loc 4 1368 7
	.cfi_startproc
	push	rbp
	.seh_pushreg	rbp
	.cfi_def_cfa_offset 16
	.cfi_offset 6, -16
	mov	rbp, rsp
	.seh_setframe	rbp, 0
	.cfi_def_cfa_register 6
	sub	rsp, 80
	.seh_stackalloc	80
	.seh_endprologue
	mov	QWORD PTR 16[rbp], rcx
	.loc 4 1370 2
	mov	rax, QWORD PTR 16[rbp]
	mov	rcx, rax
	call	_ZNKSt6vectorI8CopyOnlySaIS0_EE5emptyEv
	.loc 4 1370 2 is_stmt 0 discriminator 1
	movzx	eax, al
	.loc 4 1370 2 discriminator 2
	test	eax, eax
	setne	al
	test	al, al
	je	.L109
	.loc 4 1370 2 discriminator 3
	lea	rcx, .LC1[rip]
	lea	rdx, .LC2[rip]
	lea	rax, .LC3[rip]
	mov	r9, rcx
	mov	r8, rdx
	mov	edx, 1370
	mov	rcx, rax
	call	_ZSt21__glibcxx_assert_failPKciS0_S0_
.L109:
	.loc 4 1371 14 is_stmt 1
	mov	rax, QWORD PTR 16[rbp]
	mov	rcx, rax
	call	_ZNSt6vectorI8CopyOnlySaIS0_EE3endEv
	mov	QWORD PTR -32[rbp], rax
	mov	QWORD PTR -8[rbp], 1
.LBB354:
.LBB355:
	.loc 12 1160 34
	mov	rax, QWORD PTR -32[rbp]
	.loc 12 1160 47
	mov	rdx, QWORD PTR -8[rbp]
	.loc 12 1160 45
	sal	rdx, 2
	neg	rdx
	add	rax, rdx
	mov	QWORD PTR -24[rbp], rax
.LBB356:
.LBB357:
.LBB358:
	.loc 12 1059 9
	mov	rax, QWORD PTR -24[rbp]
	mov	QWORD PTR -16[rbp], rax
.LBE358:
	.loc 12 1059 27
	nop
.LBE357:
.LBE356:
	.loc 12 1160 50 discriminator 1
	mov	rax, QWORD PTR -16[rbp]
.LBE355:
.LBE354:
	.loc 4 1371 17 discriminator 1
	mov	QWORD PTR -40[rbp], rax
.LBB359:
.LBB360:
	.loc 12 1090 17
	mov	rax, QWORD PTR -40[rbp]
.LBE360:
.LBE359:
	.loc 4 1372 7
	add	rsp, 80
	pop	rbp
	.cfi_restore 6
	.cfi_def_cfa 7, 8
	ret
	.cfi_endproc
.LFE1869:
	.seh_endproc
	.section	.text$_ZSt8_DestroyIP12NoexceptMoveEvT_S2_,"x"
	.linkonce discard
	.globl	_ZSt8_DestroyIP12NoexceptMoveEvT_S2_
	.def	_ZSt8_DestroyIP12NoexceptMoveEvT_S2_;	.scl	2;	.type	32;	.endef
	.seh_proc	_ZSt8_DestroyIP12NoexceptMoveEvT_S2_
_ZSt8_DestroyIP12NoexceptMoveEvT_S2_:
.LFB1874:
	.loc 10 219 5
	.cfi_startproc
	push	rbp
	.seh_pushreg	rbp
	.cfi_def_cfa_offset 16
	.cfi_offset 6, -16
	mov	rbp, rsp
	.seh_setframe	rbp, 0
	.cfi_def_cfa_register 6
	sub	rsp, 48
	.seh_stackalloc	48
	.seh_endprologue
	mov	QWORD PTR 16[rbp], rcx
	mov	QWORD PTR 24[rbp], rdx
.LBB361:
.LBB362:
	.loc 8 586 49
	mov	eax, 0
.LBE362:
.LBE361:
	.loc 10 228 12 discriminator 1
	test	al, al
	je	.L119
	.loc 10 229 2
	jmp	.L116
.L118:
	mov	rax, QWORD PTR 16[rbp]
	mov	QWORD PTR -8[rbp], rax
.LBB363:
.LBB364:
	.loc 7 53 37
	mov	rax, QWORD PTR -8[rbp]
.LBE364:
.LBE363:
	.loc 10 230 19 discriminator 1
	mov	rcx, rax
	call	_ZSt10destroy_atI12NoexceptMoveEvPT_
	.loc 10 229 2 discriminator 2
	add	QWORD PTR 16[rbp], 4
.L116:
	.loc 10 229 17 discriminator 1
	mov	rax, QWORD PTR 16[rbp]
	cmp	rax, QWORD PTR 24[rbp]
	jne	.L118
.L119:
	.loc 10 236 5
	nop
	add	rsp, 48
	pop	rbp
	.cfi_restore 6
	.cfi_def_cfa 7, 8
	ret
	.cfi_endproc
.LFE1874:
	.seh_endproc
	.section	.text$_ZNKSt6vectorI12NoexceptMoveSaIS0_EE4sizeEv,"x"
	.linkonce discard
	.align 2
	.globl	_ZNKSt6vectorI12NoexceptMoveSaIS0_EE4sizeEv
	.def	_ZNKSt6vectorI12NoexceptMoveSaIS0_EE4sizeEv;	.scl	2;	.type	32;	.endef
	.seh_proc	_ZNKSt6vectorI12NoexceptMoveSaIS0_EE4sizeEv
_ZNKSt6vectorI12NoexceptMoveSaIS0_EE4sizeEv:
.LFB1879:
	.loc 4 1117 7
	.cfi_startproc
	push	rbp
	.seh_pushreg	rbp
	.cfi_def_cfa_offset 16
	.cfi_offset 6, -16
	mov	rbp, rsp
	.seh_setframe	rbp, 0
	.cfi_def_cfa_register 6
	sub	rsp, 16
	.seh_stackalloc	16
	.seh_endprologue
	mov	QWORD PTR 16[rbp], rcx
	.loc 4 1119 34
	mov	rax, QWORD PTR 16[rbp]
	mov	rdx, QWORD PTR 8[rax]
	.loc 4 1119 60
	mov	rax, QWORD PTR 16[rbp]
	mov	rax, QWORD PTR [rax]
	.loc 4 1119 44
	sub	rdx, rax
	.loc 4 1119 12
	mov	rax, rdx
	sar	rax, 2
	mov	QWORD PTR -8[rbp], rax
	.loc 4 1120 2
	cmp	QWORD PTR -8[rbp], 0
	.loc 4 1122 24
	mov	rax, QWORD PTR -8[rbp]
	.loc 4 1123 7
	add	rsp, 16
	pop	rbp
	.cfi_restore 6
	.cfi_def_cfa 7, 8
	ret
	.cfi_endproc
.LFE1879:
	.seh_endproc
	.section	.text$_ZNKSt6vectorI12NoexceptMoveSaIS0_EE12_M_check_lenEyPKc,"x"
	.linkonce discard
	.align 2
	.globl	_ZNKSt6vectorI12NoexceptMoveSaIS0_EE12_M_check_lenEyPKc
	.def	_ZNKSt6vectorI12NoexceptMoveSaIS0_EE12_M_check_lenEyPKc;	.scl	2;	.type	32;	.endef
	.seh_proc	_ZNKSt6vectorI12NoexceptMoveSaIS0_EE12_M_check_lenEyPKc
_ZNKSt6vectorI12NoexceptMoveSaIS0_EE12_M_check_lenEyPKc:
.LFB1878:
	.loc 4 2202 7
	.cfi_startproc
	push	rbp
	.seh_pushreg	rbp
	.cfi_def_cfa_offset 16
	.cfi_offset 6, -16
	push	rbx
	.seh_pushreg	rbx
	.cfi_def_cfa_offset 24
	.cfi_offset 3, -24
	sub	rsp, 56
	.seh_stackalloc	56
	.cfi_def_cfa_offset 80
	lea	rbp, 48[rsp]
	.seh_setframe	rbp, 48
	.cfi_def_cfa 6, 32
	.seh_endprologue
	mov	QWORD PTR 32[rbp], rcx
	mov	QWORD PTR 40[rbp], rdx
	mov	QWORD PTR 48[rbp], r8
	.loc 4 2204 14
	mov	rax, QWORD PTR 32[rbp]
	mov	rcx, rax
	call	_ZNKSt6vectorI12NoexceptMoveSaIS0_EE8max_sizeEv
	mov	rbx, rax
	.loc 4 2204 23 discriminator 1
	mov	rax, QWORD PTR 32[rbp]
	mov	rcx, rax
	call	_ZNKSt6vectorI12NoexceptMoveSaIS0_EE4sizeEv
	.loc 4 2204 17 discriminator 2
	sub	rbx, rax
	mov	rdx, rbx
	.loc 4 2204 26 discriminator 2
	mov	rax, QWORD PTR 40[rbp]
	cmp	rdx, rax
	setb	al
	.loc 4 2204 2 discriminator 2
	test	al, al
	je	.L124
	.loc 4 2205 24
	mov	rax, QWORD PTR 48[rbp]
	mov	rcx, rax
	call	_ZSt20__throw_length_errorPKc
.L124:
	.loc 4 2207 30
	mov	rax, QWORD PTR 32[rbp]
	mov	rcx, rax
	call	_ZNKSt6vectorI12NoexceptMoveSaIS0_EE4sizeEv
	mov	rbx, rax
	.loc 4 2207 50 discriminator 1
	mov	rax, QWORD PTR 32[rbp]
	mov	rcx, rax
	call	_ZNKSt6vectorI12NoexceptMoveSaIS0_EE4sizeEv
	.loc 4 2207 50 is_stmt 0 discriminator 2
	mov	QWORD PTR -16[rbp], rax
	.loc 4 2207 45 is_stmt 1 discriminator 2
	lea	rdx, 40[rbp]
	lea	rax, -16[rbp]
	mov	rcx, rax
	call	_ZSt3maxIyERKT_S2_S2_
	.loc 4 2207 33 discriminator 3
	mov	rax, QWORD PTR [rax]
	.loc 4 2207 18 discriminator 3
	add	rax, rbx
	mov	QWORD PTR -8[rbp], rax
	.loc 4 2208 22
	mov	rax, QWORD PTR 32[rbp]
	mov	rcx, rax
	call	_ZNKSt6vectorI12NoexceptMoveSaIS0_EE4sizeEv
	.loc 4 2208 48 discriminator 1
	cmp	QWORD PTR -8[rbp], rax
	jb	.L125
	.loc 4 2208 44 discriminator 3
	mov	rax, QWORD PTR 32[rbp]
	mov	rcx, rax
	call	_ZNKSt6vectorI12NoexceptMoveSaIS0_EE8max_sizeEv
	.loc 4 2208 25 discriminator 4
	cmp	rax, QWORD PTR -8[rbp]
	jnb	.L126
.L125:
	.loc 4 2208 58 discriminator 5
	mov	rax, QWORD PTR 32[rbp]
	mov	rcx, rax
	call	_ZNKSt6vectorI12NoexceptMoveSaIS0_EE8max_sizeEv
	.loc 4 2208 63
	jmp	.L128
.L126:
	.loc 4 2208 63 is_stmt 0 discriminator 6
	mov	rax, QWORD PTR -8[rbp]
.L128:
	.loc 4 2209 7 is_stmt 1
	add	rsp, 56
	pop	rbx
	.cfi_restore 3
	pop	rbp
	.cfi_restore 6
	.cfi_def_cfa 7, -40
	ret
	.cfi_endproc
.LFE1878:
	.seh_endproc
	.section	.text$_ZNKSt6vectorI12NoexceptMoveSaIS0_EE8max_sizeEv,"x"
	.linkonce discard
	.align 2
	.globl	_ZNKSt6vectorI12NoexceptMoveSaIS0_EE8max_sizeEv
	.def	_ZNKSt6vectorI12NoexceptMoveSaIS0_EE8max_sizeEv;	.scl	2;	.type	32;	.endef
	.seh_proc	_ZNKSt6vectorI12NoexceptMoveSaIS0_EE8max_sizeEv
_ZNKSt6vectorI12NoexceptMoveSaIS0_EE8max_sizeEv:
.LFB1880:
	.loc 4 1128 7
	.cfi_startproc
	push	rbp
	.seh_pushreg	rbp
	.cfi_def_cfa_offset 16
	.cfi_offset 6, -16
	mov	rbp, rsp
	.seh_setframe	rbp, 0
	.cfi_def_cfa_register 6
	sub	rsp, 32
	.seh_stackalloc	32
	.seh_endprologue
	mov	QWORD PTR 16[rbp], rcx
	.loc 4 1129 47
	mov	rax, QWORD PTR 16[rbp]
	mov	rcx, rax
	call	_ZNKSt12_Vector_baseI12NoexceptMoveSaIS0_EE19_M_get_Tp_allocatorEv
	.loc 4 1129 27 discriminator 1
	mov	rcx, rax
	call	_ZNSt6vectorI12NoexceptMoveSaIS0_EE11_S_max_sizeERKS1_
	.loc 4 1129 52
	add	rsp, 32
	pop	rbp
	.cfi_restore 6
	.cfi_def_cfa 7, 8
	ret
	.cfi_endproc
.LFE1880:
	.seh_endproc
	.section	.text$_ZNKSt12_Vector_baseI12NoexceptMoveSaIS0_EE19_M_get_Tp_allocatorEv,"x"
	.linkonce discard
	.align 2
	.globl	_ZNKSt12_Vector_baseI12NoexceptMoveSaIS0_EE19_M_get_Tp_allocatorEv
	.def	_ZNKSt12_Vector_baseI12NoexceptMoveSaIS0_EE19_M_get_Tp_allocatorEv;	.scl	2;	.type	32;	.endef
	.seh_proc	_ZNKSt12_Vector_baseI12NoexceptMoveSaIS0_EE19_M_get_Tp_allocatorEv
_ZNKSt12_Vector_baseI12NoexceptMoveSaIS0_EE19_M_get_Tp_allocatorEv:
.LFB1881:
	.loc 4 312 7
	.cfi_startproc
	push	rbp
	.seh_pushreg	rbp
	.cfi_def_cfa_offset 16
	.cfi_offset 6, -16
	mov	rbp, rsp
	.seh_setframe	rbp, 0
	.cfi_def_cfa_register 6
	.seh_endprologue
	mov	QWORD PTR 16[rbp], rcx
	.loc 4 313 22
	mov	rax, QWORD PTR 16[rbp]
	.loc 4 313 31
	pop	rbp
	.cfi_restore 6
	.cfi_def_cfa 7, 8
	ret
	.cfi_endproc
.LFE1881:
	.seh_endproc
	.section	.text$_ZNSt6vectorI12NoexceptMoveSaIS0_EE11_S_max_sizeERKS1_,"x"
	.linkonce discard
	.globl	_ZNSt6vectorI12NoexceptMoveSaIS0_EE11_S_max_sizeERKS1_
	.def	_ZNSt6vectorI12NoexceptMoveSaIS0_EE11_S_max_sizeERKS1_;	.scl	2;	.type	32;	.endef
	.seh_proc	_ZNSt6vectorI12NoexceptMoveSaIS0_EE11_S_max_sizeERKS1_
_ZNSt6vectorI12NoexceptMoveSaIS0_EE11_S_max_sizeERKS1_:
.LFB1882:
	.loc 4 2222 7
	.cfi_startproc
	push	rbp
	.seh_pushreg	rbp
	.cfi_def_cfa_offset 16
	.cfi_offset 6, -16
	mov	rbp, rsp
	.seh_setframe	rbp, 0
	.cfi_def_cfa_register 6
	sub	rsp, 48
	.seh_stackalloc	48
	.seh_endprologue
	mov	QWORD PTR 16[rbp], rcx
	.loc 4 2227 15
	movabs	rax, 2305843009213693951
	mov	QWORD PTR -8[rbp], rax
	.loc 4 2229 15
	movabs	rax, 4611686018427387903
	mov	QWORD PTR -16[rbp], rax
	.loc 4 2230 19
	lea	rdx, -16[rbp]
	lea	rax, -8[rbp]
	mov	rcx, rax
	call	_ZSt3minIyERKT_S2_S2_
	.loc 4 2230 41 discriminator 1
	mov	rax, QWORD PTR [rax]
	.loc 4 2231 7
	add	rsp, 48
	pop	rbp
	.cfi_restore 6
	.cfi_def_cfa 7, 8
	ret
	.cfi_endproc
.LFE1882:
	.seh_endproc
	.section	.text$_ZNSt6vectorI12NoexceptMoveSaIS0_EE3endEv,"x"
	.linkonce discard
	.align 2
	.globl	_ZNSt6vectorI12NoexceptMoveSaIS0_EE3endEv
	.def	_ZNSt6vectorI12NoexceptMoveSaIS0_EE3endEv;	.scl	2;	.type	32;	.endef
	.seh_proc	_ZNSt6vectorI12NoexceptMoveSaIS0_EE3endEv
_ZNSt6vectorI12NoexceptMoveSaIS0_EE3endEv:
.LFB1885:
	.loc 4 1018 7
	.cfi_startproc
	push	rbp
	.seh_pushreg	rbp
	.cfi_def_cfa_offset 16
	.cfi_offset 6, -16
	mov	rbp, rsp
	.seh_setframe	rbp, 0
	.cfi_def_cfa_register 6
	sub	rsp, 16
	.seh_stackalloc	16
	.seh_endprologue
	mov	QWORD PTR 16[rbp], rcx
	.loc 4 1019 39
	mov	rax, QWORD PTR 16[rbp]
	add	rax, 8
	mov	QWORD PTR -8[rbp], rax
.LBB365:
.LBB366:
.LBB367:
	.loc 12 1059 9
	mov	rax, QWORD PTR -8[rbp]
	mov	rax, QWORD PTR [rax]
	mov	QWORD PTR -16[rbp], rax
.LBE367:
	.loc 12 1059 27
	nop
.LBE366:
.LBE365:
	.loc 4 1019 48 discriminator 1
	mov	rax, QWORD PTR -16[rbp]
	.loc 4 1019 51
	add	rsp, 16
	pop	rbp
	.cfi_restore 6
	.cfi_def_cfa 7, 8
	ret
	.cfi_endproc
.LFE1885:
	.seh_endproc
	.section	.text$_ZNSt6vectorI12NoexceptMoveSaIS0_EE5beginEv,"x"
	.linkonce discard
	.align 2
	.globl	_ZNSt6vectorI12NoexceptMoveSaIS0_EE5beginEv
	.def	_ZNSt6vectorI12NoexceptMoveSaIS0_EE5beginEv;	.scl	2;	.type	32;	.endef
	.seh_proc	_ZNSt6vectorI12NoexceptMoveSaIS0_EE5beginEv
_ZNSt6vectorI12NoexceptMoveSaIS0_EE5beginEv:
.LFB1886:
	.loc 4 998 7
	.cfi_startproc
	push	rbp
	.seh_pushreg	rbp
	.cfi_def_cfa_offset 16
	.cfi_offset 6, -16
	mov	rbp, rsp
	.seh_setframe	rbp, 0
	.cfi_def_cfa_register 6
	sub	rsp, 16
	.seh_stackalloc	16
	.seh_endprologue
	mov	QWORD PTR 16[rbp], rcx
	.loc 4 999 39
	mov	rax, QWORD PTR 16[rbp]
	mov	QWORD PTR -8[rbp], rax
.LBB368:
.LBB369:
.LBB370:
	.loc 12 1059 9
	mov	rax, QWORD PTR -8[rbp]
	mov	rax, QWORD PTR [rax]
	mov	QWORD PTR -16[rbp], rax
.LBE370:
	.loc 12 1059 27
	nop
.LBE369:
.LBE368:
	.loc 4 999 47 discriminator 1
	mov	rax, QWORD PTR -16[rbp]
	.loc 4 999 50
	add	rsp, 16
	pop	rbp
	.cfi_restore 6
	.cfi_def_cfa 7, 8
	ret
	.cfi_endproc
.LFE1886:
	.seh_endproc
	.section	.text$_ZNSt6vectorI12NoexceptMoveSaIS0_EE17_M_realloc_appendIJS0_EEEvDpOT_,"x"
	.linkonce discard
	.align 2
	.globl	_ZNSt6vectorI12NoexceptMoveSaIS0_EE17_M_realloc_appendIJS0_EEEvDpOT_
	.def	_ZNSt6vectorI12NoexceptMoveSaIS0_EE17_M_realloc_appendIJS0_EEEvDpOT_;	.scl	2;	.type	32;	.endef
	.seh_proc	_ZNSt6vectorI12NoexceptMoveSaIS0_EE17_M_realloc_appendIJS0_EEEvDpOT_
_ZNSt6vectorI12NoexceptMoveSaIS0_EE17_M_realloc_appendIJS0_EEEvDpOT_:
.LFB1877:
	.loc 9 557 7
	.cfi_startproc
	push	rbp
	.seh_pushreg	rbp
	.cfi_def_cfa_offset 16
	.cfi_offset 6, -16
	mov	rbp, rsp
	.seh_setframe	rbp, 0
	.cfi_def_cfa_register 6
	sub	rsp, 192
	.seh_stackalloc	192
	.seh_endprologue
	mov	QWORD PTR 16[rbp], rcx
	mov	QWORD PTR 24[rbp], rdx
	.loc 9 566 43
	lea	rdx, .LC0[rip]
	mov	rax, QWORD PTR 16[rbp]
	mov	r8, rdx
	mov	edx, 1
	mov	rcx, rax
	call	_ZNKSt6vectorI12NoexceptMoveSaIS0_EE12_M_check_lenEyPKc
	.loc 9 566 43 is_stmt 0 discriminator 1
	mov	QWORD PTR -8[rbp], rax
	.loc 9 567 7 is_stmt 1
	cmp	QWORD PTR -8[rbp], 0
	.loc 9 569 15
	mov	rax, QWORD PTR 16[rbp]
	mov	rax, QWORD PTR [rax]
	mov	QWORD PTR -16[rbp], rax
	.loc 9 570 15
	mov	rax, QWORD PTR 16[rbp]
	mov	rax, QWORD PTR 8[rax]
	mov	QWORD PTR -24[rbp], rax
	.loc 9 571 46
	mov	rax, QWORD PTR 16[rbp]
	mov	rcx, rax
	call	_ZNSt6vectorI12NoexceptMoveSaIS0_EE5beginEv
	mov	QWORD PTR -136[rbp], rax
	.loc 9 571 36 discriminator 1
	mov	rax, QWORD PTR 16[rbp]
	mov	rcx, rax
	call	_ZNSt6vectorI12NoexceptMoveSaIS0_EE3endEv
	mov	QWORD PTR -128[rbp], rax
	lea	rax, -128[rbp]
	mov	QWORD PTR -104[rbp], rax
.LBB371:
.LBB372:
.LBB373:
.LBB374:
	.loc 12 1166 16
	mov	rax, QWORD PTR -104[rbp]
.LBE374:
.LBE373:
	.loc 12 1340 27 discriminator 1
	mov	rdx, QWORD PTR [rax]
	lea	rax, -136[rbp]
	mov	QWORD PTR -112[rbp], rax
.LBB375:
.LBB376:
	.loc 12 1166 16
	mov	rax, QWORD PTR -112[rbp]
.LBE376:
.LBE375:
	.loc 12 1340 27 discriminator 2
	mov	rax, QWORD PTR [rax]
	sub	rdx, rax
	.loc 12 1340 40 discriminator 2
	mov	rax, rdx
	sar	rax, 2
.LBE372:
.LBE371:
	.loc 9 571 23 discriminator 3
	mov	QWORD PTR -32[rbp], rax
	.loc 9 572 44
	mov	rax, QWORD PTR 16[rbp]
	mov	rdx, QWORD PTR -8[rbp]
	mov	rcx, rax
	call	_ZNSt12_Vector_baseI12NoexceptMoveSaIS0_EE11_M_allocateEy
	.loc 9 572 44 is_stmt 0 discriminator 1
	mov	QWORD PTR -40[rbp], rax
	.loc 9 573 15 is_stmt 1
	mov	rax, QWORD PTR -40[rbp]
	mov	QWORD PTR -48[rbp], rax
.LBB377:
	.loc 9 576 15
	mov	r8, QWORD PTR 16[rbp]
	mov	rcx, QWORD PTR -8[rbp]
	mov	rdx, QWORD PTR -40[rbp]
	lea	rax, -160[rbp]
	mov	r9, r8
	mov	r8, rcx
	mov	rcx, rax
	call	_ZNSt6vectorI12NoexceptMoveSaIS0_EE12_Guard_allocC1EPS0_yRSt12_Vector_baseIS0_S1_E
	mov	rax, QWORD PTR 24[rbp]
	mov	QWORD PTR -96[rbp], rax
.LBB378:
.LBB379:
	.loc 7 73 36
	mov	rdx, QWORD PTR -96[rbp]
.LBE379:
.LBE378:
	.loc 9 587 36
	mov	rax, QWORD PTR -32[rbp]
	lea	rcx, 0[0+rax*4]
	mov	rax, QWORD PTR -40[rbp]
	add	rax, rcx
	mov	QWORD PTR -120[rbp], rax
.LBB380:
.LBB381:
	.loc 13 264 29
	mov	rax, QWORD PTR -120[rbp]
	mov	QWORD PTR -88[rbp], rax
.LBB382:
.LBB383:
	.loc 13 236 14
	mov	rcx, QWORD PTR -88[rbp]
.LBE383:
.LBE382:
	.loc 13 264 35
	nop
.LBE381:
.LBE380:
	.loc 9 586 33 discriminator 2
	mov	rax, QWORD PTR 16[rbp]
	mov	QWORD PTR -56[rbp], rcx
	mov	QWORD PTR -64[rbp], rdx
	mov	QWORD PTR -72[rbp], rax
	mov	rax, QWORD PTR -64[rbp]
	mov	QWORD PTR -80[rbp], rax
.LBB384:
.LBB385:
.LBB386:
.LBB387:
	.loc 7 73 36
	mov	rdx, QWORD PTR -80[rbp]
.LBE387:
.LBE386:
	.loc 6 676 21 discriminator 1
	mov	rax, QWORD PTR -56[rbp]
	mov	rcx, rax
	call	_ZSt12construct_atI12NoexceptMoveJS0_EQaant20is_unbounded_array_vIT_ErqXgsnwcvPvLi0E_S1_pispcl7declvalIT0_EEEEEPS1_S4_DpOS3_
	.loc 6 680 2
	nop
.LBE385:
.LBE384:
	.loc 9 600 44
	mov	rax, QWORD PTR 16[rbp]
	mov	rcx, rax
	call	_ZNSt12_Vector_baseI12NoexceptMoveSaIS0_EE19_M_get_Tp_allocatorEv
	mov	rcx, rax
	.loc 9 599 32
	mov	r8, QWORD PTR -40[rbp]
	mov	rdx, QWORD PTR -24[rbp]
	mov	rax, QWORD PTR -16[rbp]
	mov	r9, rcx
	mov	rcx, rax
	call	_ZNSt6vectorI12NoexceptMoveSaIS0_EE11_S_relocateEPS0_S3_S3_RS1_
	mov	QWORD PTR -48[rbp], rax
	.loc 9 601 6
	add	QWORD PTR -48[rbp], 4
	.loc 9 638 21
	mov	rax, QWORD PTR -16[rbp]
	mov	QWORD PTR -160[rbp], rax
	.loc 9 639 33
	mov	rax, QWORD PTR 16[rbp]
	mov	rax, QWORD PTR 16[rax]
	.loc 9 639 51
	sub	rax, QWORD PTR -16[rbp]
	sar	rax, 2
	.loc 9 639 17
	mov	QWORD PTR -152[rbp], rax
	.loc 9 640 7
	lea	rax, -160[rbp]
	mov	rcx, rax
	call	_ZNSt6vectorI12NoexceptMoveSaIS0_EE12_Guard_allocD1Ev
.LBE377:
	.loc 9 644 30
	mov	rax, QWORD PTR 16[rbp]
	mov	rdx, QWORD PTR -40[rbp]
	mov	QWORD PTR [rax], rdx
	.loc 9 645 31
	mov	rax, QWORD PTR 16[rbp]
	mov	rdx, QWORD PTR -48[rbp]
	mov	QWORD PTR 8[rax], rdx
	.loc 9 646 53
	mov	rax, QWORD PTR -8[rbp]
	lea	rdx, 0[0+rax*4]
	mov	rax, QWORD PTR -40[rbp]
	add	rdx, rax
	.loc 9 646 39
	mov	rax, QWORD PTR 16[rbp]
	mov	QWORD PTR 16[rax], rdx
	.loc 9 647 5
	nop
	add	rsp, 192
	pop	rbp
	.cfi_restore 6
	.cfi_def_cfa 7, 8
	ret
	.cfi_endproc
.LFE1877:
	.seh_endproc
	.section .rdata,"dr"
	.align 8
.LC4:
	.ascii "constexpr std::vector<_Tp, _Alloc>::reference std::vector<_Tp, _Alloc>::back() [with _Tp = NoexceptMove; _Alloc = std::allocator<NoexceptMove>; reference = NoexceptMove&]\0"
	.section	.text$_ZNSt6vectorI12NoexceptMoveSaIS0_EE4backEv,"x"
	.linkonce discard
	.align 2
	.globl	_ZNSt6vectorI12NoexceptMoveSaIS0_EE4backEv
	.def	_ZNSt6vectorI12NoexceptMoveSaIS0_EE4backEv;	.scl	2;	.type	32;	.endef
	.seh_proc	_ZNSt6vectorI12NoexceptMoveSaIS0_EE4backEv
_ZNSt6vectorI12NoexceptMoveSaIS0_EE4backEv:
.LFB1894:
	.loc 4 1368 7
	.cfi_startproc
	push	rbp
	.seh_pushreg	rbp
	.cfi_def_cfa_offset 16
	.cfi_offset 6, -16
	mov	rbp, rsp
	.seh_setframe	rbp, 0
	.cfi_def_cfa_register 6
	sub	rsp, 80
	.seh_stackalloc	80
	.seh_endprologue
	mov	QWORD PTR 16[rbp], rcx
	.loc 4 1370 2
	mov	rax, QWORD PTR 16[rbp]
	mov	rcx, rax
	call	_ZNKSt6vectorI12NoexceptMoveSaIS0_EE5emptyEv
	.loc 4 1370 2 is_stmt 0 discriminator 1
	movzx	eax, al
	.loc 4 1370 2 discriminator 2
	test	eax, eax
	setne	al
	test	al, al
	je	.L149
	.loc 4 1370 2 discriminator 3
	lea	rcx, .LC1[rip]
	lea	rdx, .LC4[rip]
	lea	rax, .LC3[rip]
	mov	r9, rcx
	mov	r8, rdx
	mov	edx, 1370
	mov	rcx, rax
	call	_ZSt21__glibcxx_assert_failPKciS0_S0_
.L149:
	.loc 4 1371 14 is_stmt 1
	mov	rax, QWORD PTR 16[rbp]
	mov	rcx, rax
	call	_ZNSt6vectorI12NoexceptMoveSaIS0_EE3endEv
	mov	QWORD PTR -32[rbp], rax
	mov	QWORD PTR -8[rbp], 1
.LBB388:
.LBB389:
	.loc 12 1160 34
	mov	rax, QWORD PTR -32[rbp]
	.loc 12 1160 47
	mov	rdx, QWORD PTR -8[rbp]
	.loc 12 1160 45
	sal	rdx, 2
	neg	rdx
	add	rax, rdx
	mov	QWORD PTR -24[rbp], rax
.LBB390:
.LBB391:
.LBB392:
	.loc 12 1059 9
	mov	rax, QWORD PTR -24[rbp]
	mov	QWORD PTR -16[rbp], rax
.LBE392:
	.loc 12 1059 27
	nop
.LBE391:
.LBE390:
	.loc 12 1160 50 discriminator 1
	mov	rax, QWORD PTR -16[rbp]
.LBE389:
.LBE388:
	.loc 4 1371 17 discriminator 1
	mov	QWORD PTR -40[rbp], rax
.LBB393:
.LBB394:
	.loc 12 1090 17
	mov	rax, QWORD PTR -40[rbp]
.LBE394:
.LBE393:
	.loc 4 1372 7
	add	rsp, 80
	pop	rbp
	.cfi_restore 6
	.cfi_def_cfa 7, 8
	ret
	.cfi_endproc
.LFE1894:
	.seh_endproc
	.section	.text$_ZSt10destroy_atI8CopyOnlyEvPT_,"x"
	.linkonce discard
	.globl	_ZSt10destroy_atI8CopyOnlyEvPT_
	.def	_ZSt10destroy_atI8CopyOnlyEvPT_;	.scl	2;	.type	32;	.endef
	.seh_proc	_ZSt10destroy_atI8CopyOnlyEvPT_
_ZSt10destroy_atI8CopyOnlyEvPT_:
.LFB1900:
	.loc 10 80 5
	.cfi_startproc
	push	rbp
	.seh_pushreg	rbp
	.cfi_def_cfa_offset 16
	.cfi_offset 6, -16
	mov	rbp, rsp
	.seh_setframe	rbp, 0
	.cfi_def_cfa_register 6
	.seh_endprologue
	mov	QWORD PTR 16[rbp], rcx
	.loc 10 89 5
	nop
	pop	rbp
	.cfi_restore 6
	.cfi_def_cfa 7, 8
	ret
	.cfi_endproc
.LFE1900:
	.seh_endproc
	.section	.text$_ZSt12construct_atI8CopyOnlyJS0_EQaant20is_unbounded_array_vIT_ErqXgsnwcvPvLi0E_S1_pispcl7declvalIT0_EEEEEPS1_S4_DpOS3_,"x"
	.linkonce discard
	.globl	_ZSt12construct_atI8CopyOnlyJS0_EQaant20is_unbounded_array_vIT_ErqXgsnwcvPvLi0E_S1_pispcl7declvalIT0_EEEEEPS1_S4_DpOS3_
	.def	_ZSt12construct_atI8CopyOnlyJS0_EQaant20is_unbounded_array_vIT_ErqXgsnwcvPvLi0E_S1_pispcl7declvalIT0_EEEEEPS1_S4_DpOS3_;	.scl	2;	.type	32;	.endef
	.seh_proc	_ZSt12construct_atI8CopyOnlyJS0_EQaant20is_unbounded_array_vIT_ErqXgsnwcvPvLi0E_S1_pispcl7declvalIT0_EEEEEPS1_S4_DpOS3_
_ZSt12construct_atI8CopyOnlyJS0_EQaant20is_unbounded_array_vIT_ErqXgsnwcvPvLi0E_S1_pispcl7declvalIT0_EEEEEPS1_S4_DpOS3_:
.LFB1901:
	.loc 10 96 5
	.cfi_startproc
	push	rbp
	.seh_pushreg	rbp
	.cfi_def_cfa_offset 16
	.cfi_offset 6, -16
	push	rsi
	.seh_pushreg	rsi
	.cfi_def_cfa_offset 24
	.cfi_offset 4, -24
	push	rbx
	.seh_pushreg	rbx
	.cfi_def_cfa_offset 32
	.cfi_offset 3, -32
	sub	rsp, 48
	.seh_stackalloc	48
	.cfi_def_cfa_offset 80
	lea	rbp, 48[rsp]
	.seh_setframe	rbp, 48
	.cfi_def_cfa 6, 32
	.seh_endprologue
	mov	QWORD PTR 32[rbp], rcx
	mov	QWORD PTR 40[rbp], rdx
	.loc 10 99 13
	mov	rax, QWORD PTR 32[rbp]
	mov	QWORD PTR -8[rbp], rax
	.loc 10 110 15
	mov	rsi, QWORD PTR -8[rbp]
	.loc 10 110 9
	mov	rdx, rsi
	mov	ecx, 4
	call	_ZnwyPv
	mov	rbx, rax
	mov	rax, QWORD PTR 40[rbp]
	mov	QWORD PTR -16[rbp], rax
.LBB395:
.LBB396:
	.loc 7 73 36
	mov	rax, QWORD PTR -16[rbp]
.LBE396:
.LBE395:
	.loc 10 110 9 discriminator 2
	mov	eax, DWORD PTR [rax]
	mov	DWORD PTR [rbx], eax
	.loc 10 110 56 discriminator 2
	mov	eax, 0
	.loc 10 110 56 is_stmt 0 discriminator 3
	test	al, al
	je	.L157
	.loc 10 110 9 is_stmt 1 discriminator 4
	mov	rdx, rsi
	mov	rcx, rbx
	call	_ZdlPvS_
.L157:
	.loc 10 110 56 discriminator 8
	mov	rax, rbx
	.loc 10 111 5
	add	rsp, 48
	pop	rbx
	.cfi_restore 3
	pop	rsi
	.cfi_restore 4
	pop	rbp
	.cfi_restore 6
	.cfi_def_cfa 7, -24
	ret
	.cfi_endproc
.LFE1901:
	.seh_endproc
	.weak	_ZSt12construct_atI8CopyOnlyJS0_EEPT_S2_DpOT0_
	.def	_ZSt12construct_atI8CopyOnlyJS0_EEPT_S2_DpOT0_;	.scl	2;	.type	32;	.endef
	.set	_ZSt12construct_atI8CopyOnlyJS0_EEPT_S2_DpOT0_,_ZSt12construct_atI8CopyOnlyJS0_EQaant20is_unbounded_array_vIT_ErqXgsnwcvPvLi0E_S1_pispcl7declvalIT0_EEEEEPS1_S4_DpOS3_
	.section	.text$_ZNSt12_Vector_baseI8CopyOnlySaIS0_EE11_M_allocateEy,"x"
	.linkonce discard
	.align 2
	.globl	_ZNSt12_Vector_baseI8CopyOnlySaIS0_EE11_M_allocateEy
	.def	_ZNSt12_Vector_baseI8CopyOnlySaIS0_EE11_M_allocateEy;	.scl	2;	.type	32;	.endef
	.seh_proc	_ZNSt12_Vector_baseI8CopyOnlySaIS0_EE11_M_allocateEy
_ZNSt12_Vector_baseI8CopyOnlySaIS0_EE11_M_allocateEy:
.LFB1903:
	.loc 4 384 7
	.cfi_startproc
	push	rbp
	.seh_pushreg	rbp
	.cfi_def_cfa_offset 16
	.cfi_offset 6, -16
	mov	rbp, rsp
	.seh_setframe	rbp, 0
	.cfi_def_cfa_register 6
	sub	rsp, 64
	.seh_stackalloc	64
	.seh_endprologue
	mov	QWORD PTR 16[rbp], rcx
	mov	QWORD PTR 24[rbp], rdx
	.loc 4 387 18
	cmp	QWORD PTR 24[rbp], 0
	je	.L159
	.loc 4 387 34 discriminator 1
	mov	rax, QWORD PTR 16[rbp]
	mov	QWORD PTR -8[rbp], rax
	mov	rax, QWORD PTR 24[rbp]
	mov	QWORD PTR -16[rbp], rax
	mov	rax, QWORD PTR -8[rbp]
	mov	QWORD PTR -24[rbp], rax
	mov	rax, QWORD PTR -16[rbp]
	mov	QWORD PTR -32[rbp], rax
.LBB397:
.LBB398:
.LBB399:
.LBB400:
.LBB401:
.LBB402:
	.loc 8 586 49
	mov	eax, 0
.LBE402:
.LBE401:
	.loc 5 196 2 discriminator 1
	test	al, al
	je	.L161
	.loc 5 198 32
	mov	rax, QWORD PTR -32[rbp]
	mov	ecx, 0
	lea	rdx, 0[0+rax*4]
	shr	rax, 62
	test	rax, rax
	je	.L162
	mov	ecx, 1
.L162:
	mov	rax, rdx
	.loc 5 198 32 is_stmt 0 discriminator 1
	mov	QWORD PTR -32[rbp], rax
	mov	rax, rcx
	and	eax, 1
	.loc 5 198 6 is_stmt 1 discriminator 1
	test	al, al
	je	.L164
	.loc 5 199 41
	call	_ZSt28__throw_bad_array_new_lengthv
.L164:
	.loc 5 200 45
	mov	rax, QWORD PTR -32[rbp]
	mov	rcx, rax
	call	_Znwy
	.loc 5 200 50
	jmp	.L165
.L161:
	.loc 5 203 40
	mov	rdx, QWORD PTR -32[rbp]
	mov	rax, QWORD PTR -24[rbp]
	mov	r8d, 0
	mov	rcx, rax
	call	_ZNSt15__new_allocatorI8CopyOnlyE8allocateEyPKv
	.loc 5 203 47
	nop
.L165:
.LBE400:
.LBE399:
	.loc 6 614 32
	nop
	jmp	.L167
.L159:
.LBE398:
.LBE397:
	.loc 4 387 58 discriminator 2
	mov	eax, 0
.L167:
	.loc 4 388 7
	add	rsp, 64
	pop	rbp
	.cfi_restore 6
	.cfi_def_cfa 7, 8
	ret
	.cfi_endproc
.LFE1903:
	.seh_endproc
	.section	.text$_ZNSt6vectorI8CopyOnlySaIS0_EE12_Guard_allocC1EPS0_yRSt12_Vector_baseIS0_S1_E,"x"
	.linkonce discard
	.align 2
	.globl	_ZNSt6vectorI8CopyOnlySaIS0_EE12_Guard_allocC1EPS0_yRSt12_Vector_baseIS0_S1_E
	.def	_ZNSt6vectorI8CopyOnlySaIS0_EE12_Guard_allocC1EPS0_yRSt12_Vector_baseIS0_S1_E;	.scl	2;	.type	32;	.endef
	.seh_proc	_ZNSt6vectorI8CopyOnlySaIS0_EE12_Guard_allocC1EPS0_yRSt12_Vector_baseIS0_S1_E
_ZNSt6vectorI8CopyOnlySaIS0_EE12_Guard_allocC1EPS0_yRSt12_Vector_baseIS0_S1_E:
.LFB1906:
	.loc 4 1875 2
	.cfi_startproc
	push	rbp
	.seh_pushreg	rbp
	.cfi_def_cfa_offset 16
	.cfi_offset 6, -16
	mov	rbp, rsp
	.seh_setframe	rbp, 0
	.cfi_def_cfa_register 6
	.seh_endprologue
	mov	QWORD PTR 16[rbp], rcx
	mov	QWORD PTR 24[rbp], rdx
	mov	QWORD PTR 32[rbp], r8
	mov	QWORD PTR 40[rbp], r9
.LBB403:
	.loc 4 1876 4
	mov	rax, QWORD PTR 16[rbp]
	mov	rdx, QWORD PTR 24[rbp]
	mov	QWORD PTR [rax], rdx
	.loc 4 1876 21
	mov	rax, QWORD PTR 16[rbp]
	mov	rdx, QWORD PTR 32[rbp]
	mov	QWORD PTR 8[rax], rdx
	.loc 4 1876 34
	mov	rax, QWORD PTR 16[rbp]
	mov	rdx, QWORD PTR 40[rbp]
	mov	QWORD PTR 16[rax], rdx
.LBE403:
	.loc 4 1877 4
	nop
	pop	rbp
	.cfi_restore 6
	.cfi_def_cfa 7, 8
	ret
	.cfi_endproc
.LFE1906:
	.seh_endproc
	.section	.text$_ZNSt6vectorI8CopyOnlySaIS0_EE12_Guard_allocD1Ev,"x"
	.linkonce discard
	.align 2
	.globl	_ZNSt6vectorI8CopyOnlySaIS0_EE12_Guard_allocD1Ev
	.def	_ZNSt6vectorI8CopyOnlySaIS0_EE12_Guard_allocD1Ev;	.scl	2;	.type	32;	.endef
	.seh_proc	_ZNSt6vectorI8CopyOnlySaIS0_EE12_Guard_allocD1Ev
_ZNSt6vectorI8CopyOnlySaIS0_EE12_Guard_allocD1Ev:
.LFB1909:
	.loc 4 1880 2
	.cfi_startproc
	push	rbp
	.seh_pushreg	rbp
	.cfi_def_cfa_offset 16
	.cfi_offset 6, -16
	mov	rbp, rsp
	.seh_setframe	rbp, 0
	.cfi_def_cfa_register 6
	sub	rsp, 32
	.seh_stackalloc	32
	.seh_endprologue
	mov	QWORD PTR 16[rbp], rcx
.LBB404:
	.loc 4 1882 8
	mov	rax, QWORD PTR 16[rbp]
	mov	rax, QWORD PTR [rax]
	.loc 4 1882 4
	test	rax, rax
	je	.L172
	.loc 4 1883 6
	mov	rax, QWORD PTR 16[rbp]
	mov	rax, QWORD PTR 16[rax]
	.loc 4 1883 40
	mov	rdx, QWORD PTR 16[rbp]
	mov	rcx, QWORD PTR 8[rdx]
	.loc 4 1883 28
	mov	rdx, QWORD PTR 16[rbp]
	mov	rdx, QWORD PTR [rdx]
	.loc 4 1883 27
	mov	r8, rcx
	mov	rcx, rax
	call	_ZNSt12_Vector_baseI8CopyOnlySaIS0_EE13_M_deallocateEPS0_y
.L172:
.LBE404:
	.loc 4 1884 2
	nop
	add	rsp, 32
	pop	rbp
	.cfi_restore 6
	.cfi_def_cfa 7, 8
	ret
	.cfi_endproc
.LFE1909:
	.seh_endproc
	.section	.text$_ZSt34__uninitialized_move_if_noexcept_aIP8CopyOnlyS1_SaIS0_EET0_T_S4_S3_RT1_,"x"
	.linkonce discard
	.globl	_ZSt34__uninitialized_move_if_noexcept_aIP8CopyOnlyS1_SaIS0_EET0_T_S4_S3_RT1_
	.def	_ZSt34__uninitialized_move_if_noexcept_aIP8CopyOnlyS1_SaIS0_EET0_T_S4_S3_RT1_;	.scl	2;	.type	32;	.endef
	.seh_proc	_ZSt34__uninitialized_move_if_noexcept_aIP8CopyOnlyS1_SaIS0_EET0_T_S4_S3_RT1_
_ZSt34__uninitialized_move_if_noexcept_aIP8CopyOnlyS1_SaIS0_EET0_T_S4_S3_RT1_:
.LFB1911:
	.file 14 "C:/Qt/Tools/mingw1530_64/include/c++/15.3.0/bits/stl_uninitialized.h"
	.loc 14 685 5
	.cfi_startproc
	push	rbp
	.seh_pushreg	rbp
	.cfi_def_cfa_offset 16
	.cfi_offset 6, -16
	push	rbx
	.seh_pushreg	rbx
	.cfi_def_cfa_offset 24
	.cfi_offset 3, -24
	sub	rsp, 40
	.seh_stackalloc	40
	.cfi_def_cfa_offset 64
	lea	rbp, 32[rsp]
	.seh_setframe	rbp, 32
	.cfi_def_cfa 6, 32
	.seh_endprologue
	mov	QWORD PTR 32[rbp], rcx
	mov	QWORD PTR 40[rbp], rdx
	mov	QWORD PTR 48[rbp], r8
	mov	QWORD PTR 56[rbp], r9
	.loc 14 691 2
	mov	rax, QWORD PTR 40[rbp]
	mov	rcx, rax
	call	_ZSt32__make_move_if_noexcept_iteratorI8CopyOnlyPKS0_ET0_PT_
	mov	rbx, rax
	.loc 14 691 2 is_stmt 0 discriminator 1
	mov	rax, QWORD PTR 32[rbp]
	mov	rcx, rax
	call	_ZSt32__make_move_if_noexcept_iteratorI8CopyOnlyPKS0_ET0_PT_
	.loc 14 691 2 discriminator 2
	mov	rcx, QWORD PTR 56[rbp]
	mov	rdx, QWORD PTR 48[rbp]
	mov	r9, rcx
	mov	r8, rdx
	mov	rdx, rbx
	mov	rcx, rax
	call	_ZSt22__uninitialized_copy_aIPK8CopyOnlyS2_PS0_S0_ET1_T_T0_S4_RSaIT2_E
	.loc 14 693 5 is_stmt 1
	add	rsp, 40
	pop	rbx
	.cfi_restore 3
	pop	rbp
	.cfi_restore 6
	.cfi_def_cfa 7, -24
	ret
	.cfi_endproc
.LFE1911:
	.seh_endproc
	.section	.text$_ZNKSt6vectorI8CopyOnlySaIS0_EE5emptyEv,"x"
	.linkonce discard
	.align 2
	.globl	_ZNKSt6vectorI8CopyOnlySaIS0_EE5emptyEv
	.def	_ZNKSt6vectorI8CopyOnlySaIS0_EE5emptyEv;	.scl	2;	.type	32;	.endef
	.seh_proc	_ZNKSt6vectorI8CopyOnlySaIS0_EE5emptyEv
_ZNKSt6vectorI8CopyOnlySaIS0_EE5emptyEv:
.LFB1912:
	.loc 4 1223 7
	.cfi_startproc
	push	rbp
	.seh_pushreg	rbp
	.cfi_def_cfa_offset 16
	.cfi_offset 6, -16
	mov	rbp, rsp
	.seh_setframe	rbp, 0
	.cfi_def_cfa_register 6
	sub	rsp, 64
	.seh_stackalloc	64
	.seh_endprologue
	mov	QWORD PTR 16[rbp], rcx
	.loc 4 1224 30
	mov	rax, QWORD PTR 16[rbp]
	mov	rcx, rax
	call	_ZNKSt6vectorI8CopyOnlySaIS0_EE3endEv
	mov	QWORD PTR -32[rbp], rax
	.loc 4 1224 21 discriminator 1
	mov	rax, QWORD PTR 16[rbp]
	mov	rcx, rax
	call	_ZNKSt6vectorI8CopyOnlySaIS0_EE5beginEv
	mov	QWORD PTR -24[rbp], rax
	lea	rax, -24[rbp]
	mov	QWORD PTR -8[rbp], rax
.LBB405:
.LBB406:
.LBB407:
.LBB408:
	.loc 12 1166 16
	mov	rax, QWORD PTR -8[rbp]
.LBE408:
.LBE407:
	.loc 12 1206 27 discriminator 1
	mov	rdx, QWORD PTR [rax]
	lea	rax, -32[rbp]
	mov	QWORD PTR -16[rbp], rax
.LBB409:
.LBB410:
	.loc 12 1166 16
	mov	rax, QWORD PTR -16[rbp]
.LBE410:
.LBE409:
	.loc 12 1206 27 discriminator 2
	mov	rax, QWORD PTR [rax]
	.loc 12 1206 41 discriminator 2
	cmp	rdx, rax
	sete	al
.LBE406:
.LBE405:
	.loc 4 1224 34
	add	rsp, 64
	pop	rbp
	.cfi_restore 6
	.cfi_def_cfa 7, 8
	ret
	.cfi_endproc
.LFE1912:
	.seh_endproc
	.section	.text$_ZSt10destroy_atI12NoexceptMoveEvPT_,"x"
	.linkonce discard
	.globl	_ZSt10destroy_atI12NoexceptMoveEvPT_
	.def	_ZSt10destroy_atI12NoexceptMoveEvPT_;	.scl	2;	.type	32;	.endef
	.seh_proc	_ZSt10destroy_atI12NoexceptMoveEvPT_
_ZSt10destroy_atI12NoexceptMoveEvPT_:
.LFB1917:
	.loc 10 80 5
	.cfi_startproc
	push	rbp
	.seh_pushreg	rbp
	.cfi_def_cfa_offset 16
	.cfi_offset 6, -16
	mov	rbp, rsp
	.seh_setframe	rbp, 0
	.cfi_def_cfa_register 6
	.seh_endprologue
	mov	QWORD PTR 16[rbp], rcx
	.loc 10 89 5
	nop
	pop	rbp
	.cfi_restore 6
	.cfi_def_cfa 7, 8
	ret
	.cfi_endproc
.LFE1917:
	.seh_endproc
	.section	.text$_ZSt12construct_atI12NoexceptMoveJS0_EQaant20is_unbounded_array_vIT_ErqXgsnwcvPvLi0E_S1_pispcl7declvalIT0_EEEEEPS1_S4_DpOS3_,"x"
	.linkonce discard
	.globl	_ZSt12construct_atI12NoexceptMoveJS0_EQaant20is_unbounded_array_vIT_ErqXgsnwcvPvLi0E_S1_pispcl7declvalIT0_EEEEEPS1_S4_DpOS3_
	.def	_ZSt12construct_atI12NoexceptMoveJS0_EQaant20is_unbounded_array_vIT_ErqXgsnwcvPvLi0E_S1_pispcl7declvalIT0_EEEEEPS1_S4_DpOS3_;	.scl	2;	.type	32;	.endef
	.seh_proc	_ZSt12construct_atI12NoexceptMoveJS0_EQaant20is_unbounded_array_vIT_ErqXgsnwcvPvLi0E_S1_pispcl7declvalIT0_EEEEEPS1_S4_DpOS3_
_ZSt12construct_atI12NoexceptMoveJS0_EQaant20is_unbounded_array_vIT_ErqXgsnwcvPvLi0E_S1_pispcl7declvalIT0_EEEEEPS1_S4_DpOS3_:
.LFB1918:
	.loc 10 96 5
	.cfi_startproc
	push	rbp
	.seh_pushreg	rbp
	.cfi_def_cfa_offset 16
	.cfi_offset 6, -16
	push	rsi
	.seh_pushreg	rsi
	.cfi_def_cfa_offset 24
	.cfi_offset 4, -24
	push	rbx
	.seh_pushreg	rbx
	.cfi_def_cfa_offset 32
	.cfi_offset 3, -32
	sub	rsp, 48
	.seh_stackalloc	48
	.cfi_def_cfa_offset 80
	lea	rbp, 48[rsp]
	.seh_setframe	rbp, 48
	.cfi_def_cfa 6, 32
	.seh_endprologue
	mov	QWORD PTR 32[rbp], rcx
	mov	QWORD PTR 40[rbp], rdx
	.loc 10 99 13
	mov	rax, QWORD PTR 32[rbp]
	mov	QWORD PTR -8[rbp], rax
	.loc 10 110 15
	mov	rsi, QWORD PTR -8[rbp]
	.loc 10 110 9
	mov	rdx, rsi
	mov	ecx, 4
	call	_ZnwyPv
	mov	rbx, rax
	mov	rax, QWORD PTR 40[rbp]
	mov	QWORD PTR -16[rbp], rax
.LBB411:
.LBB412:
	.loc 7 73 36
	mov	rax, QWORD PTR -16[rbp]
.LBE412:
.LBE411:
	.loc 10 110 9 discriminator 2
	mov	eax, DWORD PTR [rax]
	mov	DWORD PTR [rbx], eax
	.loc 10 110 56 discriminator 2
	mov	eax, 0
	.loc 10 110 56 is_stmt 0 discriminator 3
	test	al, al
	je	.L184
	.loc 10 110 9 is_stmt 1 discriminator 4
	mov	rdx, rsi
	mov	rcx, rbx
	call	_ZdlPvS_
.L184:
	.loc 10 110 56 discriminator 8
	mov	rax, rbx
	.loc 10 111 5
	add	rsp, 48
	pop	rbx
	.cfi_restore 3
	pop	rsi
	.cfi_restore 4
	pop	rbp
	.cfi_restore 6
	.cfi_def_cfa 7, -24
	ret
	.cfi_endproc
.LFE1918:
	.seh_endproc
	.weak	_ZSt12construct_atI12NoexceptMoveJS0_EEPT_S2_DpOT0_
	.def	_ZSt12construct_atI12NoexceptMoveJS0_EEPT_S2_DpOT0_;	.scl	2;	.type	32;	.endef
	.set	_ZSt12construct_atI12NoexceptMoveJS0_EEPT_S2_DpOT0_,_ZSt12construct_atI12NoexceptMoveJS0_EQaant20is_unbounded_array_vIT_ErqXgsnwcvPvLi0E_S1_pispcl7declvalIT0_EEEEEPS1_S4_DpOS3_
	.section	.text$_ZNSt12_Vector_baseI12NoexceptMoveSaIS0_EE11_M_allocateEy,"x"
	.linkonce discard
	.align 2
	.globl	_ZNSt12_Vector_baseI12NoexceptMoveSaIS0_EE11_M_allocateEy
	.def	_ZNSt12_Vector_baseI12NoexceptMoveSaIS0_EE11_M_allocateEy;	.scl	2;	.type	32;	.endef
	.seh_proc	_ZNSt12_Vector_baseI12NoexceptMoveSaIS0_EE11_M_allocateEy
_ZNSt12_Vector_baseI12NoexceptMoveSaIS0_EE11_M_allocateEy:
.LFB1920:
	.loc 4 384 7
	.cfi_startproc
	push	rbp
	.seh_pushreg	rbp
	.cfi_def_cfa_offset 16
	.cfi_offset 6, -16
	mov	rbp, rsp
	.seh_setframe	rbp, 0
	.cfi_def_cfa_register 6
	sub	rsp, 64
	.seh_stackalloc	64
	.seh_endprologue
	mov	QWORD PTR 16[rbp], rcx
	mov	QWORD PTR 24[rbp], rdx
	.loc 4 387 18
	cmp	QWORD PTR 24[rbp], 0
	je	.L186
	.loc 4 387 34 discriminator 1
	mov	rax, QWORD PTR 16[rbp]
	mov	QWORD PTR -8[rbp], rax
	mov	rax, QWORD PTR 24[rbp]
	mov	QWORD PTR -16[rbp], rax
	mov	rax, QWORD PTR -8[rbp]
	mov	QWORD PTR -24[rbp], rax
	mov	rax, QWORD PTR -16[rbp]
	mov	QWORD PTR -32[rbp], rax
.LBB413:
.LBB414:
.LBB415:
.LBB416:
.LBB417:
.LBB418:
	.loc 8 586 49
	mov	eax, 0
.LBE418:
.LBE417:
	.loc 5 196 2 discriminator 1
	test	al, al
	je	.L188
	.loc 5 198 32
	mov	rax, QWORD PTR -32[rbp]
	mov	ecx, 0
	lea	rdx, 0[0+rax*4]
	shr	rax, 62
	test	rax, rax
	je	.L189
	mov	ecx, 1
.L189:
	mov	rax, rdx
	.loc 5 198 32 is_stmt 0 discriminator 1
	mov	QWORD PTR -32[rbp], rax
	mov	rax, rcx
	and	eax, 1
	.loc 5 198 6 is_stmt 1 discriminator 1
	test	al, al
	je	.L191
	.loc 5 199 41
	call	_ZSt28__throw_bad_array_new_lengthv
.L191:
	.loc 5 200 45
	mov	rax, QWORD PTR -32[rbp]
	mov	rcx, rax
	call	_Znwy
	.loc 5 200 50
	jmp	.L192
.L188:
	.loc 5 203 40
	mov	rdx, QWORD PTR -32[rbp]
	mov	rax, QWORD PTR -24[rbp]
	mov	r8d, 0
	mov	rcx, rax
	call	_ZNSt15__new_allocatorI12NoexceptMoveE8allocateEyPKv
	.loc 5 203 47
	nop
.L192:
.LBE416:
.LBE415:
	.loc 6 614 32
	nop
	jmp	.L194
.L186:
.LBE414:
.LBE413:
	.loc 4 387 58 discriminator 2
	mov	eax, 0
.L194:
	.loc 4 388 7
	add	rsp, 64
	pop	rbp
	.cfi_restore 6
	.cfi_def_cfa 7, 8
	ret
	.cfi_endproc
.LFE1920:
	.seh_endproc
	.section	.text$_ZNSt6vectorI12NoexceptMoveSaIS0_EE12_Guard_allocC1EPS0_yRSt12_Vector_baseIS0_S1_E,"x"
	.linkonce discard
	.align 2
	.globl	_ZNSt6vectorI12NoexceptMoveSaIS0_EE12_Guard_allocC1EPS0_yRSt12_Vector_baseIS0_S1_E
	.def	_ZNSt6vectorI12NoexceptMoveSaIS0_EE12_Guard_allocC1EPS0_yRSt12_Vector_baseIS0_S1_E;	.scl	2;	.type	32;	.endef
	.seh_proc	_ZNSt6vectorI12NoexceptMoveSaIS0_EE12_Guard_allocC1EPS0_yRSt12_Vector_baseIS0_S1_E
_ZNSt6vectorI12NoexceptMoveSaIS0_EE12_Guard_allocC1EPS0_yRSt12_Vector_baseIS0_S1_E:
.LFB1923:
	.loc 4 1875 2
	.cfi_startproc
	push	rbp
	.seh_pushreg	rbp
	.cfi_def_cfa_offset 16
	.cfi_offset 6, -16
	mov	rbp, rsp
	.seh_setframe	rbp, 0
	.cfi_def_cfa_register 6
	.seh_endprologue
	mov	QWORD PTR 16[rbp], rcx
	mov	QWORD PTR 24[rbp], rdx
	mov	QWORD PTR 32[rbp], r8
	mov	QWORD PTR 40[rbp], r9
.LBB419:
	.loc 4 1876 4
	mov	rax, QWORD PTR 16[rbp]
	mov	rdx, QWORD PTR 24[rbp]
	mov	QWORD PTR [rax], rdx
	.loc 4 1876 21
	mov	rax, QWORD PTR 16[rbp]
	mov	rdx, QWORD PTR 32[rbp]
	mov	QWORD PTR 8[rax], rdx
	.loc 4 1876 34
	mov	rax, QWORD PTR 16[rbp]
	mov	rdx, QWORD PTR 40[rbp]
	mov	QWORD PTR 16[rax], rdx
.LBE419:
	.loc 4 1877 4
	nop
	pop	rbp
	.cfi_restore 6
	.cfi_def_cfa 7, 8
	ret
	.cfi_endproc
.LFE1923:
	.seh_endproc
	.section	.text$_ZNSt6vectorI12NoexceptMoveSaIS0_EE12_Guard_allocD1Ev,"x"
	.linkonce discard
	.align 2
	.globl	_ZNSt6vectorI12NoexceptMoveSaIS0_EE12_Guard_allocD1Ev
	.def	_ZNSt6vectorI12NoexceptMoveSaIS0_EE12_Guard_allocD1Ev;	.scl	2;	.type	32;	.endef
	.seh_proc	_ZNSt6vectorI12NoexceptMoveSaIS0_EE12_Guard_allocD1Ev
_ZNSt6vectorI12NoexceptMoveSaIS0_EE12_Guard_allocD1Ev:
.LFB1926:
	.loc 4 1880 2
	.cfi_startproc
	push	rbp
	.seh_pushreg	rbp
	.cfi_def_cfa_offset 16
	.cfi_offset 6, -16
	mov	rbp, rsp
	.seh_setframe	rbp, 0
	.cfi_def_cfa_register 6
	sub	rsp, 32
	.seh_stackalloc	32
	.seh_endprologue
	mov	QWORD PTR 16[rbp], rcx
.LBB420:
	.loc 4 1882 8
	mov	rax, QWORD PTR 16[rbp]
	mov	rax, QWORD PTR [rax]
	.loc 4 1882 4
	test	rax, rax
	je	.L199
	.loc 4 1883 6
	mov	rax, QWORD PTR 16[rbp]
	mov	rax, QWORD PTR 16[rax]
	.loc 4 1883 40
	mov	rdx, QWORD PTR 16[rbp]
	mov	rcx, QWORD PTR 8[rdx]
	.loc 4 1883 28
	mov	rdx, QWORD PTR 16[rbp]
	mov	rdx, QWORD PTR [rdx]
	.loc 4 1883 27
	mov	r8, rcx
	mov	rcx, rax
	call	_ZNSt12_Vector_baseI12NoexceptMoveSaIS0_EE13_M_deallocateEPS0_y
.L199:
.LBE420:
	.loc 4 1884 2
	nop
	add	rsp, 32
	pop	rbp
	.cfi_restore 6
	.cfi_def_cfa 7, 8
	ret
	.cfi_endproc
.LFE1926:
	.seh_endproc
	.section	.text$_ZNSt6vectorI12NoexceptMoveSaIS0_EE11_S_relocateEPS0_S3_S3_RS1_,"x"
	.linkonce discard
	.globl	_ZNSt6vectorI12NoexceptMoveSaIS0_EE11_S_relocateEPS0_S3_S3_RS1_
	.def	_ZNSt6vectorI12NoexceptMoveSaIS0_EE11_S_relocateEPS0_S3_S3_RS1_;	.scl	2;	.type	32;	.endef
	.seh_proc	_ZNSt6vectorI12NoexceptMoveSaIS0_EE11_S_relocateEPS0_S3_S3_RS1_
_ZNSt6vectorI12NoexceptMoveSaIS0_EE11_S_relocateEPS0_S3_S3_RS1_:
.LFB1928:
	.loc 4 534 7
	.cfi_startproc
	push	rbp
	.seh_pushreg	rbp
	.cfi_def_cfa_offset 16
	.cfi_offset 6, -16
	mov	rbp, rsp
	.seh_setframe	rbp, 0
	.cfi_def_cfa_register 6
	sub	rsp, 32
	.seh_stackalloc	32
	.seh_endprologue
	mov	QWORD PTR 16[rbp], rcx
	mov	QWORD PTR 24[rbp], rdx
	mov	QWORD PTR 32[rbp], r8
	mov	QWORD PTR 40[rbp], r9
	.loc 4 539 26
	mov	r8, QWORD PTR 40[rbp]
	mov	rcx, QWORD PTR 32[rbp]
	mov	rdx, QWORD PTR 24[rbp]
	mov	rax, QWORD PTR 16[rbp]
	mov	r9, r8
	mov	r8, rcx
	mov	rcx, rax
	call	_ZSt12__relocate_aIP12NoexceptMoveS1_SaIS0_EET0_T_S4_S3_RT1_
	.loc 4 544 7
	add	rsp, 32
	pop	rbp
	.cfi_restore 6
	.cfi_def_cfa 7, 8
	ret
	.cfi_endproc
.LFE1928:
	.seh_endproc
	.section	.text$_ZNKSt6vectorI12NoexceptMoveSaIS0_EE5emptyEv,"x"
	.linkonce discard
	.align 2
	.globl	_ZNKSt6vectorI12NoexceptMoveSaIS0_EE5emptyEv
	.def	_ZNKSt6vectorI12NoexceptMoveSaIS0_EE5emptyEv;	.scl	2;	.type	32;	.endef
	.seh_proc	_ZNKSt6vectorI12NoexceptMoveSaIS0_EE5emptyEv
_ZNKSt6vectorI12NoexceptMoveSaIS0_EE5emptyEv:
.LFB1929:
	.loc 4 1223 7
	.cfi_startproc
	push	rbp
	.seh_pushreg	rbp
	.cfi_def_cfa_offset 16
	.cfi_offset 6, -16
	mov	rbp, rsp
	.seh_setframe	rbp, 0
	.cfi_def_cfa_register 6
	sub	rsp, 64
	.seh_stackalloc	64
	.seh_endprologue
	mov	QWORD PTR 16[rbp], rcx
	.loc 4 1224 30
	mov	rax, QWORD PTR 16[rbp]
	mov	rcx, rax
	call	_ZNKSt6vectorI12NoexceptMoveSaIS0_EE3endEv
	mov	QWORD PTR -32[rbp], rax
	.loc 4 1224 21 discriminator 1
	mov	rax, QWORD PTR 16[rbp]
	mov	rcx, rax
	call	_ZNKSt6vectorI12NoexceptMoveSaIS0_EE5beginEv
	mov	QWORD PTR -24[rbp], rax
	lea	rax, -24[rbp]
	mov	QWORD PTR -8[rbp], rax
.LBB421:
.LBB422:
.LBB423:
.LBB424:
	.loc 12 1166 16
	mov	rax, QWORD PTR -8[rbp]
.LBE424:
.LBE423:
	.loc 12 1206 27 discriminator 1
	mov	rdx, QWORD PTR [rax]
	lea	rax, -32[rbp]
	mov	QWORD PTR -16[rbp], rax
.LBB425:
.LBB426:
	.loc 12 1166 16
	mov	rax, QWORD PTR -16[rbp]
.LBE426:
.LBE425:
	.loc 12 1206 27 discriminator 2
	mov	rax, QWORD PTR [rax]
	.loc 12 1206 41 discriminator 2
	cmp	rdx, rax
	sete	al
.LBE422:
.LBE421:
	.loc 4 1224 34
	add	rsp, 64
	pop	rbp
	.cfi_restore 6
	.cfi_def_cfa 7, 8
	ret
	.cfi_endproc
.LFE1929:
	.seh_endproc
	.section	.text$_ZNSt15__new_allocatorI8CopyOnlyE10deallocateEPS0_y,"x"
	.linkonce discard
	.align 2
	.globl	_ZNSt15__new_allocatorI8CopyOnlyE10deallocateEPS0_y
	.def	_ZNSt15__new_allocatorI8CopyOnlyE10deallocateEPS0_y;	.scl	2;	.type	32;	.endef
	.seh_proc	_ZNSt15__new_allocatorI8CopyOnlyE10deallocateEPS0_y
_ZNSt15__new_allocatorI8CopyOnlyE10deallocateEPS0_y:
.LFB1932:
	.file 15 "C:/Qt/Tools/mingw1530_64/include/c++/15.3.0/bits/new_allocator.h"
	.loc 15 156 7
	.cfi_startproc
	push	rbp
	.seh_pushreg	rbp
	.cfi_def_cfa_offset 16
	.cfi_offset 6, -16
	mov	rbp, rsp
	.seh_setframe	rbp, 0
	.cfi_def_cfa_register 6
	sub	rsp, 32
	.seh_stackalloc	32
	.seh_endprologue
	mov	QWORD PTR 16[rbp], rcx
	mov	QWORD PTR 24[rbp], rdx
	mov	QWORD PTR 32[rbp], r8
	.loc 15 172 59
	mov	rax, QWORD PTR 32[rbp]
	lea	rdx, 0[0+rax*4]
	mov	rax, QWORD PTR 24[rbp]
	mov	rcx, rax
	call	_ZdlPvy
	nop
	.loc 15 173 7
	add	rsp, 32
	pop	rbp
	.cfi_restore 6
	.cfi_def_cfa 7, 8
	ret
	.cfi_endproc
.LFE1932:
	.seh_endproc
	.section	.text$_ZSt32__make_move_if_noexcept_iteratorI8CopyOnlyPKS0_ET0_PT_,"x"
	.linkonce discard
	.globl	_ZSt32__make_move_if_noexcept_iteratorI8CopyOnlyPKS0_ET0_PT_
	.def	_ZSt32__make_move_if_noexcept_iteratorI8CopyOnlyPKS0_ET0_PT_;	.scl	2;	.type	32;	.endef
	.seh_proc	_ZSt32__make_move_if_noexcept_iteratorI8CopyOnlyPKS0_ET0_PT_
_ZSt32__make_move_if_noexcept_iteratorI8CopyOnlyPKS0_ET0_PT_:
.LFB1934:
	.loc 12 1822 5
	.cfi_startproc
	push	rbp
	.seh_pushreg	rbp
	.cfi_def_cfa_offset 16
	.cfi_offset 6, -16
	mov	rbp, rsp
	.seh_setframe	rbp, 0
	.cfi_def_cfa_register 6
	.seh_endprologue
	mov	QWORD PTR 16[rbp], rcx
	.loc 12 1823 29
	mov	rax, QWORD PTR 16[rbp]
	.loc 12 1823 32
	pop	rbp
	.cfi_restore 6
	.cfi_def_cfa 7, 8
	ret
	.cfi_endproc
.LFE1934:
	.seh_endproc
	.section	.text$_ZSt22__uninitialized_copy_aIPK8CopyOnlyS2_PS0_S0_ET1_T_T0_S4_RSaIT2_E,"x"
	.linkonce discard
	.globl	_ZSt22__uninitialized_copy_aIPK8CopyOnlyS2_PS0_S0_ET1_T_T0_S4_RSaIT2_E
	.def	_ZSt22__uninitialized_copy_aIPK8CopyOnlyS2_PS0_S0_ET1_T_T0_S4_RSaIT2_E;	.scl	2;	.type	32;	.endef
	.seh_proc	_ZSt22__uninitialized_copy_aIPK8CopyOnlyS2_PS0_S0_ET1_T_T0_S4_RSaIT2_E
_ZSt22__uninitialized_copy_aIPK8CopyOnlyS2_PS0_S0_ET1_T_T0_S4_RSaIT2_E:
.LFB1935:
	.loc 14 613 5
	.cfi_startproc
	push	rbp
	.seh_pushreg	rbp
	.cfi_def_cfa_offset 16
	.cfi_offset 6, -16
	mov	rbp, rsp
	.seh_setframe	rbp, 0
	.cfi_def_cfa_register 6
	sub	rsp, 32
	.seh_stackalloc	32
	.seh_endprologue
	mov	QWORD PTR 16[rbp], rcx
	mov	QWORD PTR 24[rbp], rdx
	mov	QWORD PTR 32[rbp], r8
	mov	QWORD PTR 40[rbp], r9
	.loc 14 617 37
	call	_ZSt21is_constant_evaluatedv
	.loc 14 617 7 discriminator 1
	test	al, al
	je	.L212
.LBB427:
.LBB428:
	.loc 7 139 74
	lea	rax, 16[rbp]
.LBE428:
.LBE427:
	.loc 14 618 30 discriminator 1
	mov	rax, QWORD PTR [rax]
	mov	rcx, QWORD PTR 32[rbp]
	mov	rdx, QWORD PTR 24[rbp]
	mov	r8, rcx
	mov	rcx, rax
	call	_ZSt16__do_uninit_copyIPK8CopyOnlyS2_PS0_ET1_T_T0_S4_
	.loc 14 618 67
	jmp	.L214
.L212:
.LBB429:
.LBB430:
	.loc 7 139 74
	lea	rax, 16[rbp]
.LBE430:
.LBE429:
	.loc 14 635 32 discriminator 1
	mov	rax, QWORD PTR [rax]
	mov	rcx, QWORD PTR 32[rbp]
	mov	rdx, QWORD PTR 24[rbp]
	mov	r8, rcx
	mov	rcx, rax
	call	_ZSt18uninitialized_copyIPK8CopyOnlyPS0_ET0_T_S5_S4_
	.loc 14 635 69
	nop
.L214:
	.loc 14 639 5
	add	rsp, 32
	pop	rbp
	.cfi_restore 6
	.cfi_def_cfa 7, 8
	ret
	.cfi_endproc
.LFE1935:
	.seh_endproc
	.section	.text$_ZNKSt6vectorI8CopyOnlySaIS0_EE5beginEv,"x"
	.linkonce discard
	.align 2
	.globl	_ZNKSt6vectorI8CopyOnlySaIS0_EE5beginEv
	.def	_ZNKSt6vectorI8CopyOnlySaIS0_EE5beginEv;	.scl	2;	.type	32;	.endef
	.seh_proc	_ZNKSt6vectorI8CopyOnlySaIS0_EE5beginEv
_ZNKSt6vectorI8CopyOnlySaIS0_EE5beginEv:
.LFB1936:
	.loc 4 1008 7
	.cfi_startproc
	push	rbp
	.seh_pushreg	rbp
	.cfi_def_cfa_offset 16
	.cfi_offset 6, -16
	mov	rbp, rsp
	.seh_setframe	rbp, 0
	.cfi_def_cfa_register 6
	sub	rsp, 16
	.seh_stackalloc	16
	.seh_endprologue
	mov	QWORD PTR 16[rbp], rcx
	.loc 4 1009 45
	mov	rax, QWORD PTR 16[rbp]
	mov	QWORD PTR -8[rbp], rax
.LBB431:
.LBB432:
.LBB433:
	.loc 12 1059 9
	mov	rax, QWORD PTR -8[rbp]
	mov	rax, QWORD PTR [rax]
	mov	QWORD PTR -16[rbp], rax
.LBE433:
	.loc 12 1059 27
	nop
.LBE432:
.LBE431:
	.loc 4 1009 53 discriminator 1
	mov	rax, QWORD PTR -16[rbp]
	.loc 4 1009 56
	add	rsp, 16
	pop	rbp
	.cfi_restore 6
	.cfi_def_cfa 7, 8
	ret
	.cfi_endproc
.LFE1936:
	.seh_endproc
	.section	.text$_ZNKSt6vectorI8CopyOnlySaIS0_EE3endEv,"x"
	.linkonce discard
	.align 2
	.globl	_ZNKSt6vectorI8CopyOnlySaIS0_EE3endEv
	.def	_ZNKSt6vectorI8CopyOnlySaIS0_EE3endEv;	.scl	2;	.type	32;	.endef
	.seh_proc	_ZNKSt6vectorI8CopyOnlySaIS0_EE3endEv
_ZNKSt6vectorI8CopyOnlySaIS0_EE3endEv:
.LFB1937:
	.loc 4 1028 7
	.cfi_startproc
	push	rbp
	.seh_pushreg	rbp
	.cfi_def_cfa_offset 16
	.cfi_offset 6, -16
	mov	rbp, rsp
	.seh_setframe	rbp, 0
	.cfi_def_cfa_register 6
	sub	rsp, 16
	.seh_stackalloc	16
	.seh_endprologue
	mov	QWORD PTR 16[rbp], rcx
	.loc 4 1029 45
	mov	rax, QWORD PTR 16[rbp]
	add	rax, 8
	mov	QWORD PTR -8[rbp], rax
.LBB434:
.LBB435:
.LBB436:
	.loc 12 1059 9
	mov	rax, QWORD PTR -8[rbp]
	mov	rax, QWORD PTR [rax]
	mov	QWORD PTR -16[rbp], rax
.LBE436:
	.loc 12 1059 27
	nop
.LBE435:
.LBE434:
	.loc 4 1029 54 discriminator 1
	mov	rax, QWORD PTR -16[rbp]
	.loc 4 1029 57
	add	rsp, 16
	pop	rbp
	.cfi_restore 6
	.cfi_def_cfa 7, 8
	ret
	.cfi_endproc
.LFE1937:
	.seh_endproc
	.section	.text$_ZNSt15__new_allocatorI12NoexceptMoveE10deallocateEPS0_y,"x"
	.linkonce discard
	.align 2
	.globl	_ZNSt15__new_allocatorI12NoexceptMoveE10deallocateEPS0_y
	.def	_ZNSt15__new_allocatorI12NoexceptMoveE10deallocateEPS0_y;	.scl	2;	.type	32;	.endef
	.seh_proc	_ZNSt15__new_allocatorI12NoexceptMoveE10deallocateEPS0_y
_ZNSt15__new_allocatorI12NoexceptMoveE10deallocateEPS0_y:
.LFB1939:
	.loc 15 156 7
	.cfi_startproc
	push	rbp
	.seh_pushreg	rbp
	.cfi_def_cfa_offset 16
	.cfi_offset 6, -16
	mov	rbp, rsp
	.seh_setframe	rbp, 0
	.cfi_def_cfa_register 6
	sub	rsp, 32
	.seh_stackalloc	32
	.seh_endprologue
	mov	QWORD PTR 16[rbp], rcx
	mov	QWORD PTR 24[rbp], rdx
	mov	QWORD PTR 32[rbp], r8
	.loc 15 172 59
	mov	rax, QWORD PTR 32[rbp]
	lea	rdx, 0[0+rax*4]
	mov	rax, QWORD PTR 24[rbp]
	mov	rcx, rax
	call	_ZdlPvy
	nop
	.loc 15 173 7
	add	rsp, 32
	pop	rbp
	.cfi_restore 6
	.cfi_def_cfa 7, 8
	ret
	.cfi_endproc
.LFE1939:
	.seh_endproc
	.section	.text$_ZSt12__relocate_aIP12NoexceptMoveS1_SaIS0_EET0_T_S4_S3_RT1_,"x"
	.linkonce discard
	.globl	_ZSt12__relocate_aIP12NoexceptMoveS1_SaIS0_EET0_T_S4_S3_RT1_
	.def	_ZSt12__relocate_aIP12NoexceptMoveS1_SaIS0_EET0_T_S4_S3_RT1_;	.scl	2;	.type	32;	.endef
	.seh_proc	_ZSt12__relocate_aIP12NoexceptMoveS1_SaIS0_EET0_T_S4_S3_RT1_
_ZSt12__relocate_aIP12NoexceptMoveS1_SaIS0_EET0_T_S4_S3_RT1_:
.LFB1941:
	.loc 14 1380 5
	.cfi_startproc
	push	rbp
	.seh_pushreg	rbp
	.cfi_def_cfa_offset 16
	.cfi_offset 6, -16
	mov	rbp, rsp
	.seh_setframe	rbp, 0
	.cfi_def_cfa_register 6
	sub	rsp, 64
	.seh_stackalloc	64
	.seh_endprologue
	mov	QWORD PTR 16[rbp], rcx
	mov	QWORD PTR 24[rbp], rdx
	mov	QWORD PTR 32[rbp], r8
	mov	QWORD PTR 40[rbp], r9
	mov	rax, QWORD PTR 32[rbp]
	mov	QWORD PTR -24[rbp], rax
.LBB437:
.LBB438:
	.loc 12 3011 14
	mov	rcx, QWORD PTR -24[rbp]
	mov	rax, QWORD PTR 24[rbp]
	mov	QWORD PTR -16[rbp], rax
.LBE438:
.LBE437:
.LBB439:
.LBB440:
	mov	rdx, QWORD PTR -16[rbp]
	mov	rax, QWORD PTR 16[rbp]
	mov	QWORD PTR -8[rbp], rax
.LBE440:
.LBE439:
.LBB441:
.LBB442:
	mov	rax, QWORD PTR -8[rbp]
.LBE442:
.LBE441:
	.loc 14 1386 33 discriminator 3
	mov	r8, QWORD PTR 40[rbp]
	mov	r9, r8
	mov	r8, rcx
	mov	rcx, rax
	call	_ZSt14__relocate_a_1IP12NoexceptMoveS1_SaIS0_EET0_T_S4_S3_RT1_
	.loc 14 1389 5
	add	rsp, 64
	pop	rbp
	.cfi_restore 6
	.cfi_def_cfa 7, 8
	ret
	.cfi_endproc
.LFE1941:
	.seh_endproc
	.section	.text$_ZNKSt6vectorI12NoexceptMoveSaIS0_EE5beginEv,"x"
	.linkonce discard
	.align 2
	.globl	_ZNKSt6vectorI12NoexceptMoveSaIS0_EE5beginEv
	.def	_ZNKSt6vectorI12NoexceptMoveSaIS0_EE5beginEv;	.scl	2;	.type	32;	.endef
	.seh_proc	_ZNKSt6vectorI12NoexceptMoveSaIS0_EE5beginEv
_ZNKSt6vectorI12NoexceptMoveSaIS0_EE5beginEv:
.LFB1942:
	.loc 4 1008 7
	.cfi_startproc
	push	rbp
	.seh_pushreg	rbp
	.cfi_def_cfa_offset 16
	.cfi_offset 6, -16
	mov	rbp, rsp
	.seh_setframe	rbp, 0
	.cfi_def_cfa_register 6
	sub	rsp, 16
	.seh_stackalloc	16
	.seh_endprologue
	mov	QWORD PTR 16[rbp], rcx
	.loc 4 1009 45
	mov	rax, QWORD PTR 16[rbp]
	mov	QWORD PTR -8[rbp], rax
.LBB443:
.LBB444:
.LBB445:
	.loc 12 1059 9
	mov	rax, QWORD PTR -8[rbp]
	mov	rax, QWORD PTR [rax]
	mov	QWORD PTR -16[rbp], rax
.LBE445:
	.loc 12 1059 27
	nop
.LBE444:
.LBE443:
	.loc 4 1009 53 discriminator 1
	mov	rax, QWORD PTR -16[rbp]
	.loc 4 1009 56
	add	rsp, 16
	pop	rbp
	.cfi_restore 6
	.cfi_def_cfa 7, 8
	ret
	.cfi_endproc
.LFE1942:
	.seh_endproc
	.section	.text$_ZNKSt6vectorI12NoexceptMoveSaIS0_EE3endEv,"x"
	.linkonce discard
	.align 2
	.globl	_ZNKSt6vectorI12NoexceptMoveSaIS0_EE3endEv
	.def	_ZNKSt6vectorI12NoexceptMoveSaIS0_EE3endEv;	.scl	2;	.type	32;	.endef
	.seh_proc	_ZNKSt6vectorI12NoexceptMoveSaIS0_EE3endEv
_ZNKSt6vectorI12NoexceptMoveSaIS0_EE3endEv:
.LFB1943:
	.loc 4 1028 7
	.cfi_startproc
	push	rbp
	.seh_pushreg	rbp
	.cfi_def_cfa_offset 16
	.cfi_offset 6, -16
	mov	rbp, rsp
	.seh_setframe	rbp, 0
	.cfi_def_cfa_register 6
	sub	rsp, 16
	.seh_stackalloc	16
	.seh_endprologue
	mov	QWORD PTR 16[rbp], rcx
	.loc 4 1029 45
	mov	rax, QWORD PTR 16[rbp]
	add	rax, 8
	mov	QWORD PTR -8[rbp], rax
.LBB446:
.LBB447:
.LBB448:
	.loc 12 1059 9
	mov	rax, QWORD PTR -8[rbp]
	mov	rax, QWORD PTR [rax]
	mov	QWORD PTR -16[rbp], rax
.LBE448:
	.loc 12 1059 27
	nop
.LBE447:
.LBE446:
	.loc 4 1029 54 discriminator 1
	mov	rax, QWORD PTR -16[rbp]
	.loc 4 1029 57
	add	rsp, 16
	pop	rbp
	.cfi_restore 6
	.cfi_def_cfa 7, 8
	ret
	.cfi_endproc
.LFE1943:
	.seh_endproc
	.section	.text$_ZNSt19_UninitDestroyGuardIP8CopyOnlyvEC1ERS1_,"x"
	.linkonce discard
	.align 2
	.globl	_ZNSt19_UninitDestroyGuardIP8CopyOnlyvEC1ERS1_
	.def	_ZNSt19_UninitDestroyGuardIP8CopyOnlyvEC1ERS1_;	.scl	2;	.type	32;	.endef
	.seh_proc	_ZNSt19_UninitDestroyGuardIP8CopyOnlyvEC1ERS1_
_ZNSt19_UninitDestroyGuardIP8CopyOnlyvEC1ERS1_:
.LFB1950:
	.loc 14 113 7
	.cfi_startproc
	push	rbp
	.seh_pushreg	rbp
	.cfi_def_cfa_offset 16
	.cfi_offset 6, -16
	mov	rbp, rsp
	.seh_setframe	rbp, 0
	.cfi_def_cfa_register 6
	.seh_endprologue
	mov	QWORD PTR 16[rbp], rcx
	mov	QWORD PTR 24[rbp], rdx
.LBB449:
	.loc 14 114 9
	mov	rax, QWORD PTR 24[rbp]
	mov	rdx, QWORD PTR [rax]
	mov	rax, QWORD PTR 16[rbp]
	mov	QWORD PTR [rax], rdx
	.loc 14 114 28
	mov	rax, QWORD PTR 16[rbp]
	mov	rdx, QWORD PTR 24[rbp]
	mov	QWORD PTR 8[rax], rdx
.LBE449:
	.loc 14 115 9
	nop
	pop	rbp
	.cfi_restore 6
	.cfi_def_cfa 7, 8
	ret
	.cfi_endproc
.LFE1950:
	.seh_endproc
	.section	.text$_ZSt16__do_uninit_copyIPK8CopyOnlyS2_PS0_ET1_T_T0_S4_,"x"
	.linkonce discard
	.globl	_ZSt16__do_uninit_copyIPK8CopyOnlyS2_PS0_ET1_T_T0_S4_
	.def	_ZSt16__do_uninit_copyIPK8CopyOnlyS2_PS0_ET1_T_T0_S4_;	.scl	2;	.type	32;	.endef
	.seh_proc	_ZSt16__do_uninit_copyIPK8CopyOnlyS2_PS0_ET1_T_T0_S4_
_ZSt16__do_uninit_copyIPK8CopyOnlyS2_PS0_ET1_T_T0_S4_:
.LFB1947:
	.loc 14 140 5
	.cfi_startproc
	push	rbp
	.seh_pushreg	rbp
	.cfi_def_cfa_offset 16
	.cfi_offset 6, -16
	push	rbx
	.seh_pushreg	rbx
	.cfi_def_cfa_offset 24
	.cfi_offset 3, -24
	sub	rsp, 72
	.seh_stackalloc	72
	.cfi_def_cfa_offset 96
	lea	rbp, 64[rsp]
	.seh_setframe	rbp, 64
	.cfi_def_cfa 6, 32
	.seh_endprologue
	mov	QWORD PTR 32[rbp], rcx
	mov	QWORD PTR 40[rbp], rdx
	mov	QWORD PTR 48[rbp], r8
	.loc 14 143 45
	lea	rdx, 48[rbp]
	lea	rax, -32[rbp]
	mov	rcx, rax
	call	_ZNSt19_UninitDestroyGuardIP8CopyOnlyvEC1ERS1_
	.loc 14 144 7
	jmp	.L233
.L235:
	.loc 14 145 17
	mov	rax, QWORD PTR 48[rbp]
	mov	QWORD PTR -8[rbp], rax
.LBB450:
.LBB451:
	.loc 7 53 37
	mov	rax, QWORD PTR -8[rbp]
.LBE451:
.LBE450:
	.loc 14 145 17 discriminator 1
	mov	rdx, QWORD PTR 32[rbp]
	mov	rcx, rax
	call	_ZSt10_ConstructI8CopyOnlyJRKS0_EEvPT_DpOT0_
	.loc 14 144 7 discriminator 2
	add	QWORD PTR 32[rbp], 4
	.loc 14 144 44 discriminator 2
	mov	rax, QWORD PTR 48[rbp]
	add	rax, 4
	mov	QWORD PTR 48[rbp], rax
.L233:
	.loc 14 144 22 discriminator 1
	mov	rax, QWORD PTR 32[rbp]
	cmp	rax, QWORD PTR 40[rbp]
	jne	.L235
	.loc 14 146 22
	lea	rax, -32[rbp]
	mov	rcx, rax
	call	_ZNSt19_UninitDestroyGuardIP8CopyOnlyvE7releaseEv
	.loc 14 147 14
	mov	rbx, QWORD PTR 48[rbp]
	.loc 14 148 5
	lea	rax, -32[rbp]
	mov	rcx, rax
	call	_ZNSt19_UninitDestroyGuardIP8CopyOnlyvED1Ev
	.loc 14 147 14
	mov	rax, rbx
	.loc 14 148 5
	add	rsp, 72
	pop	rbx
	.cfi_restore 3
	pop	rbp
	.cfi_restore 6
	.cfi_def_cfa 7, -56
	ret
	.cfi_endproc
.LFE1947:
	.seh_endproc
	.section	.text$_ZSt18uninitialized_copyIPK8CopyOnlyPS0_ET0_T_S5_S4_,"x"
	.linkonce discard
	.globl	_ZSt18uninitialized_copyIPK8CopyOnlyPS0_ET0_T_S5_S4_
	.def	_ZSt18uninitialized_copyIPK8CopyOnlyPS0_ET0_T_S5_S4_;	.scl	2;	.type	32;	.endef
	.seh_proc	_ZSt18uninitialized_copyIPK8CopyOnlyPS0_ET0_T_S5_S4_
_ZSt18uninitialized_copyIPK8CopyOnlyPS0_ET0_T_S5_S4_:
.LFB1951:
	.loc 14 231 5
	.cfi_startproc
	push	rbp
	.seh_pushreg	rbp
	.cfi_def_cfa_offset 16
	.cfi_offset 6, -16
	mov	rbp, rsp
	.seh_setframe	rbp, 0
	.cfi_def_cfa_register 6
	sub	rsp, 64
	.seh_stackalloc	64
	.seh_endprologue
	mov	QWORD PTR 16[rbp], rcx
	mov	QWORD PTR 24[rbp], rdx
	mov	QWORD PTR 32[rbp], r8
.LBB452:
.LBB453:
.LBB454:
.LBB455:
	.loc 14 269 27
	mov	rax, QWORD PTR 24[rbp]
	sub	rax, QWORD PTR 16[rbp]
	.loc 14 269 14
	sar	rax, 2
	mov	QWORD PTR -8[rbp], rax
.LBB456:
	.loc 14 270 4
	cmp	QWORD PTR -8[rbp], 0
	jle	.L238
.LBB457:
.LBB458:
	.loc 14 275 11
	mov	rax, QWORD PTR -8[rbp]
	.loc 14 273 24
	lea	rcx, 0[0+rax*4]
	mov	rax, QWORD PTR 16[rbp]
	mov	QWORD PTR -24[rbp], rax
.LBB459:
.LBB460:
	.loc 12 3011 14
	mov	rdx, QWORD PTR -24[rbp]
	mov	rax, QWORD PTR 32[rbp]
	mov	QWORD PTR -16[rbp], rax
.LBE460:
.LBE459:
.LBB461:
.LBB462:
	mov	rax, QWORD PTR -16[rbp]
.LBE462:
.LBE461:
	.loc 14 273 24 discriminator 1
	mov	r8, rcx
	mov	rcx, rax
	call	memcpy
	.loc 14 276 20
	mov	rax, QWORD PTR -8[rbp]
	.loc 14 276 17
	sal	rax, 2
	add	QWORD PTR 32[rbp], rax
.L238:
.LBE458:
.LBE457:
.LBE456:
	.loc 14 278 11
	mov	rax, QWORD PTR 32[rbp]
.LBE455:
.LBE454:
.LBE453:
.LBE452:
	.loc 14 317 5
	add	rsp, 64
	pop	rbp
	.cfi_restore 6
	.cfi_def_cfa 7, 8
	ret
	.cfi_endproc
.LFE1951:
	.seh_endproc
	.section	.text$_ZSt14__relocate_a_1IP12NoexceptMoveS1_SaIS0_EET0_T_S4_S3_RT1_,"x"
	.linkonce discard
	.globl	_ZSt14__relocate_a_1IP12NoexceptMoveS1_SaIS0_EET0_T_S4_S3_RT1_
	.def	_ZSt14__relocate_a_1IP12NoexceptMoveS1_SaIS0_EET0_T_S4_S3_RT1_;	.scl	2;	.type	32;	.endef
	.seh_proc	_ZSt14__relocate_a_1IP12NoexceptMoveS1_SaIS0_EET0_T_S4_S3_RT1_
_ZSt14__relocate_a_1IP12NoexceptMoveS1_SaIS0_EET0_T_S4_S3_RT1_:
.LFB1959:
	.loc 14 1330 5
	.cfi_startproc
	push	rbp
	.seh_pushreg	rbp
	.cfi_def_cfa_offset 16
	.cfi_offset 6, -16
	mov	rbp, rsp
	.seh_setframe	rbp, 0
	.cfi_def_cfa_register 6
	sub	rsp, 64
	.seh_stackalloc	64
	.seh_endprologue
	mov	QWORD PTR 16[rbp], rcx
	mov	QWORD PTR 24[rbp], rdx
	mov	QWORD PTR 32[rbp], r8
	mov	QWORD PTR 40[rbp], r9
	.loc 14 1342 24
	mov	rax, QWORD PTR 32[rbp]
	mov	QWORD PTR -8[rbp], rax
	.loc 14 1343 7
	jmp	.L243
.L246:
	mov	rax, QWORD PTR 16[rbp]
	mov	QWORD PTR -24[rbp], rax
.LBB463:
.LBB464:
	.loc 7 53 37
	mov	rdx, QWORD PTR -24[rbp]
	mov	rax, QWORD PTR -8[rbp]
	mov	QWORD PTR -16[rbp], rax
.LBE464:
.LBE463:
.LBB465:
.LBB466:
	mov	rax, QWORD PTR -16[rbp]
.LBE466:
.LBE465:
	.loc 14 1344 26 discriminator 2
	mov	rcx, QWORD PTR 40[rbp]
	mov	r8, rcx
	mov	rcx, rax
	call	_ZSt19__relocate_object_aI12NoexceptMoveS0_SaIS0_EEvPT_PT0_RT1_
	.loc 14 1343 7 discriminator 2
	add	QWORD PTR 16[rbp], 4
	.loc 14 1343 44 discriminator 2
	add	QWORD PTR -8[rbp], 4
.L243:
	.loc 14 1343 22 discriminator 1
	mov	rax, QWORD PTR 16[rbp]
	cmp	rax, QWORD PTR 24[rbp]
	jne	.L246
	.loc 14 1346 14
	mov	rax, QWORD PTR -8[rbp]
	.loc 14 1347 5
	add	rsp, 64
	pop	rbp
	.cfi_restore 6
	.cfi_def_cfa 7, 8
	ret
	.cfi_endproc
.LFE1959:
	.seh_endproc
	.section	.text$_ZNSt15__new_allocatorI8CopyOnlyE8allocateEyPKv,"x"
	.linkonce discard
	.align 2
	.globl	_ZNSt15__new_allocatorI8CopyOnlyE8allocateEyPKv
	.def	_ZNSt15__new_allocatorI8CopyOnlyE8allocateEyPKv;	.scl	2;	.type	32;	.endef
	.seh_proc	_ZNSt15__new_allocatorI8CopyOnlyE8allocateEyPKv
_ZNSt15__new_allocatorI8CopyOnlyE8allocateEyPKv:
.LFB1964:
	.loc 15 126 7
	.cfi_startproc
	push	rbp
	.seh_pushreg	rbp
	.cfi_def_cfa_offset 16
	.cfi_offset 6, -16
	mov	rbp, rsp
	.seh_setframe	rbp, 0
	.cfi_def_cfa_register 6
	sub	rsp, 48
	.seh_stackalloc	48
	.seh_endprologue
	mov	QWORD PTR 16[rbp], rcx
	mov	QWORD PTR 24[rbp], rdx
	mov	QWORD PTR 32[rbp], r8
	mov	rax, QWORD PTR 16[rbp]
	mov	QWORD PTR -8[rbp], rax
.LBB467:
.LBB468:
	.loc 15 233 50
	movabs	rax, 2305843009213693951
.LBE468:
.LBE467:
	.loc 15 134 27 discriminator 1
	cmp	rax, QWORD PTR 24[rbp]
	setb	al
	.loc 15 134 22 discriminator 1
	movzx	eax, al
	.loc 15 134 22 is_stmt 0 discriminator 2
	test	eax, eax
	setne	al
	.loc 15 134 2 is_stmt 1 discriminator 2
	test	al, al
	je	.L250
	.loc 15 138 6
	movabs	rax, 4611686018427387903
	cmp	rax, QWORD PTR 24[rbp]
	jnb	.L251
	.loc 15 139 41
	call	_ZSt28__throw_bad_array_new_lengthv
.L251:
	.loc 15 140 28
	call	_ZSt17__throw_bad_allocv
.L250:
	.loc 15 151 66
	mov	rax, QWORD PTR 24[rbp]
	sal	rax, 2
	mov	rcx, rax
	call	_Znwy
	.loc 15 151 67
	nop
	.loc 15 152 7
	add	rsp, 48
	pop	rbp
	.cfi_restore 6
	.cfi_def_cfa 7, 8
	ret
	.cfi_endproc
.LFE1964:
	.seh_endproc
	.section	.text$_ZNSt19_UninitDestroyGuardIP8CopyOnlyvED1Ev,"x"
	.linkonce discard
	.align 2
	.globl	_ZNSt19_UninitDestroyGuardIP8CopyOnlyvED1Ev
	.def	_ZNSt19_UninitDestroyGuardIP8CopyOnlyvED1Ev;	.scl	2;	.type	32;	.endef
	.seh_proc	_ZNSt19_UninitDestroyGuardIP8CopyOnlyvED1Ev
_ZNSt19_UninitDestroyGuardIP8CopyOnlyvED1Ev:
.LFB1967:
	.loc 14 118 7
	.cfi_startproc
	push	rbp
	.seh_pushreg	rbp
	.cfi_def_cfa_offset 16
	.cfi_offset 6, -16
	mov	rbp, rsp
	.seh_setframe	rbp, 0
	.cfi_def_cfa_register 6
	sub	rsp, 32
	.seh_stackalloc	32
	.seh_endprologue
	mov	QWORD PTR 16[rbp], rcx
.LBB469:
	.loc 14 120 23
	mov	rax, QWORD PTR 16[rbp]
	mov	rax, QWORD PTR 8[rax]
	.loc 14 120 30
	test	rax, rax
	setne	al
	.loc 14 120 22
	movzx	eax, al
	.loc 14 120 2 discriminator 1
	test	eax, eax
	je	.L255
	.loc 14 121 29
	mov	rax, QWORD PTR 16[rbp]
	mov	rax, QWORD PTR 8[rax]
	.loc 14 121 17
	mov	rdx, QWORD PTR [rax]
	.loc 14 121 18
	mov	rax, QWORD PTR 16[rbp]
	mov	rax, QWORD PTR [rax]
	.loc 14 121 17
	mov	rcx, rax
	call	_ZSt8_DestroyIP8CopyOnlyEvT_S2_
.L255:
.LBE469:
	.loc 14 122 7
	nop
	add	rsp, 32
	pop	rbp
	.cfi_restore 6
	.cfi_def_cfa 7, 8
	ret
	.cfi_endproc
.LFE1967:
	.seh_endproc
	.section	.text$_ZSt10_ConstructI8CopyOnlyJRKS0_EEvPT_DpOT0_,"x"
	.linkonce discard
	.globl	_ZSt10_ConstructI8CopyOnlyJRKS0_EEvPT_DpOT0_
	.def	_ZSt10_ConstructI8CopyOnlyJRKS0_EEvPT_DpOT0_;	.scl	2;	.type	32;	.endef
	.seh_proc	_ZSt10_ConstructI8CopyOnlyJRKS0_EEvPT_DpOT0_
_ZSt10_ConstructI8CopyOnlyJRKS0_EEvPT_DpOT0_:
.LFB1968:
	.loc 10 123 5
	.cfi_startproc
	push	rbp
	.seh_pushreg	rbp
	.cfi_def_cfa_offset 16
	.cfi_offset 6, -16
	push	rbx
	.seh_pushreg	rbx
	.cfi_def_cfa_offset 24
	.cfi_offset 3, -24
	sub	rsp, 56
	.seh_stackalloc	56
	.cfi_def_cfa_offset 80
	lea	rbp, 48[rsp]
	.seh_setframe	rbp, 48
	.cfi_def_cfa 6, 32
	.seh_endprologue
	mov	QWORD PTR 32[rbp], rcx
	mov	QWORD PTR 40[rbp], rdx
.LBB470:
.LBB471:
	.loc 8 586 49
	mov	eax, 0
.LBE471:
.LBE470:
	.loc 10 126 7 discriminator 1
	test	al, al
	je	.L258
	mov	rax, QWORD PTR 40[rbp]
	mov	QWORD PTR -8[rbp], rax
.LBB472:
.LBB473:
	.loc 7 73 36
	mov	rdx, QWORD PTR -8[rbp]
.LBE473:
.LBE472:
	.loc 10 129 21 discriminator 1
	mov	rax, QWORD PTR 32[rbp]
	mov	rcx, rax
	call	_ZSt12construct_atI8CopyOnlyJRKS0_EQaant20is_unbounded_array_vIT_ErqXgsnwcvPvLi0E_S3_pispcl7declvalIT0_EEEEEPS3_S6_DpOS5_
	.loc 10 130 4
	jmp	.L256
.L258:
	.loc 10 133 13
	mov	rbx, QWORD PTR 32[rbp]
	.loc 10 133 7
	mov	rdx, rbx
	mov	ecx, 4
	call	_ZnwyPv
	mov	rdx, QWORD PTR 40[rbp]
	mov	QWORD PTR -16[rbp], rdx
.LBB474:
.LBB475:
	.loc 7 73 36
	mov	rdx, QWORD PTR -16[rbp]
.LBE475:
.LBE474:
	.loc 10 133 7 discriminator 2
	mov	edx, DWORD PTR [rdx]
	mov	DWORD PTR [rax], edx
	mov	edx, 0
	test	dl, dl
	je	.L256
	.loc 10 133 7 is_stmt 0 discriminator 3
	mov	rdx, rbx
	mov	rcx, rax
	call	_ZdlPvS_
	nop
.L256:
	.loc 10 134 5 is_stmt 1
	add	rsp, 56
	pop	rbx
	.cfi_restore 3
	pop	rbp
	.cfi_restore 6
	.cfi_def_cfa 7, -40
	ret
	.cfi_endproc
.LFE1968:
	.seh_endproc
	.section	.text$_ZNSt19_UninitDestroyGuardIP8CopyOnlyvE7releaseEv,"x"
	.linkonce discard
	.align 2
	.globl	_ZNSt19_UninitDestroyGuardIP8CopyOnlyvE7releaseEv
	.def	_ZNSt19_UninitDestroyGuardIP8CopyOnlyvE7releaseEv;	.scl	2;	.type	32;	.endef
	.seh_proc	_ZNSt19_UninitDestroyGuardIP8CopyOnlyvE7releaseEv
_ZNSt19_UninitDestroyGuardIP8CopyOnlyvE7releaseEv:
.LFB1969:
	.loc 14 125 12
	.cfi_startproc
	push	rbp
	.seh_pushreg	rbp
	.cfi_def_cfa_offset 16
	.cfi_offset 6, -16
	mov	rbp, rsp
	.seh_setframe	rbp, 0
	.cfi_def_cfa_register 6
	.seh_endprologue
	mov	QWORD PTR 16[rbp], rcx
	.loc 14 125 31
	mov	rax, QWORD PTR 16[rbp]
	mov	QWORD PTR 8[rax], 0
	.loc 14 125 36
	nop
	pop	rbp
	.cfi_restore 6
	.cfi_def_cfa 7, 8
	ret
	.cfi_endproc
.LFE1969:
	.seh_endproc
	.section	.text$_ZNSt15__new_allocatorI12NoexceptMoveE8allocateEyPKv,"x"
	.linkonce discard
	.align 2
	.globl	_ZNSt15__new_allocatorI12NoexceptMoveE8allocateEyPKv
	.def	_ZNSt15__new_allocatorI12NoexceptMoveE8allocateEyPKv;	.scl	2;	.type	32;	.endef
	.seh_proc	_ZNSt15__new_allocatorI12NoexceptMoveE8allocateEyPKv
_ZNSt15__new_allocatorI12NoexceptMoveE8allocateEyPKv:
.LFB1972:
	.loc 15 126 7
	.cfi_startproc
	push	rbp
	.seh_pushreg	rbp
	.cfi_def_cfa_offset 16
	.cfi_offset 6, -16
	mov	rbp, rsp
	.seh_setframe	rbp, 0
	.cfi_def_cfa_register 6
	sub	rsp, 48
	.seh_stackalloc	48
	.seh_endprologue
	mov	QWORD PTR 16[rbp], rcx
	mov	QWORD PTR 24[rbp], rdx
	mov	QWORD PTR 32[rbp], r8
	mov	rax, QWORD PTR 16[rbp]
	mov	QWORD PTR -8[rbp], rax
.LBB476:
.LBB477:
	.loc 15 233 50
	movabs	rax, 2305843009213693951
.LBE477:
.LBE476:
	.loc 15 134 27 discriminator 1
	cmp	rax, QWORD PTR 24[rbp]
	setb	al
	.loc 15 134 22 discriminator 1
	movzx	eax, al
	.loc 15 134 22 is_stmt 0 discriminator 2
	test	eax, eax
	setne	al
	.loc 15 134 2 is_stmt 1 discriminator 2
	test	al, al
	je	.L265
	.loc 15 138 6
	movabs	rax, 4611686018427387903
	cmp	rax, QWORD PTR 24[rbp]
	jnb	.L266
	.loc 15 139 41
	call	_ZSt28__throw_bad_array_new_lengthv
.L266:
	.loc 15 140 28
	call	_ZSt17__throw_bad_allocv
.L265:
	.loc 15 151 66
	mov	rax, QWORD PTR 24[rbp]
	sal	rax, 2
	mov	rcx, rax
	call	_Znwy
	.loc 15 151 67
	nop
	.loc 15 152 7
	add	rsp, 48
	pop	rbp
	.cfi_restore 6
	.cfi_def_cfa 7, 8
	ret
	.cfi_endproc
.LFE1972:
	.seh_endproc
	.section	.text$_ZSt19__relocate_object_aI12NoexceptMoveS0_SaIS0_EEvPT_PT0_RT1_,"x"
	.linkonce discard
	.globl	_ZSt19__relocate_object_aI12NoexceptMoveS0_SaIS0_EEvPT_PT0_RT1_
	.def	_ZSt19__relocate_object_aI12NoexceptMoveS0_SaIS0_EEvPT_PT0_RT1_;	.scl	2;	.type	32;	.endef
	.seh_proc	_ZSt19__relocate_object_aI12NoexceptMoveS0_SaIS0_EEvPT_PT0_RT1_
_ZSt19__relocate_object_aI12NoexceptMoveS0_SaIS0_EEvPT_PT0_RT1_:
.LFB1973:
	.loc 14 1307 5
	.cfi_startproc
	push	rbp
	.seh_pushreg	rbp
	.cfi_def_cfa_offset 16
	.cfi_offset 6, -16
	mov	rbp, rsp
	.seh_setframe	rbp, 0
	.cfi_def_cfa_register 6
	sub	rsp, 96
	.seh_stackalloc	96
	.seh_endprologue
	mov	QWORD PTR 16[rbp], rcx
	mov	QWORD PTR 24[rbp], rdx
	mov	QWORD PTR 32[rbp], r8
	mov	rax, QWORD PTR 24[rbp]
	mov	QWORD PTR -64[rbp], rax
.LBB478:
.LBB479:
	.loc 7 139 74
	mov	rax, QWORD PTR -64[rbp]
	mov	rdx, QWORD PTR 16[rbp]
	mov	QWORD PTR -32[rbp], rdx
	mov	QWORD PTR -40[rbp], rax
	mov	rax, QWORD PTR 32[rbp]
	mov	QWORD PTR -48[rbp], rax
	mov	rax, QWORD PTR -40[rbp]
	mov	QWORD PTR -56[rbp], rax
.LBE479:
.LBE478:
.LBB480:
.LBB481:
.LBB482:
.LBB483:
	.loc 7 73 36
	mov	rdx, QWORD PTR -56[rbp]
.LBE483:
.LBE482:
	.loc 6 676 21 discriminator 1
	mov	rax, QWORD PTR -32[rbp]
	mov	rcx, rax
	call	_ZSt12construct_atI12NoexceptMoveJS0_EQaant20is_unbounded_array_vIT_ErqXgsnwcvPvLi0E_S1_pispcl7declvalIT0_EEEEEPS1_S4_DpOS3_
	.loc 6 680 2
	nop
	mov	rax, QWORD PTR 24[rbp]
	mov	QWORD PTR -24[rbp], rax
.LBE481:
.LBE480:
.LBB484:
.LBB485:
	.loc 7 53 37
	mov	rax, QWORD PTR -24[rbp]
	mov	QWORD PTR -8[rbp], rax
	mov	rax, QWORD PTR 32[rbp]
	mov	QWORD PTR -16[rbp], rax
.LBE485:
.LBE484:
.LBB486:
.LBB487:
	.loc 6 698 19
	mov	rax, QWORD PTR -8[rbp]
	mov	rcx, rax
	call	_ZSt10destroy_atI12NoexceptMoveEvPT_
	.loc 6 700 2
	nop
.LBE487:
.LBE486:
	.loc 14 1317 5
	nop
	add	rsp, 96
	pop	rbp
	.cfi_restore 6
	.cfi_def_cfa 7, 8
	ret
	.cfi_endproc
.LFE1973:
	.seh_endproc
	.section	.text$_ZSt12construct_atI8CopyOnlyJRKS0_EQaant20is_unbounded_array_vIT_ErqXgsnwcvPvLi0E_S3_pispcl7declvalIT0_EEEEEPS3_S6_DpOS5_,"x"
	.linkonce discard
	.globl	_ZSt12construct_atI8CopyOnlyJRKS0_EQaant20is_unbounded_array_vIT_ErqXgsnwcvPvLi0E_S3_pispcl7declvalIT0_EEEEEPS3_S6_DpOS5_
	.def	_ZSt12construct_atI8CopyOnlyJRKS0_EQaant20is_unbounded_array_vIT_ErqXgsnwcvPvLi0E_S3_pispcl7declvalIT0_EEEEEPS3_S6_DpOS5_;	.scl	2;	.type	32;	.endef
	.seh_proc	_ZSt12construct_atI8CopyOnlyJRKS0_EQaant20is_unbounded_array_vIT_ErqXgsnwcvPvLi0E_S3_pispcl7declvalIT0_EEEEEPS3_S6_DpOS5_
_ZSt12construct_atI8CopyOnlyJRKS0_EQaant20is_unbounded_array_vIT_ErqXgsnwcvPvLi0E_S3_pispcl7declvalIT0_EEEEEPS3_S6_DpOS5_:
.LFB1976:
	.loc 10 96 5
	.cfi_startproc
	push	rbp
	.seh_pushreg	rbp
	.cfi_def_cfa_offset 16
	.cfi_offset 6, -16
	push	rsi
	.seh_pushreg	rsi
	.cfi_def_cfa_offset 24
	.cfi_offset 4, -24
	push	rbx
	.seh_pushreg	rbx
	.cfi_def_cfa_offset 32
	.cfi_offset 3, -32
	sub	rsp, 48
	.seh_stackalloc	48
	.cfi_def_cfa_offset 80
	lea	rbp, 48[rsp]
	.seh_setframe	rbp, 48
	.cfi_def_cfa 6, 32
	.seh_endprologue
	mov	QWORD PTR 32[rbp], rcx
	mov	QWORD PTR 40[rbp], rdx
	.loc 10 99 13
	mov	rax, QWORD PTR 32[rbp]
	mov	QWORD PTR -8[rbp], rax
	.loc 10 110 15
	mov	rsi, QWORD PTR -8[rbp]
	.loc 10 110 9
	mov	rdx, rsi
	mov	ecx, 4
	call	_ZnwyPv
	mov	rbx, rax
	mov	rax, QWORD PTR 40[rbp]
	mov	QWORD PTR -16[rbp], rax
.LBB488:
.LBB489:
	.loc 7 73 36
	mov	rax, QWORD PTR -16[rbp]
.LBE489:
.LBE488:
	.loc 10 110 9 discriminator 2
	mov	eax, DWORD PTR [rax]
	mov	DWORD PTR [rbx], eax
	.loc 10 110 56 discriminator 2
	mov	eax, 0
	.loc 10 110 56 is_stmt 0 discriminator 3
	test	al, al
	je	.L275
	.loc 10 110 9 is_stmt 1 discriminator 4
	mov	rdx, rsi
	mov	rcx, rbx
	call	_ZdlPvS_
.L275:
	.loc 10 110 56 discriminator 8
	mov	rax, rbx
	.loc 10 111 5
	add	rsp, 48
	pop	rbx
	.cfi_restore 3
	pop	rsi
	.cfi_restore 4
	pop	rbp
	.cfi_restore 6
	.cfi_def_cfa 7, -24
	ret
	.cfi_endproc
.LFE1976:
	.seh_endproc
	.weak	_ZSt12construct_atI8CopyOnlyJRKS0_EEPT_S4_DpOT0_
	.def	_ZSt12construct_atI8CopyOnlyJRKS0_EEPT_S4_DpOT0_;	.scl	2;	.type	32;	.endef
	.set	_ZSt12construct_atI8CopyOnlyJRKS0_EEPT_S4_DpOT0_,_ZSt12construct_atI8CopyOnlyJRKS0_EQaant20is_unbounded_array_vIT_ErqXgsnwcvPvLi0E_S3_pispcl7declvalIT0_EEEEEPS3_S6_DpOS5_
	.text
.Letext0:
	.file 16 "C:/Qt/Tools/mingw1530_64/include/c++/15.3.0/bits/utility.h"
	.file 17 "C:/Qt/Tools/mingw1530_64/include/c++/15.3.0/concepts"
	.file 18 "C:/Qt/Tools/mingw1530_64/include/c++/15.3.0/bits/iterator_concepts.h"
	.file 19 "C:/Qt/Tools/mingw1530_64/include/c++/15.3.0/compare"
	.file 20 "C:/Qt/Tools/mingw1530_64/include/c++/15.3.0/debug/debug.h"
	.file 21 "C:/Qt/Tools/mingw1530_64/include/c++/15.3.0/numbers"
	.file 22 "C:/Qt/Tools/mingw1530_64/include/c++/15.3.0/bits/memory_resource.h"
	.file 23 "C:/Qt/Tools/mingw1530_64/include/c++/15.3.0/cstddef"
	.file 24 "C:/Qt/Tools/mingw1530_64/include/c++/15.3.0/initializer_list"
	.file 25 "C:/Qt/Tools/mingw1530_64/include/c++/15.3.0/bits/stl_iterator_base_types.h"
	.file 26 "C:/Qt/Tools/mingw1530_64/include/c++/15.3.0/bits/functexcept.h"
	.file 27 "C:/Qt/Tools/mingw1530_64/include/c++/15.3.0/bits/predefined_ops.h"
	.file 28 "C:/Qt/Tools/mingw1530_64/include/c++/15.3.0/ext/alloc_traits.h"
	.file 29 "C:/Qt/Tools/mingw1530_64/x86_64-w64-mingw32/include/stddef.h"