	.file	"_ch142_soa.cpp"
	.intel_syntax noprefix
	.text
.Ltext0:
	.cfi_sections	.debug_frame
	.file 0 "C:/CodeLearnling/note/note/C++/CPP-Bible" "Examples/_ch142_soa.cpp"
	.section	.text$_ZSt21is_constant_evaluatedv,"x"
	.linkonce discard
	.globl	_ZSt21is_constant_evaluatedv
	.def	_ZSt21is_constant_evaluatedv;	.scl	2;	.type	32;	.endef
	.seh_proc	_ZSt21is_constant_evaluatedv
_ZSt21is_constant_evaluatedv:
.LFB15:
	.file 1 "C:/Qt/Tools/mingw1530_64/include/c++/15.3.0/type_traits"
	.loc 1 4008 3
	.cfi_startproc
	push	rbp
	.seh_pushreg	rbp
	.cfi_def_cfa_offset 16
	.cfi_offset 6, -16
	mov	rbp, rsp
	.seh_setframe	rbp, 0
	.cfi_def_cfa_register 6
	.seh_endprologue
	.loc 1 4010 49
	mov	eax, 0
	.loc 1 4014 3
	pop	rbp
	.cfi_restore 6
	.cfi_def_cfa 7, 8
	ret
	.cfi_endproc
.LFE15:
	.seh_endproc
	.section	.text$_ZnwyPv,"x"
	.linkonce discard
	.globl	_ZnwyPv
	.def	_ZnwyPv;	.scl	2;	.type	32;	.endef
	.seh_proc	_ZnwyPv
_ZnwyPv:
.LFB220:
	.file 2 "C:/Qt/Tools/mingw1530_64/include/c++/15.3.0/new"
	.loc 2 208 1
	.cfi_startproc
	push	rbp
	.seh_pushreg	rbp
	.cfi_def_cfa_offset 16
	.cfi_offset 6, -16
	mov	rbp, rsp
	.seh_setframe	rbp, 0
	.cfi_def_cfa_register 6
	.seh_endprologue
	mov	QWORD PTR 16[rbp], rcx
	mov	QWORD PTR 24[rbp], rdx
	.loc 2 208 10
	mov	rax, QWORD PTR 24[rbp]
	.loc 2 208 15
	pop	rbp
	.cfi_restore 6
	.cfi_def_cfa 7, 8
	ret
	.cfi_endproc
.LFE220:
	.seh_endproc
	.section	.text$_ZdlPvS_,"x"
	.linkonce discard
	.globl	_ZdlPvS_
	.def	_ZdlPvS_;	.scl	2;	.type	32;	.endef
	.seh_proc	_ZdlPvS_
_ZdlPvS_:
.LFB222:
	.loc 2 219 1
	.cfi_startproc
	push	rbp
	.seh_pushreg	rbp
	.cfi_def_cfa_offset 16
	.cfi_offset 6, -16
	mov	rbp, rsp
	.seh_setframe	rbp, 0
	.cfi_def_cfa_register 6
	.seh_endprologue
	mov	QWORD PTR 16[rbp], rcx
	mov	QWORD PTR 24[rbp], rdx
	.loc 2 219 3
	nop
	pop	rbp
	.cfi_restore 6
	.cfi_def_cfa 7, 8
	ret
	.cfi_endproc
.LFE222:
	.seh_endproc
	.section	.text$_ZSt17__size_to_integery,"x"
	.linkonce discard
	.globl	_ZSt17__size_to_integery
	.def	_ZSt17__size_to_integery;	.scl	2;	.type	32;	.endef
	.seh_proc	_ZSt17__size_to_integery
_ZSt17__size_to_integery:
.LFB564:
	.file 3 "C:/Qt/Tools/mingw1530_64/include/c++/15.3.0/bits/stl_algobase.h"
	.loc 3 1028 45
	.cfi_startproc
	push	rbp
	.seh_pushreg	rbp
	.cfi_def_cfa_offset 16
	.cfi_offset 6, -16
	mov	rbp, rsp
	.seh_setframe	rbp, 0
	.cfi_def_cfa_register 6
	.seh_endprologue
	mov	QWORD PTR 16[rbp], rcx
	.loc 3 1028 54
	mov	rax, QWORD PTR 16[rbp]
	.loc 3 1028 59
	pop	rbp
	.cfi_restore 6
	.cfi_def_cfa 7, 8
	ret
	.cfi_endproc
.LFE564:
	.seh_endproc
	.text
	.globl	_Z13integrate_soaR12ParticlesSoAf
	.def	_Z13integrate_soaR12ParticlesSoAf;	.scl	2;	.type	32;	.endef
	.seh_proc	_Z13integrate_soaR12ParticlesSoAf
_Z13integrate_soaR12ParticlesSoAf:
.LFB1719:
	.file 4 "Examples/_ch142_soa.cpp"
	.loc 4 13 48
	.cfi_startproc
	push	rbp
	.seh_pushreg	rbp
	.cfi_def_cfa_offset 16
	.cfi_offset 6, -16
	sub	rsp, 64
	.seh_stackalloc	64
	.cfi_def_cfa_offset 80
	lea	rbp, 48[rsp]
	.seh_setframe	rbp, 48
	.cfi_def_cfa 6, 32
	movaps	XMMWORD PTR 0[rbp], xmm6
	.seh_savexmm	xmm6, 48
	.cfi_offset 23, -32
	.seh_endprologue
	mov	QWORD PTR 32[rbp], rcx
	movss	DWORD PTR 40[rbp], xmm1
.LBB133:
	.loc 4 14 22
	mov	QWORD PTR -8[rbp], 0
	.loc 4 14 5
	jmp	.L9
.L10:
	.loc 4 15 27
	mov	rax, QWORD PTR 32[rbp]
	lea	rcx, 72[rax]
	mov	rax, QWORD PTR -8[rbp]
	mov	rdx, rax
	call	_ZNSt6vectorIfSaIfEEixEy
	.loc 4 15 29 discriminator 1
	movss	xmm0, DWORD PTR [rax]
	movaps	xmm6, xmm0
	mulss	xmm6, DWORD PTR 40[rbp]
	.loc 4 15 15 discriminator 1
	mov	rax, QWORD PTR 32[rbp]
	mov	rdx, QWORD PTR -8[rbp]
	mov	rcx, rax
	call	_ZNSt6vectorIfSaIfEEixEy
	.loc 4 15 17 discriminator 2
	movss	xmm0, DWORD PTR [rax]
	addss	xmm0, xmm6
	movss	DWORD PTR [rax], xmm0
	.loc 4 14 5 discriminator 4
	add	QWORD PTR -8[rbp], 1
.L9:
	.loc 4 14 42 discriminator 1
	mov	rax, QWORD PTR 32[rbp]
	mov	rcx, rax
	call	_ZNKSt6vectorIfSaIfEE4sizeEv
	.loc 4 14 31 discriminator 3
	cmp	QWORD PTR -8[rbp], rax
	setb	al
	test	al, al
	jne	.L10
.LBE133:
	.loc 4 17 1
	nop
	nop
	movaps	xmm6, XMMWORD PTR 0[rbp]
	add	rsp, 64
	.cfi_restore 23
	pop	rbp
	.cfi_restore 6
	.cfi_def_cfa 7, -56
	ret
	.cfi_endproc
.LFE1719:
	.seh_endproc
	.section	.text$_ZNSt12_Vector_baseIfSaIfEE12_Vector_implD1Ev,"x"
	.linkonce discard
	.align 2
	.globl	_ZNSt12_Vector_baseIfSaIfEE12_Vector_implD1Ev
	.def	_ZNSt12_Vector_baseIfSaIfEE12_Vector_implD1Ev;	.scl	2;	.type	32;	.endef
	.seh_proc	_ZNSt12_Vector_baseIfSaIfEE12_Vector_implD1Ev
_ZNSt12_Vector_baseIfSaIfEE12_Vector_implD1Ev:
.LFB1727:
	.file 5 "C:/Qt/Tools/mingw1530_64/include/c++/15.3.0/bits/stl_vector.h"
	.loc 5 139 14
	.cfi_startproc
	push	rbp
	.seh_pushreg	rbp
	.cfi_def_cfa_offset 16
	.cfi_offset 6, -16
	mov	rbp, rsp
	.seh_setframe	rbp, 0
	.cfi_def_cfa_register 6
	sub	rsp, 16
	.seh_stackalloc	16
	.seh_endprologue
	mov	QWORD PTR 16[rbp], rcx
	mov	rax, QWORD PTR 16[rbp]
	mov	QWORD PTR -8[rbp], rax
.LBB134:
.LBB135:
.LBB136:
	.file 6 "C:/Qt/Tools/mingw1530_64/include/c++/15.3.0/bits/allocator.h"
	.loc 6 189 39
	nop
.LBE136:
.LBE135:
.LBE134:
	.loc 5 139 14
	nop
	add	rsp, 16
	pop	rbp
	.cfi_restore 6
	.cfi_def_cfa 7, 8
	ret
	.cfi_endproc
.LFE1727:
	.seh_endproc
	.section	.text$_ZNSt12_Vector_baseIfSaIfEE17_Vector_impl_dataC2Ev,"x"
	.linkonce discard
	.align 2
	.globl	_ZNSt12_Vector_baseIfSaIfEE17_Vector_impl_dataC2Ev
	.def	_ZNSt12_Vector_baseIfSaIfEE17_Vector_impl_dataC2Ev;	.scl	2;	.type	32;	.endef
	.seh_proc	_ZNSt12_Vector_baseIfSaIfEE17_Vector_impl_dataC2Ev
_ZNSt12_Vector_baseIfSaIfEE17_Vector_impl_dataC2Ev:
.LFB1744:
	.loc 5 105 2
	.cfi_startproc
	push	rbp
	.seh_pushreg	rbp
	.cfi_def_cfa_offset 16
	.cfi_offset 6, -16
	mov	rbp, rsp
	.seh_setframe	rbp, 0
	.cfi_def_cfa_register 6
	.seh_endprologue
	mov	QWORD PTR 16[rbp], rcx
.LBB137:
	.loc 5 106 4
	mov	rax, QWORD PTR 16[rbp]
	mov	QWORD PTR [rax], 0
	.loc 5 106 16
	mov	rax, QWORD PTR 16[rbp]
	mov	QWORD PTR 8[rax], 0
	.loc 5 106 29
	mov	rax, QWORD PTR 16[rbp]
	mov	QWORD PTR 16[rax], 0
.LBE137:
	.loc 5 107 4
	nop
	pop	rbp
	.cfi_restore 6
	.cfi_def_cfa 7, 8
	ret
	.cfi_endproc
.LFE1744:
	.seh_endproc
	.section	.text$_ZN12ParticlesSoAD1Ev,"x"
	.linkonce discard
	.align 2
	.globl	_ZN12ParticlesSoAD1Ev
	.def	_ZN12ParticlesSoAD1Ev;	.scl	2;	.type	32;	.endef
	.seh_proc	_ZN12ParticlesSoAD1Ev
_ZN12ParticlesSoAD1Ev:
.LFB1748:
	.loc 4 7 8
	.cfi_startproc
	push	rbp
	.seh_pushreg	rbp
	.cfi_def_cfa_offset 16
	.cfi_offset 6, -16
	mov	rbp, rsp
	.seh_setframe	rbp, 0
	.cfi_def_cfa_register 6
	sub	rsp, 32
	.seh_stackalloc	32
	.seh_endprologue
	mov	QWORD PTR 16[rbp], rcx
.LBB138:
	.loc 4 7 8
	mov	rax, QWORD PTR 16[rbp]
	add	rax, 120
	mov	rcx, rax
	call	_ZNSt6vectorIfSaIfEED1Ev
	.loc 4 7 8 is_stmt 0 discriminator 1
	mov	rax, QWORD PTR 16[rbp]
	add	rax, 96
	mov	rcx, rax
	call	_ZNSt6vectorIfSaIfEED1Ev
	.loc 4 7 8 discriminator 2
	mov	rax, QWORD PTR 16[rbp]
	add	rax, 72
	mov	rcx, rax
	call	_ZNSt6vectorIfSaIfEED1Ev
	.loc 4 7 8 discriminator 3
	mov	rax, QWORD PTR 16[rbp]
	add	rax, 48
	mov	rcx, rax
	call	_ZNSt6vectorIfSaIfEED1Ev
	.loc 4 7 8 discriminator 4
	mov	rax, QWORD PTR 16[rbp]
	add	rax, 24
	mov	rcx, rax
	call	_ZNSt6vectorIfSaIfEED1Ev
	.loc 4 7 8 discriminator 5
	mov	rax, QWORD PTR 16[rbp]
	mov	rcx, rax
	call	_ZNSt6vectorIfSaIfEED1Ev
.LBE138:
	.loc 4 7 8
	nop
	add	rsp, 32
	pop	rbp
	.cfi_restore 6
	.cfi_def_cfa 7, 8
	ret
	.cfi_endproc
.LFE1748:
	.seh_endproc
	.text
	.globl	main
	.def	main;	.scl	2;	.type	32;	.endef
	.seh_proc	main
main:
.LFB1720:
	.loc 4 19 12 is_stmt 1
	.cfi_startproc
	push	rbp
	.seh_pushreg	rbp
	.cfi_def_cfa_offset 16
	.cfi_offset 6, -16
	push	rdi
	.seh_pushreg	rdi
	.cfi_def_cfa_offset 24
	.cfi_offset 5, -24
	push	rbx
	.seh_pushreg	rbx
	.cfi_def_cfa_offset 32
	.cfi_offset 3, -32
	sub	rsp, 192
	.seh_stackalloc	192
	.cfi_def_cfa_offset 224
	lea	rbp, 192[rsp]
	.seh_setframe	rbp, 192
	.cfi_def_cfa 6, 32
	.seh_endprologue
	.loc 4 19 12
	call	__main
	.loc 4 20 18
	lea	rdx, -160[rbp]
	mov	eax, 0
	mov	ecx, 18
	mov	rdi, rdx
	rep stosq
	.loc 4 21 23
	pxor	xmm0, xmm0
	movss	DWORD PTR -8[rbp], xmm0
	.loc 4 21 16
	lea	rdx, -8[rbp]
	lea	rax, -160[rbp]
	mov	r8, rdx
	mov	edx, 1024
	mov	rcx, rax
.LEHB0:
	call	_ZNSt6vectorIfSaIfEE6assignEyRKf
	.loc 4 22 24
	movss	xmm0, DWORD PTR .LC1[rip]
	movss	DWORD PTR -4[rbp], xmm0
	.loc 4 22 17
	lea	rdx, -4[rbp]
	lea	rax, -160[rbp]
	add	rax, 72
	mov	r8, rdx
	mov	edx, 1024
	mov	rcx, rax
	call	_ZNSt6vectorIfSaIfEE6assignEyRKf
.LEHE0:
	.loc 4 23 18
	lea	rax, -160[rbp]
	movss	xmm1, DWORD PTR .LC2[rip]
	mov	rcx, rax
	call	_Z13integrate_soaR12ParticlesSoAf
	.loc 4 24 23
	lea	rax, -160[rbp]
	mov	edx, 0
	mov	rcx, rax
	call	_ZNSt6vectorIfSaIfEEixEy
	.loc 4 24 12 discriminator 1
	movss	xmm0, DWORD PTR [rax]
	.loc 4 24 23 discriminator 1
	cvttss2si	ebx, xmm0
	.loc 4 25 1
	lea	rax, -160[rbp]
	mov	rcx, rax
	call	_ZN12ParticlesSoAD1Ev
	mov	eax, ebx
	jmp	.L18
.L17:
	mov	rbx, rax
	lea	rax, -160[rbp]
	mov	rcx, rax
	call	_ZN12ParticlesSoAD1Ev
	mov	rax, rbx
	mov	rcx, rax
.LEHB1:
	call	_Unwind_Resume
.LEHE1:
.L18:
	add	rsp, 192
	pop	rbx
	.cfi_restore 3
	pop	rdi
	.cfi_restore 5
	pop	rbp
	.cfi_restore 6
	.cfi_def_cfa 7, -168
	ret
	.cfi_endproc
.LFE1720:
	.seh_handler	__gxx_personality_seh0, @unwind, @except
	.seh_handlerdata
.LLSDA1720:
	.byte	0xff
	.byte	0xff
	.byte	0x1
	.uleb128 .LLSDACSE1720-.LLSDACSB1720
.LLSDACSB1720:
	.uleb128 .LEHB0-.LFB1720
	.uleb128 .LEHE0-.LEHB0
	.uleb128 .L17-.LFB1720
	.uleb128 0
	.uleb128 .LEHB1-.LFB1720
	.uleb128 .LEHE1-.LEHB1
	.uleb128 0
	.uleb128 0
.LLSDACSE1720:
	.text
	.seh_endproc
	.section	.text$_ZNKSt6vectorIfSaIfEE4sizeEv,"x"
	.linkonce discard
	.align 2
	.globl	_ZNKSt6vectorIfSaIfEE4sizeEv
	.def	_ZNKSt6vectorIfSaIfEE4sizeEv;	.scl	2;	.type	32;	.endef
	.seh_proc	_ZNKSt6vectorIfSaIfEE4sizeEv
_ZNKSt6vectorIfSaIfEE4sizeEv:
.LFB1754:
	.loc 5 1117 7
	.cfi_startproc
	push	rbp
	.seh_pushreg	rbp
	.cfi_def_cfa_offset 16
	.cfi_offset 6, -16
	mov	rbp, rsp
	.seh_setframe	rbp, 0
	.cfi_def_cfa_register 6
	sub	rsp, 16
	.seh_stackalloc	16
	.seh_endprologue
	mov	QWORD PTR 16[rbp], rcx
	.loc 5 1119 34
	mov	rax, QWORD PTR 16[rbp]
	mov	rdx, QWORD PTR 8[rax]
	.loc 5 1119 60
	mov	rax, QWORD PTR 16[rbp]
	mov	rax, QWORD PTR [rax]
	.loc 5 1119 44
	sub	rdx, rax
	.loc 5 1119 12
	mov	rax, rdx
	sar	rax, 2
	mov	QWORD PTR -8[rbp], rax
	.loc 5 1120 2
	cmp	QWORD PTR -8[rbp], 0
	.loc 5 1122 24
	mov	rax, QWORD PTR -8[rbp]
	.loc 5 1123 7
	add	rsp, 16
	pop	rbp
	.cfi_restore 6
	.cfi_def_cfa 7, 8
	ret
	.cfi_endproc
.LFE1754:
	.seh_endproc
	.section .rdata,"dr"
.LC3:
	.ascii "__n < this->size()\0"
	.align 8
.LC4:
	.ascii "constexpr std::vector<_Tp, _Alloc>::reference std::vector<_Tp, _Alloc>::operator[](size_type) [with _Tp = float; _Alloc = std::allocator<float>; reference = float&; size_type = long long unsigned int]\0"
	.align 8
.LC5:
	.ascii "C:/Qt/Tools/mingw1530_64/include/c++/15.3.0/bits/stl_vector.h\0"
	.section	.text$_ZNSt6vectorIfSaIfEEixEy,"x"
	.linkonce discard
	.align 2
	.globl	_ZNSt6vectorIfSaIfEEixEy
	.def	_ZNSt6vectorIfSaIfEEixEy;	.scl	2;	.type	32;	.endef
	.seh_proc	_ZNSt6vectorIfSaIfEEixEy
_ZNSt6vectorIfSaIfEEixEy:
.LFB1755:
	.loc 5 1261 7
	.cfi_startproc
	push	rbp
	.seh_pushreg	rbp
	.cfi_def_cfa_offset 16
	.cfi_offset 6, -16
	mov	rbp, rsp
	.seh_setframe	rbp, 0
	.cfi_def_cfa_register 6
	sub	rsp, 32
	.seh_stackalloc	32
	.seh_endprologue
	mov	QWORD PTR 16[rbp], rcx
	mov	QWORD PTR 24[rbp], rdx
	.loc 5 1263 2
	mov	rax, QWORD PTR 16[rbp]
	mov	rcx, rax
	call	_ZNKSt6vectorIfSaIfEE4sizeEv
	.loc 5 1263 2 is_stmt 0 discriminator 1
	cmp	QWORD PTR 24[rbp], rax
	setnb	al
	movzx	eax, al
	.loc 5 1263 2 discriminator 2
	test	eax, eax
	setne	al
	test	al, al
	je	.L23
	.loc 5 1263 2 discriminator 3
	lea	rcx, .LC3[rip]
	lea	rdx, .LC4[rip]
	lea	rax, .LC5[rip]
	mov	r9, rcx
	mov	r8, rdx
	mov	edx, 1263
	mov	rcx, rax
	call	_ZSt21__glibcxx_assert_failPKciS0_S0_
.L23:
	.loc 5 1264 25 is_stmt 1
	mov	rax, QWORD PTR 16[rbp]
	mov	rax, QWORD PTR [rax]
	.loc 5 1264 34
	mov	rdx, QWORD PTR 24[rbp]
	sal	rdx, 2
	.loc 5 1264 39
	add	rax, rdx
	.loc 5 1265 7
	add	rsp, 32
	pop	rbp
	.cfi_restore 6
	.cfi_def_cfa 7, 8
	ret
	.cfi_endproc
.LFE1755:
	.seh_endproc
	.section	.text$_ZNSt12_Vector_baseIfSaIfEED2Ev,"x"
	.linkonce discard
	.align 2
	.globl	_ZNSt12_Vector_baseIfSaIfEED2Ev
	.def	_ZNSt12_Vector_baseIfSaIfEED2Ev;	.scl	2;	.type	32;	.endef
	.seh_proc	_ZNSt12_Vector_baseIfSaIfEED2Ev
_ZNSt12_Vector_baseIfSaIfEED2Ev:
.LFB1760:
	.loc 5 373 7
	.cfi_startproc
	push	rbp
	.seh_pushreg	rbp
	.cfi_def_cfa_offset 16
	.cfi_offset 6, -16
	mov	rbp, rsp
	.seh_setframe	rbp, 0
	.cfi_def_cfa_register 6
	sub	rsp, 32
	.seh_stackalloc	32
	.seh_endprologue
	mov	QWORD PTR 16[rbp], rcx
.LBB139:
	.loc 5 376 17
	mov	rax, QWORD PTR 16[rbp]
	mov	rdx, QWORD PTR 16[rax]
	.loc 5 376 45
	mov	rax, QWORD PTR 16[rbp]
	mov	rax, QWORD PTR [rax]
	.loc 5 376 35
	sub	rdx, rax
	mov	rax, rdx
	sar	rax, 2
	.loc 5 375 15
	mov	rcx, rax
	mov	rax, QWORD PTR 16[rbp]
	mov	rdx, QWORD PTR [rax]
	mov	rax, QWORD PTR 16[rbp]
	mov	r8, rcx
	mov	rcx, rax
	call	_ZNSt12_Vector_baseIfSaIfEE13_M_deallocateEPfy
	.loc 5 377 7
	mov	rax, QWORD PTR 16[rbp]
	mov	rcx, rax
	call	_ZNSt12_Vector_baseIfSaIfEE12_Vector_implD1Ev
.LBE139:
	nop
	add	rsp, 32
	pop	rbp
	.cfi_restore 6
	.cfi_def_cfa 7, 8
	ret
	.cfi_endproc
.LFE1760:
	.seh_handler	__gxx_personality_seh0, @unwind, @except
	.seh_handlerdata
.LLSDA1760:
	.byte	0xff
	.byte	0xff
	.byte	0x1
	.uleb128 .LLSDACSE1760-.LLSDACSB1760
.LLSDACSB1760:
.LLSDACSE1760:
	.section	.text$_ZNSt12_Vector_baseIfSaIfEED2Ev,"x"
	.linkonce discard
	.seh_endproc
	.section	.text$_ZNSt6vectorIfSaIfEED1Ev,"x"
	.linkonce discard
	.align 2
	.globl	_ZNSt6vectorIfSaIfEED1Ev
	.def	_ZNSt6vectorIfSaIfEED1Ev;	.scl	2;	.type	32;	.endef
	.seh_proc	_ZNSt6vectorIfSaIfEED1Ev
_ZNSt6vectorIfSaIfEED1Ev:
.LFB1764:
	.loc 5 800 7
	.cfi_startproc
	push	rbp
	.seh_pushreg	rbp
	.cfi_def_cfa_offset 16
	.cfi_offset 6, -16
	mov	rbp, rsp
	.seh_setframe	rbp, 0
	.cfi_def_cfa_register 6
	sub	rsp, 64
	.seh_stackalloc	64
	.seh_endprologue
	mov	QWORD PTR 16[rbp], rcx
.LBB140:
	.loc 5 803 28
	mov	rax, QWORD PTR 16[rbp]
	mov	rcx, rax
	call	_ZNSt12_Vector_baseIfSaIfEE19_M_get_Tp_allocatorEv
	.loc 5 802 54
	mov	rdx, QWORD PTR 16[rbp]
	mov	rdx, QWORD PTR 8[rdx]
	.loc 5 802 30
	mov	rcx, QWORD PTR 16[rbp]
	mov	rcx, QWORD PTR [rcx]
	mov	QWORD PTR -8[rbp], rcx
	mov	QWORD PTR -16[rbp], rdx
	mov	QWORD PTR -24[rbp], rax
.LBB141:
.LBB142:
	.file 7 "C:/Qt/Tools/mingw1530_64/include/c++/15.3.0/bits/alloc_traits.h"
	.loc 7 1045 20
	mov	rdx, QWORD PTR -16[rbp]
	mov	rax, QWORD PTR -8[rbp]
	mov	rcx, rax
	call	_ZSt8_DestroyIPfEvT_S1_
	.loc 7 1046 5
	nop
.LBE142:
.LBE141:
	.loc 5 805 7
	mov	rax, QWORD PTR 16[rbp]
	mov	rcx, rax
	call	_ZNSt12_Vector_baseIfSaIfEED2Ev
.LBE140:
	nop
	add	rsp, 64
	pop	rbp
	.cfi_restore 6
	.cfi_def_cfa 7, 8
	ret
	.cfi_endproc
.LFE1764:
	.seh_handler	__gxx_personality_seh0, @unwind, @except
	.seh_handlerdata
.LLSDA1764:
	.byte	0xff
	.byte	0xff
	.byte	0x1
	.uleb128 .LLSDACSE1764-.LLSDACSB1764
.LLSDACSB1764:
.LLSDACSE1764:
	.section	.text$_ZNSt6vectorIfSaIfEED1Ev,"x"
	.linkonce discard
	.seh_endproc
	.section	.text$_ZNSt6vectorIfSaIfEE6assignEyRKf,"x"
	.linkonce discard
	.align 2
	.globl	_ZNSt6vectorIfSaIfEE6assignEyRKf
	.def	_ZNSt6vectorIfSaIfEE6assignEyRKf;	.scl	2;	.type	32;	.endef
	.seh_proc	_ZNSt6vectorIfSaIfEE6assignEyRKf
_ZNSt6vectorIfSaIfEE6assignEyRKf:
.LFB1765:
	.loc 5 875 7
	.cfi_startproc
	push	rbp
	.seh_pushreg	rbp
	.cfi_def_cfa_offset 16
	.cfi_offset 6, -16
	mov	rbp, rsp
	.seh_setframe	rbp, 0
	.cfi_def_cfa_register 6
	sub	rsp, 32
	.seh_stackalloc	32
	.seh_endprologue
	mov	QWORD PTR 16[rbp], rcx
	mov	QWORD PTR 24[rbp], rdx
	mov	QWORD PTR 32[rbp], r8
	.loc 5 876 23
	mov	rcx, QWORD PTR 32[rbp]
	mov	rdx, QWORD PTR 24[rbp]
	mov	rax, QWORD PTR 16[rbp]
	mov	r8, rcx
	mov	rcx, rax
	call	_ZNSt6vectorIfSaIfEE14_M_fill_assignEyRKf
	.loc 5 876 37
	nop
	add	rsp, 32
	pop	rbp
	.cfi_restore 6
	.cfi_def_cfa 7, 8
	ret
	.cfi_endproc
.LFE1765:
	.seh_endproc
	.section	.text$_ZNSt12_Vector_baseIfSaIfEE13_M_deallocateEPfy,"x"
	.linkonce discard
	.align 2
	.globl	_ZNSt12_Vector_baseIfSaIfEE13_M_deallocateEPfy
	.def	_ZNSt12_Vector_baseIfSaIfEE13_M_deallocateEPfy;	.scl	2;	.type	32;	.endef
	.seh_proc	_ZNSt12_Vector_baseIfSaIfEE13_M_deallocateEPfy
_ZNSt12_Vector_baseIfSaIfEE13_M_deallocateEPfy:
.LFB1766:
	.loc 5 392 7
	.cfi_startproc
	push	rbp
	.seh_pushreg	rbp
	.cfi_def_cfa_offset 16
	.cfi_offset 6, -16
	mov	rbp, rsp
	.seh_setframe	rbp, 0
	.cfi_def_cfa_register 6
	sub	rsp, 80
	.seh_stackalloc	80
	.seh_endprologue
	mov	QWORD PTR 16[rbp], rcx
	mov	QWORD PTR 24[rbp], rdx
	mov	QWORD PTR 32[rbp], r8
	.loc 5 395 2
	cmp	QWORD PTR 24[rbp], 0
	je	.L33
	.loc 5 396 20
	mov	rax, QWORD PTR 16[rbp]
	mov	QWORD PTR -8[rbp], rax
	mov	rax, QWORD PTR 24[rbp]
	mov	QWORD PTR -16[rbp], rax
	mov	rax, QWORD PTR 32[rbp]
	mov	QWORD PTR -24[rbp], rax
	mov	rax, QWORD PTR -8[rbp]
	mov	QWORD PTR -32[rbp], rax
	mov	rax, QWORD PTR -16[rbp]
	mov	QWORD PTR -40[rbp], rax
	mov	rax, QWORD PTR -24[rbp]
	mov	QWORD PTR -48[rbp], rax
.LBB143:
.LBB144:
.LBB145:
.LBB146:
.LBB147:
.LBB148:
	.file 8 "C:/Qt/Tools/mingw1530_64/include/c++/15.3.0/x86_64-w64-mingw32/bits/c++config.h"
	.loc 8 586 49
	mov	eax, 0
.LBE148:
.LBE147:
	.loc 6 210 2 discriminator 1
	test	al, al
	je	.L31
	.loc 6 212 23
	mov	rax, QWORD PTR -40[rbp]
	mov	rcx, rax
	call	_ZdlPv
	.loc 6 213 6
	jmp	.L32
.L31:
	.loc 6 215 35
	mov	rcx, QWORD PTR -48[rbp]
	mov	rdx, QWORD PTR -40[rbp]
	mov	rax, QWORD PTR -32[rbp]
	mov	r8, rcx
	mov	rcx, rax
	call	_ZNSt15__new_allocatorIfE10deallocateEPfy
.L32:
.LBE146:
.LBE145:
	.loc 7 649 35
	nop
.L33:
.LBE144:
.LBE143:
	.loc 5 397 7
	nop
	add	rsp, 80
	pop	rbp
	.cfi_restore 6
	.cfi_def_cfa 7, 8
	ret
	.cfi_endproc
.LFE1766:
	.seh_endproc
	.section	.text$_ZNSt12_Vector_baseIfSaIfEE19_M_get_Tp_allocatorEv,"x"
	.linkonce discard
	.align 2
	.globl	_ZNSt12_Vector_baseIfSaIfEE19_M_get_Tp_allocatorEv
	.def	_ZNSt12_Vector_baseIfSaIfEE19_M_get_Tp_allocatorEv;	.scl	2;	.type	32;	.endef
	.seh_proc	_ZNSt12_Vector_baseIfSaIfEE19_M_get_Tp_allocatorEv
_ZNSt12_Vector_baseIfSaIfEE19_M_get_Tp_allocatorEv:
.LFB1767:
	.loc 5 307 7
	.cfi_startproc
	push	rbp
	.seh_pushreg	rbp
	.cfi_def_cfa_offset 16
	.cfi_offset 6, -16
	mov	rbp, rsp
	.seh_setframe	rbp, 0
	.cfi_def_cfa_register 6
	.seh_endprologue
	mov	QWORD PTR 16[rbp], rcx
	.loc 5 308 22
	mov	rax, QWORD PTR 16[rbp]
	.loc 5 308 31
	pop	rbp
	.cfi_restore 6
	.cfi_def_cfa 7, 8
	ret
	.cfi_endproc
.LFE1767:
	.seh_endproc
	.section	.text$_ZNSt6vectorIfSaIfEE14_M_fill_assignEyRKf,"x"
	.linkonce discard
	.align 2
	.globl	_ZNSt6vectorIfSaIfEE14_M_fill_assignEyRKf
	.def	_ZNSt6vectorIfSaIfEE14_M_fill_assignEyRKf;	.scl	2;	.type	32;	.endef
	.seh_proc	_ZNSt6vectorIfSaIfEE14_M_fill_assignEyRKf
_ZNSt6vectorIfSaIfEE14_M_fill_assignEyRKf:
.LFB1769:
	.file 9 "C:/Qt/Tools/mingw1530_64/include/c++/15.3.0/bits/vector.tcc"
	.loc 9 270 5
	.cfi_startproc
	push	rbp
	.seh_pushreg	rbp
	.cfi_def_cfa_offset 16
	.cfi_offset 6, -16
	push	rbx
	.seh_pushreg	rbx
	.cfi_def_cfa_offset 24
	.cfi_offset 3, -24
	sub	rsp, 232
	.seh_stackalloc	232
	.cfi_def_cfa_offset 256
	lea	rbp, 224[rsp]
	.seh_setframe	rbp, 224
	.cfi_def_cfa 6, 32
	.seh_endprologue
	mov	QWORD PTR 32[rbp], rcx
	mov	QWORD PTR 40[rbp], rdx
	mov	QWORD PTR 48[rbp], r8
	.loc 9 273 34
	mov	rax, QWORD PTR 32[rbp]
	mov	rcx, rax
	call	_ZNKSt6vectorIfSaIfEE4sizeEv
	mov	QWORD PTR -8[rbp], rax
.LBB149:
	.loc 9 274 25
	mov	rax, QWORD PTR 32[rbp]
	mov	rcx, rax
	call	_ZNKSt6vectorIfSaIfEE8capacityEv
	.loc 9 274 15 discriminator 1
	cmp	rax, QWORD PTR 40[rbp]
	setb	al
	.loc 9 274 7 discriminator 1
	test	al, al
	je	.L37
.LBB150:
	.loc 9 276 4
	mov	rax, QWORD PTR 40[rbp]
	cmp	QWORD PTR -8[rbp], rax
	.loc 9 278 48
	mov	rax, QWORD PTR 32[rbp]
	mov	rcx, rax
	call	_ZNSt12_Vector_baseIfSaIfEE19_M_get_Tp_allocatorEv
	mov	rcx, rax
	.loc 9 278 11 discriminator 1
	mov	r8, QWORD PTR 48[rbp]
	mov	rdx, QWORD PTR 40[rbp]
	lea	rax, -128[rbp]
	mov	r9, rcx
	mov	rcx, rax
	call	_ZNSt6vectorIfSaIfEEC1EyRKfRKS0_
	.loc 9 279 30
	mov	rdx, QWORD PTR 32[rbp]
	lea	rax, -128[rbp]
	mov	rcx, rax
	call	_ZNSt12_Vector_baseIfSaIfEE17_Vector_impl_data12_M_swap_dataERS2_
	.loc 9 280 2
	lea	rax, -128[rbp]
	mov	rcx, rax
	call	_ZNSt6vectorIfSaIfEED1Ev
.LBE150:
.LBE149:
	.loc 9 293 5
	jmp	.L47
.L37:
.LBB174:
.LBB151:
.LBB152:
	.loc 9 281 12
	mov	rax, QWORD PTR 40[rbp]
	cmp	QWORD PTR -8[rbp], rax
	jnb	.L40
.LBB153:
	.loc 9 283 13
	mov	rax, QWORD PTR 32[rbp]
	mov	rcx, rax
	call	_ZNSt6vectorIfSaIfEE3endEv
	mov	rbx, rax
	.loc 9 283 13 is_stmt 0 discriminator 1
	mov	rax, QWORD PTR 32[rbp]
	mov	rcx, rax
	call	_ZNSt6vectorIfSaIfEE5beginEv
	mov	QWORD PTR -152[rbp], rax
	mov	QWORD PTR -160[rbp], rbx
	mov	rax, QWORD PTR 48[rbp]
	mov	QWORD PTR -24[rbp], rax
	mov	rax, QWORD PTR -152[rbp]
	mov	QWORD PTR -168[rbp], rax
	mov	rax, QWORD PTR -160[rbp]
	mov	QWORD PTR -176[rbp], rax
	mov	rax, QWORD PTR -24[rbp]
	mov	QWORD PTR -32[rbp], rax
	mov	rax, QWORD PTR -168[rbp]
	mov	QWORD PTR -184[rbp], rax
	mov	rax, QWORD PTR -176[rbp]
	mov	QWORD PTR -192[rbp], rax
	mov	rax, QWORD PTR -32[rbp]
	mov	QWORD PTR -40[rbp], rax
.LBB154:
.LBB155:
.LBB156:
.LBB157:
.LBB158:
.LBB159:
.LBB160:
.LBB161:
	.file 10 "C:/Qt/Tools/mingw1530_64/include/c++/15.3.0/bits/stl_iterator.h"
	.loc 10 1166 16 is_stmt 1
	lea	rax, -192[rbp]
.LBE161:
.LBE160:
	.loc 3 961 21 discriminator 1
	mov	rdx, QWORD PTR [rax]
.LBB162:
.LBB163:
	.loc 10 1166 16
	lea	rax, -184[rbp]
.LBE163:
.LBE162:
	.loc 3 961 21 discriminator 2
	mov	rax, QWORD PTR [rax]
	mov	rcx, QWORD PTR -40[rbp]
	mov	r8, rcx
	mov	rcx, rax
	call	_ZSt9__fill_a1IPffEvT_S1_RKT0_
	.loc 3 961 63
	nop
.LBE159:
.LBE158:
	.loc 3 979 49
	nop
.LBE157:
.LBE156:
	.loc 3 1012 5
	nop
.LBE155:
.LBE154:
	.loc 9 284 20
	mov	rax, QWORD PTR 40[rbp]
	sub	rax, QWORD PTR -8[rbp]
	mov	QWORD PTR -16[rbp], rax
	.loc 9 288 41
	mov	rax, QWORD PTR 32[rbp]
	mov	rcx, rax
	call	_ZNSt12_Vector_baseIfSaIfEE19_M_get_Tp_allocatorEv
	mov	rcx, rax
	.loc 9 287 50
	mov	rax, QWORD PTR 32[rbp]
	mov	rax, QWORD PTR 8[rax]
	.loc 9 287 35
	mov	r8, QWORD PTR 48[rbp]
	mov	rdx, QWORD PTR -16[rbp]
	mov	r9, rcx
	mov	rcx, rax
	call	_ZSt24__uninitialized_fill_n_aIPfyffET_S1_T0_RKT1_RSaIT2_E
	.loc 9 286 28
	mov	rdx, QWORD PTR 32[rbp]
	mov	QWORD PTR 8[rdx], rax
.LBE153:
.LBE152:
.LBE151:
.LBE174:
	.loc 9 293 5
	jmp	.L47
.L40:
.LBB175:
.LBB173:
.LBB172:
	.loc 9 292 51
	mov	rax, QWORD PTR 32[rbp]
	mov	rax, QWORD PTR [rax]
	mov	QWORD PTR -136[rbp], rax
	mov	rax, QWORD PTR 40[rbp]
	mov	QWORD PTR -48[rbp], rax
	mov	rax, QWORD PTR 48[rbp]
	mov	QWORD PTR -56[rbp], rax
.LBB164:
.LBB165:
.LBB166:
.LBB167:
	.file 11 "C:/Qt/Tools/mingw1530_64/include/c++/15.3.0/bits/stl_iterator_base_types.h"
	.loc 11 242 65
	nop
.LBE167:
.LBE166:
	.loc 3 1178 29
	mov	rax, QWORD PTR -48[rbp]
	mov	rcx, rax
	call	_ZSt17__size_to_integery
	.loc 3 1178 29 is_stmt 0 discriminator 1
	mov	rdx, QWORD PTR -136[rbp]
	mov	QWORD PTR -64[rbp], rdx
	mov	QWORD PTR -72[rbp], rax
	mov	rax, QWORD PTR -56[rbp]
	mov	QWORD PTR -80[rbp], rax
.LBB168:
.LBB169:
	.loc 3 1143 7 is_stmt 1
	cmp	QWORD PTR -72[rbp], 0
	jne	.L44
	.loc 3 1144 9
	mov	rax, QWORD PTR -64[rbp]
	jmp	.L45
.L44:
	.loc 3 1148 38
	mov	rax, QWORD PTR -72[rbp]
	lea	rdx, 0[0+rax*4]
	.loc 3 1148 20
	mov	rax, QWORD PTR -64[rbp]
	add	rdx, rax
	mov	rax, QWORD PTR -64[rbp]
	mov	QWORD PTR -88[rbp], rax
	mov	QWORD PTR -96[rbp], rdx
	mov	rax, QWORD PTR -80[rbp]
	mov	QWORD PTR -104[rbp], rax
.LBB170:
.LBB171:
	.loc 3 979 21
	mov	rcx, QWORD PTR -104[rbp]
	mov	rdx, QWORD PTR -96[rbp]
	mov	rax, QWORD PTR -88[rbp]
	mov	r8, rcx
	mov	rcx, rax
	call	_ZSt9__fill_a1IPffEvT_S1_RKT0_
	.loc 3 979 49
	nop
.LBE171:
.LBE170:
	.loc 3 1149 22
	mov	rax, QWORD PTR -72[rbp]
	lea	rdx, 0[0+rax*4]
	.loc 3 1149 24
	mov	rax, QWORD PTR -64[rbp]
	add	rax, rdx
.L45:
.LBE169:
.LBE168:
	.loc 3 1179 44
	nop
.LBE165:
.LBE164:
	.loc 9 292 24 discriminator 1
	mov	rcx, QWORD PTR 32[rbp]
	mov	rdx, rax
	call	_ZNSt6vectorIfSaIfEE15_M_erase_at_endEPf
.L47:
.LBE172:
.LBE173:
.LBE175:
	.loc 9 293 5
	nop
	add	rsp, 232
	pop	rbx
	.cfi_restore 3
	pop	rbp
	.cfi_restore 6
	.cfi_def_cfa 7, -216
	ret
	.cfi_endproc
.LFE1769:
	.seh_endproc
	.section	.text$_ZSt8_DestroyIPfEvT_S1_,"x"
	.linkonce discard
	.globl	_ZSt8_DestroyIPfEvT_S1_
	.def	_ZSt8_DestroyIPfEvT_S1_;	.scl	2;	.type	32;	.endef
	.seh_proc	_ZSt8_DestroyIPfEvT_S1_
_ZSt8_DestroyIPfEvT_S1_:
.LFB1771:
	.file 12 "C:/Qt/Tools/mingw1530_64/include/c++/15.3.0/bits/stl_construct.h"
	.loc 12 219 5
	.cfi_startproc
	push	rbp
	.seh_pushreg	rbp
	.cfi_def_cfa_offset 16
	.cfi_offset 6, -16
	mov	rbp, rsp
	.seh_setframe	rbp, 0
	.cfi_def_cfa_register 6
	sub	rsp, 48
	.seh_stackalloc	48
	.seh_endprologue
	mov	QWORD PTR 16[rbp], rcx
	mov	QWORD PTR 24[rbp], rdx
.LBB176:
.LBB177:
	.loc 8 586 49
	mov	eax, 0
.LBE177:
.LBE176:
	.loc 12 228 12 discriminator 1
	test	al, al
	je	.L54
	.loc 12 229 2
	jmp	.L51
.L53:
	mov	rax, QWORD PTR 16[rbp]
	mov	QWORD PTR -8[rbp], rax
.LBB178:
.LBB179:
	.file 13 "C:/Qt/Tools/mingw1530_64/include/c++/15.3.0/bits/move.h"
	.loc 13 53 37
	mov	rax, QWORD PTR -8[rbp]
.LBE179:
.LBE178:
	.loc 12 230 19 discriminator 1
	mov	rcx, rax
	call	_ZSt10destroy_atIfEvPT_
	.loc 12 229 2 discriminator 2
	add	QWORD PTR 16[rbp], 4
.L51:
	.loc 12 229 17 discriminator 1
	mov	rax, QWORD PTR 16[rbp]
	cmp	rax, QWORD PTR 24[rbp]
	jne	.L53
.L54:
	.loc 12 236 5
	nop
	add	rsp, 48
	pop	rbp
	.cfi_restore 6
	.cfi_def_cfa 7, 8
	ret
	.cfi_endproc
.LFE1771:
	.seh_endproc
	.section	.text$_ZNKSt6vectorIfSaIfEE8capacityEv,"x"
	.linkonce discard
	.align 2
	.globl	_ZNKSt6vectorIfSaIfEE8capacityEv
	.def	_ZNKSt6vectorIfSaIfEE8capacityEv;	.scl	2;	.type	32;	.endef
	.seh_proc	_ZNKSt6vectorIfSaIfEE8capacityEv
_ZNKSt6vectorIfSaIfEE8capacityEv:
.LFB1773:
	.loc 5 1208 7
	.cfi_startproc
	push	rbp
	.seh_pushreg	rbp
	.cfi_def_cfa_offset 16
	.cfi_offset 6, -16
	mov	rbp, rsp
	.seh_setframe	rbp, 0
	.cfi_def_cfa_register 6
	sub	rsp, 16
	.seh_stackalloc	16
	.seh_endprologue
	mov	QWORD PTR 16[rbp], rcx
	.loc 5 1210 34
	mov	rax, QWORD PTR 16[rbp]
	mov	rdx, QWORD PTR 16[rax]
	.loc 5 1211 22
	mov	rax, QWORD PTR 16[rbp]
	mov	rax, QWORD PTR [rax]
	.loc 5 1211 6
	sub	rdx, rax
	.loc 5 1210 12
	mov	rax, rdx
	sar	rax, 2
	mov	QWORD PTR -8[rbp], rax
	.loc 5 1212 2
	cmp	QWORD PTR -8[rbp], 0
	.loc 5 1214 24
	mov	rax, QWORD PTR -8[rbp]
	.loc 5 1215 7
	add	rsp, 16
	pop	rbp
	.cfi_restore 6
	.cfi_def_cfa 7, 8
	ret
	.cfi_endproc
.LFE1773:
	.seh_endproc
	.section	.text$_ZNSt6vectorIfSaIfEEC1EyRKfRKS0_,"x"
	.linkonce discard
	.align 2
	.globl	_ZNSt6vectorIfSaIfEEC1EyRKfRKS0_
	.def	_ZNSt6vectorIfSaIfEEC1EyRKfRKS0_;	.scl	2;	.type	32;	.endef
	.seh_proc	_ZNSt6vectorIfSaIfEEC1EyRKfRKS0_
_ZNSt6vectorIfSaIfEEC1EyRKfRKS0_:
.LFB1776:
	.loc 5 599 7
	.cfi_startproc
	push	rbp
	.seh_pushreg	rbp
	.cfi_def_cfa_offset 16
	.cfi_offset 6, -16
	push	rbx
	.seh_pushreg	rbx
	.cfi_def_cfa_offset 24
	.cfi_offset 3, -24
	sub	rsp, 40
	.seh_stackalloc	40
	.cfi_def_cfa_offset 64
	lea	rbp, 32[rsp]
	.seh_setframe	rbp, 32
	.cfi_def_cfa 6, 32
	.seh_endprologue
	mov	QWORD PTR 32[rbp], rcx
	mov	QWORD PTR 40[rbp], rdx
	mov	QWORD PTR 48[rbp], r8
	mov	QWORD PTR 56[rbp], r9
.LBB180:
	.loc 5 601 47
	mov	rbx, QWORD PTR 32[rbp]
	mov	rdx, QWORD PTR 56[rbp]
	mov	rax, QWORD PTR 40[rbp]
	mov	rcx, rax
.LEHB2:
	call	_ZNSt6vectorIfSaIfEE17_S_check_init_lenEyRKS0_
	.loc 5 601 47 is_stmt 0 discriminator 1
	mov	rdx, QWORD PTR 56[rbp]
	mov	r8, rdx
	mov	rdx, rax
	mov	rcx, rbx
	call	_ZNSt12_Vector_baseIfSaIfEEC2EyRKS0_
.LEHE2:
	.loc 5 602 27 is_stmt 1
	mov	rcx, QWORD PTR 48[rbp]
	mov	rdx, QWORD PTR 40[rbp]
	mov	rax, QWORD PTR 32[rbp]
	mov	r8, rcx
	mov	rcx, rax
.LEHB3:
	call	_ZNSt6vectorIfSaIfEE18_M_fill_initializeEyRKf
.LEHE3:
.LBE180:
	.loc 5 602 43
	jmp	.L61
.L60:
.LBB181:
	.loc 5 602 43 is_stmt 0 discriminator 2
	mov	rbx, rax
	mov	rax, QWORD PTR 32[rbp]
	mov	rcx, rax
	call	_ZNSt12_Vector_baseIfSaIfEED2Ev
	mov	rax, rbx
	mov	rcx, rax
.LEHB4:
	call	_Unwind_Resume
	nop
.LEHE4:
.L61:
.LBE181:
	.loc 5 602 43
	add	rsp, 40
	pop	rbx
	.cfi_restore 3
	pop	rbp
	.cfi_restore 6
	.cfi_def_cfa 7, -24
	ret
	.cfi_endproc
.LFE1776:
	.seh_handler	__gxx_personality_seh0, @unwind, @except
	.seh_handlerdata
.LLSDA1776:
	.byte	0xff
	.byte	0xff
	.byte	0x1
	.uleb128 .LLSDACSE1776-.LLSDACSB1776
.LLSDACSB1776:
	.uleb128 .LEHB2-.LFB1776
	.uleb128 .LEHE2-.LEHB2
	.uleb128 0
	.uleb128 0
	.uleb128 .LEHB3-.LFB1776
	.uleb128 .LEHE3-.LEHB3
	.uleb128 .L60-.LFB1776
	.uleb128 0
	.uleb128 .LEHB4-.LFB1776
	.uleb128 .LEHE4-.LEHB4
	.uleb128 0
	.uleb128 0
.LLSDACSE1776:
	.section	.text$_ZNSt6vectorIfSaIfEEC1EyRKfRKS0_,"x"
	.linkonce discard
	.seh_endproc
	.section	.text$_ZNSt12_Vector_baseIfSaIfEE17_Vector_impl_data12_M_swap_dataERS2_,"x"
	.linkonce discard
	.align 2
	.globl	_ZNSt12_Vector_baseIfSaIfEE17_Vector_impl_data12_M_swap_dataERS2_
	.def	_ZNSt12_Vector_baseIfSaIfEE17_Vector_impl_data12_M_swap_dataERS2_;	.scl	2;	.type	32;	.endef
	.seh_proc	_ZNSt12_Vector_baseIfSaIfEE17_Vector_impl_data12_M_swap_dataERS2_
_ZNSt12_Vector_baseIfSaIfEE17_Vector_impl_data12_M_swap_dataERS2_:
.LFB1777:
	.loc 5 128 2 is_stmt 1
	.cfi_startproc
	push	rbp
	.seh_pushreg	rbp
	.cfi_def_cfa_offset 16
	.cfi_offset 6, -16
	mov	rbp, rsp
	.seh_setframe	rbp, 0
	.cfi_def_cfa_register 6
	sub	rsp, 64
	.seh_stackalloc	64
	.seh_endprologue
	mov	QWORD PTR 16[rbp], rcx
	mov	QWORD PTR 24[rbp], rdx
	.loc 5 132 22
	mov	QWORD PTR -32[rbp], 0
	mov	QWORD PTR -24[rbp], 0
	mov	QWORD PTR -16[rbp], 0
	.loc 5 133 22
	mov	rdx, QWORD PTR 16[rbp]
	lea	rax, -32[rbp]
	mov	rcx, rax
	call	_ZNSt12_Vector_baseIfSaIfEE17_Vector_impl_data12_M_copy_dataERKS2_
	.loc 5 134 16
	mov	rdx, QWORD PTR 24[rbp]
	mov	rax, QWORD PTR 16[rbp]
	mov	rcx, rax
	call	_ZNSt12_Vector_baseIfSaIfEE17_Vector_impl_data12_M_copy_dataERKS2_
	.loc 5 135 20
	lea	rdx, -32[rbp]
	mov	rax, QWORD PTR 24[rbp]
	mov	rcx, rax
	call	_ZNSt12_Vector_baseIfSaIfEE17_Vector_impl_data12_M_copy_dataERKS2_
	.loc 5 136 2
	nop
	add	rsp, 64
	pop	rbp
	.cfi_restore 6
	.cfi_def_cfa 7, 8
	ret
	.cfi_endproc
.LFE1777:
	.seh_endproc
	.section	.text$_ZNSt6vectorIfSaIfEE5beginEv,"x"
	.linkonce discard
	.align 2
	.globl	_ZNSt6vectorIfSaIfEE5beginEv
	.def	_ZNSt6vectorIfSaIfEE5beginEv;	.scl	2;	.type	32;	.endef
	.seh_proc	_ZNSt6vectorIfSaIfEE5beginEv
_ZNSt6vectorIfSaIfEE5beginEv:
.LFB1778:
	.loc 5 998 7
	.cfi_startproc
	push	rbp
	.seh_pushreg	rbp
	.cfi_def_cfa_offset 16
	.cfi_offset 6, -16
	mov	rbp, rsp
	.seh_setframe	rbp, 0
	.cfi_def_cfa_register 6
	sub	rsp, 16
	.seh_stackalloc	16
	.seh_endprologue
	mov	QWORD PTR 16[rbp], rcx
	.loc 5 999 39
	mov	rax, QWORD PTR 16[rbp]
	mov	QWORD PTR -8[rbp], rax
.LBB182:
.LBB183:
.LBB184:
	.loc 10 1059 9
	mov	rax, QWORD PTR -8[rbp]
	mov	rax, QWORD PTR [rax]
	mov	QWORD PTR -16[rbp], rax
.LBE184:
	.loc 10 1059 27
	nop
.LBE183:
.LBE182:
	.loc 5 999 47 discriminator 1
	mov	rax, QWORD PTR -16[rbp]
	.loc 5 999 50
	add	rsp, 16
	pop	rbp
	.cfi_restore 6
	.cfi_def_cfa 7, 8
	ret
	.cfi_endproc
.LFE1778:
	.seh_endproc
	.section	.text$_ZNSt6vectorIfSaIfEE3endEv,"x"
	.linkonce discard
	.align 2
	.globl	_ZNSt6vectorIfSaIfEE3endEv
	.def	_ZNSt6vectorIfSaIfEE3endEv;	.scl	2;	.type	32;	.endef
	.seh_proc	_ZNSt6vectorIfSaIfEE3endEv
_ZNSt6vectorIfSaIfEE3endEv:
.LFB1779:
	.loc 5 1018 7
	.cfi_startproc
	push	rbp
	.seh_pushreg	rbp
	.cfi_def_cfa_offset 16
	.cfi_offset 6, -16
	mov	rbp, rsp
	.seh_setframe	rbp, 0
	.cfi_def_cfa_register 6
	sub	rsp, 16
	.seh_stackalloc	16
	.seh_endprologue
	mov	QWORD PTR 16[rbp], rcx
	.loc 5 1019 39
	mov	rax, QWORD PTR 16[rbp]
	add	rax, 8
	mov	QWORD PTR -8[rbp], rax
.LBB185:
.LBB186:
.LBB187:
	.loc 10 1059 9
	mov	rax, QWORD PTR -8[rbp]
	mov	rax, QWORD PTR [rax]
	mov	QWORD PTR -16[rbp], rax
.LBE187:
	.loc 10 1059 27
	nop
.LBE186:
.LBE185:
	.loc 5 1019 48 discriminator 1
	mov	rax, QWORD PTR -16[rbp]
	.loc 5 1019 51
	add	rsp, 16
	pop	rbp
	.cfi_restore 6
	.cfi_def_cfa 7, 8
	ret
	.cfi_endproc
.LFE1779:
	.seh_endproc
	.section	.text$_ZSt24__uninitialized_fill_n_aIPfyffET_S1_T0_RKT1_RSaIT2_E,"x"
	.linkonce discard
	.globl	_ZSt24__uninitialized_fill_n_aIPfyffET_S1_T0_RKT1_RSaIT2_E
	.def	_ZSt24__uninitialized_fill_n_aIPfyffET_S1_T0_RKT1_RSaIT2_E;	.scl	2;	.type	32;	.endef
	.seh_proc	_ZSt24__uninitialized_fill_n_aIPfyffET_S1_T0_RKT1_RSaIT2_E
_ZSt24__uninitialized_fill_n_aIPfyffET_S1_T0_RKT1_RSaIT2_E:
.LFB1781:
	.file 14 "C:/Qt/Tools/mingw1530_64/include/c++/15.3.0/bits/stl_uninitialized.h"
	.loc 14 747 5
	.cfi_startproc
	push	rbp
	.seh_pushreg	rbp
	.cfi_def_cfa_offset 16
	.cfi_offset 6, -16
	mov	rbp, rsp
	.seh_setframe	rbp, 0
	.cfi_def_cfa_register 6
	sub	rsp, 32
	.seh_stackalloc	32
	.seh_endprologue
	mov	QWORD PTR 16[rbp], rcx
	mov	QWORD PTR 24[rbp], rdx
	mov	QWORD PTR 32[rbp], r8
	mov	QWORD PTR 40[rbp], r9
	.loc 14 751 37
	call	_ZSt21is_constant_evaluatedv
	.loc 14 751 7 discriminator 1
	test	al, al
	je	.L68
	.loc 14 752 32
	mov	rcx, QWORD PTR 32[rbp]
	mov	rdx, QWORD PTR 24[rbp]
	mov	rax, QWORD PTR 16[rbp]
	mov	r8, rcx
	mov	rcx, rax
	call	_ZSt18__do_uninit_fill_nIPfyfET_S1_T0_RKT1_
	.loc 14 752 50
	jmp	.L69
.L68:
	.loc 14 754 39
	mov	rcx, QWORD PTR 32[rbp]
	mov	rdx, QWORD PTR 24[rbp]
	mov	rax, QWORD PTR 16[rbp]
	mov	r8, rcx
	mov	rcx, rax
	call	_ZSt20uninitialized_fill_nIPfyfET_S1_T0_RKT1_
	.loc 14 754 57
	nop
.L69:
	.loc 14 755 5
	add	rsp, 32
	pop	rbp
	.cfi_restore 6
	.cfi_def_cfa 7, 8
	ret
	.cfi_endproc
.LFE1781:
	.seh_endproc
	.section	.text$_ZNSt6vectorIfSaIfEE15_M_erase_at_endEPf,"x"
	.linkonce discard
	.align 2
	.globl	_ZNSt6vectorIfSaIfEE15_M_erase_at_endEPf
	.def	_ZNSt6vectorIfSaIfEE15_M_erase_at_endEPf;	.scl	2;	.type	32;	.endef
	.seh_proc	_ZNSt6vectorIfSaIfEE15_M_erase_at_endEPf
_ZNSt6vectorIfSaIfEE15_M_erase_at_endEPf:
.LFB1782:
	.loc 5 2239 7
	.cfi_startproc
	push	rbp
	.seh_pushreg	rbp
	.cfi_def_cfa_offset 16
	.cfi_offset 6, -16
	mov	rbp, rsp
	.seh_setframe	rbp, 0
	.cfi_def_cfa_register 6
	sub	rsp, 64
	.seh_stackalloc	64
	.seh_endprologue
	mov	QWORD PTR 16[rbp], rcx
	mov	QWORD PTR 24[rbp], rdx
.LBB188:
	.loc 5 2241 36
	mov	rax, QWORD PTR 16[rbp]
	mov	rax, QWORD PTR 8[rax]
	.loc 5 2241 46
	sub	rax, QWORD PTR 24[rbp]
	sar	rax, 2
	.loc 5 2241 16
	mov	QWORD PTR -8[rbp], rax
	.loc 5 2241 2
	cmp	QWORD PTR -8[rbp], 0
	je	.L72
	.loc 5 2244 25
	mov	rax, QWORD PTR 16[rbp]
	mov	rcx, rax
	call	_ZNSt12_Vector_baseIfSaIfEE19_M_get_Tp_allocatorEv
	.loc 5 2243 41
	mov	rdx, QWORD PTR 16[rbp]
	mov	rdx, QWORD PTR 8[rdx]
	mov	rcx, QWORD PTR 24[rbp]
	mov	QWORD PTR -16[rbp], rcx
	mov	QWORD PTR -24[rbp], rdx
	mov	QWORD PTR -32[rbp], rax
.LBB189:
.LBB190:
	.loc 7 1045 20
	mov	rdx, QWORD PTR -24[rbp]
	mov	rax, QWORD PTR -16[rbp]
	mov	rcx, rax
	call	_ZSt8_DestroyIPfEvT_S1_
	.loc 7 1046 5
	nop
.LBE190:
.LBE189:
	.loc 5 2245 30
	mov	rax, QWORD PTR 16[rbp]
	mov	rdx, QWORD PTR 24[rbp]
	mov	QWORD PTR 8[rax], rdx
.L72:
.LBE188:
	.loc 5 2248 7
	nop
	add	rsp, 64
	pop	rbp
	.cfi_restore 6
	.cfi_def_cfa 7, 8
	ret
	.cfi_endproc
.LFE1782:
	.seh_endproc
	.section	.text$_ZSt10destroy_atIfEvPT_,"x"
	.linkonce discard
	.globl	_ZSt10destroy_atIfEvPT_
	.def	_ZSt10destroy_atIfEvPT_;	.scl	2;	.type	32;	.endef
	.seh_proc	_ZSt10destroy_atIfEvPT_
_ZSt10destroy_atIfEvPT_:
.LFB1786:
	.loc 12 80 5
	.cfi_startproc
	push	rbp
	.seh_pushreg	rbp
	.cfi_def_cfa_offset 16
	.cfi_offset 6, -16
	mov	rbp, rsp
	.seh_setframe	rbp, 0
	.cfi_def_cfa_register 6
	.seh_endprologue
	mov	QWORD PTR 16[rbp], rcx
	.loc 12 89 5
	nop
	pop	rbp
	.cfi_restore 6
	.cfi_def_cfa 7, 8
	ret
	.cfi_endproc
.LFE1786:
	.seh_endproc
	.section .rdata,"dr"
	.align 8
.LC6:
	.ascii "cannot create std::vector larger than max_size()\0"
	.section	.text$_ZNSt6vectorIfSaIfEE17_S_check_init_lenEyRKS0_,"x"
	.linkonce discard
	.globl	_ZNSt6vectorIfSaIfEE17_S_check_init_lenEyRKS0_
	.def	_ZNSt6vectorIfSaIfEE17_S_check_init_lenEyRKS0_;	.scl	2;	.type	32;	.endef
	.seh_proc	_ZNSt6vectorIfSaIfEE17_S_check_init_lenEyRKS0_
_ZNSt6vectorIfSaIfEE17_S_check_init_lenEyRKS0_:
.LFB1787:
	.loc 5 2213 7
	.cfi_startproc
	push	rbp
	.seh_pushreg	rbp
	.cfi_def_cfa_offset 16
	.cfi_offset 6, -16
	mov	rbp, rsp
	.seh_setframe	rbp, 0
	.cfi_def_cfa_register 6
	sub	rsp, 64
	.seh_stackalloc	64
	.seh_endprologue
	mov	QWORD PTR 16[rbp], rcx
	mov	QWORD PTR 24[rbp], rdx
	mov	rax, QWORD PTR 24[rbp]
	mov	QWORD PTR -8[rbp], rax
	lea	rax, -25[rbp]
	mov	QWORD PTR -16[rbp], rax
	mov	rax, QWORD PTR -8[rbp]
	mov	QWORD PTR -24[rbp], rax
.LBB191:
.LBB192:
.LBB193:
.LBB194:
.LBB195:
	.file 15 "C:/Qt/Tools/mingw1530_64/include/c++/15.3.0/bits/new_allocator.h"
	.loc 15 92 71
	nop
.LBE195:
.LBE194:
.LBE193:
	.loc 6 173 38
	nop
.LBE192:
.LBE191:
	.loc 5 2215 23 discriminator 1
	lea	rax, -25[rbp]
	mov	rcx, rax
	call	_ZNSt6vectorIfSaIfEE11_S_max_sizeERKS0_
	.loc 5 2215 10 discriminator 2
	cmp	rax, QWORD PTR 16[rbp]
	setb	al
.LBB196:
.LBB197:
	.loc 6 189 39
	nop
.LBE197:
.LBE196:
	.loc 5 2215 2 discriminator 3
	test	al, al
	je	.L75
	.loc 5 2216 24
	lea	rax, .LC6[rip]
	mov	rcx, rax
	call	_ZSt20__throw_length_errorPKc
.L75:
	.loc 5 2218 9
	mov	rax, QWORD PTR 16[rbp]
	.loc 5 2219 7
	add	rsp, 64
	pop	rbp
	.cfi_restore 6
	.cfi_def_cfa 7, 8
	ret
	.cfi_endproc
.LFE1787:
	.seh_endproc
	.section	.text$_ZNSt12_Vector_baseIfSaIfEEC2EyRKS0_,"x"
	.linkonce discard
	.align 2
	.globl	_ZNSt12_Vector_baseIfSaIfEEC2EyRKS0_
	.def	_ZNSt12_Vector_baseIfSaIfEEC2EyRKS0_;	.scl	2;	.type	32;	.endef
	.seh_proc	_ZNSt12_Vector_baseIfSaIfEEC2EyRKS0_
_ZNSt12_Vector_baseIfSaIfEEC2EyRKS0_:
.LFB1789:
	.loc 5 339 7
	.cfi_startproc
	push	rbp
	.seh_pushreg	rbp
	.cfi_def_cfa_offset 16
	.cfi_offset 6, -16
	push	rbx
	.seh_pushreg	rbx
	.cfi_def_cfa_offset 24
	.cfi_offset 3, -24
	sub	rsp, 40
	.seh_stackalloc	40
	.cfi_def_cfa_offset 64
	lea	rbp, 32[rsp]
	.seh_setframe	rbp, 32
	.cfi_def_cfa 6, 32
	.seh_endprologue
	mov	QWORD PTR 32[rbp], rcx
	mov	QWORD PTR 40[rbp], rdx
	mov	QWORD PTR 48[rbp], r8
.LBB198:
	.loc 5 340 9
	mov	rax, QWORD PTR 32[rbp]
	mov	rdx, QWORD PTR 48[rbp]
	mov	rcx, rax
	call	_ZNSt12_Vector_baseIfSaIfEE12_Vector_implC1ERKS0_
	.loc 5 341 26
	mov	rdx, QWORD PTR 40[rbp]
	mov	rax, QWORD PTR 32[rbp]
	mov	rcx, rax
.LEHB5:
	call	_ZNSt12_Vector_baseIfSaIfEE17_M_create_storageEy
.LEHE5:
.LBE198:
	.loc 5 341 33
	jmp	.L80
.L79:
.LBB199:
	.loc 5 341 33 is_stmt 0 discriminator 2
	mov	rbx, rax
	mov	rax, QWORD PTR 32[rbp]
	mov	rcx, rax
	call	_ZNSt12_Vector_baseIfSaIfEE12_Vector_implD1Ev
	mov	rax, rbx
	mov	rcx, rax
.LEHB6:
	call	_Unwind_Resume
	nop
.LEHE6:
.L80:
.LBE199:
	.loc 5 341 33
	add	rsp, 40
	pop	rbx
	.cfi_restore 3
	pop	rbp
	.cfi_restore 6
	.cfi_def_cfa 7, -24
	ret
	.cfi_endproc
.LFE1789:
	.seh_handler	__gxx_personality_seh0, @unwind, @except
	.seh_handlerdata
.LLSDA1789:
	.byte	0xff
	.byte	0xff
	.byte	0x1
	.uleb128 .LLSDACSE1789-.LLSDACSB1789
.LLSDACSB1789:
	.uleb128 .LEHB5-.LFB1789
	.uleb128 .LEHE5-.LEHB5
	.uleb128 .L79-.LFB1789
	.uleb128 0
	.uleb128 .LEHB6-.LFB1789
	.uleb128 .LEHE6-.LEHB6
	.uleb128 0
	.uleb128 0
.LLSDACSE1789:
	.section	.text$_ZNSt12_Vector_baseIfSaIfEEC2EyRKS0_,"x"
	.linkonce discard
	.seh_endproc
	.section	.text$_ZNSt6vectorIfSaIfEE18_M_fill_initializeEyRKf,"x"
	.linkonce discard
	.align 2
	.globl	_ZNSt6vectorIfSaIfEE18_M_fill_initializeEyRKf
	.def	_ZNSt6vectorIfSaIfEE18_M_fill_initializeEyRKf;	.scl	2;	.type	32;	.endef
	.seh_proc	_ZNSt6vectorIfSaIfEE18_M_fill_initializeEyRKf
_ZNSt6vectorIfSaIfEE18_M_fill_initializeEyRKf:
.LFB1791:
	.loc 5 1997 7 is_stmt 1
	.cfi_startproc
	push	rbp
	.seh_pushreg	rbp
	.cfi_def_cfa_offset 16
	.cfi_offset 6, -16
	mov	rbp, rsp
	.seh_setframe	rbp, 0
	.cfi_def_cfa_register 6
	sub	rsp, 32
	.seh_stackalloc	32
	.seh_endprologue
	mov	QWORD PTR 16[rbp], rcx
	mov	QWORD PTR 24[rbp], rdx
	mov	QWORD PTR 32[rbp], r8
	.loc 5 2001 25
	mov	rax, QWORD PTR 16[rbp]
	mov	rcx, rax
	call	_ZNSt12_Vector_baseIfSaIfEE19_M_get_Tp_allocatorEv
	mov	rcx, rax
	.loc 5 2000 48
	mov	rax, QWORD PTR 16[rbp]
	mov	rax, QWORD PTR [rax]
	.loc 5 2000 33
	mov	r8, QWORD PTR 32[rbp]
	mov	rdx, QWORD PTR 24[rbp]
	mov	r9, rcx
	mov	rcx, rax
	call	_ZSt24__uninitialized_fill_n_aIPfyffET_S1_T0_RKT1_RSaIT2_E
	.loc 5 1999 26
	mov	rdx, QWORD PTR 16[rbp]
	mov	QWORD PTR 8[rdx], rax
	.loc 5 2002 7
	nop
	add	rsp, 32
	pop	rbp
	.cfi_restore 6
	.cfi_def_cfa 7, 8
	ret
	.cfi_endproc
.LFE1791:
	.seh_endproc
	.section	.text$_ZNSt12_Vector_baseIfSaIfEE17_Vector_impl_data12_M_copy_dataERKS2_,"x"
	.linkonce discard
	.align 2
	.globl	_ZNSt12_Vector_baseIfSaIfEE17_Vector_impl_data12_M_copy_dataERKS2_
	.def	_ZNSt12_Vector_baseIfSaIfEE17_Vector_impl_data12_M_copy_dataERKS2_;	.scl	2;	.type	32;	.endef
	.seh_proc	_ZNSt12_Vector_baseIfSaIfEE17_Vector_impl_data12_M_copy_dataERKS2_
_ZNSt12_Vector_baseIfSaIfEE17_Vector_impl_data12_M_copy_dataERKS2_:
.LFB1792:
	.loc 5 119 2
	.cfi_startproc
	push	rbp
	.seh_pushreg	rbp
	.cfi_def_cfa_offset 16
	.cfi_offset 6, -16
	mov	rbp, rsp
	.seh_setframe	rbp, 0
	.cfi_def_cfa_register 6
	.seh_endprologue
	mov	QWORD PTR 16[rbp], rcx
	mov	QWORD PTR 24[rbp], rdx
	.loc 5 121 19
	mov	rax, QWORD PTR 24[rbp]
	mov	rdx, QWORD PTR [rax]
	.loc 5 121 13
	mov	rax, QWORD PTR 16[rbp]
	mov	QWORD PTR [rax], rdx
	.loc 5 122 20
	mov	rax, QWORD PTR 24[rbp]
	mov	rdx, QWORD PTR 8[rax]
	.loc 5 122 14
	mov	rax, QWORD PTR 16[rbp]
	mov	QWORD PTR 8[rax], rdx
	.loc 5 123 28
	mov	rax, QWORD PTR 24[rbp]
	mov	rdx, QWORD PTR 16[rax]
	.loc 5 123 22
	mov	rax, QWORD PTR 16[rbp]
	mov	QWORD PTR 16[rax], rdx
	.loc 5 124 2
	nop
	pop	rbp
	.cfi_restore 6
	.cfi_def_cfa 7, 8
	ret
	.cfi_endproc
.LFE1792:
	.seh_endproc
	.section	.text$_ZNSt19_UninitDestroyGuardIPfvEC1ERS0_,"x"
	.linkonce discard
	.align 2
	.globl	_ZNSt19_UninitDestroyGuardIPfvEC1ERS0_
	.def	_ZNSt19_UninitDestroyGuardIPfvEC1ERS0_;	.scl	2;	.type	32;	.endef
	.seh_proc	_ZNSt19_UninitDestroyGuardIPfvEC1ERS0_
_ZNSt19_UninitDestroyGuardIPfvEC1ERS0_:
.LFB1800:
	.loc 14 113 7
	.cfi_startproc
	push	rbp
	.seh_pushreg	rbp
	.cfi_def_cfa_offset 16
	.cfi_offset 6, -16
	mov	rbp, rsp
	.seh_setframe	rbp, 0
	.cfi_def_cfa_register 6
	.seh_endprologue
	mov	QWORD PTR 16[rbp], rcx
	mov	QWORD PTR 24[rbp], rdx
.LBB200:
	.loc 14 114 9
	mov	rax, QWORD PTR 24[rbp]
	mov	rdx, QWORD PTR [rax]
	mov	rax, QWORD PTR 16[rbp]
	mov	QWORD PTR [rax], rdx
	.loc 14 114 28
	mov	rax, QWORD PTR 16[rbp]
	mov	rdx, QWORD PTR 24[rbp]
	mov	QWORD PTR 8[rax], rdx
.LBE200:
	.loc 14 115 9
	nop
	pop	rbp
	.cfi_restore 6
	.cfi_def_cfa 7, 8
	ret
	.cfi_endproc
.LFE1800:
	.seh_endproc
	.section	.text$_ZSt18__do_uninit_fill_nIPfyfET_S1_T0_RKT1_,"x"
	.linkonce discard
	.globl	_ZSt18__do_uninit_fill_nIPfyfET_S1_T0_RKT1_
	.def	_ZSt18__do_uninit_fill_nIPfyfET_S1_T0_RKT1_;	.scl	2;	.type	32;	.endef
	.seh_proc	_ZSt18__do_uninit_fill_nIPfyfET_S1_T0_RKT1_
_ZSt18__do_uninit_fill_nIPfyfET_S1_T0_RKT1_:
.LFB1797:
	.loc 14 455 5
	.cfi_startproc
	push	rbp
	.seh_pushreg	rbp
	.cfi_def_cfa_offset 16
	.cfi_offset 6, -16
	push	rbx
	.seh_pushreg	rbx
	.cfi_def_cfa_offset 24
	.cfi_offset 3, -24
	sub	rsp, 72
	.seh_stackalloc	72
	.cfi_def_cfa_offset 96
	lea	rbp, 64[rsp]
	.seh_setframe	rbp, 64
	.cfi_def_cfa 6, 32
	.seh_endprologue
	mov	QWORD PTR 32[rbp], rcx
	mov	QWORD PTR 40[rbp], rdx
	mov	QWORD PTR 48[rbp], r8
	.loc 14 457 45
	lea	rax, -32[rbp]
	lea	rdx, 32[rbp]
	mov	rcx, rax
	call	_ZNSt19_UninitDestroyGuardIPfvEC1ERS0_
	.loc 14 469 7
	jmp	.L85
.L87:
	.loc 14 470 17
	mov	rax, QWORD PTR 32[rbp]
	mov	QWORD PTR -8[rbp], rax
.LBB201:
.LBB202:
	.loc 13 53 37
	mov	rax, QWORD PTR -8[rbp]
.LBE202:
.LBE201:
	.loc 14 470 17 discriminator 1
	mov	rdx, QWORD PTR 48[rbp]
	mov	rcx, rax
	call	_ZSt10_ConstructIfJRKfEEvPT_DpOT0_
	.loc 14 469 7 discriminator 2
	mov	rax, QWORD PTR 32[rbp]
	add	rax, 4
	mov	QWORD PTR 32[rbp], rax
.L85:
	.loc 14 469 7 is_stmt 0 discriminator 1
	mov	rax, QWORD PTR 40[rbp]
	lea	rdx, -1[rax]
	mov	QWORD PTR 40[rbp], rdx
	test	rax, rax
	setne	al
	test	al, al
	jne	.L87
	.loc 14 471 22 is_stmt 1
	lea	rax, -32[rbp]
	mov	rcx, rax
	call	_ZNSt19_UninitDestroyGuardIPfvE7releaseEv
	.loc 14 472 14
	mov	rbx, QWORD PTR 32[rbp]
	.loc 14 473 5
	lea	rax, -32[rbp]
	mov	rcx, rax
	call	_ZNSt19_UninitDestroyGuardIPfvED1Ev
	.loc 14 472 14
	mov	rax, rbx
	.loc 14 473 5
	add	rsp, 72
	pop	rbx
	.cfi_restore 3
	pop	rbp
	.cfi_restore 6
	.cfi_def_cfa 7, -56
	ret
	.cfi_endproc
.LFE1797:
	.seh_endproc
	.section	.text$_ZSt20uninitialized_fill_nIPfyfET_S1_T0_RKT1_,"x"
	.linkonce discard
	.globl	_ZSt20uninitialized_fill_nIPfyfET_S1_T0_RKT1_
	.def	_ZSt20uninitialized_fill_nIPfyfET_S1_T0_RKT1_;	.scl	2;	.type	32;	.endef
	.seh_proc	_ZSt20uninitialized_fill_nIPfyfET_S1_T0_RKT1_
_ZSt20uninitialized_fill_nIPfyfET_S1_T0_RKT1_:
.LFB1801:
	.loc 14 526 5
	.cfi_startproc
	push	rbp
	.seh_pushreg	rbp
	.cfi_def_cfa_offset 16
	.cfi_offset 6, -16
	mov	rbp, rsp
	.seh_setframe	rbp, 0
	.cfi_def_cfa_register 6
	sub	rsp, 32
	.seh_stackalloc	32
	.seh_endprologue
	mov	QWORD PTR 16[rbp], rcx
	mov	QWORD PTR 24[rbp], rdx
	mov	QWORD PTR 32[rbp], r8
	.loc 14 571 37
	mov	rcx, QWORD PTR 32[rbp]
	mov	rdx, QWORD PTR 24[rbp]
	mov	rax, QWORD PTR 16[rbp]
	mov	r8, rcx
	mov	rcx, rax
	call	_ZSt18__do_uninit_fill_nIPfyfET_S1_T0_RKT1_
	.loc 14 580 5
	add	rsp, 32
	pop	rbp
	.cfi_restore 6
	.cfi_def_cfa 7, 8
	ret
	.cfi_endproc
.LFE1801:
	.seh_endproc
	.section	.text$_ZNSt15__new_allocatorIfE10deallocateEPfy,"x"
	.linkonce discard
	.align 2
	.globl	_ZNSt15__new_allocatorIfE10deallocateEPfy
	.def	_ZNSt15__new_allocatorIfE10deallocateEPfy;	.scl	2;	.type	32;	.endef
	.seh_proc	_ZNSt15__new_allocatorIfE10deallocateEPfy
_ZNSt15__new_allocatorIfE10deallocateEPfy:
.LFB1804:
	.loc 15 156 7
	.cfi_startproc
	push	rbp
	.seh_pushreg	rbp
	.cfi_def_cfa_offset 16
	.cfi_offset 6, -16
	mov	rbp, rsp
	.seh_setframe	rbp, 0
	.cfi_def_cfa_register 6
	sub	rsp, 32
	.seh_stackalloc	32
	.seh_endprologue
	mov	QWORD PTR 16[rbp], rcx
	mov	QWORD PTR 24[rbp], rdx
	mov	QWORD PTR 32[rbp], r8
	.loc 15 172 59
	mov	rax, QWORD PTR 32[rbp]
	lea	rdx, 0[0+rax*4]
	mov	rax, QWORD PTR 24[rbp]
	mov	rcx, rax
	call	_ZdlPvy
	nop
	.loc 15 173 7
	add	rsp, 32
	pop	rbp
	.cfi_restore 6
	.cfi_def_cfa 7, 8
	ret
	.cfi_endproc
.LFE1804:
	.seh_endproc
	.section	.text$_ZNSt6vectorIfSaIfEE11_S_max_sizeERKS0_,"x"
	.linkonce discard
	.globl	_ZNSt6vectorIfSaIfEE11_S_max_sizeERKS0_
	.def	_ZNSt6vectorIfSaIfEE11_S_max_sizeERKS0_;	.scl	2;	.type	32;	.endef
	.seh_proc	_ZNSt6vectorIfSaIfEE11_S_max_sizeERKS0_
_ZNSt6vectorIfSaIfEE11_S_max_sizeERKS0_:
.LFB1805:
	.loc 5 2222 7
	.cfi_startproc
	push	rbp
	.seh_pushreg	rbp
	.cfi_def_cfa_offset 16
	.cfi_offset 6, -16
	mov	rbp, rsp
	.seh_setframe	rbp, 0
	.cfi_def_cfa_register 6
	sub	rsp, 48
	.seh_stackalloc	48
	.seh_endprologue
	mov	QWORD PTR 16[rbp], rcx
	.loc 5 2227 15
	movabs	rax, 2305843009213693951
	mov	QWORD PTR -8[rbp], rax
	.loc 5 2229 15
	movabs	rax, 4611686018427387903
	mov	QWORD PTR -16[rbp], rax
	.loc 5 2230 19
	lea	rdx, -16[rbp]
	lea	rax, -8[rbp]
	mov	rcx, rax
	call	_ZSt3minIyERKT_S2_S2_
	.loc 5 2230 41 discriminator 1
	mov	rax, QWORD PTR [rax]
	.loc 5 2231 7
	add	rsp, 48
	pop	rbp
	.cfi_restore 6
	.cfi_def_cfa 7, 8
	ret
	.cfi_endproc
.LFE1805:
	.seh_endproc
	.section	.text$_ZNSt12_Vector_baseIfSaIfEE12_Vector_implC1ERKS0_,"x"
	.linkonce discard
	.align 2
	.globl	_ZNSt12_Vector_baseIfSaIfEE12_Vector_implC1ERKS0_
	.def	_ZNSt12_Vector_baseIfSaIfEE12_Vector_implC1ERKS0_;	.scl	2;	.type	32;	.endef
	.seh_proc	_ZNSt12_Vector_baseIfSaIfEE12_Vector_implC1ERKS0_
_ZNSt12_Vector_baseIfSaIfEE12_Vector_implC1ERKS0_:
.LFB1812:
	.loc 5 152 2
	.cfi_startproc
	push	rbp
	.seh_pushreg	rbp
	.cfi_def_cfa_offset 16
	.cfi_offset 6, -16
	mov	rbp, rsp
	.seh_setframe	rbp, 0
	.cfi_def_cfa_register 6
	sub	rsp, 64
	.seh_stackalloc	64
	.seh_endprologue
	mov	QWORD PTR 16[rbp], rcx
	mov	QWORD PTR 24[rbp], rdx
	mov	rax, QWORD PTR 16[rbp]
	mov	QWORD PTR -8[rbp], rax
	mov	rax, QWORD PTR 24[rbp]
	mov	QWORD PTR -16[rbp], rax
	mov	rax, QWORD PTR -8[rbp]
	mov	QWORD PTR -24[rbp], rax
	mov	rax, QWORD PTR -16[rbp]
	mov	QWORD PTR -32[rbp], rax
.LBB203:
.LBB204:
.LBB205:
.LBB206:
.LBB207:
.LBB208:
	.loc 15 92 71
	nop
.LBE208:
.LBE207:
.LBE206:
	.loc 6 173 38
	nop
.LBE205:
.LBE204:
	.loc 5 153 22 discriminator 1
	mov	rax, QWORD PTR 16[rbp]
	mov	rcx, rax
	call	_ZNSt12_Vector_baseIfSaIfEE17_Vector_impl_dataC2Ev
.LBE203:
	.loc 5 154 4
	nop
	add	rsp, 64
	pop	rbp
	.cfi_restore 6
	.cfi_def_cfa 7, 8
	ret
	.cfi_endproc
.LFE1812:
	.seh_endproc
	.section	.text$_ZNSt12_Vector_baseIfSaIfEE17_M_create_storageEy,"x"
	.linkonce discard
	.align 2
	.globl	_ZNSt12_Vector_baseIfSaIfEE17_M_create_storageEy
	.def	_ZNSt12_Vector_baseIfSaIfEE17_M_create_storageEy;	.scl	2;	.type	32;	.endef
	.seh_proc	_ZNSt12_Vector_baseIfSaIfEE17_M_create_storageEy
_ZNSt12_Vector_baseIfSaIfEE17_M_create_storageEy:
.LFB1813:
	.loc 5 403 7
	.cfi_startproc
	push	rbp
	.seh_pushreg	rbp
	.cfi_def_cfa_offset 16
	.cfi_offset 6, -16
	mov	rbp, rsp
	.seh_setframe	rbp, 0
	.cfi_def_cfa_register 6
	sub	rsp, 32
	.seh_stackalloc	32
	.seh_endprologue
	mov	QWORD PTR 16[rbp], rcx
	mov	QWORD PTR 24[rbp], rdx
	.loc 5 405 44
	mov	rdx, QWORD PTR 24[rbp]
	mov	rax, QWORD PTR 16[rbp]
	mov	rcx, rax
	call	_ZNSt12_Vector_baseIfSaIfEE11_M_allocateEy
	.loc 5 405 25 discriminator 1
	mov	rdx, QWORD PTR 16[rbp]
	mov	QWORD PTR [rdx], rax
	.loc 5 406 42
	mov	rax, QWORD PTR 16[rbp]
	mov	rdx, QWORD PTR [rax]
	.loc 5 406 26
	mov	rax, QWORD PTR 16[rbp]
	mov	QWORD PTR 8[rax], rdx
	.loc 5 407 50
	mov	rax, QWORD PTR 16[rbp]
	mov	rax, QWORD PTR [rax]
	.loc 5 407 59
	mov	rdx, QWORD PTR 24[rbp]
	sal	rdx, 2
	add	rdx, rax
	.loc 5 407 34
	mov	rax, QWORD PTR 16[rbp]
	mov	QWORD PTR 16[rax], rdx
	.loc 5 408 7
	nop
	add	rsp, 32
	pop	rbp
	.cfi_restore 6
	.cfi_def_cfa 7, 8
	ret
	.cfi_endproc
.LFE1813:
	.seh_endproc
	.section	.text$_ZNSt19_UninitDestroyGuardIPfvED1Ev,"x"
	.linkonce discard
	.align 2
	.globl	_ZNSt19_UninitDestroyGuardIPfvED1Ev
	.def	_ZNSt19_UninitDestroyGuardIPfvED1Ev;	.scl	2;	.type	32;	.endef
	.seh_proc	_ZNSt19_UninitDestroyGuardIPfvED1Ev
_ZNSt19_UninitDestroyGuardIPfvED1Ev:
.LFB1817:
	.loc 14 118 7
	.cfi_startproc
	push	rbp
	.seh_pushreg	rbp
	.cfi_def_cfa_offset 16
	.cfi_offset 6, -16
	mov	rbp, rsp
	.seh_setframe	rbp, 0
	.cfi_def_cfa_register 6
	sub	rsp, 32
	.seh_stackalloc	32
	.seh_endprologue
	mov	QWORD PTR 16[rbp], rcx
.LBB209:
	.loc 14 120 23
	mov	rax, QWORD PTR 16[rbp]
	mov	rax, QWORD PTR 8[rax]
	.loc 14 120 30
	test	rax, rax
	setne	al
	.loc 14 120 22
	movzx	eax, al
	.loc 14 120 2 discriminator 1
	test	eax, eax
	je	.L99
	.loc 14 121 29
	mov	rax, QWORD PTR 16[rbp]
	mov	rax, QWORD PTR 8[rax]
	.loc 14 121 17
	mov	rdx, QWORD PTR [rax]
	.loc 14 121 18
	mov	rax, QWORD PTR 16[rbp]
	mov	rax, QWORD PTR [rax]
	.loc 14 121 17
	mov	rcx, rax
	call	_ZSt8_DestroyIPfEvT_S1_
.L99:
.LBE209:
	.loc 14 122 7
	nop
	add	rsp, 32
	pop	rbp
	.cfi_restore 6
	.cfi_def_cfa 7, 8
	ret
	.cfi_endproc
.LFE1817:
	.seh_endproc
	.section	.text$_ZSt10_ConstructIfJRKfEEvPT_DpOT0_,"x"
	.linkonce discard
	.globl	_ZSt10_ConstructIfJRKfEEvPT_DpOT0_
	.def	_ZSt10_ConstructIfJRKfEEvPT_DpOT0_;	.scl	2;	.type	32;	.endef
	.seh_proc	_ZSt10_ConstructIfJRKfEEvPT_DpOT0_
_ZSt10_ConstructIfJRKfEEvPT_DpOT0_:
.LFB1818:
	.loc 12 123 5
	.cfi_startproc
	push	rbp
	.seh_pushreg	rbp
	.cfi_def_cfa_offset 16
	.cfi_offset 6, -16
	push	rbx
	.seh_pushreg	rbx
	.cfi_def_cfa_offset 24
	.cfi_offset 3, -24
	sub	rsp, 56
	.seh_stackalloc	56
	.cfi_def_cfa_offset 80
	lea	rbp, 48[rsp]
	.seh_setframe	rbp, 48
	.cfi_def_cfa 6, 32
	.seh_endprologue
	mov	QWORD PTR 32[rbp], rcx
	mov	QWORD PTR 40[rbp], rdx
.LBB210:
.LBB211:
	.loc 8 586 49
	mov	eax, 0
.LBE211:
.LBE210:
	.loc 12 126 7 discriminator 1
	test	al, al
	je	.L102
	mov	rax, QWORD PTR 40[rbp]
	mov	QWORD PTR -8[rbp], rax
.LBB212:
.LBB213:
	.loc 13 73 36
	mov	rdx, QWORD PTR -8[rbp]
.LBE213:
.LBE212:
	.loc 12 129 21 discriminator 1
	mov	rax, QWORD PTR 32[rbp]
	mov	rcx, rax
	call	_ZSt12construct_atIfJRKfEQaant20is_unbounded_array_vIT_ErqXgsnwcvPvLi0E_S2_pispcl7declvalIT0_EEEEEPS2_S5_DpOS4_
	.loc 12 130 4
	jmp	.L100
.L102:
	.loc 12 133 13
	mov	rbx, QWORD PTR 32[rbp]
	.loc 12 133 7
	mov	rdx, rbx
	mov	ecx, 4
	call	_ZnwyPv
	mov	rdx, QWORD PTR 40[rbp]
	mov	QWORD PTR -16[rbp], rdx
.LBB214:
.LBB215:
	.loc 13 73 36
	mov	rdx, QWORD PTR -16[rbp]
.LBE215:
.LBE214:
	.loc 12 133 7 discriminator 2
	movss	xmm0, DWORD PTR [rdx]
	movss	DWORD PTR [rax], xmm0
	mov	edx, 0
	test	dl, dl
	je	.L100
	.loc 12 133 7 is_stmt 0 discriminator 3
	mov	rdx, rbx
	mov	rcx, rax
	call	_ZdlPvS_
	nop
.L100:
	.loc 12 134 5 is_stmt 1
	add	rsp, 56
	pop	rbx
	.cfi_restore 3
	pop	rbp
	.cfi_restore 6
	.cfi_def_cfa 7, -40
	ret
	.cfi_endproc
.LFE1818:
	.seh_endproc
	.section	.text$_ZNSt19_UninitDestroyGuardIPfvE7releaseEv,"x"
	.linkonce discard
	.align 2
	.globl	_ZNSt19_UninitDestroyGuardIPfvE7releaseEv
	.def	_ZNSt19_UninitDestroyGuardIPfvE7releaseEv;	.scl	2;	.type	32;	.endef
	.seh_proc	_ZNSt19_UninitDestroyGuardIPfvE7releaseEv
_ZNSt19_UninitDestroyGuardIPfvE7releaseEv:
.LFB1819:
	.loc 14 125 12
	.cfi_startproc
	push	rbp
	.seh_pushreg	rbp
	.cfi_def_cfa_offset 16
	.cfi_offset 6, -16
	mov	rbp, rsp
	.seh_setframe	rbp, 0
	.cfi_def_cfa_register 6
	.seh_endprologue
	mov	QWORD PTR 16[rbp], rcx
	.loc 14 125 31
	mov	rax, QWORD PTR 16[rbp]
	mov	QWORD PTR 8[rax], 0
	.loc 14 125 36
	nop
	pop	rbp
	.cfi_restore 6
	.cfi_def_cfa 7, 8
	ret
	.cfi_endproc
.LFE1819:
	.seh_endproc
	.section	.text$_ZSt3minIyERKT_S2_S2_,"x"
	.linkonce discard
	.globl	_ZSt3minIyERKT_S2_S2_
	.def	_ZSt3minIyERKT_S2_S2_;	.scl	2;	.type	32;	.endef
	.seh_proc	_ZSt3minIyERKT_S2_S2_
_ZSt3minIyERKT_S2_S2_:
.LFB1821:
	.loc 3 234 5
	.cfi_startproc
	push	rbp
	.seh_pushreg	rbp
	.cfi_def_cfa_offset 16
	.cfi_offset 6, -16
	mov	rbp, rsp
	.seh_setframe	rbp, 0
	.cfi_def_cfa_register 6
	.seh_endprologue
	mov	QWORD PTR 16[rbp], rcx
	mov	QWORD PTR 24[rbp], rdx
	.loc 3 239 15
	mov	rax, QWORD PTR 24[rbp]
	mov	rdx, QWORD PTR [rax]
	mov	rax, QWORD PTR 16[rbp]
	mov	rax, QWORD PTR [rax]
	.loc 3 239 7
	cmp	rdx, rax
	jnb	.L108
	.loc 3 240 9
	mov	rax, QWORD PTR 24[rbp]
	jmp	.L109
.L108:
	.loc 3 241 14
	mov	rax, QWORD PTR 16[rbp]
.L109:
	.loc 3 242 5
	pop	rbp
	.cfi_restore 6
	.cfi_def_cfa 7, 8
	ret
	.cfi_endproc
.LFE1821:
	.seh_endproc
	.section	.text$_ZNSt12_Vector_baseIfSaIfEE11_M_allocateEy,"x"
	.linkonce discard
	.align 2
	.globl	_ZNSt12_Vector_baseIfSaIfEE11_M_allocateEy
	.def	_ZNSt12_Vector_baseIfSaIfEE11_M_allocateEy;	.scl	2;	.type	32;	.endef
	.seh_proc	_ZNSt12_Vector_baseIfSaIfEE11_M_allocateEy
_ZNSt12_Vector_baseIfSaIfEE11_M_allocateEy:
.LFB1825:
	.loc 5 384 7
	.cfi_startproc
	push	rbp
	.seh_pushreg	rbp
	.cfi_def_cfa_offset 16
	.cfi_offset 6, -16
	mov	rbp, rsp
	.seh_setframe	rbp, 0
	.cfi_def_cfa_register 6
	sub	rsp, 64
	.seh_stackalloc	64
	.seh_endprologue
	mov	QWORD PTR 16[rbp], rcx
	mov	QWORD PTR 24[rbp], rdx
	.loc 5 387 18
	cmp	QWORD PTR 24[rbp], 0
	je	.L111
	.loc 5 387 34 discriminator 1
	mov	rax, QWORD PTR 16[rbp]
	mov	QWORD PTR -8[rbp], rax
	mov	rax, QWORD PTR 24[rbp]
	mov	QWORD PTR -16[rbp], rax
	mov	rax, QWORD PTR -8[rbp]
	mov	QWORD PTR -24[rbp], rax
	mov	rax, QWORD PTR -16[rbp]
	mov	QWORD PTR -32[rbp], rax
.LBB216:
.LBB217:
.LBB218:
.LBB219:
.LBB220:
.LBB221:
	.loc 8 586 49
	mov	eax, 0
.LBE221:
.LBE220:
	.loc 6 196 2 discriminator 1
	test	al, al
	je	.L113
	.loc 6 198 32
	mov	rax, QWORD PTR -32[rbp]
	mov	ecx, 0
	lea	rdx, 0[0+rax*4]
	shr	rax, 62
	test	rax, rax
	je	.L114
	mov	ecx, 1
.L114:
	mov	rax, rdx
	.loc 6 198 32 is_stmt 0 discriminator 1
	mov	QWORD PTR -32[rbp], rax
	mov	rax, rcx
	and	eax, 1
	.loc 6 198 6 is_stmt 1 discriminator 1
	test	al, al
	je	.L116
	.loc 6 199 41
	call	_ZSt28__throw_bad_array_new_lengthv
.L116:
	.loc 6 200 45
	mov	rax, QWORD PTR -32[rbp]
	mov	rcx, rax
	call	_Znwy
	.loc 6 200 50
	jmp	.L117
.L113:
	.loc 6 203 40
	mov	rdx, QWORD PTR -32[rbp]
	mov	rax, QWORD PTR -24[rbp]
	mov	r8d, 0
	mov	rcx, rax
	call	_ZNSt15__new_allocatorIfE8allocateEyPKv
	.loc 6 203 47
	nop
.L117:
.LBE219:
.LBE218:
	.loc 7 614 32
	nop
	jmp	.L119
.L111:
.LBE217:
.LBE216:
	.loc 5 387 58 discriminator 2
	mov	eax, 0
.L119:
	.loc 5 388 7
	add	rsp, 64
	pop	rbp
	.cfi_restore 6
	.cfi_def_cfa 7, 8
	ret
	.cfi_endproc
.LFE1825:
	.seh_endproc
	.section	.text$_ZSt9__fill_a1IPffEvT_S1_RKT0_,"x"
	.linkonce discard
	.globl	_ZSt9__fill_a1IPffEvT_S1_RKT0_
	.def	_ZSt9__fill_a1IPffEvT_S1_RKT0_;	.scl	2;	.type	32;	.endef
	.seh_proc	_ZSt9__fill_a1IPffEvT_S1_RKT0_
_ZSt9__fill_a1IPffEvT_S1_RKT0_:
.LFB1827:
	.loc 3 897 5
	.cfi_startproc
	push	rbp
	.seh_pushreg	rbp
	.cfi_def_cfa_offset 16
	.cfi_offset 6, -16
	mov	rbp, rsp
	.seh_setframe	rbp, 0
	.cfi_def_cfa_register 6
	sub	rsp, 16
	.seh_stackalloc	16
	.seh_endprologue
	mov	QWORD PTR 16[rbp], rcx
	mov	QWORD PTR 24[rbp], rdx
	mov	QWORD PTR 32[rbp], r8
	.loc 3 906 18
	mov	BYTE PTR -1[rbp], 1
	.loc 3 923 11
	mov	rax, QWORD PTR 32[rbp]
	movss	xmm0, DWORD PTR [rax]
	movss	DWORD PTR -8[rbp], xmm0
	.loc 3 924 7
	jmp	.L122
.L123:
	.loc 3 925 11
	mov	rax, QWORD PTR 16[rbp]
	movss	xmm0, DWORD PTR -8[rbp]
	movss	DWORD PTR [rax], xmm0
	.loc 3 924 7 discriminator 2
	add	QWORD PTR 16[rbp], 4
.L122:
	.loc 3 924 22 discriminator 1
	mov	rax, QWORD PTR 16[rbp]
	cmp	rax, QWORD PTR 24[rbp]
	jne	.L123
	.loc 3 926 5
	nop
	nop
	add	rsp, 16
	pop	rbp
	.cfi_restore 6
	.cfi_def_cfa 7, 8
	ret
	.cfi_endproc
.LFE1827:
	.seh_endproc
	.section	.text$_ZSt12construct_atIfJRKfEQaant20is_unbounded_array_vIT_ErqXgsnwcvPvLi0E_S2_pispcl7declvalIT0_EEEEEPS2_S5_DpOS4_,"x"
	.linkonce discard
	.globl	_ZSt12construct_atIfJRKfEQaant20is_unbounded_array_vIT_ErqXgsnwcvPvLi0E_S2_pispcl7declvalIT0_EEEEEPS2_S5_DpOS4_
	.def	_ZSt12construct_atIfJRKfEQaant20is_unbounded_array_vIT_ErqXgsnwcvPvLi0E_S2_pispcl7declvalIT0_EEEEEPS2_S5_DpOS4_;	.scl	2;	.type	32;	.endef
	.seh_proc	_ZSt12construct_atIfJRKfEQaant20is_unbounded_array_vIT_ErqXgsnwcvPvLi0E_S2_pispcl7declvalIT0_EEEEEPS2_S5_DpOS4_
_ZSt12construct_atIfJRKfEQaant20is_unbounded_array_vIT_ErqXgsnwcvPvLi0E_S2_pispcl7declvalIT0_EEEEEPS2_S5_DpOS4_:
.LFB1829:
	.loc 12 96 5
	.cfi_startproc
	push	rbp
	.seh_pushreg	rbp
	.cfi_def_cfa_offset 16
	.cfi_offset 6, -16
	push	rsi
	.seh_pushreg	rsi
	.cfi_def_cfa_offset 24
	.cfi_offset 4, -24
	push	rbx
	.seh_pushreg	rbx
	.cfi_def_cfa_offset 32
	.cfi_offset 3, -32
	sub	rsp, 48
	.seh_stackalloc	48
	.cfi_def_cfa_offset 80
	lea	rbp, 48[rsp]
	.seh_setframe	rbp, 48
	.cfi_def_cfa 6, 32
	.seh_endprologue
	mov	QWORD PTR 32[rbp], rcx
	mov	QWORD PTR 40[rbp], rdx
	.loc 12 99 13
	mov	rax, QWORD PTR 32[rbp]
	mov	QWORD PTR -8[rbp], rax
	.loc 12 110 15
	mov	rsi, QWORD PTR -8[rbp]
	.loc 12 110 9
	mov	rdx, rsi
	mov	ecx, 4
	call	_ZnwyPv
	mov	rbx, rax
	mov	rax, QWORD PTR 40[rbp]
	mov	QWORD PTR -16[rbp], rax
.LBB222:
.LBB223:
	.loc 13 73 36
	mov	rax, QWORD PTR -16[rbp]
.LBE223:
.LBE222:
	.loc 12 110 9 discriminator 2
	movss	xmm0, DWORD PTR [rax]
	movss	DWORD PTR [rbx], xmm0
	.loc 12 110 56 discriminator 2
	mov	eax, 0
	.loc 12 110 56 is_stmt 0 discriminator 3
	test	al, al
	je	.L127
	.loc 12 110 9 is_stmt 1 discriminator 4
	mov	rdx, rsi
	mov	rcx, rbx
	call	_ZdlPvS_
.L127:
	.loc 12 110 56 discriminator 8
	mov	rax, rbx
	.loc 12 111 5
	add	rsp, 48
	pop	rbx
	.cfi_restore 3
	pop	rsi
	.cfi_restore 4
	pop	rbp
	.cfi_restore 6
	.cfi_def_cfa 7, -24
	ret
	.cfi_endproc
.LFE1829:
	.seh_endproc
	.weak	_ZSt12construct_atIfJRKfEEPT_S3_DpOT0_
	.def	_ZSt12construct_atIfJRKfEEPT_S3_DpOT0_;	.scl	2;	.type	32;	.endef
	.set	_ZSt12construct_atIfJRKfEEPT_S3_DpOT0_,_ZSt12construct_atIfJRKfEQaant20is_unbounded_array_vIT_ErqXgsnwcvPvLi0E_S2_pispcl7declvalIT0_EEEEEPS2_S5_DpOS4_
	.section	.text$_ZNSt15__new_allocatorIfE8allocateEyPKv,"x"
	.linkonce discard
	.align 2
	.globl	_ZNSt15__new_allocatorIfE8allocateEyPKv
	.def	_ZNSt15__new_allocatorIfE8allocateEyPKv;	.scl	2;	.type	32;	.endef
	.seh_proc	_ZNSt15__new_allocatorIfE8allocateEyPKv
_ZNSt15__new_allocatorIfE8allocateEyPKv:
.LFB1832:
	.loc 15 126 7
	.cfi_startproc
	push	rbp
	.seh_pushreg	rbp
	.cfi_def_cfa_offset 16
	.cfi_offset 6, -16
	mov	rbp, rsp
	.seh_setframe	rbp, 0
	.cfi_def_cfa_register 6
	sub	rsp, 48
	.seh_stackalloc	48
	.seh_endprologue
	mov	QWORD PTR 16[rbp], rcx
	mov	QWORD PTR 24[rbp], rdx
	mov	QWORD PTR 32[rbp], r8
	mov	rax, QWORD PTR 16[rbp]
	mov	QWORD PTR -8[rbp], rax
.LBB224:
.LBB225:
	.loc 15 233 50
	movabs	rax, 2305843009213693951
.LBE225:
.LBE224:
	.loc 15 134 27 discriminator 1
	cmp	rax, QWORD PTR 24[rbp]
	setb	al
	.loc 15 134 22 discriminator 1
	movzx	eax, al
	.loc 15 134 22 is_stmt 0 discriminator 2
	test	eax, eax
	setne	al
	.loc 15 134 2 is_stmt 1 discriminator 2
	test	al, al
	je	.L130
	.loc 15 138 6
	movabs	rax, 4611686018427387903
	cmp	rax, QWORD PTR 24[rbp]
	jnb	.L131
	.loc 15 139 41
	call	_ZSt28__throw_bad_array_new_lengthv
.L131:
	.loc 15 140 28
	call	_ZSt17__throw_bad_allocv
.L130:
	.loc 15 151 66
	mov	rax, QWORD PTR 24[rbp]
	sal	rax, 2
	mov	rcx, rax
	call	_Znwy
	.loc 15 151 67
	nop
	.loc 15 152 7
	add	rsp, 48
	pop	rbp
	.cfi_restore 6
	.cfi_def_cfa 7, 8
	ret
	.cfi_endproc
.LFE1832:
	.seh_endproc
	.section .rdata,"dr"
	.align 4
.LC1:
	.long	1065353216
	.align 4
.LC2:
	.long	1015222895
	.text
.Letext0:
	.file 16 "C:/Qt/Tools/mingw1530_64/include/c++/15.3.0/bits/utility.h"
	.file 17 "C:/Qt/Tools/mingw1530_64/include/c++/15.3.0/concepts"
	.file 18 "C:/Qt/Tools/mingw1530_64/include/c++/15.3.0/bits/iterator_concepts.h"
	.file 19 "C:/Qt/Tools/mingw1530_64/include/c++/15.3.0/compare"
	.file 20 "C:/Qt/Tools/mingw1530_64/include/c++/15.3.0/debug/debug.h"
	.file 21 "C:/Qt/Tools/mingw1530_64/include/c++/15.3.0/numbers"
	.file 22 "C:/Qt/Tools/mingw1530_64/include/c++/15.3.0/bits/memory_resource.h"
	.file 23 "C:/Qt/Tools/mingw1530_64/include/c++/15.3.0/cstddef"
	.file 24 "C:/Qt/Tools/mingw1530_64/include/c++/15.3.0/bits/functexcept.h"
	.file 25 "C:/Qt/Tools/mingw1530_64/include/c++/15.3.0/bits/predefined_ops.h"
	.file 26 "C:/Qt/Tools/mingw1530_64/include/c++/15.3.0/ext/alloc_traits.h"
	.file 27 "C:/Qt/Tools/mingw1530_64/include/c++/15.3.0/ext/type_traits.h"
	.file 28 "C:/Qt/Tools/mingw1530_64/include/c++/15.3.0/bits/ptr_traits.h"
	.file 29 "C:/Qt/Tools/mingw1530_64/x86_64-w64-mingw32/include/stddef.h"