	.file	"_ch140_policy_vs_strategy.cpp"
	.intel_syntax noprefix
	.text
.Ltext0:
	.cfi_sections	.debug_frame
	.file 0 "C:/CodeLearnling/note/note/C++/CPP-Bible" "Examples/_ch140_policy_vs_strategy.cpp"
	.section .rdata,"dr"
.LC0:
	.ascii "OOR\0"
	.section	.text$_ZN10RangeCheck5checkEi,"x"
	.linkonce discard
	.globl	_ZN10RangeCheck5checkEi
	.def	_ZN10RangeCheck5checkEi;	.scl	2;	.type	32;	.endef
	.seh_proc	_ZN10RangeCheck5checkEi
_ZN10RangeCheck5checkEi:
.LFB23:
	.file 1 "Examples/_ch140_policy_vs_strategy.cpp"
	.loc 1 11 33
	.cfi_startproc
	push	rbp
	.seh_pushreg	rbp
	.cfi_def_cfa_offset 16
	.cfi_offset 6, -16
	mov	rbp, rsp
	.seh_setframe	rbp, 0
	.cfi_def_cfa_register 6
	sub	rsp, 32
	.seh_stackalloc	32
	.seh_endprologue
	mov	DWORD PTR 16[rbp], ecx
	.loc 1 11 48
	cmp	DWORD PTR 16[rbp], 0
	js	.L2
	.loc 1 11 58 discriminator 2
	cmp	DWORD PTR 16[rbp], 100
	jle	.L4
.L2:
	.loc 1 11 79 discriminator 3
	lea	rax, .LC0[rip]
	mov	rcx, rax
	call	puts
.L4:
	.loc 1 11 88
	nop
	add	rsp, 32
	pop	rbp
	.cfi_restore 6
	.cfi_def_cfa 7, 8
	ret
	.cfi_endproc
.LFE23:
	.seh_endproc
	.section	.text$_ZN7NoCheck5checkEi,"x"
	.linkonce discard
	.globl	_ZN7NoCheck5checkEi
	.def	_ZN7NoCheck5checkEi;	.scl	2;	.type	32;	.endef
	.seh_proc	_ZN7NoCheck5checkEi
_ZN7NoCheck5checkEi:
.LFB24:
	.loc 1 12 33
	.cfi_startproc
	push	rbp
	.seh_pushreg	rbp
	.cfi_def_cfa_offset 16
	.cfi_offset 6, -16
	mov	rbp, rsp
	.seh_setframe	rbp, 0
	.cfi_def_cfa_register 6
	.seh_endprologue
	mov	DWORD PTR 16[rbp], ecx
	.loc 1 12 47
	nop
	pop	rbp
	.cfi_restore 6
	.cfi_def_cfa 7, 8
	ret
	.cfi_endproc
.LFE24:
	.seh_endproc
	.section	.text$_ZNK13RangeStrategy5checkEi,"x"
	.linkonce discard
	.align 2
	.globl	_ZNK13RangeStrategy5checkEi
	.def	_ZNK13RangeStrategy5checkEi;	.scl	2;	.type	32;	.endef
	.seh_proc	_ZNK13RangeStrategy5checkEi
_ZNK13RangeStrategy5checkEi:
.LFB25:
	.loc 1 19 40
	.cfi_startproc
	push	rbp
	.seh_pushreg	rbp
	.cfi_def_cfa_offset 16
	.cfi_offset 6, -16
	mov	rbp, rsp
	.seh_setframe	rbp, 0
	.cfi_def_cfa_register 6
	sub	rsp, 32
	.seh_stackalloc	32
	.seh_endprologue
	mov	QWORD PTR 16[rbp], rcx
	mov	DWORD PTR 24[rbp], edx
	.loc 1 19 70
	cmp	DWORD PTR 24[rbp], 0
	js	.L7
	.loc 1 19 80 discriminator 2
	cmp	DWORD PTR 24[rbp], 100
	jle	.L9
.L7:
	.loc 1 19 101 discriminator 3
	lea	rax, .LC0[rip]
	mov	rcx, rax
	call	puts
.L9:
	.loc 1 19 110
	nop
	add	rsp, 32
	pop	rbp
	.cfi_restore 6
	.cfi_def_cfa 7, 8
	ret
	.cfi_endproc
.LFE25:
	.seh_endproc
	.section	.text$_ZNK12NoneStrategy5checkEi,"x"
	.linkonce discard
	.align 2
	.globl	_ZNK12NoneStrategy5checkEi
	.def	_ZNK12NoneStrategy5checkEi;	.scl	2;	.type	32;	.endef
	.seh_proc	_ZNK12NoneStrategy5checkEi
_ZNK12NoneStrategy5checkEi:
.LFB26:
	.loc 1 20 40
	.cfi_startproc
	push	rbp
	.seh_pushreg	rbp
	.cfi_def_cfa_offset 16
	.cfi_offset 6, -16
	mov	rbp, rsp
	.seh_setframe	rbp, 0
	.cfi_def_cfa_register 6
	.seh_endprologue
	mov	QWORD PTR 16[rbp], rcx
	mov	DWORD PTR 24[rbp], edx
	.loc 1 20 67
	nop
	pop	rbp
	.cfi_restore 6
	.cfi_def_cfa 7, 8
	ret
	.cfi_endproc
.LFE26:
	.seh_endproc
	.section	.text$_ZN14StrategyWidgetC1EPK8Strategy,"x"
	.linkonce discard
	.align 2
	.globl	_ZN14StrategyWidgetC1EPK8Strategy
	.def	_ZN14StrategyWidgetC1EPK8Strategy;	.scl	2;	.type	32;	.endef
	.seh_proc	_ZN14StrategyWidgetC1EPK8Strategy
_ZN14StrategyWidgetC1EPK8Strategy:
.LFB29:
	.loc 1 25 5
	.cfi_startproc
	push	rbp
	.seh_pushreg	rbp
	.cfi_def_cfa_offset 16
	.cfi_offset 6, -16
	mov	rbp, rsp
	.seh_setframe	rbp, 0
	.cfi_def_cfa_register 6
	.seh_endprologue
	mov	QWORD PTR 16[rbp], rcx
	mov	QWORD PTR 24[rbp], rdx
.LBB2:
	.loc 1 25 44
	mov	rax, QWORD PTR 16[rbp]
	mov	DWORD PTR [rax], 0
	.loc 1 25 41
	mov	rax, QWORD PTR 16[rbp]
	mov	rdx, QWORD PTR 24[rbp]
	mov	QWORD PTR 8[rax], rdx
.LBE2:
	.loc 1 25 47
	nop
	pop	rbp
	.cfi_restore 6
	.cfi_def_cfa 7, 8
	ret
	.cfi_endproc
.LFE29:
	.seh_endproc
	.section	.text$_ZN14StrategyWidget3setEi,"x"
	.linkonce discard
	.align 2
	.globl	_ZN14StrategyWidget3setEi
	.def	_ZN14StrategyWidget3setEi;	.scl	2;	.type	32;	.endef
	.seh_proc	_ZN14StrategyWidget3setEi
_ZN14StrategyWidget3setEi:
.LFB30:
	.loc 1 26 10
	.cfi_startproc
	push	rbp
	.seh_pushreg	rbp
	.cfi_def_cfa_offset 16
	.cfi_offset 6, -16
	mov	rbp, rsp
	.seh_setframe	rbp, 0
	.cfi_def_cfa_register 6
	sub	rsp, 32
	.seh_stackalloc	32
	.seh_endprologue
	mov	QWORD PTR 16[rbp], rcx
	mov	DWORD PTR 24[rbp], edx
	.loc 1 26 23
	mov	rax, QWORD PTR 16[rbp]
	mov	rax, QWORD PTR 8[rax]
	.loc 1 26 31
	mov	rax, QWORD PTR [rax]
	add	rax, 16
	mov	r8, QWORD PTR [rax]
	.loc 1 26 23
	mov	rax, QWORD PTR 16[rbp]
	mov	rax, QWORD PTR 8[rax]
	.loc 1 26 31
	mov	edx, DWORD PTR 24[rbp]
	mov	rcx, rax
	call	r8
.LVL0:
	.loc 1 26 42 discriminator 1
	mov	rax, QWORD PTR 16[rbp]
	mov	edx, DWORD PTR 24[rbp]
	mov	DWORD PTR [rax], edx
	.loc 1 26 47
	nop
	add	rsp, 32
	pop	rbp
	.cfi_restore 6
	.cfi_def_cfa 7, 8
	ret
	.cfi_endproc
.LFE30:
	.seh_endproc
	.section	.text$_ZNK14StrategyWidget3getEv,"x"
	.linkonce discard
	.align 2
	.globl	_ZNK14StrategyWidget3getEv
	.def	_ZNK14StrategyWidget3getEv;	.scl	2;	.type	32;	.endef
	.seh_proc	_ZNK14StrategyWidget3getEv
_ZNK14StrategyWidget3getEv:
.LFB31:
	.loc 1 27 10
	.cfi_startproc
	push	rbp
	.seh_pushreg	rbp
	.cfi_def_cfa_offset 16
	.cfi_offset 6, -16
	mov	rbp, rsp
	.seh_setframe	rbp, 0
	.cfi_def_cfa_register 6
	.seh_endprologue
	mov	QWORD PTR 16[rbp], rcx
	.loc 1 27 31
	mov	rax, QWORD PTR 16[rbp]
	mov	eax, DWORD PTR [rax]
	.loc 1 27 38
	pop	rbp
	.cfi_restore 6
	.cfi_def_cfa 7, 8
	ret
	.cfi_endproc
.LFE31:
	.seh_endproc
	.text
	.globl	_Z11policy_demoi
	.def	_Z11policy_demoi;	.scl	2;	.type	32;	.endef
	.seh_proc	_Z11policy_demoi
_Z11policy_demoi:
.LFB32:
	.loc 1 30 24
	.cfi_startproc
	push	rbp
	.seh_pushreg	rbp
	.cfi_def_cfa_offset 16
	.cfi_offset 6, -16
	mov	rbp, rsp
	.seh_setframe	rbp, 0
	.cfi_def_cfa_register 6
	sub	rsp, 48
	.seh_stackalloc	48
	.seh_endprologue
	mov	DWORD PTR 16[rbp], ecx
	.loc 1 31 30
	mov	DWORD PTR -4[rbp], 0
	.loc 1 32 10
	mov	edx, DWORD PTR 16[rbp]
	lea	rax, -4[rbp]
	mov	rcx, rax
	call	_ZN12PolicyWidgetI10RangeCheckE3setEi
	.loc 1 33 17
	lea	rax, -4[rbp]
	mov	rcx, rax
	call	_ZNK12PolicyWidgetI10RangeCheckE3getEv
	.loc 1 34 1
	add	rsp, 48
	pop	rbp
	.cfi_restore 6
	.cfi_def_cfa 7, 8
	ret
	.cfi_endproc
.LFE32:
	.seh_endproc
	.globl	_Z19policy_demo_nochecki
	.def	_Z19policy_demo_nochecki;	.scl	2;	.type	32;	.endef
	.seh_proc	_Z19policy_demo_nochecki
_Z19policy_demo_nochecki:
.LFB36:
	.loc 1 35 32
	.cfi_startproc
	push	rbp
	.seh_pushreg	rbp
	.cfi_def_cfa_offset 16
	.cfi_offset 6, -16
	mov	rbp, rsp
	.seh_setframe	rbp, 0
	.cfi_def_cfa_register 6
	sub	rsp, 48
	.seh_stackalloc	48
	.seh_endprologue
	mov	DWORD PTR 16[rbp], ecx
	.loc 1 36 27
	mov	DWORD PTR -4[rbp], 0
	.loc 1 37 10
	mov	edx, DWORD PTR 16[rbp]
	lea	rax, -4[rbp]
	mov	rcx, rax
	call	_ZN12PolicyWidgetI7NoCheckE3setEi
	.loc 1 38 17
	lea	rax, -4[rbp]
	mov	rcx, rax
	call	_ZNK12PolicyWidgetI7NoCheckE3getEv
	.loc 1 39 1
	add	rsp, 48
	pop	rbp
	.cfi_restore 6
	.cfi_def_cfa 7, 8
	ret
	.cfi_endproc
.LFE36:
	.seh_endproc
	.globl	_Z13strategy_demoiPK8Strategy
	.def	_Z13strategy_demoiPK8Strategy;	.scl	2;	.type	32;	.endef
	.seh_proc	_Z13strategy_demoiPK8Strategy
_Z13strategy_demoiPK8Strategy:
.LFB40:
	.loc 1 40 45
	.cfi_startproc
	push	rbp
	.seh_pushreg	rbp
	.cfi_def_cfa_offset 16
	.cfi_offset 6, -16
	mov	rbp, rsp
	.seh_setframe	rbp, 0
	.cfi_def_cfa_register 6
	sub	rsp, 48
	.seh_stackalloc	48
	.seh_endprologue
	mov	DWORD PTR 16[rbp], ecx
	mov	QWORD PTR 24[rbp], rdx
	.loc 1 41 23
	mov	rdx, QWORD PTR 24[rbp]
	lea	rax, -16[rbp]
	mov	rcx, rax
	call	_ZN14StrategyWidgetC1EPK8Strategy
	.loc 1 42 10
	mov	edx, DWORD PTR 16[rbp]
	lea	rax, -16[rbp]
	mov	rcx, rax
	call	_ZN14StrategyWidget3setEi
	.loc 1 43 17
	lea	rax, -16[rbp]
	mov	rcx, rax
	call	_ZNK14StrategyWidget3getEv
	.loc 1 44 1
	add	rsp, 48
	pop	rbp
	.cfi_restore 6
	.cfi_def_cfa 7, 8
	ret
	.cfi_endproc
.LFE40:
	.seh_endproc
	.section	.text$_ZN8StrategyD2Ev,"x"
	.linkonce discard
	.align 2
	.globl	_ZN8StrategyD2Ev
	.def	_ZN8StrategyD2Ev;	.scl	2;	.type	32;	.endef
	.seh_proc	_ZN8StrategyD2Ev
_ZN8StrategyD2Ev:
.LFB47:
	.loc 1 16 13
	.cfi_startproc
	push	rbp
	.seh_pushreg	rbp
	.cfi_def_cfa_offset 16
	.cfi_offset 6, -16
	mov	rbp, rsp
	.seh_setframe	rbp, 0
	.cfi_def_cfa_register 6
	.seh_endprologue
	mov	QWORD PTR 16[rbp], rcx
.LBB3:
	.loc 1 16 13
	lea	rdx, _ZTV8Strategy[rip+16]
	mov	rax, QWORD PTR 16[rbp]
	mov	QWORD PTR [rax], rdx
.LBE3:
	nop
	pop	rbp
	.cfi_restore 6
	.cfi_def_cfa 7, 8
	ret
	.cfi_endproc
.LFE47:
	.seh_endproc
	.section	.text$_ZN13RangeStrategyD1Ev,"x"
	.linkonce discard
	.align 2
	.globl	_ZN13RangeStrategyD1Ev
	.def	_ZN13RangeStrategyD1Ev;	.scl	2;	.type	32;	.endef
	.seh_proc	_ZN13RangeStrategyD1Ev
_ZN13RangeStrategyD1Ev:
.LFB54:
	.loc 1 19 8
	.cfi_startproc
	push	rbp
	.seh_pushreg	rbp
	.cfi_def_cfa_offset 16
	.cfi_offset 6, -16
	mov	rbp, rsp
	.seh_setframe	rbp, 0
	.cfi_def_cfa_register 6
	sub	rsp, 32
	.seh_stackalloc	32
	.seh_endprologue
	mov	QWORD PTR 16[rbp], rcx
.LBB4:
	.loc 1 19 8
	lea	rdx, _ZTV13RangeStrategy[rip+16]
	mov	rax, QWORD PTR 16[rbp]
	mov	QWORD PTR [rax], rdx
	mov	rax, QWORD PTR 16[rbp]
	mov	rcx, rax
	call	_ZN8StrategyD2Ev
.LBE4:
	nop
	add	rsp, 32
	pop	rbp
	.cfi_restore 6
	.cfi_def_cfa 7, 8
	ret
	.cfi_endproc
.LFE54:
	.seh_endproc
	.section	.text$_ZN13RangeStrategyD0Ev,"x"
	.linkonce discard
	.align 2
	.globl	_ZN13RangeStrategyD0Ev
	.def	_ZN13RangeStrategyD0Ev;	.scl	2;	.type	32;	.endef
	.seh_proc	_ZN13RangeStrategyD0Ev
_ZN13RangeStrategyD0Ev:
.LFB55:
	.loc 1 19 8
	.cfi_startproc
	push	rbp
	.seh_pushreg	rbp
	.cfi_def_cfa_offset 16
	.cfi_offset 6, -16
	mov	rbp, rsp
	.seh_setframe	rbp, 0
	.cfi_def_cfa_register 6
	sub	rsp, 32
	.seh_stackalloc	32
	.seh_endprologue
	mov	QWORD PTR 16[rbp], rcx
	.loc 1 19 8
	mov	rax, QWORD PTR 16[rbp]
	mov	rcx, rax
	call	_ZN13RangeStrategyD1Ev
	.loc 1 19 8 is_stmt 0 discriminator 1
	mov	rax, QWORD PTR 16[rbp]
	mov	edx, 8
	mov	rcx, rax
	call	_ZdlPvy
	nop
	.loc 1 19 8
	add	rsp, 32
	pop	rbp
	.cfi_restore 6
	.cfi_def_cfa 7, 8
	ret
	.cfi_endproc
.LFE55:
	.seh_endproc
	.section	.text$_ZN12NoneStrategyD1Ev,"x"
	.linkonce discard
	.align 2
	.globl	_ZN12NoneStrategyD1Ev
	.def	_ZN12NoneStrategyD1Ev;	.scl	2;	.type	32;	.endef
	.seh_proc	_ZN12NoneStrategyD1Ev
_ZN12NoneStrategyD1Ev:
.LFB61:
	.loc 1 20 8 is_stmt 1
	.cfi_startproc
	push	rbp
	.seh_pushreg	rbp
	.cfi_def_cfa_offset 16
	.cfi_offset 6, -16
	mov	rbp, rsp
	.seh_setframe	rbp, 0
	.cfi_def_cfa_register 6
	sub	rsp, 32
	.seh_stackalloc	32
	.seh_endprologue
	mov	QWORD PTR 16[rbp], rcx
.LBB5:
	.loc 1 20 8
	lea	rdx, _ZTV12NoneStrategy[rip+16]
	mov	rax, QWORD PTR 16[rbp]
	mov	QWORD PTR [rax], rdx
	mov	rax, QWORD PTR 16[rbp]
	mov	rcx, rax
	call	_ZN8StrategyD2Ev
.LBE5:
	nop
	add	rsp, 32
	pop	rbp
	.cfi_restore 6
	.cfi_def_cfa 7, 8
	ret
	.cfi_endproc
.LFE61:
	.seh_endproc
	.section	.text$_ZN12NoneStrategyD0Ev,"x"
	.linkonce discard
	.align 2
	.globl	_ZN12NoneStrategyD0Ev
	.def	_ZN12NoneStrategyD0Ev;	.scl	2;	.type	32;	.endef
	.seh_proc	_ZN12NoneStrategyD0Ev
_ZN12NoneStrategyD0Ev:
.LFB62:
	.loc 1 20 8
	.cfi_startproc
	push	rbp
	.seh_pushreg	rbp
	.cfi_def_cfa_offset 16
	.cfi_offset 6, -16
	mov	rbp, rsp
	.seh_setframe	rbp, 0
	.cfi_def_cfa_register 6
	sub	rsp, 32
	.seh_stackalloc	32
	.seh_endprologue
	mov	QWORD PTR 16[rbp], rcx
	.loc 1 20 8
	mov	rax, QWORD PTR 16[rbp]
	mov	rcx, rax
	call	_ZN12NoneStrategyD1Ev
	.loc 1 20 8 is_stmt 0 discriminator 1
	mov	rax, QWORD PTR 16[rbp]
	mov	edx, 8
	mov	rcx, rax
	call	_ZdlPvy
	nop
	.loc 1 20 8
	add	rsp, 32
	pop	rbp
	.cfi_restore 6
	.cfi_def_cfa 7, 8
	ret
	.cfi_endproc
.LFE62:
	.seh_endproc
	.text
	.globl	main
	.def	main;	.scl	2;	.type	32;	.endef
	.seh_proc	main
main:
.LFB41:
	.loc 1 45 12 is_stmt 1
	.cfi_startproc
	push	rbp
	.seh_pushreg	rbp
	.cfi_def_cfa_offset 16
	.cfi_offset 6, -16
	push	rbx
	.seh_pushreg	rbx
	.cfi_def_cfa_offset 24
	.cfi_offset 3, -24
	sub	rsp, 56
	.seh_stackalloc	56
	.cfi_def_cfa_offset 80
	lea	rbp, 48[rsp]
	.seh_setframe	rbp, 48
	.cfi_def_cfa 6, 32
	.seh_endprologue
	.loc 1 45 12
	call	__main
	.loc 1 46 19
	lea	rax, _ZTV13RangeStrategy[rip+16]
	mov	QWORD PTR -8[rbp], rax
	.loc 1 47 19
	lea	rax, _ZTV12NoneStrategy[rip+16]
	mov	QWORD PTR -16[rbp], rax
	.loc 1 48 23
	mov	ecx, 42
.LEHB0:
	call	_Z11policy_demoi
	mov	ebx, eax
	.loc 1 48 49 discriminator 2
	mov	ecx, 7
	call	_Z19policy_demo_nochecki
	.loc 1 48 28 discriminator 4
	add	ebx, eax
	.loc 1 49 25
	lea	rax, -8[rbp]
	mov	rdx, rax
	mov	ecx, 42
	call	_Z13strategy_demoiPK8Strategy
	.loc 1 49 10 discriminator 2
	add	ebx, eax
	.loc 1 49 50 discriminator 2
	lea	rax, -16[rbp]
	mov	rdx, rax
	mov	ecx, 7
	call	_Z13strategy_demoiPK8Strategy
.LEHE0:
	.loc 1 49 57 discriminator 4
	add	ebx, eax
	.loc 1 50 1
	lea	rax, -16[rbp]
	mov	rcx, rax
	call	_ZN12NoneStrategyD1Ev
	.loc 1 50 1 is_stmt 0 discriminator 2
	lea	rax, -8[rbp]
	mov	rcx, rax
	call	_ZN13RangeStrategyD1Ev
	.loc 1 50 1
	mov	eax, ebx
	jmp	.L30
.L29:
	mov	rbx, rax
	lea	rax, -16[rbp]
	mov	rcx, rax
	call	_ZN12NoneStrategyD1Ev
	lea	rax, -8[rbp]
	mov	rcx, rax
	call	_ZN13RangeStrategyD1Ev
	mov	rax, rbx
	mov	rcx, rax
.LEHB1:
	call	_Unwind_Resume
.LEHE1:
.L30:
	add	rsp, 56
	pop	rbx
	.cfi_restore 3
	pop	rbp
	.cfi_restore 6
	.cfi_def_cfa 7, -40
	ret
	.cfi_endproc
.LFE41:
	.seh_handler	__gxx_personality_seh0, @unwind, @except
	.seh_handlerdata
.LLSDA41:
	.byte	0xff
	.byte	0xff
	.byte	0x1
	.uleb128 .LLSDACSE41-.LLSDACSB41
.LLSDACSB41:
	.uleb128 .LEHB0-.LFB41
	.uleb128 .LEHE0-.LEHB0
	.uleb128 .L29-.LFB41
	.uleb128 0
	.uleb128 .LEHB1-.LFB41
	.uleb128 .LEHE1-.LEHB1
	.uleb128 0
	.uleb128 0
.LLSDACSE41:
	.text
	.seh_endproc
	.section	.text$_ZN12PolicyWidgetI10RangeCheckE3setEi,"x"
	.linkonce discard
	.align 2
	.globl	_ZN12PolicyWidgetI10RangeCheckE3setEi
	.def	_ZN12PolicyWidgetI10RangeCheckE3setEi;	.scl	2;	.type	32;	.endef
	.seh_proc	_ZN12PolicyWidgetI10RangeCheckE3setEi
_ZN12PolicyWidgetI10RangeCheckE3setEi:
.LFB63:
	.loc 1 7 10 is_stmt 1
	.cfi_startproc
	push	rbp
	.seh_pushreg	rbp
	.cfi_def_cfa_offset 16
	.cfi_offset 6, -16
	mov	rbp, rsp
	.seh_setframe	rbp, 0
	.cfi_def_cfa_register 6
	sub	rsp, 32
	.seh_stackalloc	32
	.seh_endprologue
	mov	QWORD PTR 16[rbp], rcx
	mov	DWORD PTR 24[rbp], edx
	.loc 1 7 44
	mov	eax, DWORD PTR 24[rbp]
	mov	ecx, eax
	call	_ZN10RangeCheck5checkEi
	.loc 1 7 55 discriminator 1
	mov	rax, QWORD PTR 16[rbp]
	mov	edx, DWORD PTR 24[rbp]
	mov	DWORD PTR [rax], edx
	.loc 1 7 60
	nop
	add	rsp, 32
	pop	rbp
	.cfi_restore 6
	.cfi_def_cfa 7, 8
	ret
	.cfi_endproc
.LFE63:
	.seh_endproc
	.section	.text$_ZNK12PolicyWidgetI10RangeCheckE3getEv,"x"
	.linkonce discard
	.align 2
	.globl	_ZNK12PolicyWidgetI10RangeCheckE3getEv
	.def	_ZNK12PolicyWidgetI10RangeCheckE3getEv;	.scl	2;	.type	32;	.endef
	.seh_proc	_ZNK12PolicyWidgetI10RangeCheckE3getEv
_ZNK12PolicyWidgetI10RangeCheckE3getEv:
.LFB64:
	.loc 1 8 10
	.cfi_startproc
	push	rbp
	.seh_pushreg	rbp
	.cfi_def_cfa_offset 16
	.cfi_offset 6, -16
	mov	rbp, rsp
	.seh_setframe	rbp, 0
	.cfi_def_cfa_register 6
	.seh_endprologue
	mov	QWORD PTR 16[rbp], rcx
	.loc 1 8 31
	mov	rax, QWORD PTR 16[rbp]
	mov	eax, DWORD PTR [rax]
	.loc 1 8 38
	pop	rbp
	.cfi_restore 6
	.cfi_def_cfa 7, 8
	ret
	.cfi_endproc
.LFE64:
	.seh_endproc
	.section	.text$_ZN12PolicyWidgetI7NoCheckE3setEi,"x"
	.linkonce discard
	.align 2
	.globl	_ZN12PolicyWidgetI7NoCheckE3setEi
	.def	_ZN12PolicyWidgetI7NoCheckE3setEi;	.scl	2;	.type	32;	.endef
	.seh_proc	_ZN12PolicyWidgetI7NoCheckE3setEi
_ZN12PolicyWidgetI7NoCheckE3setEi:
.LFB65:
	.loc 1 7 10
	.cfi_startproc
	push	rbp
	.seh_pushreg	rbp
	.cfi_def_cfa_offset 16
	.cfi_offset 6, -16
	mov	rbp, rsp
	.seh_setframe	rbp, 0
	.cfi_def_cfa_register 6
	sub	rsp, 32
	.seh_stackalloc	32
	.seh_endprologue
	mov	QWORD PTR 16[rbp], rcx
	mov	DWORD PTR 24[rbp], edx
	.loc 1 7 44
	mov	eax, DWORD PTR 24[rbp]
	mov	ecx, eax
	call	_ZN7NoCheck5checkEi
	.loc 1 7 55 discriminator 1
	mov	rax, QWORD PTR 16[rbp]
	mov	edx, DWORD PTR 24[rbp]
	mov	DWORD PTR [rax], edx
	.loc 1 7 60
	nop
	add	rsp, 32
	pop	rbp
	.cfi_restore 6
	.cfi_def_cfa 7, 8
	ret
	.cfi_endproc
.LFE65:
	.seh_endproc
	.section	.text$_ZNK12PolicyWidgetI7NoCheckE3getEv,"x"
	.linkonce discard
	.align 2
	.globl	_ZNK12PolicyWidgetI7NoCheckE3getEv
	.def	_ZNK12PolicyWidgetI7NoCheckE3getEv;	.scl	2;	.type	32;	.endef
	.seh_proc	_ZNK12PolicyWidgetI7NoCheckE3getEv
_ZNK12PolicyWidgetI7NoCheckE3getEv:
.LFB66:
	.loc 1 8 10
	.cfi_startproc
	push	rbp
	.seh_pushreg	rbp
	.cfi_def_cfa_offset 16
	.cfi_offset 6, -16
	mov	rbp, rsp
	.seh_setframe	rbp, 0
	.cfi_def_cfa_register 6
	.seh_endprologue
	mov	QWORD PTR 16[rbp], rcx
	.loc 1 8 31
	mov	rax, QWORD PTR 16[rbp]
	mov	eax, DWORD PTR [rax]
	.loc 1 8 38
	pop	rbp
	.cfi_restore 6
	.cfi_def_cfa 7, 8
	ret
	.cfi_endproc
.LFE66:
	.seh_endproc
	.globl	_ZTV12NoneStrategy
	.section	.rdata$_ZTV12NoneStrategy,"dr"
	.linkonce same_size
	.align 8
_ZTV12NoneStrategy:
	.quad	0
	.quad	_ZTI12NoneStrategy
	.quad	_ZN12NoneStrategyD1Ev
	.quad	_ZN12NoneStrategyD0Ev
	.quad	_ZNK12NoneStrategy5checkEi
	.globl	_ZTV13RangeStrategy
	.section	.rdata$_ZTV13RangeStrategy,"dr"
	.linkonce same_size
	.align 8
_ZTV13RangeStrategy:
	.quad	0
	.quad	_ZTI13RangeStrategy
	.quad	_ZN13RangeStrategyD1Ev
	.quad	_ZN13RangeStrategyD0Ev
	.quad	_ZNK13RangeStrategy5checkEi
	.globl	_ZTV8Strategy
	.section	.rdata$_ZTV8Strategy,"dr"
	.linkonce same_size
	.align 8
_ZTV8Strategy:
	.quad	0
	.quad	_ZTI8Strategy
	.quad	0
	.quad	0
	.quad	__cxa_pure_virtual
	.globl	_ZTI12NoneStrategy
	.section	.rdata$_ZTI12NoneStrategy,"dr"
	.linkonce same_size
	.align 8
_ZTI12NoneStrategy:
	.quad	_ZTVN10__cxxabiv120__si_class_type_infoE+16
	.quad	_ZTS12NoneStrategy
	.quad	_ZTI8Strategy
	.globl	_ZTS12NoneStrategy
	.section	.rdata$_ZTS12NoneStrategy,"dr"
	.linkonce same_size
	.align 8
_ZTS12NoneStrategy:
	.ascii "12NoneStrategy\0"
	.globl	_ZTI13RangeStrategy
	.section	.rdata$_ZTI13RangeStrategy,"dr"
	.linkonce same_size
	.align 8
_ZTI13RangeStrategy:
	.quad	_ZTVN10__cxxabiv120__si_class_type_infoE+16
	.quad	_ZTS13RangeStrategy
	.quad	_ZTI8Strategy
	.globl	_ZTS13RangeStrategy
	.section	.rdata$_ZTS13RangeStrategy,"dr"
	.linkonce same_size
	.align 16
_ZTS13RangeStrategy:
	.ascii "13RangeStrategy\0"
	.globl	_ZTI8Strategy
	.section	.rdata$_ZTI8Strategy,"dr"
	.linkonce same_size
	.align 8
_ZTI8Strategy:
	.quad	_ZTVN10__cxxabiv117__class_type_infoE+16
	.quad	_ZTS8Strategy
	.globl	_ZTS8Strategy
	.section	.rdata$_ZTS8Strategy,"dr"
	.linkonce same_size
	.align 8
_ZTS8Strategy:
	.ascii "8Strategy\0"
	.weak	__cxa_pure_virtual
	.text
.Letext0:
	.file 2 "C:/Qt/Tools/mingw1530_64/x86_64-w64-mingw32/include/stdio.h"
	.file 3 "C:/Qt/Tools/mingw1530_64/x86_64-w64-mingw32/include/corecrt.h"
	.file 4 "C:/Qt/Tools/mingw1530_64/include/c++/15.3.0/cstdio"
	.file 5 "C:/Qt/Tools/mingw1530_64/include/c++/15.3.0/x86_64-w64-mingw32/bits/c++config.h"