	.file	"_ch142_system.cpp"
	.intel_syntax noprefix
	.text
.Ltext0:
	.cfi_sections	.debug_frame
	.file 0 "C:/CodeLearnling/note/note/C++/CPP-Bible" "Examples/_ch142_system.cpp"
	.section	.text$_ZSt21is_constant_evaluatedv,"x"
	.linkonce discard
	.globl	_ZSt21is_constant_evaluatedv
	.def	_ZSt21is_constant_evaluatedv;	.scl	2;	.type	32;	.endef
	.seh_proc	_ZSt21is_constant_evaluatedv
_ZSt21is_constant_evaluatedv:
.LFB15:
	.file 1 "C:/Qt/Tools/mingw1530_64/include/c++/15.3.0/type_traits"
	.loc 1 4008 3
	.cfi_startproc
	push	rbp
	.seh_pushreg	rbp
	.cfi_def_cfa_offset 16
	.cfi_offset 6, -16
	mov	rbp, rsp
	.seh_setframe	rbp, 0
	.cfi_def_cfa_register 6
	.seh_endprologue
	.loc 1 4010 49
	mov	eax, 0
	.loc 1 4014 3
	pop	rbp
	.cfi_restore 6
	.cfi_def_cfa 7, 8
	ret
	.cfi_endproc
.LFE15:
	.seh_endproc
	.section	.text$_ZnwyPv,"x"
	.linkonce discard
	.globl	_ZnwyPv
	.def	_ZnwyPv;	.scl	2;	.type	32;	.endef
	.seh_proc	_ZnwyPv
_ZnwyPv:
.LFB220:
	.file 2 "C:/Qt/Tools/mingw1530_64/include/c++/15.3.0/new"
	.loc 2 208 1
	.cfi_startproc
	push	rbp
	.seh_pushreg	rbp
	.cfi_def_cfa_offset 16
	.cfi_offset 6, -16
	mov	rbp, rsp
	.seh_setframe	rbp, 0
	.cfi_def_cfa_register 6
	.seh_endprologue
	mov	QWORD PTR 16[rbp], rcx
	mov	QWORD PTR 24[rbp], rdx
	.loc 2 208 10
	mov	rax, QWORD PTR 24[rbp]
	.loc 2 208 15
	pop	rbp
	.cfi_restore 6
	.cfi_def_cfa 7, 8
	ret
	.cfi_endproc
.LFE220:
	.seh_endproc
	.section	.text$_ZdlPvS_,"x"
	.linkonce discard
	.globl	_ZdlPvS_
	.def	_ZdlPvS_;	.scl	2;	.type	32;	.endef
	.seh_proc	_ZdlPvS_
_ZdlPvS_:
.LFB222:
	.loc 2 219 1
	.cfi_startproc
	push	rbp
	.seh_pushreg	rbp
	.cfi_def_cfa_offset 16
	.cfi_offset 6, -16
	mov	rbp, rsp
	.seh_setframe	rbp, 0
	.cfi_def_cfa_register 6
	.seh_endprologue
	mov	QWORD PTR 16[rbp], rcx
	mov	QWORD PTR 24[rbp], rdx
	.loc 2 219 3
	nop
	pop	rbp
	.cfi_restore 6
	.cfi_def_cfa 7, 8
	ret
	.cfi_endproc
.LFE222:
	.seh_endproc
	.section	.text$_ZNKSt6vectorI8PositionSaIS0_EE4sizeEv,"x"
	.linkonce discard
	.align 2
	.globl	_ZNKSt6vectorI8PositionSaIS0_EE4sizeEv
	.def	_ZNKSt6vectorI8PositionSaIS0_EE4sizeEv;	.scl	2;	.type	32;	.endef
	.seh_proc	_ZNKSt6vectorI8PositionSaIS0_EE4sizeEv
_ZNKSt6vectorI8PositionSaIS0_EE4sizeEv:
.LFB1720:
	.file 3 "C:/Qt/Tools/mingw1530_64/include/c++/15.3.0/bits/stl_vector.h"
	.loc 3 1117 7
	.cfi_startproc
	push	rbp
	.seh_pushreg	rbp
	.cfi_def_cfa_offset 16
	.cfi_offset 6, -16
	mov	rbp, rsp
	.seh_setframe	rbp, 0
	.cfi_def_cfa_register 6
	sub	rsp, 16
	.seh_stackalloc	16
	.seh_endprologue
	mov	QWORD PTR 16[rbp], rcx
	.loc 3 1119 34
	mov	rax, QWORD PTR 16[rbp]
	mov	rdx, QWORD PTR 8[rax]
	.loc 3 1119 60
	mov	rax, QWORD PTR 16[rbp]
	mov	rax, QWORD PTR [rax]
	.loc 3 1119 44
	sub	rdx, rax
	.loc 3 1119 12
	mov	rax, rdx
	sar	rax, 3
	mov	QWORD PTR -8[rbp], rax
	.loc 3 1120 2
	cmp	QWORD PTR -8[rbp], 0
	.loc 3 1122 24
	mov	rax, QWORD PTR -8[rbp]
	.loc 3 1123 7
	add	rsp, 16
	pop	rbp
	.cfi_restore 6
	.cfi_def_cfa 7, 8
	ret
	.cfi_endproc
.LFE1720:
	.seh_endproc
	.section	.text$_ZNKSt6vectorI8VelocitySaIS0_EE4sizeEv,"x"
	.linkonce discard
	.align 2
	.globl	_ZNKSt6vectorI8VelocitySaIS0_EE4sizeEv
	.def	_ZNKSt6vectorI8VelocitySaIS0_EE4sizeEv;	.scl	2;	.type	32;	.endef
	.seh_proc	_ZNKSt6vectorI8VelocitySaIS0_EE4sizeEv
_ZNKSt6vectorI8VelocitySaIS0_EE4sizeEv:
.LFB1721:
	.loc 3 1117 7
	.cfi_startproc
	push	rbp
	.seh_pushreg	rbp
	.cfi_def_cfa_offset 16
	.cfi_offset 6, -16
	mov	rbp, rsp
	.seh_setframe	rbp, 0
	.cfi_def_cfa_register 6
	sub	rsp, 16
	.seh_stackalloc	16
	.seh_endprologue
	mov	QWORD PTR 16[rbp], rcx
	.loc 3 1119 34
	mov	rax, QWORD PTR 16[rbp]
	mov	rdx, QWORD PTR 8[rax]
	.loc 3 1119 60
	mov	rax, QWORD PTR 16[rbp]
	mov	rax, QWORD PTR [rax]
	.loc 3 1119 44
	sub	rdx, rax
	.loc 3 1119 12
	mov	rax, rdx
	sar	rax, 3
	mov	QWORD PTR -8[rbp], rax
	.loc 3 1120 2
	cmp	QWORD PTR -8[rbp], 0
	.loc 3 1122 24
	mov	rax, QWORD PTR -8[rbp]
	.loc 3 1123 7
	add	rsp, 16
	pop	rbp
	.cfi_restore 6
	.cfi_def_cfa 7, 8
	ret
	.cfi_endproc
.LFE1721:
	.seh_endproc
	.text
	.globl	_Z15movement_systemRSt6vectorI8PositionSaIS0_EERKS_I8VelocitySaIS4_EEf
	.def	_Z15movement_systemRSt6vectorI8PositionSaIS0_EERKS_I8VelocitySaIS4_EEf;	.scl	2;	.type	32;	.endef
	.seh_proc	_Z15movement_systemRSt6vectorI8PositionSaIS0_EERKS_I8VelocitySaIS4_EEf
_Z15movement_systemRSt6vectorI8PositionSaIS0_EERKS_I8VelocitySaIS4_EEf:
.LFB1719:
	.file 4 "Examples/_ch142_system.cpp"
	.loc 4 12 66
	.cfi_startproc
	push	rbp
	.seh_pushreg	rbp
	.cfi_def_cfa_offset 16
	.cfi_offset 6, -16
	push	rbx
	.seh_pushreg	rbx
	.cfi_def_cfa_offset 24
	.cfi_offset 3, -24
	sub	rsp, 72
	.seh_stackalloc	72
	.cfi_def_cfa_offset 96
	lea	rbp, 48[rsp]
	.seh_setframe	rbp, 48
	.cfi_def_cfa 6, 48
	movaps	XMMWORD PTR 0[rbp], xmm6
	.seh_savexmm	xmm6, 48
	.cfi_offset 23, -48
	.seh_endprologue
	mov	QWORD PTR 48[rbp], rcx
	mov	QWORD PTR 56[rbp], rdx
	movss	DWORD PTR 64[rbp], xmm2
	.loc 4 13 35
	mov	rax, QWORD PTR 48[rbp]
	mov	rcx, rax
	call	_ZNKSt6vectorI8PositionSaIS0_EE4sizeEv
	mov	rbx, rax
	.loc 4 13 48 discriminator 1
	mov	rax, QWORD PTR 56[rbp]
	mov	rcx, rax
	call	_ZNKSt6vectorI8VelocitySaIS0_EE4sizeEv
	.loc 4 13 51 discriminator 2
	cmp	rbx, rax
	jnb	.L13
	.loc 4 13 61 discriminator 3
	mov	rax, QWORD PTR 48[rbp]
	mov	rcx, rax
	call	_ZNKSt6vectorI8PositionSaIS0_EE4sizeEv
	mov	QWORD PTR -8[rbp], rax
	jmp	.L14
.L13:
	.loc 4 13 74 discriminator 4
	mov	rax, QWORD PTR 56[rbp]
	mov	rcx, rax
	call	_ZNKSt6vectorI8VelocitySaIS0_EE4sizeEv
	mov	QWORD PTR -8[rbp], rax
.L14:
.LBB180:
	.loc 4 14 22
	mov	QWORD PTR -16[rbp], 0
	.loc 4 14 5
	jmp	.L15
.L16:
	.loc 4 15 26
	mov	rdx, QWORD PTR -16[rbp]
	mov	rax, QWORD PTR 56[rbp]
	mov	rcx, rax
	call	_ZNKSt6vectorI8VelocitySaIS0_EEixEy
	.loc 4 15 28 discriminator 1
	movss	xmm0, DWORD PTR [rax]
	.loc 4 15 31 discriminator 1
	movaps	xmm6, xmm0
	mulss	xmm6, DWORD PTR 64[rbp]
	.loc 4 15 14 discriminator 1
	mov	rdx, QWORD PTR -16[rbp]
	mov	rax, QWORD PTR 48[rbp]
	mov	rcx, rax
	call	_ZNSt6vectorI8PositionSaIS0_EEixEy
	.loc 4 15 16 discriminator 2
	movss	xmm0, DWORD PTR [rax]
	.loc 4 15 18 discriminator 2
	addss	xmm0, xmm6
	movss	DWORD PTR [rax], xmm0
	.loc 4 16 26
	mov	rdx, QWORD PTR -16[rbp]
	mov	rax, QWORD PTR 56[rbp]
	mov	rcx, rax
	call	_ZNKSt6vectorI8VelocitySaIS0_EEixEy
	.loc 4 16 28 discriminator 1
	movss	xmm0, DWORD PTR 4[rax]
	.loc 4 16 31 discriminator 1
	movaps	xmm6, xmm0
	mulss	xmm6, DWORD PTR 64[rbp]
	.loc 4 16 14 discriminator 1
	mov	rdx, QWORD PTR -16[rbp]
	mov	rax, QWORD PTR 48[rbp]
	mov	rcx, rax
	call	_ZNSt6vectorI8PositionSaIS0_EEixEy
	.loc 4 16 16 discriminator 2
	movss	xmm0, DWORD PTR 4[rax]
	.loc 4 16 18 discriminator 2
	addss	xmm0, xmm6
	movss	DWORD PTR 4[rax], xmm0
	.loc 4 14 5 discriminator 3
	add	QWORD PTR -16[rbp], 1
.L15:
	.loc 4 14 31 discriminator 1
	mov	rax, QWORD PTR -16[rbp]
	cmp	rax, QWORD PTR -8[rbp]
	jb	.L16
.LBE180:
	.loc 4 18 1
	nop
	nop
	movaps	xmm6, XMMWORD PTR 0[rbp]
	add	rsp, 72
	.cfi_restore 23
	pop	rbx
	.cfi_restore 3
	pop	rbp
	.cfi_restore 6
	.cfi_def_cfa 7, -56
	ret
	.cfi_endproc
.LFE1719:
	.seh_endproc
	.section .rdata,"dr"
.LC0:
	.ascii "__n < this->size()\0"
	.align 8
.LC1:
	.ascii "constexpr std::vector<_Tp, _Alloc>::reference std::vector<_Tp, _Alloc>::operator[](size_type) [with _Tp = Position; _Alloc = std::allocator<Position>; reference = Position&; size_type = long long unsigned int]\0"
	.align 8
.LC2:
	.ascii "C:/Qt/Tools/mingw1530_64/include/c++/15.3.0/bits/stl_vector.h\0"
	.section	.text$_ZNSt6vectorI8PositionSaIS0_EEixEy,"x"
	.linkonce discard
	.align 2
	.globl	_ZNSt6vectorI8PositionSaIS0_EEixEy
	.def	_ZNSt6vectorI8PositionSaIS0_EEixEy;	.scl	2;	.type	32;	.endef
	.seh_proc	_ZNSt6vectorI8PositionSaIS0_EEixEy
_ZNSt6vectorI8PositionSaIS0_EEixEy:
.LFB1723:
	.loc 3 1261 7
	.cfi_startproc
	push	rbp
	.seh_pushreg	rbp
	.cfi_def_cfa_offset 16
	.cfi_offset 6, -16
	mov	rbp, rsp
	.seh_setframe	rbp, 0
	.cfi_def_cfa_register 6
	sub	rsp, 32
	.seh_stackalloc	32
	.seh_endprologue
	mov	QWORD PTR 16[rbp], rcx
	mov	QWORD PTR 24[rbp], rdx
	.loc 3 1263 2
	mov	rax, QWORD PTR 16[rbp]
	mov	rcx, rax
	call	_ZNKSt6vectorI8PositionSaIS0_EE4sizeEv
	.loc 3 1263 2 is_stmt 0 discriminator 1
	cmp	QWORD PTR 24[rbp], rax
	setnb	al
	movzx	eax, al
	.loc 3 1263 2 discriminator 2
	test	eax, eax
	setne	al
	test	al, al
	je	.L18
	.loc 3 1263 2 discriminator 3
	lea	rcx, .LC0[rip]
	lea	rdx, .LC1[rip]
	lea	rax, .LC2[rip]
	mov	r9, rcx
	mov	r8, rdx
	mov	edx, 1263
	mov	rcx, rax
	call	_ZSt21__glibcxx_assert_failPKciS0_S0_
.L18:
	.loc 3 1264 25 is_stmt 1
	mov	rax, QWORD PTR 16[rbp]
	mov	rax, QWORD PTR [rax]
	.loc 3 1264 34
	mov	rdx, QWORD PTR 24[rbp]
	sal	rdx, 3
	.loc 3 1264 39
	add	rax, rdx
	.loc 3 1265 7
	add	rsp, 32
	pop	rbp
	.cfi_restore 6
	.cfi_def_cfa 7, 8
	ret
	.cfi_endproc
.LFE1723:
	.seh_endproc
	.text
	.globl	main
	.def	main;	.scl	2;	.type	32;	.endef
	.seh_proc	main
main:
.LFB1722:
	.loc 4 20 12
	.cfi_startproc
	push	rbp
	.seh_pushreg	rbp
	.cfi_def_cfa_offset 16
	.cfi_offset 6, -16
	push	rbx
	.seh_pushreg	rbx
	.cfi_def_cfa_offset 24
	.cfi_offset 3, -24
	sub	rsp, 136
	.seh_stackalloc	136
	.cfi_def_cfa_offset 160
	lea	rbp, 128[rsp]
	.seh_setframe	rbp, 128
	.cfi_def_cfa 6, 32
	.seh_endprologue
	.loc 4 20 12
	call	__main
	lea	rax, -37[rbp]
	mov	QWORD PTR -8[rbp], rax
.LBB181:
.LBB182:
.LBB183:
.LBB184:
.LBB185:
	.file 5 "C:/Qt/Tools/mingw1530_64/include/c++/15.3.0/bits/new_allocator.h"
	.loc 5 88 49
	nop
.LBE185:
.LBE184:
.LBE183:
	.file 6 "C:/Qt/Tools/mingw1530_64/include/c++/15.3.0/bits/allocator.h"
	.loc 6 168 38
	nop
.LBE182:
.LBE181:
	.loc 4 21 48 discriminator 1
	pxor	xmm0, xmm0
	movss	DWORD PTR -36[rbp], xmm0
	pxor	xmm0, xmm0
	movss	DWORD PTR -32[rbp], xmm0
	lea	rcx, -37[rbp]
	lea	rdx, -36[rbp]
	lea	rax, -64[rbp]
	mov	r9, rcx
	mov	r8, rdx
	mov	edx, 512
	mov	rcx, rax
.LEHB0:
	call	_ZNSt6vectorI8PositionSaIS0_EEC1EyRKS0_RKS1_
.LEHE0:
.LBB186:
.LBB187:
	.loc 6 189 39
	nop
	lea	rax, -25[rbp]
	mov	QWORD PTR -16[rbp], rax
.LBE187:
.LBE186:
.LBB188:
.LBB189:
.LBB190:
.LBB191:
.LBB192:
	.loc 5 88 49
	nop
.LBE192:
.LBE191:
.LBE190:
	.loc 6 168 38
	nop
.LBE189:
.LBE188:
	.loc 4 22 48 discriminator 1
	movss	xmm0, DWORD PTR .LC4[rip]
	movss	DWORD PTR -24[rbp], xmm0
	movss	xmm0, DWORD PTR .LC5[rip]
	movss	DWORD PTR -20[rbp], xmm0
	lea	rcx, -25[rbp]
	lea	rdx, -24[rbp]
	lea	rax, -96[rbp]
	mov	r9, rcx
	mov	r8, rdx
	mov	edx, 512
	mov	rcx, rax
.LEHB1:
	call	_ZNSt6vectorI8VelocitySaIS0_EEC1EyRKS0_RKS1_
.LEHE1:
.LBB193:
.LBB194:
	.loc 6 189 39
	nop
.LBE194:
.LBE193:
	.loc 4 23 20
	lea	rdx, -96[rbp]
	lea	rax, -64[rbp]
	movss	xmm2, DWORD PTR .LC6[rip]
	mov	rcx, rax
	call	_Z15movement_systemRSt6vectorI8PositionSaIS0_EERKS_I8VelocitySaIS4_EEf
	.loc 4 24 23
	lea	rax, -64[rbp]
	mov	edx, 0
	mov	rcx, rax
	call	_ZNSt6vectorI8PositionSaIS0_EEixEy
	.loc 4 24 25 discriminator 1
	movss	xmm1, DWORD PTR [rax]
	.loc 4 24 27 discriminator 1
	movss	xmm0, DWORD PTR .LC7[rip]
	mulss	xmm0, xmm1
	.loc 4 24 33 discriminator 1
	cvttss2si	ebx, xmm0
	.loc 4 25 1
	lea	rax, -96[rbp]
	mov	rcx, rax
	call	_ZNSt6vectorI8VelocitySaIS0_EED1Ev
	.loc 4 25 1 is_stmt 0 discriminator 2
	lea	rax, -64[rbp]
	mov	rcx, rax
	call	_ZNSt6vectorI8PositionSaIS0_EED1Ev
	.loc 4 25 1
	mov	eax, ebx
	jmp	.L26
.L24:
.LBB195:
.LBB196:
	.loc 6 189 39 is_stmt 1
	nop
	mov	rcx, rax
.LEHB2:
	call	_Unwind_Resume
.L25:
.LBE196:
.LBE195:
.LBB197:
.LBB198:
	nop
	mov	rbx, rax
.LBE198:
.LBE197:
	.loc 4 25 1
	lea	rax, -64[rbp]
	mov	rcx, rax
	call	_ZNSt6vectorI8PositionSaIS0_EED1Ev
	mov	rax, rbx
	mov	rcx, rax
	call	_Unwind_Resume
.LEHE2:
.L26:
	add	rsp, 136
	pop	rbx
	.cfi_restore 3
	pop	rbp
	.cfi_restore 6
	.cfi_def_cfa 7, -120
	ret
	.cfi_endproc
.LFE1722:
	.seh_handler	__gxx_personality_seh0, @unwind, @except
	.seh_handlerdata
.LLSDA1722:
	.byte	0xff
	.byte	0xff
	.byte	0x1
	.uleb128 .LLSDACSE1722-.LLSDACSB1722
.LLSDACSB1722:
	.uleb128 .LEHB0-.LFB1722
	.uleb128 .LEHE0-.LEHB0
	.uleb128 .L24-.LFB1722
	.uleb128 0
	.uleb128 .LEHB1-.LFB1722
	.uleb128 .LEHE1-.LEHB1
	.uleb128 .L25-.LFB1722
	.uleb128 0
	.uleb128 .LEHB2-.LFB1722
	.uleb128 .LEHE2-.LEHB2
	.uleb128 0
	.uleb128 0
.LLSDACSE1722:
	.text
	.seh_endproc
	.section .rdata,"dr"
	.align 8
.LC8:
	.ascii "constexpr std::vector<_Tp, _Alloc>::const_reference std::vector<_Tp, _Alloc>::operator[](size_type) const [with _Tp = Velocity; _Alloc = std::allocator<Velocity>; const_reference = const Velocity&; size_type = long long unsigned int]\0"
	.section	.text$_ZNKSt6vectorI8VelocitySaIS0_EEixEy,"x"
	.linkonce discard
	.align 2
	.globl	_ZNKSt6vectorI8VelocitySaIS0_EEixEy
	.def	_ZNKSt6vectorI8VelocitySaIS0_EEixEy;	.scl	2;	.type	32;	.endef
	.seh_proc	_ZNKSt6vectorI8VelocitySaIS0_EEixEy
_ZNKSt6vectorI8VelocitySaIS0_EEixEy:
.LFB1729:
	.loc 3 1280 7
	.cfi_startproc
	push	rbp
	.seh_pushreg	rbp
	.cfi_def_cfa_offset 16
	.cfi_offset 6, -16
	mov	rbp, rsp
	.seh_setframe	rbp, 0
	.cfi_def_cfa_register 6
	sub	rsp, 32
	.seh_stackalloc	32
	.seh_endprologue
	mov	QWORD PTR 16[rbp], rcx
	mov	QWORD PTR 24[rbp], rdx
	.loc 3 1282 2
	mov	rax, QWORD PTR 16[rbp]
	mov	rcx, rax
	call	_ZNKSt6vectorI8VelocitySaIS0_EE4sizeEv
	.loc 3 1282 2 is_stmt 0 discriminator 1
	cmp	QWORD PTR 24[rbp], rax
	setnb	al
	movzx	eax, al
	.loc 3 1282 2 discriminator 2
	test	eax, eax
	setne	al
	test	al, al
	je	.L28
	.loc 3 1282 2 discriminator 3
	lea	rcx, .LC0[rip]
	lea	rdx, .LC8[rip]
	lea	rax, .LC2[rip]
	mov	r9, rcx
	mov	r8, rdx
	mov	edx, 1282
	mov	rcx, rax
	call	_ZSt21__glibcxx_assert_failPKciS0_S0_
.L28:
	.loc 3 1283 25 is_stmt 1
	mov	rax, QWORD PTR 16[rbp]
	mov	rax, QWORD PTR [rax]
	.loc 3 1283 34
	mov	rdx, QWORD PTR 24[rbp]
	sal	rdx, 3
	.loc 3 1283 39
	add	rax, rdx
	.loc 3 1284 7
	add	rsp, 32
	pop	rbp
	.cfi_restore 6
	.cfi_def_cfa 7, 8
	ret
	.cfi_endproc
.LFE1729:
	.seh_endproc
	.section	.text$_ZNSt6vectorI8PositionSaIS0_EEC1EyRKS0_RKS1_,"x"
	.linkonce discard
	.align 2
	.globl	_ZNSt6vectorI8PositionSaIS0_EEC1EyRKS0_RKS1_
	.def	_ZNSt6vectorI8PositionSaIS0_EEC1EyRKS0_RKS1_;	.scl	2;	.type	32;	.endef
	.seh_proc	_ZNSt6vectorI8PositionSaIS0_EEC1EyRKS0_RKS1_
_ZNSt6vectorI8PositionSaIS0_EEC1EyRKS0_RKS1_:
.LFB1738:
	.loc 3 599 7
	.cfi_startproc
	push	rbp
	.seh_pushreg	rbp
	.cfi_def_cfa_offset 16
	.cfi_offset 6, -16
	push	rbx
	.seh_pushreg	rbx
	.cfi_def_cfa_offset 24
	.cfi_offset 3, -24
	sub	rsp, 40
	.seh_stackalloc	40
	.cfi_def_cfa_offset 64
	lea	rbp, 32[rsp]
	.seh_setframe	rbp, 32
	.cfi_def_cfa 6, 32
	.seh_endprologue
	mov	QWORD PTR 32[rbp], rcx
	mov	QWORD PTR 40[rbp], rdx
	mov	QWORD PTR 48[rbp], r8
	mov	QWORD PTR 56[rbp], r9
.LBB199:
	.loc 3 601 47
	mov	rbx, QWORD PTR 32[rbp]
	mov	rdx, QWORD PTR 56[rbp]
	mov	rax, QWORD PTR 40[rbp]
	mov	rcx, rax
.LEHB3:
	call	_ZNSt6vectorI8PositionSaIS0_EE17_S_check_init_lenEyRKS1_
	.loc 3 601 47 is_stmt 0 discriminator 1
	mov	rdx, QWORD PTR 56[rbp]
	mov	r8, rdx
	mov	rdx, rax
	mov	rcx, rbx
	call	_ZNSt12_Vector_baseI8PositionSaIS0_EEC2EyRKS1_
.LEHE3:
	.loc 3 602 27 is_stmt 1
	mov	rcx, QWORD PTR 48[rbp]
	mov	rdx, QWORD PTR 40[rbp]
	mov	rax, QWORD PTR 32[rbp]
	mov	r8, rcx
	mov	rcx, rax
.LEHB4:
	call	_ZNSt6vectorI8PositionSaIS0_EE18_M_fill_initializeEyRKS0_
.LEHE4:
.LBE199:
	.loc 3 602 43
	jmp	.L33
.L32:
.LBB200:
	.loc 3 602 43 is_stmt 0 discriminator 2
	mov	rbx, rax
	mov	rax, QWORD PTR 32[rbp]
	mov	rcx, rax
	call	_ZNSt12_Vector_baseI8PositionSaIS0_EED2Ev
	mov	rax, rbx
	mov	rcx, rax
.LEHB5:
	call	_Unwind_Resume
	nop
.LEHE5:
.L33:
.LBE200:
	.loc 3 602 43
	add	rsp, 40
	pop	rbx
	.cfi_restore 3
	pop	rbp
	.cfi_restore 6
	.cfi_def_cfa 7, -24
	ret
	.cfi_endproc
.LFE1738:
	.seh_handler	__gxx_personality_seh0, @unwind, @except
	.seh_handlerdata
.LLSDA1738:
	.byte	0xff
	.byte	0xff
	.byte	0x1
	.uleb128 .LLSDACSE1738-.LLSDACSB1738
.LLSDACSB1738:
	.uleb128 .LEHB3-.LFB1738
	.uleb128 .LEHE3-.LEHB3
	.uleb128 0
	.uleb128 0
	.uleb128 .LEHB4-.LFB1738
	.uleb128 .LEHE4-.LEHB4
	.uleb128 .L32-.LFB1738
	.uleb128 0
	.uleb128 .LEHB5-.LFB1738
	.uleb128 .LEHE5-.LEHB5
	.uleb128 0
	.uleb128 0
.LLSDACSE1738:
	.section	.text$_ZNSt6vectorI8PositionSaIS0_EEC1EyRKS0_RKS1_,"x"
	.linkonce discard
	.seh_endproc
	.section	.text$_ZNSt6vectorI8PositionSaIS0_EED1Ev,"x"
	.linkonce discard
	.align 2
	.globl	_ZNSt6vectorI8PositionSaIS0_EED1Ev
	.def	_ZNSt6vectorI8PositionSaIS0_EED1Ev;	.scl	2;	.type	32;	.endef
	.seh_proc	_ZNSt6vectorI8PositionSaIS0_EED1Ev
_ZNSt6vectorI8PositionSaIS0_EED1Ev:
.LFB1741:
	.loc 3 800 7 is_stmt 1
	.cfi_startproc
	push	rbp
	.seh_pushreg	rbp
	.cfi_def_cfa_offset 16
	.cfi_offset 6, -16
	mov	rbp, rsp
	.seh_setframe	rbp, 0
	.cfi_def_cfa_register 6
	sub	rsp, 64
	.seh_stackalloc	64
	.seh_endprologue
	mov	QWORD PTR 16[rbp], rcx
.LBB201:
	.loc 3 803 28
	mov	rax, QWORD PTR 16[rbp]
	mov	rcx, rax
	call	_ZNSt12_Vector_baseI8PositionSaIS0_EE19_M_get_Tp_allocatorEv
	.loc 3 802 54
	mov	rdx, QWORD PTR 16[rbp]
	mov	rdx, QWORD PTR 8[rdx]
	.loc 3 802 30
	mov	rcx, QWORD PTR 16[rbp]
	mov	rcx, QWORD PTR [rcx]
	mov	QWORD PTR -8[rbp], rcx
	mov	QWORD PTR -16[rbp], rdx
	mov	QWORD PTR -24[rbp], rax
.LBB202:
.LBB203:
	.file 7 "C:/Qt/Tools/mingw1530_64/include/c++/15.3.0/bits/alloc_traits.h"
	.loc 7 1045 20
	mov	rdx, QWORD PTR -16[rbp]
	mov	rax, QWORD PTR -8[rbp]
	mov	rcx, rax
	call	_ZSt8_DestroyIP8PositionEvT_S2_
	.loc 7 1046 5
	nop
.LBE203:
.LBE202:
	.loc 3 805 7
	mov	rax, QWORD PTR 16[rbp]
	mov	rcx, rax
	call	_ZNSt12_Vector_baseI8PositionSaIS0_EED2Ev
.LBE201:
	nop
	add	rsp, 64
	pop	rbp
	.cfi_restore 6
	.cfi_def_cfa 7, 8
	ret
	.cfi_endproc
.LFE1741:
	.seh_handler	__gxx_personality_seh0, @unwind, @except
	.seh_handlerdata
.LLSDA1741:
	.byte	0xff
	.byte	0xff
	.byte	0x1
	.uleb128 .LLSDACSE1741-.LLSDACSB1741
.LLSDACSB1741:
.LLSDACSE1741:
	.section	.text$_ZNSt6vectorI8PositionSaIS0_EED1Ev,"x"
	.linkonce discard
	.seh_endproc
	.section	.text$_ZNSt6vectorI8VelocitySaIS0_EEC1EyRKS0_RKS1_,"x"
	.linkonce discard
	.align 2
	.globl	_ZNSt6vectorI8VelocitySaIS0_EEC1EyRKS0_RKS1_
	.def	_ZNSt6vectorI8VelocitySaIS0_EEC1EyRKS0_RKS1_;	.scl	2;	.type	32;	.endef
	.seh_proc	_ZNSt6vectorI8VelocitySaIS0_EEC1EyRKS0_RKS1_
_ZNSt6vectorI8VelocitySaIS0_EEC1EyRKS0_RKS1_:
.LFB1750:
	.loc 3 599 7
	.cfi_startproc
	push	rbp
	.seh_pushreg	rbp
	.cfi_def_cfa_offset 16
	.cfi_offset 6, -16
	push	rbx
	.seh_pushreg	rbx
	.cfi_def_cfa_offset 24
	.cfi_offset 3, -24
	sub	rsp, 40
	.seh_stackalloc	40
	.cfi_def_cfa_offset 64
	lea	rbp, 32[rsp]
	.seh_setframe	rbp, 32
	.cfi_def_cfa 6, 32
	.seh_endprologue
	mov	QWORD PTR 32[rbp], rcx
	mov	QWORD PTR 40[rbp], rdx
	mov	QWORD PTR 48[rbp], r8
	mov	QWORD PTR 56[rbp], r9
.LBB204:
	.loc 3 601 47
	mov	rbx, QWORD PTR 32[rbp]
	mov	rdx, QWORD PTR 56[rbp]
	mov	rax, QWORD PTR 40[rbp]
	mov	rcx, rax
.LEHB6:
	call	_ZNSt6vectorI8VelocitySaIS0_EE17_S_check_init_lenEyRKS1_
	.loc 3 601 47 is_stmt 0 discriminator 1
	mov	rdx, QWORD PTR 56[rbp]
	mov	r8, rdx
	mov	rdx, rax
	mov	rcx, rbx
	call	_ZNSt12_Vector_baseI8VelocitySaIS0_EEC2EyRKS1_
.LEHE6:
	.loc 3 602 27 is_stmt 1
	mov	rcx, QWORD PTR 48[rbp]
	mov	rdx, QWORD PTR 40[rbp]
	mov	rax, QWORD PTR 32[rbp]
	mov	r8, rcx
	mov	rcx, rax
.LEHB7:
	call	_ZNSt6vectorI8VelocitySaIS0_EE18_M_fill_initializeEyRKS0_
.LEHE7:
.LBE204:
	.loc 3 602 43
	jmp	.L38
.L37:
.LBB205:
	.loc 3 602 43 is_stmt 0 discriminator 2
	mov	rbx, rax
	mov	rax, QWORD PTR 32[rbp]
	mov	rcx, rax
	call	_ZNSt12_Vector_baseI8VelocitySaIS0_EED2Ev
	mov	rax, rbx
	mov	rcx, rax
.LEHB8:
	call	_Unwind_Resume
	nop
.LEHE8:
.L38:
.LBE205:
	.loc 3 602 43
	add	rsp, 40
	pop	rbx
	.cfi_restore 3
	pop	rbp
	.cfi_restore 6
	.cfi_def_cfa 7, -24
	ret
	.cfi_endproc
.LFE1750:
	.seh_handler	__gxx_personality_seh0, @unwind, @except
	.seh_handlerdata
.LLSDA1750:
	.byte	0xff
	.byte	0xff
	.byte	0x1
	.uleb128 .LLSDACSE1750-.LLSDACSB1750
.LLSDACSB1750:
	.uleb128 .LEHB6-.LFB1750
	.uleb128 .LEHE6-.LEHB6
	.uleb128 0
	.uleb128 0
	.uleb128 .LEHB7-.LFB1750
	.uleb128 .LEHE7-.LEHB7
	.uleb128 .L37-.LFB1750
	.uleb128 0
	.uleb128 .LEHB8-.LFB1750
	.uleb128 .LEHE8-.LEHB8
	.uleb128 0
	.uleb128 0
.LLSDACSE1750:
	.section	.text$_ZNSt6vectorI8VelocitySaIS0_EEC1EyRKS0_RKS1_,"x"
	.linkonce discard
	.seh_endproc
	.section	.text$_ZNSt6vectorI8VelocitySaIS0_EED1Ev,"x"
	.linkonce discard
	.align 2
	.globl	_ZNSt6vectorI8VelocitySaIS0_EED1Ev
	.def	_ZNSt6vectorI8VelocitySaIS0_EED1Ev;	.scl	2;	.type	32;	.endef
	.seh_proc	_ZNSt6vectorI8VelocitySaIS0_EED1Ev
_ZNSt6vectorI8VelocitySaIS0_EED1Ev:
.LFB1753:
	.loc 3 800 7 is_stmt 1
	.cfi_startproc
	push	rbp
	.seh_pushreg	rbp
	.cfi_def_cfa_offset 16
	.cfi_offset 6, -16
	mov	rbp, rsp
	.seh_setframe	rbp, 0
	.cfi_def_cfa_register 6
	sub	rsp, 64
	.seh_stackalloc	64
	.seh_endprologue
	mov	QWORD PTR 16[rbp], rcx
.LBB206:
	.loc 3 803 28
	mov	rax, QWORD PTR 16[rbp]
	mov	rcx, rax
	call	_ZNSt12_Vector_baseI8VelocitySaIS0_EE19_M_get_Tp_allocatorEv
	.loc 3 802 54
	mov	rdx, QWORD PTR 16[rbp]
	mov	rdx, QWORD PTR 8[rdx]
	.loc 3 802 30
	mov	rcx, QWORD PTR 16[rbp]
	mov	rcx, QWORD PTR [rcx]
	mov	QWORD PTR -8[rbp], rcx
	mov	QWORD PTR -16[rbp], rdx
	mov	QWORD PTR -24[rbp], rax
.LBB207:
.LBB208:
	.loc 7 1045 20
	mov	rdx, QWORD PTR -16[rbp]
	mov	rax, QWORD PTR -8[rbp]
	mov	rcx, rax
	call	_ZSt8_DestroyIP8VelocityEvT_S2_
	.loc 7 1046 5
	nop
.LBE208:
.LBE207:
	.loc 3 805 7
	mov	rax, QWORD PTR 16[rbp]
	mov	rcx, rax
	call	_ZNSt12_Vector_baseI8VelocitySaIS0_EED2Ev
.LBE206:
	nop
	add	rsp, 64
	pop	rbp
	.cfi_restore 6
	.cfi_def_cfa 7, 8
	ret
	.cfi_endproc
.LFE1753:
	.seh_handler	__gxx_personality_seh0, @unwind, @except
	.seh_handlerdata
.LLSDA1753:
	.byte	0xff
	.byte	0xff
	.byte	0x1
	.uleb128 .LLSDACSE1753-.LLSDACSB1753
.LLSDACSB1753:
.LLSDACSE1753:
	.section	.text$_ZNSt6vectorI8VelocitySaIS0_EED1Ev,"x"
	.linkonce discard
	.seh_endproc
	.section .rdata,"dr"
	.align 8
.LC9:
	.ascii "cannot create std::vector larger than max_size()\0"
	.section	.text$_ZNSt6vectorI8PositionSaIS0_EE17_S_check_init_lenEyRKS1_,"x"
	.linkonce discard
	.globl	_ZNSt6vectorI8PositionSaIS0_EE17_S_check_init_lenEyRKS1_
	.def	_ZNSt6vectorI8PositionSaIS0_EE17_S_check_init_lenEyRKS1_;	.scl	2;	.type	32;	.endef
	.seh_proc	_ZNSt6vectorI8PositionSaIS0_EE17_S_check_init_lenEyRKS1_
_ZNSt6vectorI8PositionSaIS0_EE17_S_check_init_lenEyRKS1_:
.LFB1757:
	.loc 3 2213 7
	.cfi_startproc
	push	rbp
	.seh_pushreg	rbp
	.cfi_def_cfa_offset 16
	.cfi_offset 6, -16
	mov	rbp, rsp
	.seh_setframe	rbp, 0
	.cfi_def_cfa_register 6
	sub	rsp, 64
	.seh_stackalloc	64
	.seh_endprologue
	mov	QWORD PTR 16[rbp], rcx
	mov	QWORD PTR 24[rbp], rdx
	mov	rax, QWORD PTR 24[rbp]
	mov	QWORD PTR -8[rbp], rax
	lea	rax, -25[rbp]
	mov	QWORD PTR -16[rbp], rax
	mov	rax, QWORD PTR -8[rbp]
	mov	QWORD PTR -24[rbp], rax
.LBB209:
.LBB210:
.LBB211:
.LBB212:
.LBB213:
	.loc 5 92 71
	nop
.LBE213:
.LBE212:
.LBE211:
	.loc 6 173 38
	nop
.LBE210:
.LBE209:
	.loc 3 2215 23 discriminator 1
	lea	rax, -25[rbp]
	mov	rcx, rax
	call	_ZNSt6vectorI8PositionSaIS0_EE11_S_max_sizeERKS1_
	.loc 3 2215 10 discriminator 2
	cmp	rax, QWORD PTR 16[rbp]
	setb	al
.LBB214:
.LBB215:
	.loc 6 189 39
	nop
.LBE215:
.LBE214:
	.loc 3 2215 2 discriminator 3
	test	al, al
	je	.L41
	.loc 3 2216 24
	lea	rax, .LC9[rip]
	mov	rcx, rax
	call	_ZSt20__throw_length_errorPKc
.L41:
	.loc 3 2218 9
	mov	rax, QWORD PTR 16[rbp]
	.loc 3 2219 7
	add	rsp, 64
	pop	rbp
	.cfi_restore 6
	.cfi_def_cfa 7, 8
	ret
	.cfi_endproc
.LFE1757:
	.seh_endproc
	.section	.text$_ZNSt12_Vector_baseI8PositionSaIS0_EE12_Vector_implD1Ev,"x"
	.linkonce discard
	.align 2
	.globl	_ZNSt12_Vector_baseI8PositionSaIS0_EE12_Vector_implD1Ev
	.def	_ZNSt12_Vector_baseI8PositionSaIS0_EE12_Vector_implD1Ev;	.scl	2;	.type	32;	.endef
	.seh_proc	_ZNSt12_Vector_baseI8PositionSaIS0_EE12_Vector_implD1Ev
_ZNSt12_Vector_baseI8PositionSaIS0_EE12_Vector_implD1Ev:
.LFB1761:
	.loc 3 139 14
	.cfi_startproc
	push	rbp
	.seh_pushreg	rbp
	.cfi_def_cfa_offset 16
	.cfi_offset 6, -16
	mov	rbp, rsp
	.seh_setframe	rbp, 0
	.cfi_def_cfa_register 6
	sub	rsp, 16
	.seh_stackalloc	16
	.seh_endprologue
	mov	QWORD PTR 16[rbp], rcx
	mov	rax, QWORD PTR 16[rbp]
	mov	QWORD PTR -8[rbp], rax
.LBB216:
.LBB217:
.LBB218:
	.loc 6 189 39
	nop
.LBE218:
.LBE217:
.LBE216:
	.loc 3 139 14
	nop
	add	rsp, 16
	pop	rbp
	.cfi_restore 6
	.cfi_def_cfa 7, 8
	ret
	.cfi_endproc
.LFE1761:
	.seh_endproc
	.section	.text$_ZNSt12_Vector_baseI8PositionSaIS0_EEC2EyRKS1_,"x"
	.linkonce discard
	.align 2
	.globl	_ZNSt12_Vector_baseI8PositionSaIS0_EEC2EyRKS1_
	.def	_ZNSt12_Vector_baseI8PositionSaIS0_EEC2EyRKS1_;	.scl	2;	.type	32;	.endef
	.seh_proc	_ZNSt12_Vector_baseI8PositionSaIS0_EEC2EyRKS1_
_ZNSt12_Vector_baseI8PositionSaIS0_EEC2EyRKS1_:
.LFB1762:
	.loc 3 339 7
	.cfi_startproc
	push	rbp
	.seh_pushreg	rbp
	.cfi_def_cfa_offset 16
	.cfi_offset 6, -16
	push	rbx
	.seh_pushreg	rbx
	.cfi_def_cfa_offset 24
	.cfi_offset 3, -24
	sub	rsp, 40
	.seh_stackalloc	40
	.cfi_def_cfa_offset 64
	lea	rbp, 32[rsp]
	.seh_setframe	rbp, 32
	.cfi_def_cfa 6, 32
	.seh_endprologue
	mov	QWORD PTR 32[rbp], rcx
	mov	QWORD PTR 40[rbp], rdx
	mov	QWORD PTR 48[rbp], r8
.LBB219:
	.loc 3 340 9
	mov	rax, QWORD PTR 32[rbp]
	mov	rdx, QWORD PTR 48[rbp]
	mov	rcx, rax
	call	_ZNSt12_Vector_baseI8PositionSaIS0_EE12_Vector_implC1ERKS1_
	.loc 3 341 26
	mov	rdx, QWORD PTR 40[rbp]
	mov	rax, QWORD PTR 32[rbp]
	mov	rcx, rax
.LEHB9:
	call	_ZNSt12_Vector_baseI8PositionSaIS0_EE17_M_create_storageEy
.LEHE9:
.LBE219:
	.loc 3 341 33
	jmp	.L47
.L46:
.LBB220:
	.loc 3 341 33 is_stmt 0 discriminator 2
	mov	rbx, rax
	mov	rax, QWORD PTR 32[rbp]
	mov	rcx, rax
	call	_ZNSt12_Vector_baseI8PositionSaIS0_EE12_Vector_implD1Ev
	mov	rax, rbx
	mov	rcx, rax
.LEHB10:
	call	_Unwind_Resume
	nop
.LEHE10:
.L47:
.LBE220:
	.loc 3 341 33
	add	rsp, 40
	pop	rbx
	.cfi_restore 3
	pop	rbp
	.cfi_restore 6
	.cfi_def_cfa 7, -24
	ret
	.cfi_endproc
.LFE1762:
	.seh_handler	__gxx_personality_seh0, @unwind, @except
	.seh_handlerdata
.LLSDA1762:
	.byte	0xff
	.byte	0xff
	.byte	0x1
	.uleb128 .LLSDACSE1762-.LLSDACSB1762
.LLSDACSB1762:
	.uleb128 .LEHB9-.LFB1762
	.uleb128 .LEHE9-.LEHB9
	.uleb128 .L46-.LFB1762
	.uleb128 0
	.uleb128 .LEHB10-.LFB1762
	.uleb128 .LEHE10-.LEHB10
	.uleb128 0
	.uleb128 0
.LLSDACSE1762:
	.section	.text$_ZNSt12_Vector_baseI8PositionSaIS0_EEC2EyRKS1_,"x"
	.linkonce discard
	.seh_endproc
	.section	.text$_ZNSt12_Vector_baseI8PositionSaIS0_EED2Ev,"x"
	.linkonce discard
	.align 2
	.globl	_ZNSt12_Vector_baseI8PositionSaIS0_EED2Ev
	.def	_ZNSt12_Vector_baseI8PositionSaIS0_EED2Ev;	.scl	2;	.type	32;	.endef
	.seh_proc	_ZNSt12_Vector_baseI8PositionSaIS0_EED2Ev
_ZNSt12_Vector_baseI8PositionSaIS0_EED2Ev:
.LFB1765:
	.loc 3 373 7 is_stmt 1
	.cfi_startproc
	push	rbp
	.seh_pushreg	rbp
	.cfi_def_cfa_offset 16
	.cfi_offset 6, -16
	mov	rbp, rsp
	.seh_setframe	rbp, 0
	.cfi_def_cfa_register 6
	sub	rsp, 32
	.seh_stackalloc	32
	.seh_endprologue
	mov	QWORD PTR 16[rbp], rcx
.LBB221:
	.loc 3 376 17
	mov	rax, QWORD PTR 16[rbp]
	mov	rdx, QWORD PTR 16[rax]
	.loc 3 376 45
	mov	rax, QWORD PTR 16[rbp]
	mov	rax, QWORD PTR [rax]
	.loc 3 376 35
	sub	rdx, rax
	mov	rax, rdx
	sar	rax, 3
	.loc 3 375 15
	mov	rcx, rax
	mov	rax, QWORD PTR 16[rbp]
	mov	rdx, QWORD PTR [rax]
	mov	rax, QWORD PTR 16[rbp]
	mov	r8, rcx
	mov	rcx, rax
	call	_ZNSt12_Vector_baseI8PositionSaIS0_EE13_M_deallocateEPS0_y
	.loc 3 377 7
	mov	rax, QWORD PTR 16[rbp]
	mov	rcx, rax
	call	_ZNSt12_Vector_baseI8PositionSaIS0_EE12_Vector_implD1Ev
.LBE221:
	nop
	add	rsp, 32
	pop	rbp
	.cfi_restore 6
	.cfi_def_cfa 7, 8
	ret
	.cfi_endproc
.LFE1765:
	.seh_handler	__gxx_personality_seh0, @unwind, @except
	.seh_handlerdata
.LLSDA1765:
	.byte	0xff
	.byte	0xff
	.byte	0x1
	.uleb128 .LLSDACSE1765-.LLSDACSB1765
.LLSDACSB1765:
.LLSDACSE1765:
	.section	.text$_ZNSt12_Vector_baseI8PositionSaIS0_EED2Ev,"x"
	.linkonce discard
	.seh_endproc
	.section	.text$_ZNSt6vectorI8PositionSaIS0_EE18_M_fill_initializeEyRKS0_,"x"
	.linkonce discard
	.align 2
	.globl	_ZNSt6vectorI8PositionSaIS0_EE18_M_fill_initializeEyRKS0_
	.def	_ZNSt6vectorI8PositionSaIS0_EE18_M_fill_initializeEyRKS0_;	.scl	2;	.type	32;	.endef
	.seh_proc	_ZNSt6vectorI8PositionSaIS0_EE18_M_fill_initializeEyRKS0_
_ZNSt6vectorI8PositionSaIS0_EE18_M_fill_initializeEyRKS0_:
.LFB1767:
	.loc 3 1997 7
	.cfi_startproc
	push	rbp
	.seh_pushreg	rbp
	.cfi_def_cfa_offset 16
	.cfi_offset 6, -16
	mov	rbp, rsp
	.seh_setframe	rbp, 0
	.cfi_def_cfa_register 6
	sub	rsp, 32
	.seh_stackalloc	32
	.seh_endprologue
	mov	QWORD PTR 16[rbp], rcx
	mov	QWORD PTR 24[rbp], rdx
	mov	QWORD PTR 32[rbp], r8
	.loc 3 2001 25
	mov	rax, QWORD PTR 16[rbp]
	mov	rcx, rax
	call	_ZNSt12_Vector_baseI8PositionSaIS0_EE19_M_get_Tp_allocatorEv
	mov	rcx, rax
	.loc 3 2000 48
	mov	rax, QWORD PTR 16[rbp]
	mov	rax, QWORD PTR [rax]
	.loc 3 2000 33
	mov	r8, QWORD PTR 32[rbp]
	mov	rdx, QWORD PTR 24[rbp]
	mov	r9, rcx
	mov	rcx, rax
	call	_ZSt24__uninitialized_fill_n_aIP8PositionyS0_S0_ET_S2_T0_RKT1_RSaIT2_E
	.loc 3 1999 26
	mov	rdx, QWORD PTR 16[rbp]
	mov	QWORD PTR 8[rdx], rax
	.loc 3 2002 7
	nop
	add	rsp, 32
	pop	rbp
	.cfi_restore 6
	.cfi_def_cfa 7, 8
	ret
	.cfi_endproc
.LFE1767:
	.seh_endproc
	.section	.text$_ZNSt12_Vector_baseI8PositionSaIS0_EE19_M_get_Tp_allocatorEv,"x"
	.linkonce discard
	.align 2
	.globl	_ZNSt12_Vector_baseI8PositionSaIS0_EE19_M_get_Tp_allocatorEv
	.def	_ZNSt12_Vector_baseI8PositionSaIS0_EE19_M_get_Tp_allocatorEv;	.scl	2;	.type	32;	.endef
	.seh_proc	_ZNSt12_Vector_baseI8PositionSaIS0_EE19_M_get_Tp_allocatorEv
_ZNSt12_Vector_baseI8PositionSaIS0_EE19_M_get_Tp_allocatorEv:
.LFB1768:
	.loc 3 307 7
	.cfi_startproc
	push	rbp
	.seh_pushreg	rbp
	.cfi_def_cfa_offset 16
	.cfi_offset 6, -16
	mov	rbp, rsp
	.seh_setframe	rbp, 0
	.cfi_def_cfa_register 6
	.seh_endprologue
	mov	QWORD PTR 16[rbp], rcx
	.loc 3 308 22
	mov	rax, QWORD PTR 16[rbp]
	.loc 3 308 31
	pop	rbp
	.cfi_restore 6
	.cfi_def_cfa 7, 8
	ret
	.cfi_endproc
.LFE1768:
	.seh_endproc
	.section	.text$_ZNSt6vectorI8VelocitySaIS0_EE17_S_check_init_lenEyRKS1_,"x"
	.linkonce discard
	.globl	_ZNSt6vectorI8VelocitySaIS0_EE17_S_check_init_lenEyRKS1_
	.def	_ZNSt6vectorI8VelocitySaIS0_EE17_S_check_init_lenEyRKS1_;	.scl	2;	.type	32;	.endef
	.seh_proc	_ZNSt6vectorI8VelocitySaIS0_EE17_S_check_init_lenEyRKS1_
_ZNSt6vectorI8VelocitySaIS0_EE17_S_check_init_lenEyRKS1_:
.LFB1773:
	.loc 3 2213 7
	.cfi_startproc
	push	rbp
	.seh_pushreg	rbp
	.cfi_def_cfa_offset 16
	.cfi_offset 6, -16
	mov	rbp, rsp
	.seh_setframe	rbp, 0
	.cfi_def_cfa_register 6
	sub	rsp, 64
	.seh_stackalloc	64
	.seh_endprologue
	mov	QWORD PTR 16[rbp], rcx
	mov	QWORD PTR 24[rbp], rdx
	mov	rax, QWORD PTR 24[rbp]
	mov	QWORD PTR -8[rbp], rax
	lea	rax, -25[rbp]
	mov	QWORD PTR -16[rbp], rax
	mov	rax, QWORD PTR -8[rbp]
	mov	QWORD PTR -24[rbp], rax
.LBB222:
.LBB223:
.LBB224:
.LBB225:
.LBB226:
	.loc 5 92 71
	nop
.LBE226:
.LBE225:
.LBE224:
	.loc 6 173 38
	nop
.LBE223:
.LBE222:
	.loc 3 2215 23 discriminator 1
	lea	rax, -25[rbp]
	mov	rcx, rax
	call	_ZNSt6vectorI8VelocitySaIS0_EE11_S_max_sizeERKS1_
	.loc 3 2215 10 discriminator 2
	cmp	rax, QWORD PTR 16[rbp]
	setb	al
.LBB227:
.LBB228:
	.loc 6 189 39
	nop
.LBE228:
.LBE227:
	.loc 3 2215 2 discriminator 3
	test	al, al
	je	.L53
	.loc 3 2216 24
	lea	rax, .LC9[rip]
	mov	rcx, rax
	call	_ZSt20__throw_length_errorPKc
.L53:
	.loc 3 2218 9
	mov	rax, QWORD PTR 16[rbp]
	.loc 3 2219 7
	add	rsp, 64
	pop	rbp
	.cfi_restore 6
	.cfi_def_cfa 7, 8
	ret
	.cfi_endproc
.LFE1773:
	.seh_endproc
	.section	.text$_ZNSt12_Vector_baseI8VelocitySaIS0_EE12_Vector_implD1Ev,"x"
	.linkonce discard
	.align 2
	.globl	_ZNSt12_Vector_baseI8VelocitySaIS0_EE12_Vector_implD1Ev
	.def	_ZNSt12_Vector_baseI8VelocitySaIS0_EE12_Vector_implD1Ev;	.scl	2;	.type	32;	.endef
	.seh_proc	_ZNSt12_Vector_baseI8VelocitySaIS0_EE12_Vector_implD1Ev
_ZNSt12_Vector_baseI8VelocitySaIS0_EE12_Vector_implD1Ev:
.LFB1777:
	.loc 3 139 14
	.cfi_startproc
	push	rbp
	.seh_pushreg	rbp
	.cfi_def_cfa_offset 16
	.cfi_offset 6, -16
	mov	rbp, rsp
	.seh_setframe	rbp, 0
	.cfi_def_cfa_register 6
	sub	rsp, 16
	.seh_stackalloc	16
	.seh_endprologue
	mov	QWORD PTR 16[rbp], rcx
	mov	rax, QWORD PTR 16[rbp]
	mov	QWORD PTR -8[rbp], rax
.LBB229:
.LBB230:
.LBB231:
	.loc 6 189 39
	nop
.LBE231:
.LBE230:
.LBE229:
	.loc 3 139 14
	nop
	add	rsp, 16
	pop	rbp
	.cfi_restore 6
	.cfi_def_cfa 7, 8
	ret
	.cfi_endproc
.LFE1777:
	.seh_endproc
	.section	.text$_ZNSt12_Vector_baseI8VelocitySaIS0_EEC2EyRKS1_,"x"
	.linkonce discard
	.align 2
	.globl	_ZNSt12_Vector_baseI8VelocitySaIS0_EEC2EyRKS1_
	.def	_ZNSt12_Vector_baseI8VelocitySaIS0_EEC2EyRKS1_;	.scl	2;	.type	32;	.endef
	.seh_proc	_ZNSt12_Vector_baseI8VelocitySaIS0_EEC2EyRKS1_
_ZNSt12_Vector_baseI8VelocitySaIS0_EEC2EyRKS1_:
.LFB1778:
	.loc 3 339 7
	.cfi_startproc
	push	rbp
	.seh_pushreg	rbp
	.cfi_def_cfa_offset 16
	.cfi_offset 6, -16
	push	rbx
	.seh_pushreg	rbx
	.cfi_def_cfa_offset 24
	.cfi_offset 3, -24
	sub	rsp, 40
	.seh_stackalloc	40
	.cfi_def_cfa_offset 64
	lea	rbp, 32[rsp]
	.seh_setframe	rbp, 32
	.cfi_def_cfa 6, 32
	.seh_endprologue
	mov	QWORD PTR 32[rbp], rcx
	mov	QWORD PTR 40[rbp], rdx
	mov	QWORD PTR 48[rbp], r8
.LBB232:
	.loc 3 340 9
	mov	rax, QWORD PTR 32[rbp]
	mov	rdx, QWORD PTR 48[rbp]
	mov	rcx, rax
	call	_ZNSt12_Vector_baseI8VelocitySaIS0_EE12_Vector_implC1ERKS1_
	.loc 3 341 26
	mov	rdx, QWORD PTR 40[rbp]
	mov	rax, QWORD PTR 32[rbp]
	mov	rcx, rax
.LEHB11:
	call	_ZNSt12_Vector_baseI8VelocitySaIS0_EE17_M_create_storageEy
.LEHE11:
.LBE232:
	.loc 3 341 33
	jmp	.L59
.L58:
.LBB233:
	.loc 3 341 33 is_stmt 0 discriminator 2
	mov	rbx, rax
	mov	rax, QWORD PTR 32[rbp]
	mov	rcx, rax
	call	_ZNSt12_Vector_baseI8VelocitySaIS0_EE12_Vector_implD1Ev
	mov	rax, rbx
	mov	rcx, rax
.LEHB12:
	call	_Unwind_Resume
	nop
.LEHE12:
.L59:
.LBE233:
	.loc 3 341 33
	add	rsp, 40
	pop	rbx
	.cfi_restore 3
	pop	rbp
	.cfi_restore 6
	.cfi_def_cfa 7, -24
	ret
	.cfi_endproc
.LFE1778:
	.seh_handler	__gxx_personality_seh0, @unwind, @except
	.seh_handlerdata
.LLSDA1778:
	.byte	0xff
	.byte	0xff
	.byte	0x1
	.uleb128 .LLSDACSE1778-.LLSDACSB1778
.LLSDACSB1778:
	.uleb128 .LEHB11-.LFB1778
	.uleb128 .LEHE11-.LEHB11
	.uleb128 .L58-.LFB1778
	.uleb128 0
	.uleb128 .LEHB12-.LFB1778
	.uleb128 .LEHE12-.LEHB12
	.uleb128 0
	.uleb128 0
.LLSDACSE1778:
	.section	.text$_ZNSt12_Vector_baseI8VelocitySaIS0_EEC2EyRKS1_,"x"
	.linkonce discard
	.seh_endproc
	.section	.text$_ZNSt12_Vector_baseI8VelocitySaIS0_EED2Ev,"x"
	.linkonce discard
	.align 2
	.globl	_ZNSt12_Vector_baseI8VelocitySaIS0_EED2Ev
	.def	_ZNSt12_Vector_baseI8VelocitySaIS0_EED2Ev;	.scl	2;	.type	32;	.endef
	.seh_proc	_ZNSt12_Vector_baseI8VelocitySaIS0_EED2Ev
_ZNSt12_Vector_baseI8VelocitySaIS0_EED2Ev:
.LFB1781:
	.loc 3 373 7 is_stmt 1
	.cfi_startproc
	push	rbp
	.seh_pushreg	rbp
	.cfi_def_cfa_offset 16
	.cfi_offset 6, -16
	mov	rbp, rsp
	.seh_setframe	rbp, 0
	.cfi_def_cfa_register 6
	sub	rsp, 32
	.seh_stackalloc	32
	.seh_endprologue
	mov	QWORD PTR 16[rbp], rcx
.LBB234:
	.loc 3 376 17
	mov	rax, QWORD PTR 16[rbp]
	mov	rdx, QWORD PTR 16[rax]
	.loc 3 376 45
	mov	rax, QWORD PTR 16[rbp]
	mov	rax, QWORD PTR [rax]
	.loc 3 376 35
	sub	rdx, rax
	mov	rax, rdx
	sar	rax, 3
	.loc 3 375 15
	mov	rcx, rax
	mov	rax, QWORD PTR 16[rbp]
	mov	rdx, QWORD PTR [rax]
	mov	rax, QWORD PTR 16[rbp]
	mov	r8, rcx
	mov	rcx, rax
	call	_ZNSt12_Vector_baseI8VelocitySaIS0_EE13_M_deallocateEPS0_y
	.loc 3 377 7
	mov	rax, QWORD PTR 16[rbp]
	mov	rcx, rax
	call	_ZNSt12_Vector_baseI8VelocitySaIS0_EE12_Vector_implD1Ev
.LBE234:
	nop
	add	rsp, 32
	pop	rbp
	.cfi_restore 6
	.cfi_def_cfa 7, 8
	ret
	.cfi_endproc
.LFE1781:
	.seh_handler	__gxx_personality_seh0, @unwind, @except
	.seh_handlerdata
.LLSDA1781:
	.byte	0xff
	.byte	0xff
	.byte	0x1
	.uleb128 .LLSDACSE1781-.LLSDACSB1781
.LLSDACSB1781:
.LLSDACSE1781:
	.section	.text$_ZNSt12_Vector_baseI8VelocitySaIS0_EED2Ev,"x"
	.linkonce discard
	.seh_endproc
	.section	.text$_ZNSt6vectorI8VelocitySaIS0_EE18_M_fill_initializeEyRKS0_,"x"
	.linkonce discard
	.align 2
	.globl	_ZNSt6vectorI8VelocitySaIS0_EE18_M_fill_initializeEyRKS0_
	.def	_ZNSt6vectorI8VelocitySaIS0_EE18_M_fill_initializeEyRKS0_;	.scl	2;	.type	32;	.endef
	.seh_proc	_ZNSt6vectorI8VelocitySaIS0_EE18_M_fill_initializeEyRKS0_
_ZNSt6vectorI8VelocitySaIS0_EE18_M_fill_initializeEyRKS0_:
.LFB1783:
	.loc 3 1997 7
	.cfi_startproc
	push	rbp
	.seh_pushreg	rbp
	.cfi_def_cfa_offset 16
	.cfi_offset 6, -16
	mov	rbp, rsp
	.seh_setframe	rbp, 0
	.cfi_def_cfa_register 6
	sub	rsp, 32
	.seh_stackalloc	32
	.seh_endprologue
	mov	QWORD PTR 16[rbp], rcx
	mov	QWORD PTR 24[rbp], rdx
	mov	QWORD PTR 32[rbp], r8
	.loc 3 2001 25
	mov	rax, QWORD PTR 16[rbp]
	mov	rcx, rax
	call	_ZNSt12_Vector_baseI8VelocitySaIS0_EE19_M_get_Tp_allocatorEv
	mov	rcx, rax
	.loc 3 2000 48
	mov	rax, QWORD PTR 16[rbp]
	mov	rax, QWORD PTR [rax]
	.loc 3 2000 33
	mov	r8, QWORD PTR 32[rbp]
	mov	rdx, QWORD PTR 24[rbp]
	mov	r9, rcx
	mov	rcx, rax
	call	_ZSt24__uninitialized_fill_n_aIP8VelocityyS0_S0_ET_S2_T0_RKT1_RSaIT2_E
	.loc 3 1999 26
	mov	rdx, QWORD PTR 16[rbp]
	mov	QWORD PTR 8[rdx], rax
	.loc 3 2002 7
	nop
	add	rsp, 32
	pop	rbp
	.cfi_restore 6
	.cfi_def_cfa 7, 8
	ret
	.cfi_endproc
.LFE1783:
	.seh_endproc
	.section	.text$_ZNSt12_Vector_baseI8VelocitySaIS0_EE19_M_get_Tp_allocatorEv,"x"
	.linkonce discard
	.align 2
	.globl	_ZNSt12_Vector_baseI8VelocitySaIS0_EE19_M_get_Tp_allocatorEv
	.def	_ZNSt12_Vector_baseI8VelocitySaIS0_EE19_M_get_Tp_allocatorEv;	.scl	2;	.type	32;	.endef
	.seh_proc	_ZNSt12_Vector_baseI8VelocitySaIS0_EE19_M_get_Tp_allocatorEv
_ZNSt12_Vector_baseI8VelocitySaIS0_EE19_M_get_Tp_allocatorEv:
.LFB1784:
	.loc 3 307 7
	.cfi_startproc
	push	rbp
	.seh_pushreg	rbp
	.cfi_def_cfa_offset 16
	.cfi_offset 6, -16
	mov	rbp, rsp
	.seh_setframe	rbp, 0
	.cfi_def_cfa_register 6
	.seh_endprologue
	mov	QWORD PTR 16[rbp], rcx
	.loc 3 308 22
	mov	rax, QWORD PTR 16[rbp]
	.loc 3 308 31
	pop	rbp
	.cfi_restore 6
	.cfi_def_cfa 7, 8
	ret
	.cfi_endproc
.LFE1784:
	.seh_endproc
	.section	.text$_ZNSt6vectorI8PositionSaIS0_EE11_S_max_sizeERKS1_,"x"
	.linkonce discard
	.globl	_ZNSt6vectorI8PositionSaIS0_EE11_S_max_sizeERKS1_
	.def	_ZNSt6vectorI8PositionSaIS0_EE11_S_max_sizeERKS1_;	.scl	2;	.type	32;	.endef
	.seh_proc	_ZNSt6vectorI8PositionSaIS0_EE11_S_max_sizeERKS1_
_ZNSt6vectorI8PositionSaIS0_EE11_S_max_sizeERKS1_:
.LFB1786:
	.loc 3 2222 7
	.cfi_startproc
	push	rbp
	.seh_pushreg	rbp
	.cfi_def_cfa_offset 16
	.cfi_offset 6, -16
	mov	rbp, rsp
	.seh_setframe	rbp, 0
	.cfi_def_cfa_register 6
	sub	rsp, 48
	.seh_stackalloc	48
	.seh_endprologue
	mov	QWORD PTR 16[rbp], rcx
	.loc 3 2227 15
	movabs	rax, 1152921504606846975
	mov	QWORD PTR -8[rbp], rax
	.loc 3 2229 15
	movabs	rax, 2305843009213693951
	mov	QWORD PTR -16[rbp], rax
	.loc 3 2230 19
	lea	rdx, -16[rbp]
	lea	rax, -8[rbp]
	mov	rcx, rax
	call	_ZSt3minIyERKT_S2_S2_
	.loc 3 2230 41 discriminator 1
	mov	rax, QWORD PTR [rax]
	.loc 3 2231 7
	add	rsp, 48
	pop	rbp
	.cfi_restore 6
	.cfi_def_cfa 7, 8
	ret
	.cfi_endproc
.LFE1786:
	.seh_endproc
	.section	.text$_ZNSt12_Vector_baseI8PositionSaIS0_EE12_Vector_implC1ERKS1_,"x"
	.linkonce discard
	.align 2
	.globl	_ZNSt12_Vector_baseI8PositionSaIS0_EE12_Vector_implC1ERKS1_
	.def	_ZNSt12_Vector_baseI8PositionSaIS0_EE12_Vector_implC1ERKS1_;	.scl	2;	.type	32;	.endef
	.seh_proc	_ZNSt12_Vector_baseI8PositionSaIS0_EE12_Vector_implC1ERKS1_
_ZNSt12_Vector_baseI8PositionSaIS0_EE12_Vector_implC1ERKS1_:
.LFB1793:
	.loc 3 152 2
	.cfi_startproc
	push	rbp
	.seh_pushreg	rbp
	.cfi_def_cfa_offset 16
	.cfi_offset 6, -16
	mov	rbp, rsp
	.seh_setframe	rbp, 0
	.cfi_def_cfa_register 6
	sub	rsp, 64
	.seh_stackalloc	64
	.seh_endprologue
	mov	QWORD PTR 16[rbp], rcx
	mov	QWORD PTR 24[rbp], rdx
	mov	rax, QWORD PTR 16[rbp]
	mov	QWORD PTR -8[rbp], rax
	mov	rax, QWORD PTR 24[rbp]
	mov	QWORD PTR -16[rbp], rax
	mov	rax, QWORD PTR -8[rbp]
	mov	QWORD PTR -24[rbp], rax
	mov	rax, QWORD PTR -16[rbp]
	mov	QWORD PTR -32[rbp], rax
.LBB235:
.LBB236:
.LBB237:
.LBB238:
.LBB239:
.LBB240:
	.loc 5 92 71
	nop
.LBE240:
.LBE239:
.LBE238:
	.loc 6 173 38
	nop
.LBE237:
.LBE236:
	.loc 3 153 22 discriminator 1
	mov	rax, QWORD PTR 16[rbp]
	mov	rcx, rax
	call	_ZNSt12_Vector_baseI8PositionSaIS0_EE17_Vector_impl_dataC2Ev
.LBE235:
	.loc 3 154 4
	nop
	add	rsp, 64
	pop	rbp
	.cfi_restore 6
	.cfi_def_cfa 7, 8
	ret
	.cfi_endproc
.LFE1793:
	.seh_endproc
	.section	.text$_ZNSt12_Vector_baseI8PositionSaIS0_EE17_M_create_storageEy,"x"
	.linkonce discard
	.align 2
	.globl	_ZNSt12_Vector_baseI8PositionSaIS0_EE17_M_create_storageEy
	.def	_ZNSt12_Vector_baseI8PositionSaIS0_EE17_M_create_storageEy;	.scl	2;	.type	32;	.endef
	.seh_proc	_ZNSt12_Vector_baseI8PositionSaIS0_EE17_M_create_storageEy
_ZNSt12_Vector_baseI8PositionSaIS0_EE17_M_create_storageEy:
.LFB1794:
	.loc 3 403 7
	.cfi_startproc
	push	rbp
	.seh_pushreg	rbp
	.cfi_def_cfa_offset 16
	.cfi_offset 6, -16
	mov	rbp, rsp
	.seh_setframe	rbp, 0
	.cfi_def_cfa_register 6
	sub	rsp, 32
	.seh_stackalloc	32
	.seh_endprologue
	mov	QWORD PTR 16[rbp], rcx
	mov	QWORD PTR 24[rbp], rdx
	.loc 3 405 44
	mov	rdx, QWORD PTR 24[rbp]
	mov	rax, QWORD PTR 16[rbp]
	mov	rcx, rax
	call	_ZNSt12_Vector_baseI8PositionSaIS0_EE11_M_allocateEy
	.loc 3 405 25 discriminator 1
	mov	rdx, QWORD PTR 16[rbp]
	mov	QWORD PTR [rdx], rax
	.loc 3 406 42
	mov	rax, QWORD PTR 16[rbp]
	mov	rdx, QWORD PTR [rax]
	.loc 3 406 26
	mov	rax, QWORD PTR 16[rbp]
	mov	QWORD PTR 8[rax], rdx
	.loc 3 407 50
	mov	rax, QWORD PTR 16[rbp]
	mov	rax, QWORD PTR [rax]
	.loc 3 407 59
	mov	rdx, QWORD PTR 24[rbp]
	sal	rdx, 3
	add	rdx, rax
	.loc 3 407 34
	mov	rax, QWORD PTR 16[rbp]
	mov	QWORD PTR 16[rax], rdx
	.loc 3 408 7
	nop
	add	rsp, 32
	pop	rbp
	.cfi_restore 6
	.cfi_def_cfa 7, 8
	ret
	.cfi_endproc
.LFE1794:
	.seh_endproc
	.section	.text$_ZNSt12_Vector_baseI8PositionSaIS0_EE13_M_deallocateEPS0_y,"x"
	.linkonce discard
	.align 2
	.globl	_ZNSt12_Vector_baseI8PositionSaIS0_EE13_M_deallocateEPS0_y
	.def	_ZNSt12_Vector_baseI8PositionSaIS0_EE13_M_deallocateEPS0_y;	.scl	2;	.type	32;	.endef
	.seh_proc	_ZNSt12_Vector_baseI8PositionSaIS0_EE13_M_deallocateEPS0_y
_ZNSt12_Vector_baseI8PositionSaIS0_EE13_M_deallocateEPS0_y:
.LFB1795:
	.loc 3 392 7
	.cfi_startproc
	push	rbp
	.seh_pushreg	rbp
	.cfi_def_cfa_offset 16
	.cfi_offset 6, -16
	mov	rbp, rsp
	.seh_setframe	rbp, 0
	.cfi_def_cfa_register 6
	sub	rsp, 80
	.seh_stackalloc	80
	.seh_endprologue
	mov	QWORD PTR 16[rbp], rcx
	mov	QWORD PTR 24[rbp], rdx
	mov	QWORD PTR 32[rbp], r8
	.loc 3 395 2
	cmp	QWORD PTR 24[rbp], 0
	je	.L73
	.loc 3 396 20
	mov	rax, QWORD PTR 16[rbp]
	mov	QWORD PTR -8[rbp], rax
	mov	rax, QWORD PTR 24[rbp]
	mov	QWORD PTR -16[rbp], rax
	mov	rax, QWORD PTR 32[rbp]
	mov	QWORD PTR -24[rbp], rax
	mov	rax, QWORD PTR -8[rbp]
	mov	QWORD PTR -32[rbp], rax
	mov	rax, QWORD PTR -16[rbp]
	mov	QWORD PTR -40[rbp], rax
	mov	rax, QWORD PTR -24[rbp]
	mov	QWORD PTR -48[rbp], rax
.LBB241:
.LBB242:
.LBB243:
.LBB244:
.LBB245:
.LBB246:
	.file 8 "C:/Qt/Tools/mingw1530_64/include/c++/15.3.0/x86_64-w64-mingw32/bits/c++config.h"
	.loc 8 586 49
	mov	eax, 0
.LBE246:
.LBE245:
	.loc 6 210 2 discriminator 1
	test	al, al
	je	.L71
	.loc 6 212 23
	mov	rax, QWORD PTR -40[rbp]
	mov	rcx, rax
	call	_ZdlPv
	.loc 6 213 6
	jmp	.L72
.L71:
	.loc 6 215 35
	mov	rcx, QWORD PTR -48[rbp]
	mov	rdx, QWORD PTR -40[rbp]
	mov	rax, QWORD PTR -32[rbp]
	mov	r8, rcx
	mov	rcx, rax
	call	_ZNSt15__new_allocatorI8PositionE10deallocateEPS0_y
.L72:
.LBE244:
.LBE243:
	.loc 7 649 35
	nop
.L73:
.LBE242:
.LBE241:
	.loc 3 397 7
	nop
	add	rsp, 80
	pop	rbp
	.cfi_restore 6
	.cfi_def_cfa 7, 8
	ret
	.cfi_endproc
.LFE1795:
	.seh_endproc
	.section	.text$_ZSt24__uninitialized_fill_n_aIP8PositionyS0_S0_ET_S2_T0_RKT1_RSaIT2_E,"x"
	.linkonce discard
	.globl	_ZSt24__uninitialized_fill_n_aIP8PositionyS0_S0_ET_S2_T0_RKT1_RSaIT2_E
	.def	_ZSt24__uninitialized_fill_n_aIP8PositionyS0_S0_ET_S2_T0_RKT1_RSaIT2_E;	.scl	2;	.type	32;	.endef
	.seh_proc	_ZSt24__uninitialized_fill_n_aIP8PositionyS0_S0_ET_S2_T0_RKT1_RSaIT2_E
_ZSt24__uninitialized_fill_n_aIP8PositionyS0_S0_ET_S2_T0_RKT1_RSaIT2_E:
.LFB1796:
	.file 9 "C:/Qt/Tools/mingw1530_64/include/c++/15.3.0/bits/stl_uninitialized.h"
	.loc 9 747 5
	.cfi_startproc
	push	rbp
	.seh_pushreg	rbp
	.cfi_def_cfa_offset 16
	.cfi_offset 6, -16
	mov	rbp, rsp
	.seh_setframe	rbp, 0
	.cfi_def_cfa_register 6
	sub	rsp, 32
	.seh_stackalloc	32
	.seh_endprologue
	mov	QWORD PTR 16[rbp], rcx
	mov	QWORD PTR 24[rbp], rdx
	mov	QWORD PTR 32[rbp], r8
	mov	QWORD PTR 40[rbp], r9
	.loc 9 751 37
	call	_ZSt21is_constant_evaluatedv
	.loc 9 751 7 discriminator 1
	test	al, al
	je	.L75
	.loc 9 752 32
	mov	rcx, QWORD PTR 32[rbp]
	mov	rdx, QWORD PTR 24[rbp]
	mov	rax, QWORD PTR 16[rbp]
	mov	r8, rcx
	mov	rcx, rax
	call	_ZSt18__do_uninit_fill_nIP8PositionyS0_ET_S2_T0_RKT1_
	.loc 9 752 50
	jmp	.L76
.L75:
	.loc 9 754 39
	mov	rcx, QWORD PTR 32[rbp]
	mov	rdx, QWORD PTR 24[rbp]
	mov	rax, QWORD PTR 16[rbp]
	mov	r8, rcx
	mov	rcx, rax
	call	_ZSt20uninitialized_fill_nIP8PositionyS0_ET_S2_T0_RKT1_
	.loc 9 754 57
	nop
.L76:
	.loc 9 755 5
	add	rsp, 32
	pop	rbp
	.cfi_restore 6
	.cfi_def_cfa 7, 8
	ret
	.cfi_endproc
.LFE1796:
	.seh_endproc
	.section	.text$_ZSt8_DestroyIP8PositionEvT_S2_,"x"
	.linkonce discard
	.globl	_ZSt8_DestroyIP8PositionEvT_S2_
	.def	_ZSt8_DestroyIP8PositionEvT_S2_;	.scl	2;	.type	32;	.endef
	.seh_proc	_ZSt8_DestroyIP8PositionEvT_S2_
_ZSt8_DestroyIP8PositionEvT_S2_:
.LFB1797:
	.file 10 "C:/Qt/Tools/mingw1530_64/include/c++/15.3.0/bits/stl_construct.h"
	.loc 10 219 5
	.cfi_startproc
	push	rbp
	.seh_pushreg	rbp
	.cfi_def_cfa_offset 16
	.cfi_offset 6, -16
	mov	rbp, rsp
	.seh_setframe	rbp, 0
	.cfi_def_cfa_register 6
	sub	rsp, 48
	.seh_stackalloc	48
	.seh_endprologue
	mov	QWORD PTR 16[rbp], rcx
	mov	QWORD PTR 24[rbp], rdx
.LBB247:
.LBB248:
	.loc 8 586 49
	mov	eax, 0
.LBE248:
.LBE247:
	.loc 10 228 12 discriminator 1
	test	al, al
	je	.L83
	.loc 10 229 2
	jmp	.L80
.L82:
	mov	rax, QWORD PTR 16[rbp]
	mov	QWORD PTR -8[rbp], rax
.LBB249:
.LBB250:
	.file 11 "C:/Qt/Tools/mingw1530_64/include/c++/15.3.0/bits/move.h"
	.loc 11 53 37
	mov	rax, QWORD PTR -8[rbp]
.LBE250:
.LBE249:
	.loc 10 230 19 discriminator 1
	mov	rcx, rax
	call	_ZSt10destroy_atI8PositionEvPT_
	.loc 10 229 2 discriminator 2
	add	QWORD PTR 16[rbp], 8
.L80:
	.loc 10 229 17 discriminator 1
	mov	rax, QWORD PTR 16[rbp]
	cmp	rax, QWORD PTR 24[rbp]
	jne	.L82
.L83:
	.loc 10 236 5
	nop
	add	rsp, 48
	pop	rbp
	.cfi_restore 6
	.cfi_def_cfa 7, 8
	ret
	.cfi_endproc
.LFE1797:
	.seh_endproc
	.section	.text$_ZNSt6vectorI8VelocitySaIS0_EE11_S_max_sizeERKS1_,"x"
	.linkonce discard
	.globl	_ZNSt6vectorI8VelocitySaIS0_EE11_S_max_sizeERKS1_
	.def	_ZNSt6vectorI8VelocitySaIS0_EE11_S_max_sizeERKS1_;	.scl	2;	.type	32;	.endef
	.seh_proc	_ZNSt6vectorI8VelocitySaIS0_EE11_S_max_sizeERKS1_
_ZNSt6vectorI8VelocitySaIS0_EE11_S_max_sizeERKS1_:
.LFB1799:
	.loc 3 2222 7
	.cfi_startproc
	push	rbp
	.seh_pushreg	rbp
	.cfi_def_cfa_offset 16
	.cfi_offset 6, -16
	mov	rbp, rsp
	.seh_setframe	rbp, 0
	.cfi_def_cfa_register 6
	sub	rsp, 48
	.seh_stackalloc	48
	.seh_endprologue
	mov	QWORD PTR 16[rbp], rcx
	.loc 3 2227 15
	movabs	rax, 1152921504606846975
	mov	QWORD PTR -8[rbp], rax
	.loc 3 2229 15
	movabs	rax, 2305843009213693951
	mov	QWORD PTR -16[rbp], rax
	.loc 3 2230 19
	lea	rdx, -16[rbp]
	lea	rax, -8[rbp]
	mov	rcx, rax
	call	_ZSt3minIyERKT_S2_S2_
	.loc 3 2230 41 discriminator 1
	mov	rax, QWORD PTR [rax]
	.loc 3 2231 7
	add	rsp, 48
	pop	rbp
	.cfi_restore 6
	.cfi_def_cfa 7, 8
	ret
	.cfi_endproc
.LFE1799:
	.seh_endproc
	.section	.text$_ZNSt12_Vector_baseI8VelocitySaIS0_EE12_Vector_implC1ERKS1_,"x"
	.linkonce discard
	.align 2
	.globl	_ZNSt12_Vector_baseI8VelocitySaIS0_EE12_Vector_implC1ERKS1_
	.def	_ZNSt12_Vector_baseI8VelocitySaIS0_EE12_Vector_implC1ERKS1_;	.scl	2;	.type	32;	.endef
	.seh_proc	_ZNSt12_Vector_baseI8VelocitySaIS0_EE12_Vector_implC1ERKS1_
_ZNSt12_Vector_baseI8VelocitySaIS0_EE12_Vector_implC1ERKS1_:
.LFB1806:
	.loc 3 152 2
	.cfi_startproc
	push	rbp
	.seh_pushreg	rbp
	.cfi_def_cfa_offset 16
	.cfi_offset 6, -16
	mov	rbp, rsp
	.seh_setframe	rbp, 0
	.cfi_def_cfa_register 6
	sub	rsp, 64
	.seh_stackalloc	64
	.seh_endprologue
	mov	QWORD PTR 16[rbp], rcx
	mov	QWORD PTR 24[rbp], rdx
	mov	rax, QWORD PTR 16[rbp]
	mov	QWORD PTR -8[rbp], rax
	mov	rax, QWORD PTR 24[rbp]
	mov	QWORD PTR -16[rbp], rax
	mov	rax, QWORD PTR -8[rbp]
	mov	QWORD PTR -24[rbp], rax
	mov	rax, QWORD PTR -16[rbp]
	mov	QWORD PTR -32[rbp], rax
.LBB251:
.LBB252:
.LBB253:
.LBB254:
.LBB255:
.LBB256:
	.loc 5 92 71
	nop
.LBE256:
.LBE255:
.LBE254:
	.loc 6 173 38
	nop
.LBE253:
.LBE252:
	.loc 3 153 22 discriminator 1
	mov	rax, QWORD PTR 16[rbp]
	mov	rcx, rax
	call	_ZNSt12_Vector_baseI8VelocitySaIS0_EE17_Vector_impl_dataC2Ev
.LBE251:
	.loc 3 154 4
	nop
	add	rsp, 64
	pop	rbp
	.cfi_restore 6
	.cfi_def_cfa 7, 8
	ret
	.cfi_endproc
.LFE1806:
	.seh_endproc
	.section	.text$_ZNSt12_Vector_baseI8VelocitySaIS0_EE17_M_create_storageEy,"x"
	.linkonce discard
	.align 2
	.globl	_ZNSt12_Vector_baseI8VelocitySaIS0_EE17_M_create_storageEy
	.def	_ZNSt12_Vector_baseI8VelocitySaIS0_EE17_M_create_storageEy;	.scl	2;	.type	32;	.endef
	.seh_proc	_ZNSt12_Vector_baseI8VelocitySaIS0_EE17_M_create_storageEy
_ZNSt12_Vector_baseI8VelocitySaIS0_EE17_M_create_storageEy:
.LFB1807:
	.loc 3 403 7
	.cfi_startproc
	push	rbp
	.seh_pushreg	rbp
	.cfi_def_cfa_offset 16
	.cfi_offset 6, -16
	mov	rbp, rsp
	.seh_setframe	rbp, 0
	.cfi_def_cfa_register 6
	sub	rsp, 32
	.seh_stackalloc	32
	.seh_endprologue
	mov	QWORD PTR 16[rbp], rcx
	mov	QWORD PTR 24[rbp], rdx
	.loc 3 405 44
	mov	rdx, QWORD PTR 24[rbp]
	mov	rax, QWORD PTR 16[rbp]
	mov	rcx, rax
	call	_ZNSt12_Vector_baseI8VelocitySaIS0_EE11_M_allocateEy
	.loc 3 405 25 discriminator 1
	mov	rdx, QWORD PTR 16[rbp]
	mov	QWORD PTR [rdx], rax
	.loc 3 406 42
	mov	rax, QWORD PTR 16[rbp]
	mov	rdx, QWORD PTR [rax]
	.loc 3 406 26
	mov	rax, QWORD PTR 16[rbp]
	mov	QWORD PTR 8[rax], rdx
	.loc 3 407 50
	mov	rax, QWORD PTR 16[rbp]
	mov	rax, QWORD PTR [rax]
	.loc 3 407 59
	mov	rdx, QWORD PTR 24[rbp]
	sal	rdx, 3
	add	rdx, rax
	.loc 3 407 34
	mov	rax, QWORD PTR 16[rbp]
	mov	QWORD PTR 16[rax], rdx
	.loc 3 408 7
	nop
	add	rsp, 32
	pop	rbp
	.cfi_restore 6
	.cfi_def_cfa 7, 8
	ret
	.cfi_endproc
.LFE1807:
	.seh_endproc
	.section	.text$_ZNSt12_Vector_baseI8VelocitySaIS0_EE13_M_deallocateEPS0_y,"x"
	.linkonce discard
	.align 2
	.globl	_ZNSt12_Vector_baseI8VelocitySaIS0_EE13_M_deallocateEPS0_y
	.def	_ZNSt12_Vector_baseI8VelocitySaIS0_EE13_M_deallocateEPS0_y;	.scl	2;	.type	32;	.endef
	.seh_proc	_ZNSt12_Vector_baseI8VelocitySaIS0_EE13_M_deallocateEPS0_y
_ZNSt12_Vector_baseI8VelocitySaIS0_EE13_M_deallocateEPS0_y:
.LFB1808:
	.loc 3 392 7
	.cfi_startproc
	push	rbp
	.seh_pushreg	rbp
	.cfi_def_cfa_offset 16
	.cfi_offset 6, -16
	mov	rbp, rsp
	.seh_setframe	rbp, 0
	.cfi_def_cfa_register 6
	sub	rsp, 80
	.seh_stackalloc	80
	.seh_endprologue
	mov	QWORD PTR 16[rbp], rcx
	mov	QWORD PTR 24[rbp], rdx
	mov	QWORD PTR 32[rbp], r8
	.loc 3 395 2
	cmp	QWORD PTR 24[rbp], 0
	je	.L93
	.loc 3 396 20
	mov	rax, QWORD PTR 16[rbp]
	mov	QWORD PTR -8[rbp], rax
	mov	rax, QWORD PTR 24[rbp]
	mov	QWORD PTR -16[rbp], rax
	mov	rax, QWORD PTR 32[rbp]
	mov	QWORD PTR -24[rbp], rax
	mov	rax, QWORD PTR -8[rbp]
	mov	QWORD PTR -32[rbp], rax
	mov	rax, QWORD PTR -16[rbp]
	mov	QWORD PTR -40[rbp], rax
	mov	rax, QWORD PTR -24[rbp]
	mov	QWORD PTR -48[rbp], rax
.LBB257:
.LBB258:
.LBB259:
.LBB260:
.LBB261:
.LBB262:
	.loc 8 586 49
	mov	eax, 0
.LBE262:
.LBE261:
	.loc 6 210 2 discriminator 1
	test	al, al
	je	.L91
	.loc 6 212 23
	mov	rax, QWORD PTR -40[rbp]
	mov	rcx, rax
	call	_ZdlPv
	.loc 6 213 6
	jmp	.L92
.L91:
	.loc 6 215 35
	mov	rcx, QWORD PTR -48[rbp]
	mov	rdx, QWORD PTR -40[rbp]
	mov	rax, QWORD PTR -32[rbp]
	mov	r8, rcx
	mov	rcx, rax
	call	_ZNSt15__new_allocatorI8VelocityE10deallocateEPS0_y
.L92:
.LBE260:
.LBE259:
	.loc 7 649 35
	nop
.L93:
.LBE258:
.LBE257:
	.loc 3 397 7
	nop
	add	rsp, 80
	pop	rbp
	.cfi_restore 6
	.cfi_def_cfa 7, 8
	ret
	.cfi_endproc
.LFE1808:
	.seh_endproc
	.section	.text$_ZSt24__uninitialized_fill_n_aIP8VelocityyS0_S0_ET_S2_T0_RKT1_RSaIT2_E,"x"
	.linkonce discard
	.globl	_ZSt24__uninitialized_fill_n_aIP8VelocityyS0_S0_ET_S2_T0_RKT1_RSaIT2_E
	.def	_ZSt24__uninitialized_fill_n_aIP8VelocityyS0_S0_ET_S2_T0_RKT1_RSaIT2_E;	.scl	2;	.type	32;	.endef
	.seh_proc	_ZSt24__uninitialized_fill_n_aIP8VelocityyS0_S0_ET_S2_T0_RKT1_RSaIT2_E
_ZSt24__uninitialized_fill_n_aIP8VelocityyS0_S0_ET_S2_T0_RKT1_RSaIT2_E:
.LFB1809:
	.loc 9 747 5
	.cfi_startproc
	push	rbp
	.seh_pushreg	rbp
	.cfi_def_cfa_offset 16
	.cfi_offset 6, -16
	mov	rbp, rsp
	.seh_setframe	rbp, 0
	.cfi_def_cfa_register 6
	sub	rsp, 32
	.seh_stackalloc	32
	.seh_endprologue
	mov	QWORD PTR 16[rbp], rcx
	mov	QWORD PTR 24[rbp], rdx
	mov	QWORD PTR 32[rbp], r8
	mov	QWORD PTR 40[rbp], r9
	.loc 9 751 37
	call	_ZSt21is_constant_evaluatedv
	.loc 9 751 7 discriminator 1
	test	al, al
	je	.L95
	.loc 9 752 32
	mov	rcx, QWORD PTR 32[rbp]
	mov	rdx, QWORD PTR 24[rbp]
	mov	rax, QWORD PTR 16[rbp]
	mov	r8, rcx
	mov	rcx, rax
	call	_ZSt18__do_uninit_fill_nIP8VelocityyS0_ET_S2_T0_RKT1_
	.loc 9 752 50
	jmp	.L96
.L95:
	.loc 9 754 39
	mov	rcx, QWORD PTR 32[rbp]
	mov	rdx, QWORD PTR 24[rbp]
	mov	rax, QWORD PTR 16[rbp]
	mov	r8, rcx
	mov	rcx, rax
	call	_ZSt20uninitialized_fill_nIP8VelocityyS0_ET_S2_T0_RKT1_
	.loc 9 754 57
	nop
.L96:
	.loc 9 755 5
	add	rsp, 32
	pop	rbp
	.cfi_restore 6
	.cfi_def_cfa 7, 8
	ret
	.cfi_endproc
.LFE1809:
	.seh_endproc
	.section	.text$_ZSt8_DestroyIP8VelocityEvT_S2_,"x"
	.linkonce discard
	.globl	_ZSt8_DestroyIP8VelocityEvT_S2_
	.def	_ZSt8_DestroyIP8VelocityEvT_S2_;	.scl	2;	.type	32;	.endef
	.seh_proc	_ZSt8_DestroyIP8VelocityEvT_S2_
_ZSt8_DestroyIP8VelocityEvT_S2_:
.LFB1810:
	.loc 10 219 5
	.cfi_startproc
	push	rbp
	.seh_pushreg	rbp
	.cfi_def_cfa_offset 16
	.cfi_offset 6, -16
	mov	rbp, rsp
	.seh_setframe	rbp, 0
	.cfi_def_cfa_register 6
	sub	rsp, 48
	.seh_stackalloc	48
	.seh_endprologue
	mov	QWORD PTR 16[rbp], rcx
	mov	QWORD PTR 24[rbp], rdx
.LBB263:
.LBB264:
	.loc 8 586 49
	mov	eax, 0
.LBE264:
.LBE263:
	.loc 10 228 12 discriminator 1
	test	al, al
	je	.L103
	.loc 10 229 2
	jmp	.L100
.L102:
	mov	rax, QWORD PTR 16[rbp]
	mov	QWORD PTR -8[rbp], rax
.LBB265:
.LBB266:
	.loc 11 53 37
	mov	rax, QWORD PTR -8[rbp]
.LBE266:
.LBE265:
	.loc 10 230 19 discriminator 1
	mov	rcx, rax
	call	_ZSt10destroy_atI8VelocityEvPT_
	.loc 10 229 2 discriminator 2
	add	QWORD PTR 16[rbp], 8
.L100:
	.loc 10 229 17 discriminator 1
	mov	rax, QWORD PTR 16[rbp]
	cmp	rax, QWORD PTR 24[rbp]
	jne	.L102
.L103:
	.loc 10 236 5
	nop
	add	rsp, 48
	pop	rbp
	.cfi_restore 6
	.cfi_def_cfa 7, 8
	ret
	.cfi_endproc
.LFE1810:
	.seh_endproc
	.section	.text$_ZSt3minIyERKT_S2_S2_,"x"
	.linkonce discard
	.globl	_ZSt3minIyERKT_S2_S2_
	.def	_ZSt3minIyERKT_S2_S2_;	.scl	2;	.type	32;	.endef
	.seh_proc	_ZSt3minIyERKT_S2_S2_
_ZSt3minIyERKT_S2_S2_:
.LFB1812:
	.file 12 "C:/Qt/Tools/mingw1530_64/include/c++/15.3.0/bits/stl_algobase.h"
	.loc 12 234 5
	.cfi_startproc
	push	rbp
	.seh_pushreg	rbp
	.cfi_def_cfa_offset 16
	.cfi_offset 6, -16
	mov	rbp, rsp
	.seh_setframe	rbp, 0
	.cfi_def_cfa_register 6
	.seh_endprologue
	mov	QWORD PTR 16[rbp], rcx
	mov	QWORD PTR 24[rbp], rdx
	.loc 12 239 15
	mov	rax, QWORD PTR 24[rbp]
	mov	rdx, QWORD PTR [rax]
	mov	rax, QWORD PTR 16[rbp]
	mov	rax, QWORD PTR [rax]
	.loc 12 239 7
	cmp	rdx, rax
	jnb	.L105
	.loc 12 240 9
	mov	rax, QWORD PTR 24[rbp]
	jmp	.L106
.L105:
	.loc 12 241 14
	mov	rax, QWORD PTR 16[rbp]
.L106:
	.loc 12 242 5
	pop	rbp
	.cfi_restore 6
	.cfi_def_cfa 7, 8
	ret
	.cfi_endproc
.LFE1812:
	.seh_endproc
	.section	.text$_ZNSt12_Vector_baseI8PositionSaIS0_EE17_Vector_impl_dataC2Ev,"x"
	.linkonce discard
	.align 2
	.globl	_ZNSt12_Vector_baseI8PositionSaIS0_EE17_Vector_impl_dataC2Ev
	.def	_ZNSt12_Vector_baseI8PositionSaIS0_EE17_Vector_impl_dataC2Ev;	.scl	2;	.type	32;	.endef
	.seh_proc	_ZNSt12_Vector_baseI8PositionSaIS0_EE17_Vector_impl_dataC2Ev
_ZNSt12_Vector_baseI8PositionSaIS0_EE17_Vector_impl_dataC2Ev:
.LFB1817:
	.loc 3 105 2
	.cfi_startproc
	push	rbp
	.seh_pushreg	rbp
	.cfi_def_cfa_offset 16
	.cfi_offset 6, -16
	mov	rbp, rsp
	.seh_setframe	rbp, 0
	.cfi_def_cfa_register 6
	.seh_endprologue
	mov	QWORD PTR 16[rbp], rcx
.LBB267:
	.loc 3 106 4
	mov	rax, QWORD PTR 16[rbp]
	mov	QWORD PTR [rax], 0
	.loc 3 106 16
	mov	rax, QWORD PTR 16[rbp]
	mov	QWORD PTR 8[rax], 0
	.loc 3 106 29
	mov	rax, QWORD PTR 16[rbp]
	mov	QWORD PTR 16[rax], 0
.LBE267:
	.loc 3 107 4
	nop
	pop	rbp
	.cfi_restore 6
	.cfi_def_cfa 7, 8
	ret
	.cfi_endproc
.LFE1817:
	.seh_endproc
	.section	.text$_ZNSt12_Vector_baseI8PositionSaIS0_EE11_M_allocateEy,"x"
	.linkonce discard
	.align 2
	.globl	_ZNSt12_Vector_baseI8PositionSaIS0_EE11_M_allocateEy
	.def	_ZNSt12_Vector_baseI8PositionSaIS0_EE11_M_allocateEy;	.scl	2;	.type	32;	.endef
	.seh_proc	_ZNSt12_Vector_baseI8PositionSaIS0_EE11_M_allocateEy
_ZNSt12_Vector_baseI8PositionSaIS0_EE11_M_allocateEy:
.LFB1819:
	.loc 3 384 7
	.cfi_startproc
	push	rbp
	.seh_pushreg	rbp
	.cfi_def_cfa_offset 16
	.cfi_offset 6, -16
	mov	rbp, rsp
	.seh_setframe	rbp, 0
	.cfi_def_cfa_register 6
	sub	rsp, 64
	.seh_stackalloc	64
	.seh_endprologue
	mov	QWORD PTR 16[rbp], rcx
	mov	QWORD PTR 24[rbp], rdx
	.loc 3 387 18
	cmp	QWORD PTR 24[rbp], 0
	je	.L109
	.loc 3 387 34 discriminator 1
	mov	rax, QWORD PTR 16[rbp]
	mov	QWORD PTR -8[rbp], rax
	mov	rax, QWORD PTR 24[rbp]
	mov	QWORD PTR -16[rbp], rax
	mov	rax, QWORD PTR -8[rbp]
	mov	QWORD PTR -24[rbp], rax
	mov	rax, QWORD PTR -16[rbp]
	mov	QWORD PTR -32[rbp], rax
.LBB268:
.LBB269:
.LBB270:
.LBB271:
.LBB272:
.LBB273:
	.loc 8 586 49
	mov	eax, 0
.LBE273:
.LBE272:
	.loc 6 196 2 discriminator 1
	test	al, al
	je	.L111
	.loc 6 198 32
	mov	rax, QWORD PTR -32[rbp]
	mov	ecx, 0
	lea	rdx, 0[0+rax*8]
	shr	rax, 61
	test	rax, rax
	je	.L112
	mov	ecx, 1
.L112:
	mov	rax, rdx
	.loc 6 198 32 is_stmt 0 discriminator 1
	mov	QWORD PTR -32[rbp], rax
	mov	rax, rcx
	and	eax, 1
	.loc 6 198 6 is_stmt 1 discriminator 1
	test	al, al
	je	.L114
	.loc 6 199 41
	call	_ZSt28__throw_bad_array_new_lengthv
.L114:
	.loc 6 200 45
	mov	rax, QWORD PTR -32[rbp]
	mov	rcx, rax
	call	_Znwy
	.loc 6 200 50
	jmp	.L115
.L111:
	.loc 6 203 40
	mov	rdx, QWORD PTR -32[rbp]
	mov	rax, QWORD PTR -24[rbp]
	mov	r8d, 0
	mov	rcx, rax
	call	_ZNSt15__new_allocatorI8PositionE8allocateEyPKv
	.loc 6 203 47
	nop
.L115:
.LBE271:
.LBE270:
	.loc 7 614 32
	nop
	jmp	.L117
.L109:
.LBE269:
.LBE268:
	.loc 3 387 58 discriminator 2
	mov	eax, 0
.L117:
	.loc 3 388 7
	add	rsp, 64
	pop	rbp
	.cfi_restore 6
	.cfi_def_cfa 7, 8
	ret
	.cfi_endproc
.LFE1819:
	.seh_endproc
	.section	.text$_ZNSt19_UninitDestroyGuardIP8PositionvEC1ERS1_,"x"
	.linkonce discard
	.align 2
	.globl	_ZNSt19_UninitDestroyGuardIP8PositionvEC1ERS1_
	.def	_ZNSt19_UninitDestroyGuardIP8PositionvEC1ERS1_;	.scl	2;	.type	32;	.endef
	.seh_proc	_ZNSt19_UninitDestroyGuardIP8PositionvEC1ERS1_
_ZNSt19_UninitDestroyGuardIP8PositionvEC1ERS1_:
.LFB1824:
	.loc 9 113 7
	.cfi_startproc
	push	rbp
	.seh_pushreg	rbp
	.cfi_def_cfa_offset 16
	.cfi_offset 6, -16
	mov	rbp, rsp
	.seh_setframe	rbp, 0
	.cfi_def_cfa_register 6
	.seh_endprologue
	mov	QWORD PTR 16[rbp], rcx
	mov	QWORD PTR 24[rbp], rdx
.LBB274:
	.loc 9 114 9
	mov	rax, QWORD PTR 24[rbp]
	mov	rdx, QWORD PTR [rax]
	mov	rax, QWORD PTR 16[rbp]
	mov	QWORD PTR [rax], rdx
	.loc 9 114 28
	mov	rax, QWORD PTR 16[rbp]
	mov	rdx, QWORD PTR 24[rbp]
	mov	QWORD PTR 8[rax], rdx
.LBE274:
	.loc 9 115 9
	nop
	pop	rbp
	.cfi_restore 6
	.cfi_def_cfa 7, 8
	ret
	.cfi_endproc
.LFE1824:
	.seh_endproc
	.section	.text$_ZSt18__do_uninit_fill_nIP8PositionyS0_ET_S2_T0_RKT1_,"x"
	.linkonce discard
	.globl	_ZSt18__do_uninit_fill_nIP8PositionyS0_ET_S2_T0_RKT1_
	.def	_ZSt18__do_uninit_fill_nIP8PositionyS0_ET_S2_T0_RKT1_;	.scl	2;	.type	32;	.endef
	.seh_proc	_ZSt18__do_uninit_fill_nIP8PositionyS0_ET_S2_T0_RKT1_
_ZSt18__do_uninit_fill_nIP8PositionyS0_ET_S2_T0_RKT1_:
.LFB1821:
	.loc 9 455 5
	.cfi_startproc
	push	rbp
	.seh_pushreg	rbp
	.cfi_def_cfa_offset 16
	.cfi_offset 6, -16
	push	rbx
	.seh_pushreg	rbx
	.cfi_def_cfa_offset 24
	.cfi_offset 3, -24
	sub	rsp, 72
	.seh_stackalloc	72
	.cfi_def_cfa_offset 96
	lea	rbp, 64[rsp]
	.seh_setframe	rbp, 64
	.cfi_def_cfa 6, 32
	.seh_endprologue
	mov	QWORD PTR 32[rbp], rcx
	mov	QWORD PTR 40[rbp], rdx
	mov	QWORD PTR 48[rbp], r8
	.loc 9 457 45
	lea	rax, -32[rbp]
	lea	rdx, 32[rbp]
	mov	rcx, rax
	call	_ZNSt19_UninitDestroyGuardIP8PositionvEC1ERS1_
	.loc 9 469 7
	jmp	.L121
.L123:
	.loc 9 470 17
	mov	rax, QWORD PTR 32[rbp]
	mov	QWORD PTR -8[rbp], rax
.LBB275:
.LBB276:
	.loc 11 53 37
	mov	rax, QWORD PTR -8[rbp]
.LBE276:
.LBE275:
	.loc 9 470 17 discriminator 1
	mov	rdx, QWORD PTR 48[rbp]
	mov	rcx, rax
	call	_ZSt10_ConstructI8PositionJRKS0_EEvPT_DpOT0_
	.loc 9 469 7 discriminator 2
	mov	rax, QWORD PTR 32[rbp]
	add	rax, 8
	mov	QWORD PTR 32[rbp], rax
.L121:
	.loc 9 469 7 is_stmt 0 discriminator 1
	mov	rax, QWORD PTR 40[rbp]
	lea	rdx, -1[rax]
	mov	QWORD PTR 40[rbp], rdx
	test	rax, rax
	setne	al
	test	al, al
	jne	.L123
	.loc 9 471 22 is_stmt 1
	lea	rax, -32[rbp]
	mov	rcx, rax
	call	_ZNSt19_UninitDestroyGuardIP8PositionvE7releaseEv
	.loc 9 472 14
	mov	rbx, QWORD PTR 32[rbp]
	.loc 9 473 5
	lea	rax, -32[rbp]
	mov	rcx, rax
	call	_ZNSt19_UninitDestroyGuardIP8PositionvED1Ev
	.loc 9 472 14
	mov	rax, rbx
	.loc 9 473 5
	add	rsp, 72
	pop	rbx
	.cfi_restore 3
	pop	rbp
	.cfi_restore 6
	.cfi_def_cfa 7, -56
	ret
	.cfi_endproc
.LFE1821:
	.seh_endproc
	.section	.text$_ZSt20uninitialized_fill_nIP8PositionyS0_ET_S2_T0_RKT1_,"x"
	.linkonce discard
	.globl	_ZSt20uninitialized_fill_nIP8PositionyS0_ET_S2_T0_RKT1_
	.def	_ZSt20uninitialized_fill_nIP8PositionyS0_ET_S2_T0_RKT1_;	.scl	2;	.type	32;	.endef
	.seh_proc	_ZSt20uninitialized_fill_nIP8PositionyS0_ET_S2_T0_RKT1_
_ZSt20uninitialized_fill_nIP8PositionyS0_ET_S2_T0_RKT1_:
.LFB1825:
	.loc 9 526 5
	.cfi_startproc
	push	rbp
	.seh_pushreg	rbp
	.cfi_def_cfa_offset 16
	.cfi_offset 6, -16
	mov	rbp, rsp
	.seh_setframe	rbp, 0
	.cfi_def_cfa_register 6
	sub	rsp, 32
	.seh_stackalloc	32
	.seh_endprologue
	mov	QWORD PTR 16[rbp], rcx
	mov	QWORD PTR 24[rbp], rdx
	mov	QWORD PTR 32[rbp], r8
	.loc 9 571 37
	mov	rcx, QWORD PTR 32[rbp]
	mov	rdx, QWORD PTR 24[rbp]
	mov	rax, QWORD PTR 16[rbp]
	mov	r8, rcx
	mov	rcx, rax
	call	_ZSt18__do_uninit_fill_nIP8PositionyS0_ET_S2_T0_RKT1_
	.loc 9 580 5
	add	rsp, 32
	pop	rbp
	.cfi_restore 6
	.cfi_def_cfa 7, 8
	ret
	.cfi_endproc
.LFE1825:
	.seh_endproc
	.section	.text$_ZSt10destroy_atI8PositionEvPT_,"x"
	.linkonce discard
	.globl	_ZSt10destroy_atI8PositionEvPT_
	.def	_ZSt10destroy_atI8PositionEvPT_;	.scl	2;	.type	32;	.endef
	.seh_proc	_ZSt10destroy_atI8PositionEvPT_
_ZSt10destroy_atI8PositionEvPT_:
.LFB1827:
	.loc 10 80 5
	.cfi_startproc
	push	rbp
	.seh_pushreg	rbp
	.cfi_def_cfa_offset 16
	.cfi_offset 6, -16
	mov	rbp, rsp
	.seh_setframe	rbp, 0
	.cfi_def_cfa_register 6
	.seh_endprologue
	mov	QWORD PTR 16[rbp], rcx
	.loc 10 89 5
	nop
	pop	rbp
	.cfi_restore 6
	.cfi_def_cfa 7, 8
	ret
	.cfi_endproc
.LFE1827:
	.seh_endproc
	.section	.text$_ZNSt12_Vector_baseI8VelocitySaIS0_EE17_Vector_impl_dataC2Ev,"x"
	.linkonce discard
	.align 2
	.globl	_ZNSt12_Vector_baseI8VelocitySaIS0_EE17_Vector_impl_dataC2Ev
	.def	_ZNSt12_Vector_baseI8VelocitySaIS0_EE17_Vector_impl_dataC2Ev;	.scl	2;	.type	32;	.endef
	.seh_proc	_ZNSt12_Vector_baseI8VelocitySaIS0_EE17_Vector_impl_dataC2Ev
_ZNSt12_Vector_baseI8VelocitySaIS0_EE17_Vector_impl_dataC2Ev:
.LFB1832:
	.loc 3 105 2
	.cfi_startproc
	push	rbp
	.seh_pushreg	rbp
	.cfi_def_cfa_offset 16
	.cfi_offset 6, -16
	mov	rbp, rsp
	.seh_setframe	rbp, 0
	.cfi_def_cfa_register 6
	.seh_endprologue
	mov	QWORD PTR 16[rbp], rcx
.LBB277:
	.loc 3 106 4
	mov	rax, QWORD PTR 16[rbp]
	mov	QWORD PTR [rax], 0
	.loc 3 106 16
	mov	rax, QWORD PTR 16[rbp]
	mov	QWORD PTR 8[rax], 0
	.loc 3 106 29
	mov	rax, QWORD PTR 16[rbp]
	mov	QWORD PTR 16[rax], 0
.LBE277:
	.loc 3 107 4
	nop
	pop	rbp
	.cfi_restore 6
	.cfi_def_cfa 7, 8
	ret
	.cfi_endproc
.LFE1832:
	.seh_endproc
	.section	.text$_ZNSt12_Vector_baseI8VelocitySaIS0_EE11_M_allocateEy,"x"
	.linkonce discard
	.align 2
	.globl	_ZNSt12_Vector_baseI8VelocitySaIS0_EE11_M_allocateEy
	.def	_ZNSt12_Vector_baseI8VelocitySaIS0_EE11_M_allocateEy;	.scl	2;	.type	32;	.endef
	.seh_proc	_ZNSt12_Vector_baseI8VelocitySaIS0_EE11_M_allocateEy
_ZNSt12_Vector_baseI8VelocitySaIS0_EE11_M_allocateEy:
.LFB1834:
	.loc 3 384 7
	.cfi_startproc
	push	rbp
	.seh_pushreg	rbp
	.cfi_def_cfa_offset 16
	.cfi_offset 6, -16
	mov	rbp, rsp
	.seh_setframe	rbp, 0
	.cfi_def_cfa_register 6
	sub	rsp, 64
	.seh_stackalloc	64
	.seh_endprologue
	mov	QWORD PTR 16[rbp], rcx
	mov	QWORD PTR 24[rbp], rdx
	.loc 3 387 18
	cmp	QWORD PTR 24[rbp], 0
	je	.L130
	.loc 3 387 34 discriminator 1
	mov	rax, QWORD PTR 16[rbp]
	mov	QWORD PTR -8[rbp], rax
	mov	rax, QWORD PTR 24[rbp]
	mov	QWORD PTR -16[rbp], rax
	mov	rax, QWORD PTR -8[rbp]
	mov	QWORD PTR -24[rbp], rax
	mov	rax, QWORD PTR -16[rbp]
	mov	QWORD PTR -32[rbp], rax
.LBB278:
.LBB279:
.LBB280:
.LBB281:
.LBB282:
.LBB283:
	.loc 8 586 49
	mov	eax, 0
.LBE283:
.LBE282:
	.loc 6 196 2 discriminator 1
	test	al, al
	je	.L132
	.loc 6 198 32
	mov	rax, QWORD PTR -32[rbp]
	mov	ecx, 0
	lea	rdx, 0[0+rax*8]
	shr	rax, 61
	test	rax, rax
	je	.L133
	mov	ecx, 1
.L133:
	mov	rax, rdx
	.loc 6 198 32 is_stmt 0 discriminator 1
	mov	QWORD PTR -32[rbp], rax
	mov	rax, rcx
	and	eax, 1
	.loc 6 198 6 is_stmt 1 discriminator 1
	test	al, al
	je	.L135
	.loc 6 199 41
	call	_ZSt28__throw_bad_array_new_lengthv
.L135:
	.loc 6 200 45
	mov	rax, QWORD PTR -32[rbp]
	mov	rcx, rax
	call	_Znwy
	.loc 6 200 50
	jmp	.L136
.L132:
	.loc 6 203 40
	mov	rdx, QWORD PTR -32[rbp]
	mov	rax, QWORD PTR -24[rbp]
	mov	r8d, 0
	mov	rcx, rax
	call	_ZNSt15__new_allocatorI8VelocityE8allocateEyPKv
	.loc 6 203 47
	nop
.L136:
.LBE281:
.LBE280:
	.loc 7 614 32
	nop
	jmp	.L138
.L130:
.LBE279:
.LBE278:
	.loc 3 387 58 discriminator 2
	mov	eax, 0
.L138:
	.loc 3 388 7
	add	rsp, 64
	pop	rbp
	.cfi_restore 6
	.cfi_def_cfa 7, 8
	ret
	.cfi_endproc
.LFE1834:
	.seh_endproc
	.section	.text$_ZNSt19_UninitDestroyGuardIP8VelocityvEC1ERS1_,"x"
	.linkonce discard
	.align 2
	.globl	_ZNSt19_UninitDestroyGuardIP8VelocityvEC1ERS1_
	.def	_ZNSt19_UninitDestroyGuardIP8VelocityvEC1ERS1_;	.scl	2;	.type	32;	.endef
	.seh_proc	_ZNSt19_UninitDestroyGuardIP8VelocityvEC1ERS1_
_ZNSt19_UninitDestroyGuardIP8VelocityvEC1ERS1_:
.LFB1839:
	.loc 9 113 7
	.cfi_startproc
	push	rbp
	.seh_pushreg	rbp
	.cfi_def_cfa_offset 16
	.cfi_offset 6, -16
	mov	rbp, rsp
	.seh_setframe	rbp, 0
	.cfi_def_cfa_register 6
	.seh_endprologue
	mov	QWORD PTR 16[rbp], rcx
	mov	QWORD PTR 24[rbp], rdx
.LBB284:
	.loc 9 114 9
	mov	rax, QWORD PTR 24[rbp]
	mov	rdx, QWORD PTR [rax]
	mov	rax, QWORD PTR 16[rbp]
	mov	QWORD PTR [rax], rdx
	.loc 9 114 28
	mov	rax, QWORD PTR 16[rbp]
	mov	rdx, QWORD PTR 24[rbp]
	mov	QWORD PTR 8[rax], rdx
.LBE284:
	.loc 9 115 9
	nop
	pop	rbp
	.cfi_restore 6
	.cfi_def_cfa 7, 8
	ret
	.cfi_endproc
.LFE1839:
	.seh_endproc
	.section	.text$_ZSt18__do_uninit_fill_nIP8VelocityyS0_ET_S2_T0_RKT1_,"x"
	.linkonce discard
	.globl	_ZSt18__do_uninit_fill_nIP8VelocityyS0_ET_S2_T0_RKT1_
	.def	_ZSt18__do_uninit_fill_nIP8VelocityyS0_ET_S2_T0_RKT1_;	.scl	2;	.type	32;	.endef
	.seh_proc	_ZSt18__do_uninit_fill_nIP8VelocityyS0_ET_S2_T0_RKT1_
_ZSt18__do_uninit_fill_nIP8VelocityyS0_ET_S2_T0_RKT1_:
.LFB1836:
	.loc 9 455 5
	.cfi_startproc
	push	rbp
	.seh_pushreg	rbp
	.cfi_def_cfa_offset 16
	.cfi_offset 6, -16
	push	rbx
	.seh_pushreg	rbx
	.cfi_def_cfa_offset 24
	.cfi_offset 3, -24
	sub	rsp, 72
	.seh_stackalloc	72
	.cfi_def_cfa_offset 96
	lea	rbp, 64[rsp]
	.seh_setframe	rbp, 64
	.cfi_def_cfa 6, 32
	.seh_endprologue
	mov	QWORD PTR 32[rbp], rcx
	mov	QWORD PTR 40[rbp], rdx
	mov	QWORD PTR 48[rbp], r8
	.loc 9 457 45
	lea	rax, -32[rbp]
	lea	rdx, 32[rbp]
	mov	rcx, rax
	call	_ZNSt19_UninitDestroyGuardIP8VelocityvEC1ERS1_
	.loc 9 469 7
	jmp	.L142
.L144:
	.loc 9 470 17
	mov	rax, QWORD PTR 32[rbp]
	mov	QWORD PTR -8[rbp], rax
.LBB285:
.LBB286:
	.loc 11 53 37
	mov	rax, QWORD PTR -8[rbp]
.LBE286:
.LBE285:
	.loc 9 470 17 discriminator 1
	mov	rdx, QWORD PTR 48[rbp]
	mov	rcx, rax
	call	_ZSt10_ConstructI8VelocityJRKS0_EEvPT_DpOT0_
	.loc 9 469 7 discriminator 2
	mov	rax, QWORD PTR 32[rbp]
	add	rax, 8
	mov	QWORD PTR 32[rbp], rax
.L142:
	.loc 9 469 7 is_stmt 0 discriminator 1
	mov	rax, QWORD PTR 40[rbp]
	lea	rdx, -1[rax]
	mov	QWORD PTR 40[rbp], rdx
	test	rax, rax
	setne	al
	test	al, al
	jne	.L144
	.loc 9 471 22 is_stmt 1
	lea	rax, -32[rbp]
	mov	rcx, rax
	call	_ZNSt19_UninitDestroyGuardIP8VelocityvE7releaseEv
	.loc 9 472 14
	mov	rbx, QWORD PTR 32[rbp]
	.loc 9 473 5
	lea	rax, -32[rbp]
	mov	rcx, rax
	call	_ZNSt19_UninitDestroyGuardIP8VelocityvED1Ev
	.loc 9 472 14
	mov	rax, rbx
	.loc 9 473 5
	add	rsp, 72
	pop	rbx
	.cfi_restore 3
	pop	rbp
	.cfi_restore 6
	.cfi_def_cfa 7, -56
	ret
	.cfi_endproc
.LFE1836:
	.seh_endproc
	.section	.text$_ZSt20uninitialized_fill_nIP8VelocityyS0_ET_S2_T0_RKT1_,"x"
	.linkonce discard
	.globl	_ZSt20uninitialized_fill_nIP8VelocityyS0_ET_S2_T0_RKT1_
	.def	_ZSt20uninitialized_fill_nIP8VelocityyS0_ET_S2_T0_RKT1_;	.scl	2;	.type	32;	.endef
	.seh_proc	_ZSt20uninitialized_fill_nIP8VelocityyS0_ET_S2_T0_RKT1_
_ZSt20uninitialized_fill_nIP8VelocityyS0_ET_S2_T0_RKT1_:
.LFB1840:
	.loc 9 526 5
	.cfi_startproc
	push	rbp
	.seh_pushreg	rbp
	.cfi_def_cfa_offset 16
	.cfi_offset 6, -16
	mov	rbp, rsp
	.seh_setframe	rbp, 0
	.cfi_def_cfa_register 6
	sub	rsp, 32
	.seh_stackalloc	32
	.seh_endprologue
	mov	QWORD PTR 16[rbp], rcx
	mov	QWORD PTR 24[rbp], rdx
	mov	QWORD PTR 32[rbp], r8
	.loc 9 571 37
	mov	rcx, QWORD PTR 32[rbp]
	mov	rdx, QWORD PTR 24[rbp]
	mov	rax, QWORD PTR 16[rbp]
	mov	r8, rcx
	mov	rcx, rax
	call	_ZSt18__do_uninit_fill_nIP8VelocityyS0_ET_S2_T0_RKT1_
	.loc 9 580 5
	add	rsp, 32
	pop	rbp
	.cfi_restore 6
	.cfi_def_cfa 7, 8
	ret
	.cfi_endproc
.LFE1840:
	.seh_endproc
	.section	.text$_ZSt10destroy_atI8VelocityEvPT_,"x"
	.linkonce discard
	.globl	_ZSt10destroy_atI8VelocityEvPT_
	.def	_ZSt10destroy_atI8VelocityEvPT_;	.scl	2;	.type	32;	.endef
	.seh_proc	_ZSt10destroy_atI8VelocityEvPT_
_ZSt10destroy_atI8VelocityEvPT_:
.LFB1842:
	.loc 10 80 5
	.cfi_startproc
	push	rbp
	.seh_pushreg	rbp
	.cfi_def_cfa_offset 16
	.cfi_offset 6, -16
	mov	rbp, rsp
	.seh_setframe	rbp, 0
	.cfi_def_cfa_register 6
	.seh_endprologue
	mov	QWORD PTR 16[rbp], rcx
	.loc 10 89 5
	nop
	pop	rbp
	.cfi_restore 6
	.cfi_def_cfa 7, 8
	ret
	.cfi_endproc
.LFE1842:
	.seh_endproc
	.section	.text$_ZNSt19_UninitDestroyGuardIP8PositionvED1Ev,"x"
	.linkonce discard
	.align 2
	.globl	_ZNSt19_UninitDestroyGuardIP8PositionvED1Ev
	.def	_ZNSt19_UninitDestroyGuardIP8PositionvED1Ev;	.scl	2;	.type	32;	.endef
	.seh_proc	_ZNSt19_UninitDestroyGuardIP8PositionvED1Ev
_ZNSt19_UninitDestroyGuardIP8PositionvED1Ev:
.LFB1847:
	.loc 9 118 7
	.cfi_startproc
	push	rbp
	.seh_pushreg	rbp
	.cfi_def_cfa_offset 16
	.cfi_offset 6, -16
	mov	rbp, rsp
	.seh_setframe	rbp, 0
	.cfi_def_cfa_register 6
	sub	rsp, 32
	.seh_stackalloc	32
	.seh_endprologue
	mov	QWORD PTR 16[rbp], rcx
.LBB287:
	.loc 9 120 23
	mov	rax, QWORD PTR 16[rbp]
	mov	rax, QWORD PTR 8[rax]
	.loc 9 120 30
	test	rax, rax
	setne	al
	.loc 9 120 22
	movzx	eax, al
	.loc 9 120 2 discriminator 1
	test	eax, eax
	je	.L151
	.loc 9 121 29
	mov	rax, QWORD PTR 16[rbp]
	mov	rax, QWORD PTR 8[rax]
	.loc 9 121 17
	mov	rdx, QWORD PTR [rax]
	.loc 9 121 18
	mov	rax, QWORD PTR 16[rbp]
	mov	rax, QWORD PTR [rax]
	.loc 9 121 17
	mov	rcx, rax
	call	_ZSt8_DestroyIP8PositionEvT_S2_
.L151:
.LBE287:
	.loc 9 122 7
	nop
	add	rsp, 32
	pop	rbp
	.cfi_restore 6
	.cfi_def_cfa 7, 8
	ret
	.cfi_endproc
.LFE1847:
	.seh_endproc
	.section	.text$_ZSt10_ConstructI8PositionJRKS0_EEvPT_DpOT0_,"x"
	.linkonce discard
	.globl	_ZSt10_ConstructI8PositionJRKS0_EEvPT_DpOT0_
	.def	_ZSt10_ConstructI8PositionJRKS0_EEvPT_DpOT0_;	.scl	2;	.type	32;	.endef
	.seh_proc	_ZSt10_ConstructI8PositionJRKS0_EEvPT_DpOT0_
_ZSt10_ConstructI8PositionJRKS0_EEvPT_DpOT0_:
.LFB1848:
	.loc 10 123 5
	.cfi_startproc
	push	rbp
	.seh_pushreg	rbp
	.cfi_def_cfa_offset 16
	.cfi_offset 6, -16
	push	rbx
	.seh_pushreg	rbx
	.cfi_def_cfa_offset 24
	.cfi_offset 3, -24
	sub	rsp, 56
	.seh_stackalloc	56
	.cfi_def_cfa_offset 80
	lea	rbp, 48[rsp]
	.seh_setframe	rbp, 48
	.cfi_def_cfa 6, 32
	.seh_endprologue
	mov	QWORD PTR 32[rbp], rcx
	mov	QWORD PTR 40[rbp], rdx
.LBB288:
.LBB289:
	.loc 8 586 49
	mov	eax, 0
.LBE289:
.LBE288:
	.loc 10 126 7 discriminator 1
	test	al, al
	je	.L154
	mov	rax, QWORD PTR 40[rbp]
	mov	QWORD PTR -8[rbp], rax
.LBB290:
.LBB291:
	.loc 11 73 36
	mov	rdx, QWORD PTR -8[rbp]
.LBE291:
.LBE290:
	.loc 10 129 21 discriminator 1
	mov	rax, QWORD PTR 32[rbp]
	mov	rcx, rax
	call	_ZSt12construct_atI8PositionJRKS0_EQaant20is_unbounded_array_vIT_ErqXgsnwcvPvLi0E_S3_pispcl7declvalIT0_EEEEEPS3_S6_DpOS5_
	.loc 10 130 4
	jmp	.L152
.L154:
	.loc 10 133 13
	mov	rbx, QWORD PTR 32[rbp]
	.loc 10 133 7
	mov	rdx, rbx
	mov	ecx, 8
	call	_ZnwyPv
	mov	rdx, QWORD PTR 40[rbp]
	mov	QWORD PTR -16[rbp], rdx
.LBB292:
.LBB293:
	.loc 11 73 36
	mov	rdx, QWORD PTR -16[rbp]
.LBE293:
.LBE292:
	.loc 10 133 7 discriminator 2
	mov	rdx, QWORD PTR [rdx]
	mov	QWORD PTR [rax], rdx
	mov	edx, 0
	test	dl, dl
	je	.L152
	.loc 10 133 7 is_stmt 0 discriminator 3
	mov	rdx, rbx
	mov	rcx, rax
	call	_ZdlPvS_
	nop
.L152:
	.loc 10 134 5 is_stmt 1
	add	rsp, 56
	pop	rbx
	.cfi_restore 3
	pop	rbp
	.cfi_restore 6
	.cfi_def_cfa 7, -40
	ret
	.cfi_endproc
.LFE1848:
	.seh_endproc
	.section	.text$_ZNSt19_UninitDestroyGuardIP8PositionvE7releaseEv,"x"
	.linkonce discard
	.align 2
	.globl	_ZNSt19_UninitDestroyGuardIP8PositionvE7releaseEv
	.def	_ZNSt19_UninitDestroyGuardIP8PositionvE7releaseEv;	.scl	2;	.type	32;	.endef
	.seh_proc	_ZNSt19_UninitDestroyGuardIP8PositionvE7releaseEv
_ZNSt19_UninitDestroyGuardIP8PositionvE7releaseEv:
.LFB1849:
	.loc 9 125 12
	.cfi_startproc
	push	rbp
	.seh_pushreg	rbp
	.cfi_def_cfa_offset 16
	.cfi_offset 6, -16
	mov	rbp, rsp
	.seh_setframe	rbp, 0
	.cfi_def_cfa_register 6
	.seh_endprologue
	mov	QWORD PTR 16[rbp], rcx
	.loc 9 125 31
	mov	rax, QWORD PTR 16[rbp]
	mov	QWORD PTR 8[rax], 0
	.loc 9 125 36
	nop
	pop	rbp
	.cfi_restore 6
	.cfi_def_cfa 7, 8
	ret
	.cfi_endproc
.LFE1849:
	.seh_endproc
	.section	.text$_ZNSt19_UninitDestroyGuardIP8VelocityvED1Ev,"x"
	.linkonce discard
	.align 2
	.globl	_ZNSt19_UninitDestroyGuardIP8VelocityvED1Ev
	.def	_ZNSt19_UninitDestroyGuardIP8VelocityvED1Ev;	.scl	2;	.type	32;	.endef
	.seh_proc	_ZNSt19_UninitDestroyGuardIP8VelocityvED1Ev
_ZNSt19_UninitDestroyGuardIP8VelocityvED1Ev:
.LFB1854:
	.loc 9 118 7
	.cfi_startproc
	push	rbp
	.seh_pushreg	rbp
	.cfi_def_cfa_offset 16
	.cfi_offset 6, -16
	mov	rbp, rsp
	.seh_setframe	rbp, 0
	.cfi_def_cfa_register 6
	sub	rsp, 32
	.seh_stackalloc	32
	.seh_endprologue
	mov	QWORD PTR 16[rbp], rcx
.LBB294:
	.loc 9 120 23
	mov	rax, QWORD PTR 16[rbp]
	mov	rax, QWORD PTR 8[rax]
	.loc 9 120 30
	test	rax, rax
	setne	al
	.loc 9 120 22
	movzx	eax, al
	.loc 9 120 2 discriminator 1
	test	eax, eax
	je	.L161
	.loc 9 121 29
	mov	rax, QWORD PTR 16[rbp]
	mov	rax, QWORD PTR 8[rax]
	.loc 9 121 17
	mov	rdx, QWORD PTR [rax]
	.loc 9 121 18
	mov	rax, QWORD PTR 16[rbp]
	mov	rax, QWORD PTR [rax]
	.loc 9 121 17
	mov	rcx, rax
	call	_ZSt8_DestroyIP8VelocityEvT_S2_
.L161:
.LBE294:
	.loc 9 122 7
	nop
	add	rsp, 32
	pop	rbp
	.cfi_restore 6
	.cfi_def_cfa 7, 8
	ret
	.cfi_endproc
.LFE1854:
	.seh_endproc
	.section	.text$_ZSt10_ConstructI8VelocityJRKS0_EEvPT_DpOT0_,"x"
	.linkonce discard
	.globl	_ZSt10_ConstructI8VelocityJRKS0_EEvPT_DpOT0_
	.def	_ZSt10_ConstructI8VelocityJRKS0_EEvPT_DpOT0_;	.scl	2;	.type	32;	.endef
	.seh_proc	_ZSt10_ConstructI8VelocityJRKS0_EEvPT_DpOT0_
_ZSt10_ConstructI8VelocityJRKS0_EEvPT_DpOT0_:
.LFB1855:
	.loc 10 123 5
	.cfi_startproc
	push	rbp
	.seh_pushreg	rbp
	.cfi_def_cfa_offset 16
	.cfi_offset 6, -16
	push	rbx
	.seh_pushreg	rbx
	.cfi_def_cfa_offset 24
	.cfi_offset 3, -24
	sub	rsp, 56
	.seh_stackalloc	56
	.cfi_def_cfa_offset 80
	lea	rbp, 48[rsp]
	.seh_setframe	rbp, 48
	.cfi_def_cfa 6, 32
	.seh_endprologue
	mov	QWORD PTR 32[rbp], rcx
	mov	QWORD PTR 40[rbp], rdx
.LBB295:
.LBB296:
	.loc 8 586 49
	mov	eax, 0
.LBE296:
.LBE295:
	.loc 10 126 7 discriminator 1
	test	al, al
	je	.L164
	mov	rax, QWORD PTR 40[rbp]
	mov	QWORD PTR -8[rbp], rax
.LBB297:
.LBB298:
	.loc 11 73 36
	mov	rdx, QWORD PTR -8[rbp]
.LBE298:
.LBE297:
	.loc 10 129 21 discriminator 1
	mov	rax, QWORD PTR 32[rbp]
	mov	rcx, rax
	call	_ZSt12construct_atI8VelocityJRKS0_EQaant20is_unbounded_array_vIT_ErqXgsnwcvPvLi0E_S3_pispcl7declvalIT0_EEEEEPS3_S6_DpOS5_
	.loc 10 130 4
	jmp	.L162
.L164:
	.loc 10 133 13
	mov	rbx, QWORD PTR 32[rbp]
	.loc 10 133 7
	mov	rdx, rbx
	mov	ecx, 8
	call	_ZnwyPv
	mov	rdx, QWORD PTR 40[rbp]
	mov	QWORD PTR -16[rbp], rdx
.LBB299:
.LBB300:
	.loc 11 73 36
	mov	rdx, QWORD PTR -16[rbp]
.LBE300:
.LBE299:
	.loc 10 133 7 discriminator 2
	mov	rdx, QWORD PTR [rdx]
	mov	QWORD PTR [rax], rdx
	mov	edx, 0
	test	dl, dl
	je	.L162
	.loc 10 133 7 is_stmt 0 discriminator 3
	mov	rdx, rbx
	mov	rcx, rax
	call	_ZdlPvS_
	nop
.L162:
	.loc 10 134 5 is_stmt 1
	add	rsp, 56
	pop	rbx
	.cfi_restore 3
	pop	rbp
	.cfi_restore 6
	.cfi_def_cfa 7, -40
	ret
	.cfi_endproc
.LFE1855:
	.seh_endproc
	.section	.text$_ZNSt19_UninitDestroyGuardIP8VelocityvE7releaseEv,"x"
	.linkonce discard
	.align 2
	.globl	_ZNSt19_UninitDestroyGuardIP8VelocityvE7releaseEv
	.def	_ZNSt19_UninitDestroyGuardIP8VelocityvE7releaseEv;	.scl	2;	.type	32;	.endef
	.seh_proc	_ZNSt19_UninitDestroyGuardIP8VelocityvE7releaseEv
_ZNSt19_UninitDestroyGuardIP8VelocityvE7releaseEv:
.LFB1856:
	.loc 9 125 12
	.cfi_startproc
	push	rbp
	.seh_pushreg	rbp
	.cfi_def_cfa_offset 16
	.cfi_offset 6, -16
	mov	rbp, rsp
	.seh_setframe	rbp, 0
	.cfi_def_cfa_register 6
	.seh_endprologue
	mov	QWORD PTR 16[rbp], rcx
	.loc 9 125 31
	mov	rax, QWORD PTR 16[rbp]
	mov	QWORD PTR 8[rax], 0
	.loc 9 125 36
	nop
	pop	rbp
	.cfi_restore 6
	.cfi_def_cfa 7, 8
	ret
	.cfi_endproc
.LFE1856:
	.seh_endproc
	.section	.text$_ZNSt15__new_allocatorI8PositionE10deallocateEPS0_y,"x"
	.linkonce discard
	.align 2
	.globl	_ZNSt15__new_allocatorI8PositionE10deallocateEPS0_y
	.def	_ZNSt15__new_allocatorI8PositionE10deallocateEPS0_y;	.scl	2;	.type	32;	.endef
	.seh_proc	_ZNSt15__new_allocatorI8PositionE10deallocateEPS0_y
_ZNSt15__new_allocatorI8PositionE10deallocateEPS0_y:
.LFB1858:
	.loc 5 156 7
	.cfi_startproc
	push	rbp
	.seh_pushreg	rbp
	.cfi_def_cfa_offset 16
	.cfi_offset 6, -16
	mov	rbp, rsp
	.seh_setframe	rbp, 0
	.cfi_def_cfa_register 6
	sub	rsp, 32
	.seh_stackalloc	32
	.seh_endprologue
	mov	QWORD PTR 16[rbp], rcx
	mov	QWORD PTR 24[rbp], rdx
	mov	QWORD PTR 32[rbp], r8
	.loc 5 172 59
	mov	rax, QWORD PTR 32[rbp]
	lea	rdx, 0[0+rax*8]
	mov	rax, QWORD PTR 24[rbp]
	mov	rcx, rax
	call	_ZdlPvy
	nop
	.loc 5 173 7
	add	rsp, 32
	pop	rbp
	.cfi_restore 6
	.cfi_def_cfa 7, 8
	ret
	.cfi_endproc
.LFE1858:
	.seh_endproc
	.section	.text$_ZSt12construct_atI8PositionJRKS0_EQaant20is_unbounded_array_vIT_ErqXgsnwcvPvLi0E_S3_pispcl7declvalIT0_EEEEEPS3_S6_DpOS5_,"x"
	.linkonce discard
	.globl	_ZSt12construct_atI8PositionJRKS0_EQaant20is_unbounded_array_vIT_ErqXgsnwcvPvLi0E_S3_pispcl7declvalIT0_EEEEEPS3_S6_DpOS5_
	.def	_ZSt12construct_atI8PositionJRKS0_EQaant20is_unbounded_array_vIT_ErqXgsnwcvPvLi0E_S3_pispcl7declvalIT0_EEEEEPS3_S6_DpOS5_;	.scl	2;	.type	32;	.endef
	.seh_proc	_ZSt12construct_atI8PositionJRKS0_EQaant20is_unbounded_array_vIT_ErqXgsnwcvPvLi0E_S3_pispcl7declvalIT0_EEEEEPS3_S6_DpOS5_
_ZSt12construct_atI8PositionJRKS0_EQaant20is_unbounded_array_vIT_ErqXgsnwcvPvLi0E_S3_pispcl7declvalIT0_EEEEEPS3_S6_DpOS5_:
.LFB1860:
	.loc 10 96 5
	.cfi_startproc
	push	rbp
	.seh_pushreg	rbp
	.cfi_def_cfa_offset 16
	.cfi_offset 6, -16
	push	rsi
	.seh_pushreg	rsi
	.cfi_def_cfa_offset 24
	.cfi_offset 4, -24
	push	rbx
	.seh_pushreg	rbx
	.cfi_def_cfa_offset 32
	.cfi_offset 3, -32
	sub	rsp, 48
	.seh_stackalloc	48
	.cfi_def_cfa_offset 80
	lea	rbp, 48[rsp]
	.seh_setframe	rbp, 48
	.cfi_def_cfa 6, 32
	.seh_endprologue
	mov	QWORD PTR 32[rbp], rcx
	mov	QWORD PTR 40[rbp], rdx
	.loc 10 99 13
	mov	rax, QWORD PTR 32[rbp]
	mov	QWORD PTR -8[rbp], rax
	.loc 10 110 15
	mov	rsi, QWORD PTR -8[rbp]
	.loc 10 110 9
	mov	rdx, rsi
	mov	ecx, 8
	call	_ZnwyPv
	mov	rbx, rax
	mov	rax, QWORD PTR 40[rbp]
	mov	QWORD PTR -16[rbp], rax
.LBB301:
.LBB302:
	.loc 11 73 36
	mov	rax, QWORD PTR -16[rbp]
.LBE302:
.LBE301:
	.loc 10 110 9 discriminator 2
	mov	rax, QWORD PTR [rax]
	mov	QWORD PTR [rbx], rax
	.loc 10 110 56 discriminator 2
	mov	eax, 0
	.loc 10 110 56 is_stmt 0 discriminator 3
	test	al, al
	je	.L174
	.loc 10 110 9 is_stmt 1 discriminator 4
	mov	rdx, rsi
	mov	rcx, rbx
	call	_ZdlPvS_
.L174:
	.loc 10 110 56 discriminator 8
	mov	rax, rbx
	.loc 10 111 5
	add	rsp, 48
	pop	rbx
	.cfi_restore 3
	pop	rsi
	.cfi_restore 4
	pop	rbp
	.cfi_restore 6
	.cfi_def_cfa 7, -24
	ret
	.cfi_endproc
.LFE1860:
	.seh_endproc
	.weak	_ZSt12construct_atI8PositionJRKS0_EEPT_S4_DpOT0_
	.def	_ZSt12construct_atI8PositionJRKS0_EEPT_S4_DpOT0_;	.scl	2;	.type	32;	.endef
	.set	_ZSt12construct_atI8PositionJRKS0_EEPT_S4_DpOT0_,_ZSt12construct_atI8PositionJRKS0_EQaant20is_unbounded_array_vIT_ErqXgsnwcvPvLi0E_S3_pispcl7declvalIT0_EEEEEPS3_S6_DpOS5_
	.section	.text$_ZNSt15__new_allocatorI8VelocityE10deallocateEPS0_y,"x"
	.linkonce discard
	.align 2
	.globl	_ZNSt15__new_allocatorI8VelocityE10deallocateEPS0_y
	.def	_ZNSt15__new_allocatorI8VelocityE10deallocateEPS0_y;	.scl	2;	.type	32;	.endef
	.seh_proc	_ZNSt15__new_allocatorI8VelocityE10deallocateEPS0_y
_ZNSt15__new_allocatorI8VelocityE10deallocateEPS0_y:
.LFB1862:
	.loc 5 156 7
	.cfi_startproc
	push	rbp
	.seh_pushreg	rbp
	.cfi_def_cfa_offset 16
	.cfi_offset 6, -16
	mov	rbp, rsp
	.seh_setframe	rbp, 0
	.cfi_def_cfa_register 6
	sub	rsp, 32
	.seh_stackalloc	32
	.seh_endprologue
	mov	QWORD PTR 16[rbp], rcx
	mov	QWORD PTR 24[rbp], rdx
	mov	QWORD PTR 32[rbp], r8
	.loc 5 172 59
	mov	rax, QWORD PTR 32[rbp]
	lea	rdx, 0[0+rax*8]
	mov	rax, QWORD PTR 24[rbp]
	mov	rcx, rax
	call	_ZdlPvy
	nop
	.loc 5 173 7
	add	rsp, 32
	pop	rbp
	.cfi_restore 6
	.cfi_def_cfa 7, 8
	ret
	.cfi_endproc
.LFE1862:
	.seh_endproc
	.section	.text$_ZSt12construct_atI8VelocityJRKS0_EQaant20is_unbounded_array_vIT_ErqXgsnwcvPvLi0E_S3_pispcl7declvalIT0_EEEEEPS3_S6_DpOS5_,"x"
	.linkonce discard
	.globl	_ZSt12construct_atI8VelocityJRKS0_EQaant20is_unbounded_array_vIT_ErqXgsnwcvPvLi0E_S3_pispcl7declvalIT0_EEEEEPS3_S6_DpOS5_
	.def	_ZSt12construct_atI8VelocityJRKS0_EQaant20is_unbounded_array_vIT_ErqXgsnwcvPvLi0E_S3_pispcl7declvalIT0_EEEEEPS3_S6_DpOS5_;	.scl	2;	.type	32;	.endef
	.seh_proc	_ZSt12construct_atI8VelocityJRKS0_EQaant20is_unbounded_array_vIT_ErqXgsnwcvPvLi0E_S3_pispcl7declvalIT0_EEEEEPS3_S6_DpOS5_
_ZSt12construct_atI8VelocityJRKS0_EQaant20is_unbounded_array_vIT_ErqXgsnwcvPvLi0E_S3_pispcl7declvalIT0_EEEEEPS3_S6_DpOS5_:
.LFB1864:
	.loc 10 96 5
	.cfi_startproc
	push	rbp
	.seh_pushreg	rbp
	.cfi_def_cfa_offset 16
	.cfi_offset 6, -16
	push	rsi
	.seh_pushreg	rsi
	.cfi_def_cfa_offset 24
	.cfi_offset 4, -24
	push	rbx
	.seh_pushreg	rbx
	.cfi_def_cfa_offset 32
	.cfi_offset 3, -32
	sub	rsp, 48
	.seh_stackalloc	48
	.cfi_def_cfa_offset 80
	lea	rbp, 48[rsp]
	.seh_setframe	rbp, 48
	.cfi_def_cfa 6, 32
	.seh_endprologue
	mov	QWORD PTR 32[rbp], rcx
	mov	QWORD PTR 40[rbp], rdx
	.loc 10 99 13
	mov	rax, QWORD PTR 32[rbp]
	mov	QWORD PTR -8[rbp], rax
	.loc 10 110 15
	mov	rsi, QWORD PTR -8[rbp]
	.loc 10 110 9
	mov	rdx, rsi
	mov	ecx, 8
	call	_ZnwyPv
	mov	rbx, rax
	mov	rax, QWORD PTR 40[rbp]
	mov	QWORD PTR -16[rbp], rax
.LBB303:
.LBB304:
	.loc 11 73 36
	mov	rax, QWORD PTR -16[rbp]
.LBE304:
.LBE303:
	.loc 10 110 9 discriminator 2
	mov	rax, QWORD PTR [rax]
	mov	QWORD PTR [rbx], rax
	.loc 10 110 56 discriminator 2
	mov	eax, 0
	.loc 10 110 56 is_stmt 0 discriminator 3
	test	al, al
	je	.L180
	.loc 10 110 9 is_stmt 1 discriminator 4
	mov	rdx, rsi
	mov	rcx, rbx
	call	_ZdlPvS_
.L180:
	.loc 10 110 56 discriminator 8
	mov	rax, rbx
	.loc 10 111 5
	add	rsp, 48
	pop	rbx
	.cfi_restore 3
	pop	rsi
	.cfi_restore 4
	pop	rbp
	.cfi_restore 6
	.cfi_def_cfa 7, -24
	ret
	.cfi_endproc
.LFE1864:
	.seh_endproc
	.weak	_ZSt12construct_atI8VelocityJRKS0_EEPT_S4_DpOT0_
	.def	_ZSt12construct_atI8VelocityJRKS0_EEPT_S4_DpOT0_;	.scl	2;	.type	32;	.endef
	.set	_ZSt12construct_atI8VelocityJRKS0_EEPT_S4_DpOT0_,_ZSt12construct_atI8VelocityJRKS0_EQaant20is_unbounded_array_vIT_ErqXgsnwcvPvLi0E_S3_pispcl7declvalIT0_EEEEEPS3_S6_DpOS5_
	.section	.text$_ZNSt15__new_allocatorI8PositionE8allocateEyPKv,"x"
	.linkonce discard
	.align 2
	.globl	_ZNSt15__new_allocatorI8PositionE8allocateEyPKv
	.def	_ZNSt15__new_allocatorI8PositionE8allocateEyPKv;	.scl	2;	.type	32;	.endef
	.seh_proc	_ZNSt15__new_allocatorI8PositionE8allocateEyPKv
_ZNSt15__new_allocatorI8PositionE8allocateEyPKv:
.LFB1865:
	.loc 5 126 7
	.cfi_startproc
	push	rbp
	.seh_pushreg	rbp
	.cfi_def_cfa_offset 16
	.cfi_offset 6, -16
	mov	rbp, rsp
	.seh_setframe	rbp, 0
	.cfi_def_cfa_register 6
	sub	rsp, 48
	.seh_stackalloc	48
	.seh_endprologue
	mov	QWORD PTR 16[rbp], rcx
	mov	QWORD PTR 24[rbp], rdx
	mov	QWORD PTR 32[rbp], r8
	mov	rax, QWORD PTR 16[rbp]
	mov	QWORD PTR -8[rbp], rax
.LBB305:
.LBB306:
	.loc 5 233 50
	movabs	rax, 1152921504606846975
.LBE306:
.LBE305:
	.loc 5 134 27 discriminator 1
	cmp	rax, QWORD PTR 24[rbp]
	setb	al
	.loc 5 134 22 discriminator 1
	movzx	eax, al
	.loc 5 134 22 is_stmt 0 discriminator 2
	test	eax, eax
	setne	al
	.loc 5 134 2 is_stmt 1 discriminator 2
	test	al, al
	je	.L183
	.loc 5 138 6
	movabs	rax, 2305843009213693951
	cmp	rax, QWORD PTR 24[rbp]
	jnb	.L184
	.loc 5 139 41
	call	_ZSt28__throw_bad_array_new_lengthv
.L184:
	.loc 5 140 28
	call	_ZSt17__throw_bad_allocv
.L183:
	.loc 5 151 66
	mov	rax, QWORD PTR 24[rbp]
	sal	rax, 3
	mov	rcx, rax
	call	_Znwy
	.loc 5 151 67
	nop
	.loc 5 152 7
	add	rsp, 48
	pop	rbp
	.cfi_restore 6
	.cfi_def_cfa 7, 8
	ret
	.cfi_endproc
.LFE1865:
	.seh_endproc
	.section	.text$_ZNSt15__new_allocatorI8VelocityE8allocateEyPKv,"x"
	.linkonce discard
	.align 2
	.globl	_ZNSt15__new_allocatorI8VelocityE8allocateEyPKv
	.def	_ZNSt15__new_allocatorI8VelocityE8allocateEyPKv;	.scl	2;	.type	32;	.endef
	.seh_proc	_ZNSt15__new_allocatorI8VelocityE8allocateEyPKv
_ZNSt15__new_allocatorI8VelocityE8allocateEyPKv:
.LFB1866:
	.loc 5 126 7
	.cfi_startproc
	push	rbp
	.seh_pushreg	rbp
	.cfi_def_cfa_offset 16
	.cfi_offset 6, -16
	mov	rbp, rsp
	.seh_setframe	rbp, 0
	.cfi_def_cfa_register 6
	sub	rsp, 48
	.seh_stackalloc	48
	.seh_endprologue
	mov	QWORD PTR 16[rbp], rcx
	mov	QWORD PTR 24[rbp], rdx
	mov	QWORD PTR 32[rbp], r8
	mov	rax, QWORD PTR 16[rbp]
	mov	QWORD PTR -8[rbp], rax
.LBB307:
.LBB308:
	.loc 5 233 50
	movabs	rax, 1152921504606846975
.LBE308:
.LBE307:
	.loc 5 134 27 discriminator 1
	cmp	rax, QWORD PTR 24[rbp]
	setb	al
	.loc 5 134 22 discriminator 1
	movzx	eax, al
	.loc 5 134 22 is_stmt 0 discriminator 2
	test	eax, eax
	setne	al
	.loc 5 134 2 is_stmt 1 discriminator 2
	test	al, al
	je	.L188
	.loc 5 138 6
	movabs	rax, 2305843009213693951
	cmp	rax, QWORD PTR 24[rbp]
	jnb	.L189
	.loc 5 139 41
	call	_ZSt28__throw_bad_array_new_lengthv
.L189:
	.loc 5 140 28
	call	_ZSt17__throw_bad_allocv
.L188:
	.loc 5 151 66
	mov	rax, QWORD PTR 24[rbp]
	sal	rax, 3
	mov	rcx, rax
	call	_Znwy
	.loc 5 151 67
	nop
	.loc 5 152 7
	add	rsp, 48
	pop	rbp
	.cfi_restore 6
	.cfi_def_cfa 7, 8
	ret
	.cfi_endproc
.LFE1866:
	.seh_endproc
	.section .rdata,"dr"
	.align 4
.LC4:
	.long	1065353216
	.align 4
.LC5:
	.long	1056964608
	.align 4
.LC6:
	.long	1015222895
	.align 4
.LC7:
	.long	1148846080
	.text
.Letext0:
	.file 13 "C:/Qt/Tools/mingw1530_64/include/c++/15.3.0/bits/utility.h"
	.file 14 "C:/Qt/Tools/mingw1530_64/include/c++/15.3.0/concepts"
	.file 15 "C:/Qt/Tools/mingw1530_64/include/c++/15.3.0/bits/iterator_concepts.h"
	.file 16 "C:/Qt/Tools/mingw1530_64/include/c++/15.3.0/compare"
	.file 17 "C:/Qt/Tools/mingw1530_64/include/c++/15.3.0/debug/debug.h"
	.file 18 "C:/Qt/Tools/mingw1530_64/include/c++/15.3.0/numbers"
	.file 19 "C:/Qt/Tools/mingw1530_64/include/c++/15.3.0/bits/memory_resource.h"
	.file 20 "C:/Qt/Tools/mingw1530_64/include/c++/15.3.0/cstddef"
	.file 21 "C:/Qt/Tools/mingw1530_64/include/c++/15.3.0/bits/vector.tcc"
	.file 22 "C:/Qt/Tools/mingw1530_64/include/c++/15.3.0/initializer_list"
	.file 23 "C:/Qt/Tools/mingw1530_64/include/c++/15.3.0/bits/functexcept.h"
	.file 24 "C:/Qt/Tools/mingw1530_64/include/c++/15.3.0/bits/predefined_ops.h"
	.file 25 "C:/Qt/Tools/mingw1530_64/include/c++/15.3.0/ext/alloc_traits.h"
	.file 26 "C:/Qt/Tools/mingw1530_64/include/c++/15.3.0/bits/ptr_traits.h"
	.file 27 "C:/Qt/Tools/mingw1530_64/x86_64-w64-mingw32/include/stddef.h"