	.file	"_ch25_variant_perf.cpp"
	.intel_syntax noprefix
	.text
	.section	.text$_ZN1A1fEv,"x"
	.linkonce discard
	.align 2
	.p2align 4
	.globl	_ZN1A1fEv
	.def	_ZN1A1fEv;	.scl	2;	.type	32;	.endef
	.seh_proc	_ZN1A1fEv
_ZN1A1fEv:
.LFB7448:
	.seh_endprologue
	mov	eax, 1
	ret
	.seh_endproc
	.section	.text$_ZN1B1fEv,"x"
	.linkonce discard
	.align 2
	.p2align 4
	.globl	_ZN1B1fEv
	.def	_ZN1B1fEv;	.scl	2;	.type	32;	.endef
	.seh_proc	_ZN1B1fEv
_ZN1B1fEv:
.LFB7449:
	.seh_endprologue
	mov	eax, 2
	ret
	.seh_endproc
	.section	.text$_ZN1C1fEv,"x"
	.linkonce discard
	.align 2
	.p2align 4
	.globl	_ZN1C1fEv
	.def	_ZN1C1fEv;	.scl	2;	.type	32;	.endef
	.seh_proc	_ZN1C1fEv
_ZN1C1fEv:
.LFB7450:
	.seh_endprologue
	mov	eax, 3
	ret
	.seh_endproc
	.section	.text$_ZN1D1fEv,"x"
	.linkonce discard
	.align 2
	.p2align 4
	.globl	_ZN1D1fEv
	.def	_ZN1D1fEv;	.scl	2;	.type	32;	.endef
	.seh_proc	_ZN1D1fEv
_ZN1D1fEv:
.LFB7451:
	.seh_endprologue
	mov	eax, 4
	ret
	.seh_endproc
	.section	.text$_ZN1AD1Ev,"x"
	.linkonce discard
	.align 2
	.p2align 4
	.globl	_ZN1AD1Ev
	.def	_ZN1AD1Ev;	.scl	2;	.type	32;	.endef
	.seh_proc	_ZN1AD1Ev
_ZN1AD1Ev:
.LFB7469:
	.seh_endprologue
	ret
	.seh_endproc
	.section	.text$_ZN1BD1Ev,"x"
	.linkonce discard
	.align 2
	.p2align 4
	.globl	_ZN1BD1Ev
	.def	_ZN1BD1Ev;	.scl	2;	.type	32;	.endef
	.seh_proc	_ZN1BD1Ev
_ZN1BD1Ev:
.LFB7476:
	.seh_endprologue
	ret
	.seh_endproc
	.section	.text$_ZN1CD1Ev,"x"
	.linkonce discard
	.align 2
	.p2align 4
	.globl	_ZN1CD1Ev
	.def	_ZN1CD1Ev;	.scl	2;	.type	32;	.endef
	.seh_proc	_ZN1CD1Ev
_ZN1CD1Ev:
.LFB7483:
	.seh_endprologue
	ret
	.seh_endproc
	.section	.text$_ZN1DD1Ev,"x"
	.linkonce discard
	.align 2
	.p2align 4
	.globl	_ZN1DD1Ev
	.def	_ZN1DD1Ev;	.scl	2;	.type	32;	.endef
	.seh_proc	_ZN1DD1Ev
_ZN1DD1Ev:
.LFB7490:
	.seh_endprologue
	ret
	.seh_endproc
	.section	.text$_ZN1AD0Ev,"x"
	.linkonce discard
	.align 2
	.p2align 4
	.globl	_ZN1AD0Ev
	.def	_ZN1AD0Ev;	.scl	2;	.type	32;	.endef
	.seh_proc	_ZN1AD0Ev
_ZN1AD0Ev:
.LFB7470:
	.seh_endprologue
	mov	edx, 8
	jmp	_ZdlPvy
	.seh_endproc
	.section	.text$_ZN1DD0Ev,"x"
	.linkonce discard
	.align 2
	.p2align 4
	.globl	_ZN1DD0Ev
	.def	_ZN1DD0Ev;	.scl	2;	.type	32;	.endef
	.seh_proc	_ZN1DD0Ev
_ZN1DD0Ev:
.LFB7491:
	.seh_endprologue
	mov	edx, 8
	jmp	_ZdlPvy
	.seh_endproc
	.section	.text$_ZN1CD0Ev,"x"
	.linkonce discard
	.align 2
	.p2align 4
	.globl	_ZN1CD0Ev
	.def	_ZN1CD0Ev;	.scl	2;	.type	32;	.endef
	.seh_proc	_ZN1CD0Ev
_ZN1CD0Ev:
.LFB7484:
	.seh_endprologue
	mov	edx, 8
	jmp	_ZdlPvy
	.seh_endproc
	.section	.text$_ZN1BD0Ev,"x"
	.linkonce discard
	.align 2
	.p2align 4
	.globl	_ZN1BD0Ev
	.def	_ZN1BD0Ev;	.scl	2;	.type	32;	.endef
	.seh_proc	_ZN1BD0Ev
_ZN1BD0Ev:
.LFB7477:
	.seh_endprologue
	mov	edx, 8
	jmp	_ZdlPvy
	.seh_endproc
	.section	.text$_Z6printfPKcz,"x"
	.linkonce discard
	.p2align 4
	.globl	_Z6printfPKcz
	.def	_Z6printfPKcz;	.scl	2;	.type	32;	.endef
	.seh_proc	_Z6printfPKcz
_Z6printfPKcz:
.LFB11:
	push	rsi
	.seh_pushreg	rsi
	push	rbx
	.seh_pushreg	rbx
	sub	rsp, 56
	.seh_stackalloc	56
	.seh_endprologue
	lea	rsi, 88[rsp]
	mov	rbx, rcx
	mov	QWORD PTR 88[rsp], rdx
	mov	ecx, 1
	mov	QWORD PTR 96[rsp], r8
	mov	QWORD PTR 104[rsp], r9
	mov	QWORD PTR 40[rsp], rsi
	call	[QWORD PTR __imp___acrt_iob_func[rip]]
	mov	r8, rsi
	mov	rdx, rbx
	mov	rcx, rax
	call	__mingw_vfprintf
	add	rsp, 56
	pop	rbx
	pop	rsi
	ret
	.seh_endproc
	.text
	.p2align 4
	.globl	_Z23probe_variant_visit_hotPKSt7variantIJildcEEPKii
	.def	_Z23probe_variant_visit_hotPKSt7variantIJildcEEPKii;	.scl	2;	.type	32;	.endef
	.seh_proc	_Z23probe_variant_visit_hotPKSt7variantIJildcEEPKii
_Z23probe_variant_visit_hotPKSt7variantIJildcEEPKii:
.LFB7452:
	.seh_endprologue
	test	r8d, r8d
	mov	r9, rcx
	jle	.L22
	movsx	r8, r8d
	xor	ecx, ecx
	lea	r8, [rdx+r8*4]
	jmp	.L21
	.p2align 4,,10
	.p2align 3
.L24:
	mov	eax, DWORD PTR [rax]
.L20:
	cdqe
	add	rdx, 4
	add	rcx, rax
	cmp	r8, rdx
	je	.L15
.L21:
	movsx	rax, DWORD PTR [rdx]
	sal	rax, 4
	add	rax, r9
	cmp	BYTE PTR 8[rax], 2
	je	.L17
	jbe	.L24
	movsx	eax, BYTE PTR [rax]
	add	rdx, 4
	cdqe
	add	rcx, rax
	cmp	r8, rdx
	jne	.L21
.L15:
	mov	rax, rcx
	ret
	.p2align 4,,10
	.p2align 3
.L17:
	cvttsd2si	eax, QWORD PTR [rax]
	jmp	.L20
	.p2align 4,,10
	.p2align 3
.L22:
	xor	ecx, ecx
	mov	rax, rcx
	ret
	.seh_endproc
	.p2align 4
	.globl	_Z17probe_virtual_hotPKP1APKii
	.def	_Z17probe_virtual_hotPKP1APKii;	.scl	2;	.type	32;	.endef
	.seh_proc	_Z17probe_virtual_hotPKP1APKii
_Z17probe_virtual_hotPKP1APKii:
.LFB7462:
	push	rbp
	.seh_pushreg	rbp
	push	rdi
	.seh_pushreg	rdi
	push	rsi
	.seh_pushreg	rsi
	push	rbx
	.seh_pushreg	rbx
	sub	rsp, 40
	.seh_stackalloc	40
	.seh_endprologue
	test	r8d, r8d
	mov	rdi, rcx
	jle	.L28
	movsx	r8, r8d
	mov	rbx, rdx
	xor	esi, esi
	lea	rbp, [rdx+r8*4]
	.p2align 4,,10
	.p2align 3
.L27:
	movsx	rax, DWORD PTR [rbx]
	add	rbx, 4
	mov	rcx, QWORD PTR [rdi+rax*8]
	mov	rax, QWORD PTR [rcx]
	call	[QWORD PTR [rax]]
	cdqe
	add	rsi, rax
	cmp	rbp, rbx
	jne	.L27
	mov	rax, rsi
	add	rsp, 40
	pop	rbx
	pop	rsi
	pop	rdi
	pop	rbp
	ret
	.p2align 4,,10
	.p2align 3
.L28:
	xor	esi, esi
	mov	rax, rsi
	add	rsp, 40
	pop	rbx
	pop	rsi
	pop	rdi
	pop	rbp
	ret
	.seh_endproc
	.section	.text$_ZNSt6vectorIiSaIiEED1Ev,"x"
	.linkonce discard
	.align 2
	.p2align 4
	.globl	_ZNSt6vectorIiSaIiEED1Ev
	.def	_ZNSt6vectorIiSaIiEED1Ev;	.scl	2;	.type	32;	.endef
	.seh_proc	_ZNSt6vectorIiSaIiEED1Ev
_ZNSt6vectorIiSaIiEED1Ev:
.LFB8248:
	.seh_endprologue
	mov	rax, QWORD PTR [rcx]
	test	rax, rax
	je	.L30
	mov	rdx, QWORD PTR 16[rcx]
	mov	rcx, rax
	sub	rdx, rax
	jmp	_ZdlPvy
	.p2align 4,,10
	.p2align 3
.L30:
	ret
	.seh_endproc
	.section	.text$_ZNSt23mersenne_twister_engineIjLy32ELy624ELy397ELy31ELj2567483615ELy11ELj4294967295ELy7ELj2636928640ELy15ELj4022730752ELy18ELj1812433253EE11_M_gen_randEv,"x"
	.linkonce discard
	.align 2
	.p2align 4
	.globl	_ZNSt23mersenne_twister_engineIjLy32ELy624ELy397ELy31ELj2567483615ELy11ELj4294967295ELy7ELj2636928640ELy15ELj4022730752ELy18ELj1812433253EE11_M_gen_randEv
	.def	_ZNSt23mersenne_twister_engineIjLy32ELy624ELy397ELy31ELj2567483615ELy11ELj4294967295ELy7ELj2636928640ELy15ELj4022730752ELy18ELj1812433253EE11_M_gen_randEv;	.scl	2;	.type	32;	.endef
	.seh_proc	_ZNSt23mersenne_twister_engineIjLy32ELy624ELy397ELy31ELj2567483615ELy11ELj4294967295ELy7ELj2636928640ELy15ELj4022730752ELy18ELj1812433253EE11_M_gen_randEv
_ZNSt23mersenne_twister_engineIjLy32ELy624ELy397ELy31ELj2567483615ELy11ELj4294967295ELy7ELj2636928640ELy15ELj4022730752ELy18ELj1812433253EE11_M_gen_randEv:
.LFB8558:
	sub	rsp, 40
	.seh_stackalloc	40
	movaps	XMMWORD PTR [rsp], xmm6
	.seh_savexmm	xmm6, 0
	movaps	XMMWORD PTR 16[rsp], xmm7
	.seh_savexmm	xmm7, 16
	.seh_endprologue
	mov	r8d, DWORD PTR [rcx]
	lea	r9, 908[rcx]
	mov	r10, rcx
	.p2align 4,,10
	.p2align 3
.L33:
	mov	edx, r8d
	mov	r8d, DWORD PTR 4[rcx]
	add	rcx, 4
	and	edx, -2147483648
	mov	eax, r8d
	and	eax, 2147483647
	or	edx, eax
	and	eax, 1
	shr	edx
	xor	edx, DWORD PTR 1584[rcx]
	neg	eax
	and	eax, -1727483681
	xor	eax, edx
	mov	DWORD PTR -4[rcx], eax
	cmp	rcx, r9
	jne	.L33
	movdqa	xmm7, XMMWORD PTR .LC0[rip]
	lea	rax, 2492[r10]
	pxor	xmm3, xmm3
	movdqa	xmm6, XMMWORD PTR .LC1[rip]
	movdqa	xmm5, XMMWORD PTR .LC2[rip]
	movdqa	xmm4, XMMWORD PTR .LC3[rip]
	.p2align 4,,10
	.p2align 3
.L34:
	movdqu	xmm0, XMMWORD PTR [rcx]
	add	rcx, 16
	movdqu	xmm1, XMMWORD PTR -12[rcx]
	movdqu	xmm2, XMMWORD PTR -924[rcx]
	pand	xmm0, xmm7
	pand	xmm1, xmm6
	por	xmm0, xmm1
	movdqa	xmm1, xmm0
	pand	xmm0, xmm5
	psrld	xmm1, 1
	pxor	xmm1, xmm2
	movdqa	xmm2, xmm3
	psubd	xmm2, xmm0
	pand	xmm2, xmm4
	movdqa	xmm0, xmm2
	pxor	xmm0, xmm1
	movups	XMMWORD PTR -16[rcx], xmm0
	cmp	rcx, rax
	jne	.L34
	mov	eax, DWORD PTR 2492[r10]
	mov	QWORD PTR 2496[r10], 0
	mov	edx, DWORD PTR [r10]
	movaps	xmm6, XMMWORD PTR [rsp]
	movaps	xmm7, XMMWORD PTR 16[rsp]
	and	eax, -2147483648
	and	edx, 2147483647
	or	eax, edx
	mov	edx, eax
	and	eax, 1
	shr	edx
	xor	edx, DWORD PTR 1584[r10]
	neg	eax
	and	eax, -1727483681
	xor	eax, edx
	mov	DWORD PTR 2492[r10], eax
	add	rsp, 40
	ret
	.seh_endproc
	.def	__main;	.scl	2;	.type	32;	.endef
	.section .rdata,"dr"
	.align 8
.LC6:
	.ascii "TSC_freq = %.3f GHz (ns/cycle=%.4f)\12\0"
.LC9:
	.ascii "variant_visit\0"
.LC10:
	.ascii "%-20s : %8.3f ns/op\12\0"
.LC11:
	.ascii "virtual_call\0"
.LC12:
	.ascii "sink=%llu\12\0"
	.section	.text.startup,"x"
	.p2align 4
	.globl	main
	.def	main;	.scl	2;	.type	32;	.endef
	.seh_proc	main
main:
.LFB7463:
	push	rbp
	.seh_pushreg	rbp
	push	rdi
	.seh_pushreg	rdi
	push	rsi
	.seh_pushreg	rsi
	push	rbx
	.seh_pushreg	rbx
	sub	rsp, 2760
	.seh_stackalloc	2760
	movaps	XMMWORD PTR 2704[rsp], xmm6
	.seh_savexmm	xmm6, 2704
	movaps	XMMWORD PTR 2720[rsp], xmm7
	.seh_savexmm	xmm7, 2720
	movaps	XMMWORD PTR 2736[rsp], xmm8
	.seh_savexmm	xmm8, 2736
	.seh_endprologue
	call	__main
	lea	rax, 32[rsp]
	movq	xmm8, rax
	lea	rax, 40[rsp]
	movq	xmm3, rax
	lea	rax, 48[rsp]
	punpcklqdq	xmm8, xmm3
	movq	xmm7, rax
	lea	rax, 56[rsp]
	movq	xmm4, rax
	punpcklqdq	xmm7, xmm4
	call	_ZNSt6chrono3_V212steady_clock3nowEv
	mov	rbx, rax
/APP
 # 12 "Examples/_ch25_variant_perf.cpp" 1
	rdtsc
 # 0 "" 2
/NO_APP
	sal	rdx, 32
	mov	eax, eax
	mov	rdi, rdx
	or	rdi, rax
	.p2align 4,,10
	.p2align 3
.L38:
	call	_ZNSt6chrono3_V212steady_clock3nowEv
	sub	rax, rbx
	cmp	rax, 99999999
	jle	.L38
/APP
 # 12 "Examples/_ch25_variant_perf.cpp" 1
	rdtsc
 # 0 "" 2
/NO_APP
	sal	rdx, 32
	mov	eax, eax
	mov	rsi, rdx
	or	rsi, rax
	call	_ZNSt6chrono3_V212steady_clock3nowEv
	sub	rsi, rdi
	js	.L39
	pxor	xmm1, xmm1
	cvtsi2sd	xmm1, rsi
.L40:
	sub	rax, rbx
	pxor	xmm0, xmm0
	movsd	xmm2, QWORD PTR .LC4[rip]
	cvtsi2sd	xmm0, rax
	movsd	xmm6, QWORD PTR .LC5[rip]
	lea	rcx, .LC6[rip]
	lea	rdi, 132[rsp]
	divsd	xmm0, xmm2
	divsd	xmm1, xmm0
	divsd	xmm1, xmm2
	divsd	xmm6, xmm1
	movq	rdx, xmm1
	movapd	xmm2, xmm6
	movq	r8, xmm6
.LEHB0:
	call	_Z6printfPKcz
	mov	ecx, 7
	movaps	XMMWORD PTR 96[rsp], xmm8
	lea	rax, _ZTV1A[rip+16]
	movaps	XMMWORD PTR 112[rsp], xmm7
	mov	QWORD PTR 32[rsp], rax
	lea	rax, _ZTV1B[rip+16]
	mov	QWORD PTR 40[rsp], rax
	lea	rax, _ZTV1C[rip+16]
	mov	QWORD PTR 48[rsp], rax
	lea	rax, _ZTV1D[rip+16]
	mov	QWORD PTR 56[rsp], rax
	xor	eax, eax
	rep stosq
	mov	ecx, 80000000
	mov	rax, QWORD PTR .LC7[rip]
	mov	DWORD PTR 128[rsp], 1
	mov	DWORD PTR 144[rsp], 2
	mov	BYTE PTR 152[rsp], 1
	mov	BYTE PTR 168[rsp], 2
	mov	QWORD PTR 160[rsp], rax
	mov	BYTE PTR 176[rsp], 4
	mov	DWORD PTR [rdi], 0
	mov	BYTE PTR 184[rsp], 3
	call	_Znwy
.LEHE0:
	xor	edx, edx
	mov	r8d, 79999996
	lea	rbx, 80000000[rax]
	mov	DWORD PTR [rax], 0
	mov	rsi, rax
	lea	rcx, 4[rax]
	mov	QWORD PTR 64[rsp], rax
	mov	QWORD PTR 80[rsp], rbx
	call	memset
	mov	QWORD PTR 72[rsp], rbx
	mov	ecx, 1
	mov	edx, 1
	mov	DWORD PTR 192[rsp], 1
	lea	r11, 192[rsp]
	.p2align 4,,10
	.p2align 3
.L41:
	mov	eax, ecx
	shr	eax, 30
	xor	eax, ecx
	imul	eax, eax, 1812433253
	lea	ecx, [rax+rdx]
	mov	DWORD PTR [r11+rdx*4], ecx
	add	rdx, 1
	cmp	rdx, 624
	jne	.L41
	mov	rdi, rsi
	jmp	.L43
	.p2align 4,,10
	.p2align 3
.L42:
	lea	rdx, 1[rax]
	mov	eax, DWORD PTR 192[rsp+rax*4]
	add	rdi, 4
	mov	QWORD PTR 2688[rsp], rdx
	mov	ecx, eax
	shr	ecx, 11
	xor	eax, ecx
	mov	ecx, eax
	sal	ecx, 7
	and	ecx, -1658038656
	xor	eax, ecx
	mov	ecx, eax
	sal	ecx, 15
	and	ecx, -272236544
	xor	eax, ecx
	mov	ecx, eax
	shr	ecx, 18
	xor	eax, ecx
	and	eax, 3
	mov	DWORD PTR -4[rdi], eax
	cmp	rbx, rdi
	je	.L56
.L43:
	cmp	rdx, 623
	mov	rax, rdx
	jbe	.L42
	mov	rcx, r11
	call	_ZNSt23mersenne_twister_engineIjLy32ELy624ELy397ELy31ELj2567483615ELy11ELj4294967295ELy7ELj2636928640ELy15ELj4022730752ELy18ELj1812433253EE11_M_gen_randEv
	mov	rax, QWORD PTR 2688[rsp]
	jmp	.L42
.L56:
	lea	r11, 128[rsp]
	mov	rdx, rsi
	mov	r8d, 1000
	mov	rcx, r11
	call	_Z23probe_variant_visit_hotPKSt7variantIJildcEEPKii
	mov	rdx, rax
	mov	rax, QWORD PTR _ZL6g_sink[rip]
	add	rax, rdx
	mov	QWORD PTR _ZL6g_sink[rip], rax
/APP
 # 12 "Examples/_ch25_variant_perf.cpp" 1
	rdtsc
 # 0 "" 2
/NO_APP
	sal	rdx, 32
	mov	eax, eax
	mov	r8d, 20000000
	or	rdx, rax
	mov	rcx, r11
	mov	r10, rdx
	mov	rdx, rsi
	call	_Z23probe_variant_visit_hotPKSt7variantIJildcEEPKii
	mov	rdi, rax
/APP
 # 12 "Examples/_ch25_variant_perf.cpp" 1
	rdtsc
 # 0 "" 2
/NO_APP
	sal	rdx, 32
	mov	eax, eax
	or	rdx, rax
	sub	rdx, r10
	js	.L44
	pxor	xmm0, xmm0
	cvtsi2sd	xmm0, rdx
.L45:
	mulsd	xmm0, xmm6
	movsd	xmm7, QWORD PTR .LC8[rip]
	lea	rbx, .LC10[rip]
	lea	rdx, .LC9[rip]
	mov	rcx, rbx
	divsd	xmm0, xmm7
	movq	r8, xmm0
	movapd	xmm2, xmm0
.LEHB1:
	call	_Z6printfPKcz
	mov	rax, QWORD PTR _ZL6g_sink[rip]
	lea	rbp, 96[rsp]
	mov	r8d, 1000
	mov	rdx, rsi
	mov	rcx, rbp
	add	rax, rdi
	mov	QWORD PTR _ZL6g_sink[rip], rax
	call	_Z17probe_virtual_hotPKP1APKii
	mov	rdx, rax
	mov	rax, QWORD PTR _ZL6g_sink[rip]
	add	rax, rdx
	mov	QWORD PTR _ZL6g_sink[rip], rax
/APP
 # 12 "Examples/_ch25_variant_perf.cpp" 1
	rdtsc
 # 0 "" 2
/NO_APP
	sal	rdx, 32
	mov	eax, eax
	mov	r8d, 20000000
	mov	rdi, rdx
	mov	rcx, rbp
	mov	rdx, rsi
	or	rdi, rax
	call	_Z17probe_virtual_hotPKP1APKii
	mov	rsi, rax
/APP
 # 12 "Examples/_ch25_variant_perf.cpp" 1
	rdtsc
 # 0 "" 2
/NO_APP
	sal	rdx, 32
	mov	eax, eax
	or	rdx, rax
	sub	rdx, rdi
	js	.L46
	pxor	xmm2, xmm2
	cvtsi2sd	xmm2, rdx
.L47:
	mulsd	xmm2, xmm6
	mov	rcx, rbx
	lea	rdx, .LC11[rip]
	divsd	xmm2, xmm7
	movq	r8, xmm2
	call	_Z6printfPKcz
	mov	rax, QWORD PTR _ZL6g_sink[rip]
	lea	rcx, .LC12[rip]
	add	rax, rsi
	mov	QWORD PTR _ZL6g_sink[rip], rax
	mov	rdx, QWORD PTR _ZL6g_sink[rip]
	call	_Z6printfPKcz
.LEHE1:
	lea	rcx, 64[rsp]
	call	_ZNSt6vectorIiSaIiEED1Ev
	nop
	movaps	xmm6, XMMWORD PTR 2704[rsp]
	xor	eax, eax
	movaps	xmm7, XMMWORD PTR 2720[rsp]
	movaps	xmm8, XMMWORD PTR 2736[rsp]
	add	rsp, 2760
	pop	rbx
	pop	rsi
	pop	rdi
	pop	rbp
	ret
.L39:
	mov	rdx, rsi
	and	esi, 1
	pxor	xmm1, xmm1
	shr	rdx
	or	rdx, rsi
	cvtsi2sd	xmm1, rdx
	addsd	xmm1, xmm1
	jmp	.L40
.L46:
	mov	rax, rdx
	and	edx, 1
	pxor	xmm2, xmm2
	shr	rax
	or	rax, rdx
	cvtsi2sd	xmm2, rax
	addsd	xmm2, xmm2
	jmp	.L47
.L44:
	mov	rax, rdx
	and	edx, 1
	pxor	xmm0, xmm0
	shr	rax
	or	rax, rdx
	cvtsi2sd	xmm0, rax
	addsd	xmm0, xmm0
	jmp	.L45
.L50:
	lea	rcx, 64[rsp]
	mov	rbx, rax
	call	_ZNSt6vectorIiSaIiEED1Ev
	mov	rcx, rbx
.LEHB2:
	call	_Unwind_Resume
	nop
.LEHE2:
	.def	__gxx_personality_seh0;	.scl	2;	.type	32;	.endef
	.seh_handler	__gxx_personality_seh0, @unwind, @except
	.seh_handlerdata
.LLSDA7463:
	.byte	0xff
	.byte	0xff
	.byte	0x1
	.uleb128 .LLSDACSE7463-.LLSDACSB7463
.LLSDACSB7463:
	.uleb128 .LEHB0-.LFB7463
	.uleb128 .LEHE0-.LEHB0
	.uleb128 0
	.uleb128 0
	.uleb128 .LEHB1-.LFB7463
	.uleb128 .LEHE1-.LEHB1
	.uleb128 .L50-.LFB7463
	.uleb128 0
	.uleb128 .LEHB2-.LFB7463
	.uleb128 .LEHE2-.LEHB2
	.uleb128 0
	.uleb128 0
.LLSDACSE7463:
	.section	.text.startup,"x"
	.seh_endproc
	.globl	_ZTS1A
	.section	.rdata$_ZTS1A,"dr"
	.linkonce same_size
_ZTS1A:
	.ascii "1A\0"
	.globl	_ZTI1A
	.section	.rdata$_ZTI1A,"dr"
	.linkonce same_size
	.align 8
_ZTI1A:
	.quad	_ZTVN10__cxxabiv117__class_type_infoE+16
	.quad	_ZTS1A
	.globl	_ZTS1B
	.section	.rdata$_ZTS1B,"dr"
	.linkonce same_size
_ZTS1B:
	.ascii "1B\0"
	.globl	_ZTI1B
	.section	.rdata$_ZTI1B,"dr"
	.linkonce same_size
	.align 8
_ZTI1B:
	.quad	_ZTVN10__cxxabiv120__si_class_type_infoE+16
	.quad	_ZTS1B
	.quad	_ZTI1A
	.globl	_ZTS1C
	.section	.rdata$_ZTS1C,"dr"
	.linkonce same_size
_ZTS1C:
	.ascii "1C\0"
	.globl	_ZTI1C
	.section	.rdata$_ZTI1C,"dr"
	.linkonce same_size
	.align 8
_ZTI1C:
	.quad	_ZTVN10__cxxabiv120__si_class_type_infoE+16
	.quad	_ZTS1C
	.quad	_ZTI1A
	.globl	_ZTS1D
	.section	.rdata$_ZTS1D,"dr"
	.linkonce same_size
_ZTS1D:
	.ascii "1D\0"
	.globl	_ZTI1D
	.section	.rdata$_ZTI1D,"dr"
	.linkonce same_size
	.align 8
_ZTI1D:
	.quad	_ZTVN10__cxxabiv120__si_class_type_infoE+16
	.quad	_ZTS1D
	.quad	_ZTI1A
	.globl	_ZTV1A
	.section	.rdata$_ZTV1A,"dr"
	.linkonce same_size
	.align 8
_ZTV1A:
	.quad	0
	.quad	_ZTI1A
	.quad	_ZN1A1fEv
	.quad	_ZN1AD1Ev
	.quad	_ZN1AD0Ev
	.globl	_ZTV1B
	.section	.rdata$_ZTV1B,"dr"
	.linkonce same_size
	.align 8
_ZTV1B:
	.quad	0
	.quad	_ZTI1B
	.quad	_ZN1B1fEv
	.quad	_ZN1BD1Ev
	.quad	_ZN1BD0Ev
	.globl	_ZTV1C
	.section	.rdata$_ZTV1C,"dr"
	.linkonce same_size
	.align 8
_ZTV1C:
	.quad	0
	.quad	_ZTI1C
	.quad	_ZN1C1fEv
	.quad	_ZN1CD1Ev
	.quad	_ZN1CD0Ev
	.globl	_ZTV1D
	.section	.rdata$_ZTV1D,"dr"
	.linkonce same_size
	.align 8
_ZTV1D:
	.quad	0
	.quad	_ZTI1D
	.quad	_ZN1D1fEv
	.quad	_ZN1DD1Ev
	.quad	_ZN1DD0Ev
.lcomm _ZL6g_sink,8,8
	.section .rdata,"dr"
	.align 16
.LC0:
	.long	-2147483648
	.long	-2147483648
	.long	-2147483648
	.long	-2147483648
	.align 16
.LC1:
	.long	2147483647
	.long	2147483647
	.long	2147483647
	.long	2147483647
	.align 16
.LC2:
	.long	1
	.long	1
	.long	1
	.long	1
	.align 16
.LC3:
	.long	-1727483681
	.long	-1727483681
	.long	-1727483681
	.long	-1727483681
	.align 8
.LC4:
	.long	0
	.long	1104006501
	.align 8
.LC5:
	.long	0
	.long	1072693248
	.align 8
.LC7:
	.long	0
	.long	1074266112
	.align 8
.LC8:
	.long	0
	.long	1098060496
	.ident	"GCC: (x86_64-posix-seh-rev1, Built by MinGW-Builds project) 13.1.0"
	.def	_ZdlPvy;	.scl	2;	.type	32;	.endef
	.def	__mingw_vfprintf;	.scl	2;	.type	32;	.endef
	.def	_ZNSt6chrono3_V212steady_clock3nowEv;	.scl	2;	.type	32;	.endef
	.def	_Znwy;	.scl	2;	.type	32;	.endef
	.def	memset;	.scl	2;	.type	32;	.endef
	.def	_Unwind_Resume;	.scl	2;	.type	32;	.endef
