	.file	"_ch41_ptr_perf.cpp"
	.intel_syntax noprefix
	.text
	.section	.text$_ZNSt15_Sp_counted_ptrIPiLN9__gnu_cxx12_Lock_policyE2EED1Ev,"x"
	.linkonce discard
	.align 2
	.p2align 4
	.globl	_ZNSt15_Sp_counted_ptrIPiLN9__gnu_cxx12_Lock_policyE2EED1Ev
	.def	_ZNSt15_Sp_counted_ptrIPiLN9__gnu_cxx12_Lock_policyE2EED1Ev;	.scl	2;	.type	32;	.endef
	.seh_proc	_ZNSt15_Sp_counted_ptrIPiLN9__gnu_cxx12_Lock_policyE2EED1Ev
_ZNSt15_Sp_counted_ptrIPiLN9__gnu_cxx12_Lock_policyE2EED1Ev:
.LFB7429:
	.seh_endprologue
	ret
	.seh_endproc
	.section	.text$_ZNSt15_Sp_counted_ptrIPiLN9__gnu_cxx12_Lock_policyE2EE14_M_get_deleterERKSt9type_info,"x"
	.linkonce discard
	.align 2
	.p2align 4
	.globl	_ZNSt15_Sp_counted_ptrIPiLN9__gnu_cxx12_Lock_policyE2EE14_M_get_deleterERKSt9type_info
	.def	_ZNSt15_Sp_counted_ptrIPiLN9__gnu_cxx12_Lock_policyE2EE14_M_get_deleterERKSt9type_info;	.scl	2;	.type	32;	.endef
	.seh_proc	_ZNSt15_Sp_counted_ptrIPiLN9__gnu_cxx12_Lock_policyE2EE14_M_get_deleterERKSt9type_info
_ZNSt15_Sp_counted_ptrIPiLN9__gnu_cxx12_Lock_policyE2EE14_M_get_deleterERKSt9type_info:
.LFB7433:
	.seh_endprologue
	xor	eax, eax
	ret
	.seh_endproc
	.section	.text$_ZNSt23_Sp_counted_ptr_inplaceIiSaIvELN9__gnu_cxx12_Lock_policyE2EED1Ev,"x"
	.linkonce discard
	.align 2
	.p2align 4
	.globl	_ZNSt23_Sp_counted_ptr_inplaceIiSaIvELN9__gnu_cxx12_Lock_policyE2EED1Ev
	.def	_ZNSt23_Sp_counted_ptr_inplaceIiSaIvELN9__gnu_cxx12_Lock_policyE2EED1Ev;	.scl	2;	.type	32;	.endef
	.seh_proc	_ZNSt23_Sp_counted_ptr_inplaceIiSaIvELN9__gnu_cxx12_Lock_policyE2EED1Ev
_ZNSt23_Sp_counted_ptr_inplaceIiSaIvELN9__gnu_cxx12_Lock_policyE2EED1Ev:
.LFB7436:
	.seh_endprologue
	ret
	.seh_endproc
	.section	.text$_ZNSt23_Sp_counted_ptr_inplaceIiSaIvELN9__gnu_cxx12_Lock_policyE2EE10_M_disposeEv,"x"
	.linkonce discard
	.align 2
	.p2align 4
	.globl	_ZNSt23_Sp_counted_ptr_inplaceIiSaIvELN9__gnu_cxx12_Lock_policyE2EE10_M_disposeEv
	.def	_ZNSt23_Sp_counted_ptr_inplaceIiSaIvELN9__gnu_cxx12_Lock_policyE2EE10_M_disposeEv;	.scl	2;	.type	32;	.endef
	.seh_proc	_ZNSt23_Sp_counted_ptr_inplaceIiSaIvELN9__gnu_cxx12_Lock_policyE2EE10_M_disposeEv
_ZNSt23_Sp_counted_ptr_inplaceIiSaIvELN9__gnu_cxx12_Lock_policyE2EE10_M_disposeEv:
.LFB7438:
	.seh_endprologue
	ret
	.seh_endproc
	.section	.text$_ZNSt15_Sp_counted_ptrIPiLN9__gnu_cxx12_Lock_policyE2EE10_M_disposeEv,"x"
	.linkonce discard
	.align 2
	.p2align 4
	.globl	_ZNSt15_Sp_counted_ptrIPiLN9__gnu_cxx12_Lock_policyE2EE10_M_disposeEv
	.def	_ZNSt15_Sp_counted_ptrIPiLN9__gnu_cxx12_Lock_policyE2EE10_M_disposeEv;	.scl	2;	.type	32;	.endef
	.seh_proc	_ZNSt15_Sp_counted_ptrIPiLN9__gnu_cxx12_Lock_policyE2EE10_M_disposeEv
_ZNSt15_Sp_counted_ptrIPiLN9__gnu_cxx12_Lock_policyE2EE10_M_disposeEv:
.LFB7431:
	.seh_endprologue
	mov	rcx, QWORD PTR 16[rcx]
	test	rcx, rcx
	je	.L6
	mov	edx, 4
	jmp	_ZdlPvy
	.p2align 4,,10
	.p2align 3
.L6:
	ret
	.seh_endproc
	.section	.text$_ZNSt15_Sp_counted_ptrIPiLN9__gnu_cxx12_Lock_policyE2EED0Ev,"x"
	.linkonce discard
	.align 2
	.p2align 4
	.globl	_ZNSt15_Sp_counted_ptrIPiLN9__gnu_cxx12_Lock_policyE2EED0Ev
	.def	_ZNSt15_Sp_counted_ptrIPiLN9__gnu_cxx12_Lock_policyE2EED0Ev;	.scl	2;	.type	32;	.endef
	.seh_proc	_ZNSt15_Sp_counted_ptrIPiLN9__gnu_cxx12_Lock_policyE2EED0Ev
_ZNSt15_Sp_counted_ptrIPiLN9__gnu_cxx12_Lock_policyE2EED0Ev:
.LFB7430:
	.seh_endprologue
	mov	edx, 24
	jmp	_ZdlPvy
	.seh_endproc
	.section	.text$_ZNSt15_Sp_counted_ptrIPiLN9__gnu_cxx12_Lock_policyE2EE10_M_destroyEv,"x"
	.linkonce discard
	.align 2
	.p2align 4
	.globl	_ZNSt15_Sp_counted_ptrIPiLN9__gnu_cxx12_Lock_policyE2EE10_M_destroyEv
	.def	_ZNSt15_Sp_counted_ptrIPiLN9__gnu_cxx12_Lock_policyE2EE10_M_destroyEv;	.scl	2;	.type	32;	.endef
	.seh_proc	_ZNSt15_Sp_counted_ptrIPiLN9__gnu_cxx12_Lock_policyE2EE10_M_destroyEv
_ZNSt15_Sp_counted_ptrIPiLN9__gnu_cxx12_Lock_policyE2EE10_M_destroyEv:
.LFB7432:
	.seh_endprologue
	mov	edx, 24
	jmp	_ZdlPvy
	.seh_endproc
	.section	.text$_ZNSt23_Sp_counted_ptr_inplaceIiSaIvELN9__gnu_cxx12_Lock_policyE2EED0Ev,"x"
	.linkonce discard
	.align 2
	.p2align 4
	.globl	_ZNSt23_Sp_counted_ptr_inplaceIiSaIvELN9__gnu_cxx12_Lock_policyE2EED0Ev
	.def	_ZNSt23_Sp_counted_ptr_inplaceIiSaIvELN9__gnu_cxx12_Lock_policyE2EED0Ev;	.scl	2;	.type	32;	.endef
	.seh_proc	_ZNSt23_Sp_counted_ptr_inplaceIiSaIvELN9__gnu_cxx12_Lock_policyE2EED0Ev
_ZNSt23_Sp_counted_ptr_inplaceIiSaIvELN9__gnu_cxx12_Lock_policyE2EED0Ev:
.LFB7437:
	.seh_endprologue
	mov	edx, 24
	jmp	_ZdlPvy
	.seh_endproc
	.section	.text$_ZNSt23_Sp_counted_ptr_inplaceIiSaIvELN9__gnu_cxx12_Lock_policyE2EE14_M_get_deleterERKSt9type_info,"x"
	.linkonce discard
	.align 2
	.p2align 4
	.globl	_ZNSt23_Sp_counted_ptr_inplaceIiSaIvELN9__gnu_cxx12_Lock_policyE2EE14_M_get_deleterERKSt9type_info
	.def	_ZNSt23_Sp_counted_ptr_inplaceIiSaIvELN9__gnu_cxx12_Lock_policyE2EE14_M_get_deleterERKSt9type_info;	.scl	2;	.type	32;	.endef
	.seh_proc	_ZNSt23_Sp_counted_ptr_inplaceIiSaIvELN9__gnu_cxx12_Lock_policyE2EE14_M_get_deleterERKSt9type_info
_ZNSt23_Sp_counted_ptr_inplaceIiSaIvELN9__gnu_cxx12_Lock_policyE2EE14_M_get_deleterERKSt9type_info:
.LFB7440:
	push	rbx
	.seh_pushreg	rbx
	sub	rsp, 32
	.seh_stackalloc	32
	.seh_endprologue
	lea	rax, _ZZNSt19_Sp_make_shared_tag5_S_tiEvE5__tag[rip]
	mov	rbx, rcx
	mov	rcx, rdx
	add	rbx, 16
	cmp	rdx, rax
	je	.L11
	lea	rax, _ZTSSt19_Sp_make_shared_tag[rip]
	cmp	QWORD PTR 8[rdx], rax
	je	.L11
	lea	rdx, _ZTISt19_Sp_make_shared_tag[rip]
	call	_ZNKSt9type_info7__equalERKS_
	test	al, al
	mov	eax, 0
	cmove	rbx, rax
.L11:
	mov	rax, rbx
	add	rsp, 32
	pop	rbx
	ret
	.seh_endproc
	.section	.text$_ZNSt23_Sp_counted_ptr_inplaceIiSaIvELN9__gnu_cxx12_Lock_policyE2EE10_M_destroyEv,"x"
	.linkonce discard
	.align 2
	.p2align 4
	.globl	_ZNSt23_Sp_counted_ptr_inplaceIiSaIvELN9__gnu_cxx12_Lock_policyE2EE10_M_destroyEv
	.def	_ZNSt23_Sp_counted_ptr_inplaceIiSaIvELN9__gnu_cxx12_Lock_policyE2EE10_M_destroyEv;	.scl	2;	.type	32;	.endef
	.seh_proc	_ZNSt23_Sp_counted_ptr_inplaceIiSaIvELN9__gnu_cxx12_Lock_policyE2EE10_M_destroyEv
_ZNSt23_Sp_counted_ptr_inplaceIiSaIvELN9__gnu_cxx12_Lock_policyE2EE10_M_destroyEv:
.LFB7439:
	.seh_endprologue
	mov	edx, 24
	jmp	_ZdlPvy
	.seh_endproc
	.section	.text$_Z6printfPKcz,"x"
	.linkonce discard
	.p2align 4
	.globl	_Z6printfPKcz
	.def	_Z6printfPKcz;	.scl	2;	.type	32;	.endef
	.seh_proc	_Z6printfPKcz
_Z6printfPKcz:
.LFB11:
	push	rsi
	.seh_pushreg	rsi
	push	rbx
	.seh_pushreg	rbx
	sub	rsp, 56
	.seh_stackalloc	56
	.seh_endprologue
	lea	rsi, 88[rsp]
	mov	rbx, rcx
	mov	QWORD PTR 88[rsp], rdx
	mov	ecx, 1
	mov	QWORD PTR 96[rsp], r8
	mov	QWORD PTR 104[rsp], r9
	mov	QWORD PTR 40[rsp], rsi
	call	[QWORD PTR __imp___acrt_iob_func[rip]]
	mov	r8, rsi
	mov	rdx, rbx
	mov	rcx, rax
	call	__mingw_vfprintf
	add	rsp, 56
	pop	rbx
	pop	rsi
	ret
	.seh_endproc
	.text
	.p2align 4
	.globl	_Z18probe_unique_derefRKSt10unique_ptrIiSt14default_deleteIiEEi
	.def	_Z18probe_unique_derefRKSt10unique_ptrIiSt14default_deleteIiEEi;	.scl	2;	.type	32;	.endef
	.seh_proc	_Z18probe_unique_derefRKSt10unique_ptrIiSt14default_deleteIiEEi
_Z18probe_unique_derefRKSt10unique_ptrIiSt14default_deleteIiEEi:
.LFB6024:
	.seh_endprologue
	test	edx, edx
	jle	.L20
	mov	rax, QWORD PTR [rcx]
	movsx	rdx, edx
	xor	ecx, ecx
	movsx	rax, DWORD PTR [rax]
	lea	r8, [rdx+rax]
	and	edx, 1
	je	.L19
	mov	rcx, rax
	add	rax, 1
	cmp	rax, r8
	je	.L17
	.p2align 4,,10
	.p2align 3
.L19:
	lea	rcx, 1[rcx+rax*2]
	add	rax, 2
	cmp	rax, r8
	jne	.L19
.L17:
	mov	rax, rcx
	ret
	.p2align 4,,10
	.p2align 3
.L20:
	xor	ecx, ecx
	mov	rax, rcx
	ret
	.seh_endproc
	.p2align 4
	.globl	_Z20probe_raw_new_deletei
	.def	_Z20probe_raw_new_deletei;	.scl	2;	.type	32;	.endef
	.seh_proc	_Z20probe_raw_new_deletei
_Z20probe_raw_new_deletei:
.LFB6049:
	push	rdi
	.seh_pushreg	rdi
	push	rsi
	.seh_pushreg	rsi
	push	rbx
	.seh_pushreg	rbx
	sub	rsp, 32
	.seh_stackalloc	32
	.seh_endprologue
	test	ecx, ecx
	mov	edi, ecx
	jle	.L30
	xor	ebx, ebx
	xor	esi, esi
	.p2align 4,,10
	.p2align 3
.L29:
	mov	ecx, 4
	add	ebx, 1
	call	_Znwy
	mov	edx, 4
	mov	rcx, rax
	add	rsi, rax
	call	_ZdlPvy
	cmp	edi, ebx
	jne	.L29
	mov	rax, rsi
	add	rsp, 32
	pop	rbx
	pop	rsi
	pop	rdi
	ret
	.p2align 4,,10
	.p2align 3
.L30:
	xor	esi, esi
	mov	rax, rsi
	add	rsp, 32
	pop	rbx
	pop	rsi
	pop	rdi
	ret
	.seh_endproc
	.section	.text$_ZNSt16_Sp_counted_baseILN9__gnu_cxx12_Lock_policyE2EE24_M_release_last_use_coldEv,"x"
	.linkonce discard
	.align 2
	.p2align 4
	.globl	_ZNSt16_Sp_counted_baseILN9__gnu_cxx12_Lock_policyE2EE24_M_release_last_use_coldEv
	.def	_ZNSt16_Sp_counted_baseILN9__gnu_cxx12_Lock_policyE2EE24_M_release_last_use_coldEv;	.scl	2;	.type	32;	.endef
	.seh_proc	_ZNSt16_Sp_counted_baseILN9__gnu_cxx12_Lock_policyE2EE24_M_release_last_use_coldEv
_ZNSt16_Sp_counted_baseILN9__gnu_cxx12_Lock_policyE2EE24_M_release_last_use_coldEv:
.LFB6374:
	push	rbx
	.seh_pushreg	rbx
	sub	rsp, 32
	.seh_stackalloc	32
	.seh_endprologue
	mov	rax, QWORD PTR [rcx]
	mov	rbx, rcx
	call	[QWORD PTR 16[rax]]
	lock sub	DWORD PTR 12[rbx], 1
	jne	.L32
	mov	rax, QWORD PTR [rbx]
	mov	rcx, rbx
	mov	rax, QWORD PTR 24[rax]
	add	rsp, 32
	pop	rbx
	rex.W jmp	rax
	.p2align 4,,10
	.p2align 3
.L32:
	add	rsp, 32
	pop	rbx
	ret
	.seh_endproc
	.section	.text$_ZNSt16_Sp_counted_baseILN9__gnu_cxx12_Lock_policyE2EE10_M_releaseEv,"x"
	.linkonce discard
	.align 2
	.p2align 4
	.globl	_ZNSt16_Sp_counted_baseILN9__gnu_cxx12_Lock_policyE2EE10_M_releaseEv
	.def	_ZNSt16_Sp_counted_baseILN9__gnu_cxx12_Lock_policyE2EE10_M_releaseEv;	.scl	2;	.type	32;	.endef
	.seh_proc	_ZNSt16_Sp_counted_baseILN9__gnu_cxx12_Lock_policyE2EE10_M_releaseEv
_ZNSt16_Sp_counted_baseILN9__gnu_cxx12_Lock_policyE2EE10_M_releaseEv:
.LFB3802:
	push	rbx
	.seh_pushreg	rbx
	sub	rsp, 32
	.seh_stackalloc	32
	.seh_endprologue
	movabs	rdx, 4294967297
	lea	rax, 8[rcx]
	mov	rbx, rcx
	mov	rcx, QWORD PTR 8[rcx]
	cmp	rcx, rdx
	je	.L37
	lock sub	DWORD PTR [rax], 1
	je	.L38
	add	rsp, 32
	pop	rbx
	ret
	.p2align 4,,10
	.p2align 3
.L37:
	mov	rax, QWORD PTR [rbx]
	mov	rcx, rbx
	mov	QWORD PTR 8[rbx], 0
	call	[QWORD PTR 16[rax]]
	mov	rax, QWORD PTR [rbx]
	mov	rcx, rbx
	mov	rax, QWORD PTR 24[rax]
	add	rsp, 32
	pop	rbx
	rex.W jmp	rax
	.p2align 4,,10
	.p2align 3
.L38:
	mov	rcx, rbx
	add	rsp, 32
	pop	rbx
	jmp	_ZNSt16_Sp_counted_baseILN9__gnu_cxx12_Lock_policyE2EE24_M_release_last_use_coldEv
	.seh_endproc
	.text
	.p2align 4
	.globl	_Z17probe_shared_copyRKSt10shared_ptrIiEi
	.def	_Z17probe_shared_copyRKSt10shared_ptrIiEi;	.scl	2;	.type	32;	.endef
	.seh_proc	_Z17probe_shared_copyRKSt10shared_ptrIiEi
_Z17probe_shared_copyRKSt10shared_ptrIiEi:
.LFB6033:
	push	r14
	.seh_pushreg	r14
	push	r13
	.seh_pushreg	r13
	push	r12
	.seh_pushreg	r12
	push	rbp
	.seh_pushreg	rbp
	push	rdi
	.seh_pushreg	rdi
	push	rsi
	.seh_pushreg	rsi
	push	rbx
	.seh_pushreg	rbx
	sub	rsp, 32
	.seh_stackalloc	32
	.seh_endprologue
	test	edx, edx
	mov	r12, rcx
	mov	edi, edx
	jle	.L46
	movabs	r14, 4294967297
	xor	esi, esi
	xor	r13d, r13d
	jmp	.L45
	.p2align 4,,10
	.p2align 3
.L42:
	lock sub	DWORD PTR [rax], 1
	je	.L44
.L43:
	add	r13, rbp
.L41:
	add	esi, 1
	cmp	edi, esi
	je	.L39
.L45:
	mov	rbx, QWORD PTR 8[r12]
	test	rbx, rbx
	je	.L41
	lea	rax, 8[rbx]
	lock add	DWORD PTR 8[rbx], 1
	movsx	rbp, DWORD PTR 8[rbx]
	mov	rdx, QWORD PTR 8[rbx]
	cmp	rdx, r14
	jne	.L42
	mov	rax, QWORD PTR [rbx]
	mov	rcx, rbx
	mov	QWORD PTR 8[rbx], 0
	call	[QWORD PTR 16[rax]]
	mov	rax, QWORD PTR [rbx]
	mov	rcx, rbx
	call	[QWORD PTR 24[rax]]
	jmp	.L43
	.p2align 4,,10
	.p2align 3
.L46:
	xor	r13d, r13d
.L39:
	mov	rax, r13
	add	rsp, 32
	pop	rbx
	pop	rsi
	pop	rdi
	pop	rbp
	pop	r12
	pop	r13
	pop	r14
	ret
	.p2align 4,,10
	.p2align 3
.L44:
	mov	rcx, rbx
	call	_ZNSt16_Sp_counted_baseILN9__gnu_cxx12_Lock_policyE2EE24_M_release_last_use_coldEv
	jmp	.L43
	.seh_endproc
	.p2align 4
	.globl	_Z17probe_make_sharedi
	.def	_Z17probe_make_sharedi;	.scl	2;	.type	32;	.endef
	.seh_proc	_Z17probe_make_sharedi
_Z17probe_make_sharedi:
.LFB6046:
	push	r14
	.seh_pushreg	r14
	push	r13
	.seh_pushreg	r13
	push	r12
	.seh_pushreg	r12
	push	rbp
	.seh_pushreg	rbp
	push	rdi
	.seh_pushreg	rdi
	push	rsi
	.seh_pushreg	rsi
	push	rbx
	.seh_pushreg	rbx
	sub	rsp, 32
	.seh_stackalloc	32
	.seh_endprologue
	test	ecx, ecx
	mov	ebp, ecx
	jle	.L56
	mov	r14, QWORD PTR .LC0[rip]
	xor	esi, esi
	xor	edi, edi
	movabs	r12, 4294967297
	lea	r13, _ZTVSt23_Sp_counted_ptr_inplaceIiSaIvELN9__gnu_cxx12_Lock_policyE2EE[rip+16]
	jmp	.L55
	.p2align 4,,10
	.p2align 3
.L53:
	lock sub	DWORD PTR [rdx], 1
	je	.L61
.L54:
	add	esi, 1
	cmp	esi, ebp
	je	.L51
.L55:
	mov	ecx, 24
	call	_Znwy
	mov	QWORD PTR 8[rax], r14
	lea	rdx, 8[rax]
	mov	rbx, rax
	mov	QWORD PTR [rax], r13
	lea	rdi, 16[rax+rdi]
	mov	DWORD PTR 16[rax], esi
	mov	rax, QWORD PTR 8[rax]
	cmp	rax, r12
	jne	.L53
	mov	rax, QWORD PTR [rbx]
	mov	rcx, rbx
	mov	QWORD PTR 8[rbx], 0
	add	esi, 1
	call	[QWORD PTR 16[rax]]
	mov	rax, QWORD PTR [rbx]
	mov	rcx, rbx
	call	[QWORD PTR 24[rax]]
	cmp	esi, ebp
	jne	.L55
.L51:
	mov	rax, rdi
	add	rsp, 32
	pop	rbx
	pop	rsi
	pop	rdi
	pop	rbp
	pop	r12
	pop	r13
	pop	r14
	ret
	.p2align 4,,10
	.p2align 3
.L61:
	mov	rcx, rbx
	call	_ZNSt16_Sp_counted_baseILN9__gnu_cxx12_Lock_policyE2EE24_M_release_last_use_coldEv
	jmp	.L54
	.p2align 4,,10
	.p2align 3
.L56:
	xor	edi, edi
	jmp	.L51
	.seh_endproc
	.p2align 4
	.globl	_Z21probe_shared_from_newi
	.def	_Z21probe_shared_from_newi;	.scl	2;	.type	32;	.endef
	.seh_proc	_Z21probe_shared_from_newi
_Z21probe_shared_from_newi:
.LFB6047:
	push	r15
	.seh_pushreg	r15
	push	r14
	.seh_pushreg	r14
	push	r13
	.seh_pushreg	r13
	push	r12
	.seh_pushreg	r12
	push	rbp
	.seh_pushreg	rbp
	push	rdi
	.seh_pushreg	rdi
	push	rsi
	.seh_pushreg	rsi
	push	rbx
	.seh_pushreg	rbx
	sub	rsp, 40
	.seh_stackalloc	40
	.seh_endprologue
	test	ecx, ecx
	mov	r12d, ecx
	jle	.L70
	mov	r15, QWORD PTR .LC0[rip]
	xor	edi, edi
	xor	ebp, ebp
	movabs	r13, 4294967297
	lea	r14, _ZTVSt15_Sp_counted_ptrIPiLN9__gnu_cxx12_Lock_policyE2EE[rip+16]
	jmp	.L69
	.p2align 4,,10
	.p2align 3
.L77:
	lock sub	DWORD PTR [rax], 1
	je	.L78
.L68:
	add	edi, 1
	cmp	r12d, edi
	je	.L62
.L69:
	mov	ecx, 4
.LEHB0:
	call	_Znwy
.LEHE0:
	mov	ecx, 24
	mov	DWORD PTR [rax], edi
	mov	rsi, rax
.LEHB1:
	call	_Znwy
.LEHE1:
	mov	rbx, rax
	add	rbp, rsi
	mov	QWORD PTR 8[rbx], r15
	lea	rax, 8[rax]
	mov	QWORD PTR [rbx], r14
	mov	QWORD PTR 16[rbx], rsi
	mov	rdx, QWORD PTR 8[rbx]
	cmp	rdx, r13
	jne	.L77
	mov	rax, QWORD PTR [rbx]
	mov	rcx, rbx
	mov	QWORD PTR 8[rbx], 0
	add	edi, 1
	call	[QWORD PTR 16[rax]]
	mov	rax, QWORD PTR [rbx]
	mov	rcx, rbx
	call	[QWORD PTR 24[rax]]
	cmp	r12d, edi
	jne	.L69
.L62:
	mov	rax, rbp
	add	rsp, 40
	pop	rbx
	pop	rsi
	pop	rdi
	pop	rbp
	pop	r12
	pop	r13
	pop	r14
	pop	r15
	ret
	.p2align 4,,10
	.p2align 3
.L78:
	mov	rcx, rbx
	call	_ZNSt16_Sp_counted_baseILN9__gnu_cxx12_Lock_policyE2EE24_M_release_last_use_coldEv
	jmp	.L68
	.p2align 4,,10
	.p2align 3
.L70:
	xor	ebp, ebp
	jmp	.L62
.L72:
	mov	rcx, rax
	call	__cxa_begin_catch
	mov	edx, 4
	mov	rcx, rsi
	call	_ZdlPvy
.LEHB2:
	call	__cxa_rethrow
.LEHE2:
.L71:
	mov	rbx, rax
	call	__cxa_end_catch
	mov	rcx, rbx
.LEHB3:
	call	_Unwind_Resume
	nop
.LEHE3:
	.def	__gxx_personality_seh0;	.scl	2;	.type	32;	.endef
	.seh_handler	__gxx_personality_seh0, @unwind, @except
	.seh_handlerdata
	.align 4
.LLSDA6047:
	.byte	0xff
	.byte	0x9b
	.uleb128 .LLSDATT6047-.LLSDATTD6047
.LLSDATTD6047:
	.byte	0x1
	.uleb128 .LLSDACSE6047-.LLSDACSB6047
.LLSDACSB6047:
	.uleb128 .LEHB0-.LFB6047
	.uleb128 .LEHE0-.LEHB0
	.uleb128 0
	.uleb128 0
	.uleb128 .LEHB1-.LFB6047
	.uleb128 .LEHE1-.LEHB1
	.uleb128 .L72-.LFB6047
	.uleb128 0x1
	.uleb128 .LEHB2-.LFB6047
	.uleb128 .LEHE2-.LEHB2
	.uleb128 .L71-.LFB6047
	.uleb128 0
	.uleb128 .LEHB3-.LFB6047
	.uleb128 .LEHE3-.LEHB3
	.uleb128 0
	.uleb128 0
.LLSDACSE6047:
	.byte	0x1
	.byte	0
	.align 4
	.long	0

.LLSDATT6047:
	.text
	.seh_endproc
	.section	.text$_ZNSt10unique_ptrIiSt14default_deleteIiEED1Ev,"x"
	.linkonce discard
	.align 2
	.p2align 4
	.globl	_ZNSt10unique_ptrIiSt14default_deleteIiEED1Ev
	.def	_ZNSt10unique_ptrIiSt14default_deleteIiEED1Ev;	.scl	2;	.type	32;	.endef
	.seh_proc	_ZNSt10unique_ptrIiSt14default_deleteIiEED1Ev
_ZNSt10unique_ptrIiSt14default_deleteIiEED1Ev:
.LFB6547:
	.seh_endprologue
	mov	rcx, QWORD PTR [rcx]
	test	rcx, rcx
	je	.L79
	mov	edx, 4
	jmp	_ZdlPvy
	.p2align 4,,10
	.p2align 3
.L79:
	ret
	.seh_endproc
	.def	__main;	.scl	2;	.type	32;	.endef
	.section .rdata,"dr"
	.align 8
.LC3:
	.ascii "TSC_freq = %.3f GHz  (ns/cycle = %.4f)\12\0"
.LC5:
	.ascii "unique_deref\0"
.LC6:
	.ascii "%-22s : %8.3f ns/op\12\0"
.LC7:
	.ascii "shared_copy\0"
.LC8:
	.ascii "make_shared\0"
.LC9:
	.ascii "shared_from_new\0"
.LC10:
	.ascii "raw_new_delete\0"
.LC11:
	.ascii "sink=%llu\12\0"
	.section	.text.startup,"x"
	.p2align 4
	.globl	main
	.def	main;	.scl	2;	.type	32;	.endef
	.seh_proc	main
main:
.LFB6050:
	push	r12
	.seh_pushreg	r12
	push	rbp
	.seh_pushreg	rbp
	push	rdi
	.seh_pushreg	rdi
	push	rsi
	.seh_pushreg	rsi
	push	rbx
	.seh_pushreg	rbx
	sub	rsp, 96
	.seh_stackalloc	96
	movaps	XMMWORD PTR 64[rsp], xmm6
	.seh_savexmm	xmm6, 64
	movaps	XMMWORD PTR 80[rsp], xmm7
	.seh_savexmm	xmm7, 80
	.seh_endprologue
	call	__main
	call	_ZNSt6chrono3_V212steady_clock3nowEv
	mov	rbx, rax
/APP
 # 10 "Examples/_ch41_ptr_perf.cpp" 1
	rdtsc
 # 0 "" 2
/NO_APP
	sal	rdx, 32
	mov	eax, eax
	mov	rdi, rdx
	or	rdi, rax
	.p2align 4,,10
	.p2align 3
.L82:
	call	_ZNSt6chrono3_V212steady_clock3nowEv
	sub	rax, rbx
	cmp	rax, 99999999
	jle	.L82
/APP
 # 10 "Examples/_ch41_ptr_perf.cpp" 1
	rdtsc
 # 0 "" 2
/NO_APP
	mov	rsi, rdx
	mov	eax, eax
	sal	rsi, 32
	or	rsi, rax
	call	_ZNSt6chrono3_V212steady_clock3nowEv
	sub	rsi, rdi
	js	.L83
	pxor	xmm1, xmm1
	cvtsi2sd	xmm1, rsi
.L84:
	sub	rax, rbx
	pxor	xmm0, xmm0
	movsd	xmm2, QWORD PTR .LC1[rip]
	cvtsi2sd	xmm0, rax
	movsd	xmm6, QWORD PTR .LC2[rip]
	lea	rcx, .LC3[rip]
	divsd	xmm0, xmm2
	divsd	xmm1, xmm0
	divsd	xmm1, xmm2
	divsd	xmm6, xmm1
	movq	rdx, xmm1
	movapd	xmm2, xmm6
	movq	r8, xmm6
.LEHB4:
	call	_Z6printfPKcz
	mov	ecx, 4
	call	_Znwy
.LEHE4:
	mov	ecx, 4
	mov	DWORD PTR [rax], 7
	mov	QWORD PTR 40[rsp], rax
.LEHB5:
	call	_Znwy
.LEHE5:
	mov	DWORD PTR [rax], 7
	mov	ecx, 24
	mov	rsi, rax
	mov	QWORD PTR 48[rsp], rax
	mov	QWORD PTR 56[rsp], 0
.LEHB6:
	call	_Znwy
.LEHE6:
	lea	rbp, 40[rsp]
	mov	rbx, rax
	mov	rax, QWORD PTR .LC0[rip]
	mov	edx, 1000
	mov	QWORD PTR 16[rbx], rsi
	mov	rcx, rbp
	mov	QWORD PTR 56[rsp], rbx
	mov	QWORD PTR 8[rbx], rax
	lea	rax, _ZTVSt15_Sp_counted_ptrIPiLN9__gnu_cxx12_Lock_policyE2EE[rip+16]
	mov	QWORD PTR [rbx], rax
	call	_Z18probe_unique_derefRKSt10unique_ptrIiSt14default_deleteIiEEi
	mov	rdx, rax
	mov	rax, QWORD PTR _ZL6g_sink[rip]
	add	rax, rdx
	mov	QWORD PTR _ZL6g_sink[rip], rax
/APP
 # 10 "Examples/_ch41_ptr_perf.cpp" 1
	rdtsc
 # 0 "" 2
/NO_APP
	sal	rdx, 32
	mov	eax, eax
	mov	rcx, rbp
	or	rdx, rax
	mov	r9, rdx
	mov	edx, 1000000
	call	_Z18probe_unique_derefRKSt10unique_ptrIiSt14default_deleteIiEEi
	mov	rsi, rax
/APP
 # 10 "Examples/_ch41_ptr_perf.cpp" 1
	rdtsc
 # 0 "" 2
/NO_APP
	sal	rdx, 32
	mov	eax, eax
	or	rdx, rax
	sub	rdx, r9
	js	.L85
	pxor	xmm0, xmm0
	cvtsi2sd	xmm0, rdx
.L86:
	mulsd	xmm0, xmm6
	movsd	xmm7, QWORD PTR .LC4[rip]
	lea	rdi, .LC6[rip]
	lea	rdx, .LC5[rip]
	mov	rcx, rdi
	divsd	xmm0, xmm7
	movq	r8, xmm0
	movapd	xmm2, xmm0
.LEHB7:
	call	_Z6printfPKcz
	mov	rax, QWORD PTR _ZL6g_sink[rip]
	lea	r12, 48[rsp]
	mov	edx, 1000
	mov	rcx, r12
	add	rax, rsi
	mov	QWORD PTR _ZL6g_sink[rip], rax
	call	_Z17probe_shared_copyRKSt10shared_ptrIiEi
	mov	rdx, rax
	mov	rax, QWORD PTR _ZL6g_sink[rip]
	add	rax, rdx
	mov	QWORD PTR _ZL6g_sink[rip], rax
/APP
 # 10 "Examples/_ch41_ptr_perf.cpp" 1
	rdtsc
 # 0 "" 2
/NO_APP
	sal	rdx, 32
	mov	rcx, r12
	mov	eax, eax
	mov	rsi, rdx
	mov	edx, 1000000
	or	rsi, rax
	call	_Z17probe_shared_copyRKSt10shared_ptrIiEi
	mov	r12, rax
/APP
 # 10 "Examples/_ch41_ptr_perf.cpp" 1
	rdtsc
 # 0 "" 2
/NO_APP
	sal	rdx, 32
	mov	eax, eax
	or	rdx, rax
	sub	rdx, rsi
	js	.L91
	pxor	xmm0, xmm0
	cvtsi2sd	xmm0, rdx
.L92:
	mulsd	xmm0, xmm6
	mov	rcx, rdi
	lea	rdx, .LC7[rip]
	divsd	xmm0, xmm7
	movq	r8, xmm0
	movapd	xmm2, xmm0
	call	_Z6printfPKcz
	mov	rax, QWORD PTR _ZL6g_sink[rip]
	mov	ecx, 1000
	add	rax, r12
	mov	QWORD PTR _ZL6g_sink[rip], rax
	call	_Z17probe_make_sharedi
	mov	rdx, rax
	mov	rax, QWORD PTR _ZL6g_sink[rip]
	add	rax, rdx
	mov	QWORD PTR _ZL6g_sink[rip], rax
/APP
 # 10 "Examples/_ch41_ptr_perf.cpp" 1
	rdtsc
 # 0 "" 2
/NO_APP
	sal	rdx, 32
	mov	eax, eax
	mov	ecx, 1000000
	mov	rsi, rdx
	or	rsi, rax
	call	_Z17probe_make_sharedi
	mov	r12, rax
/APP
 # 10 "Examples/_ch41_ptr_perf.cpp" 1
	rdtsc
 # 0 "" 2
/NO_APP
	sal	rdx, 32
	mov	eax, eax
	or	rdx, rax
	sub	rdx, rsi
	js	.L93
	pxor	xmm0, xmm0
	cvtsi2sd	xmm0, rdx
.L94:
	mulsd	xmm0, xmm6
	mov	rcx, rdi
	lea	rdx, .LC8[rip]
	divsd	xmm0, xmm7
	movq	r8, xmm0
	movapd	xmm2, xmm0
	call	_Z6printfPKcz
	mov	rax, QWORD PTR _ZL6g_sink[rip]
	mov	ecx, 1000
	add	rax, r12
	mov	QWORD PTR _ZL6g_sink[rip], rax
	call	_Z21probe_shared_from_newi
	mov	rdx, rax
	mov	rax, QWORD PTR _ZL6g_sink[rip]
	add	rax, rdx
	mov	QWORD PTR _ZL6g_sink[rip], rax
/APP
 # 10 "Examples/_ch41_ptr_perf.cpp" 1
	rdtsc
 # 0 "" 2
/NO_APP
	sal	rdx, 32
	mov	eax, eax
	mov	ecx, 1000000
	mov	rsi, rdx
	or	rsi, rax
	call	_Z21probe_shared_from_newi
	mov	r12, rax
/APP
 # 10 "Examples/_ch41_ptr_perf.cpp" 1
	rdtsc
 # 0 "" 2
/NO_APP
	sal	rdx, 32
	mov	eax, eax
	or	rdx, rax
	sub	rdx, rsi
	js	.L95
	pxor	xmm0, xmm0
	cvtsi2sd	xmm0, rdx
.L96:
	mulsd	xmm0, xmm6
	mov	rcx, rdi
	lea	rdx, .LC9[rip]
	divsd	xmm0, xmm7
	movq	r8, xmm0
	movapd	xmm2, xmm0
	call	_Z6printfPKcz
	mov	rax, QWORD PTR _ZL6g_sink[rip]
	mov	ecx, 1000
	add	rax, r12
	mov	QWORD PTR _ZL6g_sink[rip], rax
	call	_Z20probe_raw_new_deletei
	mov	rdx, rax
	mov	rax, QWORD PTR _ZL6g_sink[rip]
	add	rax, rdx
	mov	QWORD PTR _ZL6g_sink[rip], rax
/APP
 # 10 "Examples/_ch41_ptr_perf.cpp" 1
	rdtsc
 # 0 "" 2
/NO_APP
	sal	rdx, 32
	mov	eax, eax
	mov	ecx, 1000000
	mov	rsi, rdx
	or	rsi, rax
	call	_Z20probe_raw_new_deletei
	mov	r12, rax
/APP
 # 10 "Examples/_ch41_ptr_perf.cpp" 1
	rdtsc
 # 0 "" 2
/NO_APP
	sal	rdx, 32
	mov	eax, eax
	or	rdx, rax
	sub	rdx, rsi
	js	.L97
	pxor	xmm2, xmm2
	cvtsi2sd	xmm2, rdx
.L98:
	mulsd	xmm2, xmm6
	mov	rcx, rdi
	lea	rdx, .LC10[rip]
	divsd	xmm2, xmm7
	movq	r8, xmm2
	call	_Z6printfPKcz
	mov	rax, QWORD PTR _ZL6g_sink[rip]
	lea	rcx, .LC11[rip]
	add	rax, r12
	mov	QWORD PTR _ZL6g_sink[rip], rax
	mov	rdx, QWORD PTR _ZL6g_sink[rip]
	call	_Z6printfPKcz
.LEHE7:
	mov	rcx, rbx
	call	_ZNSt16_Sp_counted_baseILN9__gnu_cxx12_Lock_policyE2EE10_M_releaseEv
	mov	rcx, rbp
	call	_ZNSt10unique_ptrIiSt14default_deleteIiEED1Ev
	nop
	movaps	xmm6, XMMWORD PTR 64[rsp]
	xor	eax, eax
	movaps	xmm7, XMMWORD PTR 80[rsp]
	add	rsp, 96
	pop	rbx
	pop	rsi
	pop	rdi
	pop	rbp
	pop	r12
	ret
.L83:
	mov	rdx, rsi
	and	esi, 1
	pxor	xmm1, xmm1
	shr	rdx
	or	rdx, rsi
	cvtsi2sd	xmm1, rdx
	addsd	xmm1, xmm1
	jmp	.L84
.L97:
	mov	rax, rdx
	and	edx, 1
	pxor	xmm2, xmm2
	shr	rax
	or	rax, rdx
	cvtsi2sd	xmm2, rax
	addsd	xmm2, xmm2
	jmp	.L98
.L95:
	mov	rax, rdx
	and	edx, 1
	pxor	xmm0, xmm0
	shr	rax
	or	rax, rdx
	cvtsi2sd	xmm0, rax
	addsd	xmm0, xmm0
	jmp	.L96
.L93:
	mov	rax, rdx
	and	edx, 1
	pxor	xmm0, xmm0
	shr	rax
	or	rax, rdx
	cvtsi2sd	xmm0, rax
	addsd	xmm0, xmm0
	jmp	.L94
.L91:
	mov	rax, rdx
	and	edx, 1
	pxor	xmm0, xmm0
	shr	rax
	or	rax, rdx
	cvtsi2sd	xmm0, rax
	addsd	xmm0, xmm0
	jmp	.L92
.L85:
	mov	rax, rdx
	and	edx, 1
	pxor	xmm0, xmm0
	shr	rax
	or	rax, rdx
	cvtsi2sd	xmm0, rax
	addsd	xmm0, xmm0
	jmp	.L86
.L101:
	mov	rsi, rax
	mov	rcx, rbx
	call	_ZNSt16_Sp_counted_baseILN9__gnu_cxx12_Lock_policyE2EE10_M_releaseEv
	mov	rbx, rsi
.L90:
	mov	rcx, rbp
	call	_ZNSt10unique_ptrIiSt14default_deleteIiEED1Ev
	mov	rcx, rbx
.LEHB8:
	call	_Unwind_Resume
.LEHE8:
.L103:
	mov	rcx, rax
	call	__cxa_begin_catch
	mov	edx, 4
	mov	rcx, rsi
	call	_ZdlPvy
.LEHB9:
	call	__cxa_rethrow
.LEHE9:
.L100:
	lea	rbp, 40[rsp]
	mov	rbx, rax
	jmp	.L90
.L102:
	lea	rbp, 40[rsp]
	mov	rbx, rax
	call	__cxa_end_catch
	jmp	.L90
	.seh_handler	__gxx_personality_seh0, @unwind, @except
	.seh_handlerdata
	.align 4
.LLSDA6050:
	.byte	0xff
	.byte	0x9b
	.uleb128 .LLSDATT6050-.LLSDATTD6050
.LLSDATTD6050:
	.byte	0x1
	.uleb128 .LLSDACSE6050-.LLSDACSB6050
.LLSDACSB6050:
	.uleb128 .LEHB4-.LFB6050
	.uleb128 .LEHE4-.LEHB4
	.uleb128 0
	.uleb128 0
	.uleb128 .LEHB5-.LFB6050
	.uleb128 .LEHE5-.LEHB5
	.uleb128 .L100-.LFB6050
	.uleb128 0
	.uleb128 .LEHB6-.LFB6050
	.uleb128 .LEHE6-.LEHB6
	.uleb128 .L103-.LFB6050
	.uleb128 0x1
	.uleb128 .LEHB7-.LFB6050
	.uleb128 .LEHE7-.LEHB7
	.uleb128 .L101-.LFB6050
	.uleb128 0
	.uleb128 .LEHB8-.LFB6050
	.uleb128 .LEHE8-.LEHB8
	.uleb128 0
	.uleb128 0
	.uleb128 .LEHB9-.LFB6050
	.uleb128 .LEHE9-.LEHB9
	.uleb128 .L102-.LFB6050
	.uleb128 0
.LLSDACSE6050:
	.byte	0x1
	.byte	0
	.align 4
	.long	0

.LLSDATT6050:
	.section	.text.startup,"x"
	.seh_endproc
	.globl	_ZTSSt11_Mutex_baseILN9__gnu_cxx12_Lock_policyE2EE
	.section	.rdata$_ZTSSt11_Mutex_baseILN9__gnu_cxx12_Lock_policyE2EE,"dr"
	.linkonce same_size
	.align 32
_ZTSSt11_Mutex_baseILN9__gnu_cxx12_Lock_policyE2EE:
	.ascii "St11_Mutex_baseILN9__gnu_cxx12_Lock_policyE2EE\0"
	.globl	_ZTISt11_Mutex_baseILN9__gnu_cxx12_Lock_policyE2EE
	.section	.rdata$_ZTISt11_Mutex_baseILN9__gnu_cxx12_Lock_policyE2EE,"dr"
	.linkonce same_size
	.align 8
_ZTISt11_Mutex_baseILN9__gnu_cxx12_Lock_policyE2EE:
	.quad	_ZTVN10__cxxabiv117__class_type_infoE+16
	.quad	_ZTSSt11_Mutex_baseILN9__gnu_cxx12_Lock_policyE2EE
	.globl	_ZTSSt19_Sp_make_shared_tag
	.section	.rdata$_ZTSSt19_Sp_make_shared_tag,"dr"
	.linkonce same_size
	.align 16
_ZTSSt19_Sp_make_shared_tag:
	.ascii "St19_Sp_make_shared_tag\0"
	.globl	_ZTISt19_Sp_make_shared_tag
	.section	.rdata$_ZTISt19_Sp_make_shared_tag,"dr"
	.linkonce same_size
	.align 8
_ZTISt19_Sp_make_shared_tag:
	.quad	_ZTVN10__cxxabiv117__class_type_infoE+16
	.quad	_ZTSSt19_Sp_make_shared_tag
	.globl	_ZTSSt16_Sp_counted_baseILN9__gnu_cxx12_Lock_policyE2EE
	.section	.rdata$_ZTSSt16_Sp_counted_baseILN9__gnu_cxx12_Lock_policyE2EE,"dr"
	.linkonce same_size
	.align 32
_ZTSSt16_Sp_counted_baseILN9__gnu_cxx12_Lock_policyE2EE:
	.ascii "St16_Sp_counted_baseILN9__gnu_cxx12_Lock_policyE2EE\0"
	.globl	_ZTISt16_Sp_counted_baseILN9__gnu_cxx12_Lock_policyE2EE
	.section	.rdata$_ZTISt16_Sp_counted_baseILN9__gnu_cxx12_Lock_policyE2EE,"dr"
	.linkonce same_size
	.align 8
_ZTISt16_Sp_counted_baseILN9__gnu_cxx12_Lock_policyE2EE:
	.quad	_ZTVN10__cxxabiv120__si_class_type_infoE+16
	.quad	_ZTSSt16_Sp_counted_baseILN9__gnu_cxx12_Lock_policyE2EE
	.quad	_ZTISt11_Mutex_baseILN9__gnu_cxx12_Lock_policyE2EE
	.globl	_ZTSSt23_Sp_counted_ptr_inplaceIiSaIvELN9__gnu_cxx12_Lock_policyE2EE
	.section	.rdata$_ZTSSt23_Sp_counted_ptr_inplaceIiSaIvELN9__gnu_cxx12_Lock_policyE2EE,"dr"
	.linkonce same_size
	.align 32
_ZTSSt23_Sp_counted_ptr_inplaceIiSaIvELN9__gnu_cxx12_Lock_policyE2EE:
	.ascii "St23_Sp_counted_ptr_inplaceIiSaIvELN9__gnu_cxx12_Lock_policyE2EE\0"
	.globl	_ZTISt23_Sp_counted_ptr_inplaceIiSaIvELN9__gnu_cxx12_Lock_policyE2EE
	.section	.rdata$_ZTISt23_Sp_counted_ptr_inplaceIiSaIvELN9__gnu_cxx12_Lock_policyE2EE,"dr"
	.linkonce same_size
	.align 8
_ZTISt23_Sp_counted_ptr_inplaceIiSaIvELN9__gnu_cxx12_Lock_policyE2EE:
	.quad	_ZTVN10__cxxabiv120__si_class_type_infoE+16
	.quad	_ZTSSt23_Sp_counted_ptr_inplaceIiSaIvELN9__gnu_cxx12_Lock_policyE2EE
	.quad	_ZTISt16_Sp_counted_baseILN9__gnu_cxx12_Lock_policyE2EE
	.globl	_ZTSSt15_Sp_counted_ptrIPiLN9__gnu_cxx12_Lock_policyE2EE
	.section	.rdata$_ZTSSt15_Sp_counted_ptrIPiLN9__gnu_cxx12_Lock_policyE2EE,"dr"
	.linkonce same_size
	.align 32
_ZTSSt15_Sp_counted_ptrIPiLN9__gnu_cxx12_Lock_policyE2EE:
	.ascii "St15_Sp_counted_ptrIPiLN9__gnu_cxx12_Lock_policyE2EE\0"
	.globl	_ZTISt15_Sp_counted_ptrIPiLN9__gnu_cxx12_Lock_policyE2EE
	.section	.rdata$_ZTISt15_Sp_counted_ptrIPiLN9__gnu_cxx12_Lock_policyE2EE,"dr"
	.linkonce same_size
	.align 8
_ZTISt15_Sp_counted_ptrIPiLN9__gnu_cxx12_Lock_policyE2EE:
	.quad	_ZTVN10__cxxabiv120__si_class_type_infoE+16
	.quad	_ZTSSt15_Sp_counted_ptrIPiLN9__gnu_cxx12_Lock_policyE2EE
	.quad	_ZTISt16_Sp_counted_baseILN9__gnu_cxx12_Lock_policyE2EE
	.globl	_ZTVSt23_Sp_counted_ptr_inplaceIiSaIvELN9__gnu_cxx12_Lock_policyE2EE
	.section	.rdata$_ZTVSt23_Sp_counted_ptr_inplaceIiSaIvELN9__gnu_cxx12_Lock_policyE2EE,"dr"
	.linkonce same_size
	.align 8
_ZTVSt23_Sp_counted_ptr_inplaceIiSaIvELN9__gnu_cxx12_Lock_policyE2EE:
	.quad	0
	.quad	_ZTISt23_Sp_counted_ptr_inplaceIiSaIvELN9__gnu_cxx12_Lock_policyE2EE
	.quad	_ZNSt23_Sp_counted_ptr_inplaceIiSaIvELN9__gnu_cxx12_Lock_policyE2EED1Ev
	.quad	_ZNSt23_Sp_counted_ptr_inplaceIiSaIvELN9__gnu_cxx12_Lock_policyE2EED0Ev
	.quad	_ZNSt23_Sp_counted_ptr_inplaceIiSaIvELN9__gnu_cxx12_Lock_policyE2EE10_M_disposeEv
	.quad	_ZNSt23_Sp_counted_ptr_inplaceIiSaIvELN9__gnu_cxx12_Lock_policyE2EE10_M_destroyEv
	.quad	_ZNSt23_Sp_counted_ptr_inplaceIiSaIvELN9__gnu_cxx12_Lock_policyE2EE14_M_get_deleterERKSt9type_info
	.globl	_ZTVSt15_Sp_counted_ptrIPiLN9__gnu_cxx12_Lock_policyE2EE
	.section	.rdata$_ZTVSt15_Sp_counted_ptrIPiLN9__gnu_cxx12_Lock_policyE2EE,"dr"
	.linkonce same_size
	.align 8
_ZTVSt15_Sp_counted_ptrIPiLN9__gnu_cxx12_Lock_policyE2EE:
	.quad	0
	.quad	_ZTISt15_Sp_counted_ptrIPiLN9__gnu_cxx12_Lock_policyE2EE
	.quad	_ZNSt15_Sp_counted_ptrIPiLN9__gnu_cxx12_Lock_policyE2EED1Ev
	.quad	_ZNSt15_Sp_counted_ptrIPiLN9__gnu_cxx12_Lock_policyE2EED0Ev
	.quad	_ZNSt15_Sp_counted_ptrIPiLN9__gnu_cxx12_Lock_policyE2EE10_M_disposeEv
	.quad	_ZNSt15_Sp_counted_ptrIPiLN9__gnu_cxx12_Lock_policyE2EE10_M_destroyEv
	.quad	_ZNSt15_Sp_counted_ptrIPiLN9__gnu_cxx12_Lock_policyE2EE14_M_get_deleterERKSt9type_info
.lcomm _ZL6g_sink,8,8
	.globl	_ZZNSt19_Sp_make_shared_tag5_S_tiEvE5__tag
	.section	.rdata$_ZZNSt19_Sp_make_shared_tag5_S_tiEvE5__tag,"dr"
	.linkonce same_size
	.align 8
_ZZNSt19_Sp_make_shared_tag5_S_tiEvE5__tag:
	.space 16
	.section .rdata,"dr"
	.align 8
.LC0:
	.long	1
	.long	1
	.align 8
.LC1:
	.long	0
	.long	1104006501
	.align 8
.LC2:
	.long	0
	.long	1072693248
	.align 8
.LC4:
	.long	0
	.long	1093567616
	.ident	"GCC: (x86_64-posix-seh-rev1, Built by MinGW-Builds project) 13.1.0"
	.def	_ZdlPvy;	.scl	2;	.type	32;	.endef
	.def	_ZNKSt9type_info7__equalERKS_;	.scl	2;	.type	32;	.endef
	.def	__mingw_vfprintf;	.scl	2;	.type	32;	.endef
	.def	_Znwy;	.scl	2;	.type	32;	.endef
	.def	__cxa_begin_catch;	.scl	2;	.type	32;	.endef
	.def	__cxa_rethrow;	.scl	2;	.type	32;	.endef
	.def	__cxa_end_catch;	.scl	2;	.type	32;	.endef
	.def	_Unwind_Resume;	.scl	2;	.type	32;	.endef
	.def	_ZNSt6chrono3_V212steady_clock3nowEv;	.scl	2;	.type	32;	.endef
